

Microchip Technology PIC18 LITE Macro Assembler V1.42 build -159332390 
                                                                                               Wed Oct 04 22:56:34 2017

Microchip Technology Omniscient Code Generator v1.42 (Free mode) build 201704130522
     1                           	processor	18F45K80
     2                           	fnconf	rparam,??,?,0
     3                           	opt	pw 120
     4                           	opt	lm
     5                           	psect	nvCOMRAM,global,class=COMRAM,space=1,delta=1,noexec
     6                           	psect	smallconst,global,reloc=2,class=SMALLCONST,delta=1,noexec
     7                           	psect	cinit,global,reloc=2,class=CODE,delta=1
     8                           	psect	bssCOMRAM,global,class=COMRAM,space=1,delta=1,noexec
     9                           	psect	cstackCOMRAM,global,class=COMRAM,space=1,delta=1,noexec
    10                           	psect	text0,global,reloc=2,class=CODE,delta=1
    11                           	psect	text1,global,reloc=2,class=CODE,delta=1
    12                           	psect	text2,global,reloc=2,class=CODE,delta=1
    13                           	psect	text3,global,reloc=2,class=CODE,delta=1
    14                           	psect	text4,global,reloc=2,class=CODE,delta=1
    15                           	psect	text5,global,reloc=2,class=CODE,delta=1
    16                           	psect	text6,global,reloc=2,class=CODE,delta=1
    17                           	psect	text7,global,reloc=2,class=CODE,delta=1,group=1
    18                           	psect	text8,global,reloc=2,class=CODE,delta=1,group=1
    19                           	psect	text9,global,reloc=2,class=CODE,delta=1
    20                           	psect	text10,global,reloc=2,class=CODE,delta=1
    21                           	psect	text11,global,reloc=2,class=CODE,delta=1,group=1
    22                           	psect	text12,global,reloc=2,class=CODE,delta=1
    23                           	psect	text13,global,reloc=2,class=CODE,delta=1
    24                           	psect	text14,global,reloc=2,class=CODE,delta=1
    25                           	psect	text15,global,reloc=2,class=CODE,delta=1
    26                           	psect	text16,global,reloc=2,class=CODE,delta=1
    27                           	psect	text17,global,reloc=2,class=CODE,delta=1
    28                           	psect	text18,global,reloc=2,class=CODE,delta=1
    29                           	psect	text19,global,reloc=2,class=CODE,delta=1
    30                           	psect	text20,global,reloc=2,class=CODE,delta=1,group=1
    31                           	psect	text21,global,reloc=2,class=CODE,delta=1
    32                           	psect	text22,global,reloc=2,class=CODE,delta=1
    33                           	psect	text23,global,reloc=2,class=CODE,delta=1
    34                           	psect	text24,global,reloc=2,class=CODE,delta=1
    35                           	psect	text25,global,reloc=2,class=CODE,delta=1
    36                           	psect	text26,global,reloc=2,class=CODE,delta=1
    37                           	psect	text27,global,reloc=2,class=CODE,delta=1
    38                           	psect	text28,global,reloc=2,class=CODE,delta=1
    39                           	psect	text29,global,reloc=2,class=CODE,delta=1,inline
    40                           	psect	text30,global,reloc=2,class=CODE,delta=1
    41                           	psect	text31,global,reloc=2,class=CODE,delta=1
    42                           	psect	text32,global,reloc=2,class=CODE,delta=1
    43                           	psect	text33,global,reloc=2,class=CODE,delta=1
    44                           	psect	text34,global,reloc=2,class=CODE,delta=1
    45                           	psect	text35,global,reloc=2,class=CODE,delta=1
    46                           	psect	text36,global,reloc=2,class=CODE,delta=1
    47                           	psect	text37,global,reloc=2,class=CODE,delta=1
    48                           	psect	intcode,global,reloc=2,class=CODE,delta=1
    49                           	psect	text39,global,reloc=2,class=CODE,delta=1
    50                           	psect	text40,global,reloc=2,class=CODE,delta=1
    51                           	psect	text41,global,reloc=2,class=CODE,delta=1
    52                           	psect	intsave_regs,global,class=BIGRAM,space=1,delta=1,noexec
    53                           	psect	text42,global,reloc=2,class=CODE,delta=1
    54                           	psect	rparam,global,class=COMRAM,space=1,delta=1,noexec
    55                           	psect	temp,global,ovrld,common,class=COMRAM,space=1,delta=1
    56  0000                     
    57                           ; Version 1.42
    58                           ; Generated 13/04/2017 GMT
    59                           ; 
    60                           ; Copyright © 2017, Microchip Technology Inc. and its subsidiaries ("Microchip")
    61                           ; All rights reserved.
    62                           ; 
    63                           ; This software is developed by Microchip Technology Inc. and its subsidiaries ("Microch
      +                          ip").
    64                           ; 
    65                           ; Redistribution and use in source and binary forms, with or without modification, are
    66                           ; permitted provided that the following conditions are met:
    67                           ; 
    68                           ;     1. Redistributions of source code must retain the above copyright notice, this lis
      +                          t of
    69                           ;        conditions and the following disclaimer.
    70                           ; 
    71                           ;     2. Redistributions in binary form must reproduce the above copyright notice, this 
      +                          list
    72                           ;        of conditions and the following disclaimer in the documentation and/or other
    73                           ;        materials provided with the distribution.
    74                           ; 
    75                           ;     3. Microchip's name may not be used to endorse or promote products derived from th
      +                          is
    76                           ;        software without specific prior written permission.
    77                           ; 
    78                           ; THIS SOFTWARE IS PROVIDED BY MICROCHIP "AS IS" AND ANY EXPRESS OR IMPLIED WARRANTIES,
    79                           ; INCLUDING, BUT NOT LIMITED TO, THE IMPLIED WARRANTIES OF MERCHANTABILITY AND FITNESS F
      +                          OR
    80                           ; PURPOSE ARE DISCLAIMED.  IN NO EVENT SHALL MICROCHIP BE LIABLE FOR ANY DIRECT, INDIREC
      +                          T,
    81                           ; INCIDENTAL, SPECIAL, EXEMPLARY, OR CONSEQUENTIAL DAMAGES (INCLUDING BUT NOT LIMITED TO
    82                           ; PROCUREMENT OF SUBSTITUTE GOODS OR SERVICES; LOSS OF USE, DATA OR PROFITS; OR BUSINESS
    83                           ; INTERRUPTION) HOWSOEVER CAUSED AND ON ANY THEORY OF LIABILITY, WHETHER IN CONTRACT, ST
      +                          RICT
    84                           ; LIABILITY, OR TORT (INCLUDING NEGLIGENCE OR OTHERWISE) ARISING IN ANY WAY OUT OF THE U
      +                          SE OF
    85                           ; THIS SOFTWARE, EVEN IF ADVISED OF THE POSSIBILITY OF SUCH DAMAGE.
    86                           ; 
    87                           ; 
    88                           ; Code-generator required, PIC18F45K80 Definitions
    89                           ; 
    90                           ; SFR Addresses
    91  0000                     
    92                           	psect	nvCOMRAM
    93  00003B                     __pnvCOMRAM:
    94                           	opt stack 0
    95  00003B                     _IOCB4_InterruptHandler:
    96                           	opt stack 0
    97  00003B                     	ds	2
    98  0000                     _BRGCON3	set	3653
    99  0000                     _BRGCON2	set	3652
   100  0000                     _BRGCON1	set	3651
   101  0000                     _RXF5SIDL	set	3829
   102  0000                     _RXF5SIDH	set	3828
   103  0000                     _RXF5EIDL	set	3831
   104  0000                     _RXF5EIDH	set	3830
   105  0000                     _RXF4SIDL	set	3825
   106  0000                     _RXF4SIDH	set	3824
   107  0000                     _RXF4EIDL	set	3827
   108  0000                     _RXF4EIDH	set	3826
   109  0000                     _RXF3SIDL	set	3821
   110  0000                     _RXF3SIDH	set	3820
   111  0000                     _RXF3EIDL	set	3823
   112  0000                     _RXF3EIDH	set	3822
   113  0000                     _RXF2SIDL	set	3817
   114  0000                     _RXF2SIDH	set	3816
   115  0000                     _RXF2EIDL	set	3819
   116  0000                     _RXF2EIDH	set	3818
   117  0000                     _RXF1SIDL	set	3813
   118  0000                     _RXF1SIDH	set	3812
   119  0000                     _RXF1EIDL	set	3815
   120  0000                     _RXF1EIDH	set	3814
   121  0000                     _RXF0SIDL	set	3809
   122  0000                     _RXF0SIDH	set	3808
   123  0000                     _RXF0EIDL	set	3811
   124  0000                     _RXF0EIDH	set	3810
   125  0000                     _RXM1SIDL	set	3837
   126  0000                     _RXM1SIDH	set	3836
   127  0000                     _RXM1EIDL	set	3839
   128  0000                     _RXM1EIDH	set	3838
   129  0000                     _RXM0SIDL	set	3833
   130  0000                     _RXM0SIDH	set	3832
   131  0000                     _RXM0EIDL	set	3835
   132  0000                     _RXM0EIDH	set	3834
   133  0000                     _IOCBbits	set	3930
   134  0000                     _WPUB	set	3931
   135  0000                     _ANCON1	set	3932
   136  0000                     _ANCON0	set	3933
   137  0000                     _RXB1D7	set	3901
   138  0000                     _RXB1D6	set	3900
   139  0000                     _RXB1D5	set	3899
   140  0000                     _RXB1D4	set	3898
   141  0000                     _RXB1D3	set	3897
   142  0000                     _RXB1D2	set	3896
   143  0000                     _RXB1D1	set	3895
   144  0000                     _RXB1D0	set	3894
   145  0000                     _RXB1DLC	set	3893
   146  0000                     _RXB1SIDH	set	3889
   147  0000                     _RXB1EIDL	set	3892
   148  0000                     _RXB1EIDH	set	3891
   149  0000                     _RXB1SIDL	set	3890
   150  0000                     _RXB1CONbits	set	3888
   151  0000                     _TXB2D7	set	3853
   152  0000                     _TXB2D6	set	3852
   153  0000                     _TXB2D5	set	3851
   154  0000                     _TXB2D4	set	3850
   155  0000                     _TXB2D3	set	3849
   156  0000                     _TXB2D2	set	3848
   157  0000                     _TXB2D1	set	3847
   158  0000                     _TXB2D0	set	3846
   159  0000                     _TXB2DLC	set	3845
   160  0000                     _TXB2SIDL	set	3842
   161  0000                     _TXB2SIDH	set	3841
   162  0000                     _TXB2EIDL	set	3844
   163  0000                     _TXB2EIDH	set	3843
   164  0000                     _TXB2CONbits	set	3840
   165  0000                     _TXB1D7	set	3869
   166  0000                     _TXB1D6	set	3868
   167  0000                     _TXB1D5	set	3867
   168  0000                     _TXB1D4	set	3866
   169  0000                     _TXB1D3	set	3865
   170  0000                     _TXB1D2	set	3864
   171  0000                     _TXB1D1	set	3863
   172  0000                     _TXB1D0	set	3862
   173  0000                     _TXB1DLC	set	3861
   174  0000                     _TXB1SIDL	set	3858
   175  0000                     _TXB1SIDH	set	3857
   176  0000                     _TXB1EIDL	set	3860
   177  0000                     _TXB1EIDH	set	3859
   178  0000                     _TXB1CONbits	set	3856
   179  0000                     _TXB0D7	set	3885
   180  0000                     _TXB0D6	set	3884
   181  0000                     _TXB0D5	set	3883
   182  0000                     _TXB0D4	set	3882
   183  0000                     _TXB0D3	set	3881
   184  0000                     _TXB0D2	set	3880
   185  0000                     _TXB0D1	set	3879
   186  0000                     _TXB0D0	set	3878
   187  0000                     _TXB0DLC	set	3877
   188  0000                     _TXB0SIDL	set	3874
   189  0000                     _TXB0SIDH	set	3873
   190  0000                     _TXB0EIDL	set	3876
   191  0000                     _TXB0EIDH	set	3875
   192  0000                     _TXB0CONbits	set	3872
   193  0000                     _LATCbits	set	3979
   194  0000                     _LATDbits	set	3980
   195  0000                     _LATAbits	set	3977
   196  0000                     _CIOCONbits	set	3952
   197  0000                     _RCONbits	set	4048
   198  0000                     _TXREG2	set	3961
   199  0000                     _RCREG2	set	3962
   200  0000                     _RCSTA2bits	set	4006
   201  0000                     _PIR3bits	set	4004
   202  0000                     _SPBRGH2	set	3964
   203  0000                     _SPBRG2	set	3963
   204  0000                     _TXSTA2	set	4026
   205  0000                     _RCSTA2	set	4006
   206  0000                     _BAUDCON2	set	4025
   207  0000                     _TXREG1	set	4013
   208  0000                     _RCREG1	set	4014
   209  0000                     _RCSTA1bits	set	4011
   210  0000                     _PIR1bits	set	3998
   211  0000                     _SPBRGH1	set	3965
   212  0000                     _SPBRG1	set	4015
   213  0000                     _TXSTA1	set	4012
   214  0000                     _RCSTA1	set	4011
   215  0000                     _BAUDCON1	set	4007
   216  0000                     _SSPSTATbits	set	4039
   217  0000                     _SSPBUF	set	4041
   218  0000                     _SSPCON1bits	set	4038
   219  0000                     _SSPADD	set	4040
   220  0000                     _SSPCON1	set	4038
   221  0000                     _SSPSTAT	set	4039
   222  0000                     _INTCONbits	set	4082
   223  0000                     _TRISD	set	3989
   224  0000                     _TRISC	set	3988
   225  0000                     _TRISB	set	3987
   226  0000                     _TRISA	set	3986
   227  0000                     _TRISE	set	3990
   228  0000                     _LATC	set	3979
   229  0000                     _LATB	set	3978
   230  0000                     _LATA	set	3977
   231  0000                     _LATD	set	3980
   232  0000                     _LATE	set	3981
   233  0000                     _COMSTATbits	set	3953
   234  0000                     _RXB0D7	set	3949
   235  0000                     _RXB0D6	set	3948
   236  0000                     _RXB0D5	set	3947
   237  0000                     _RXB0D4	set	3946
   238  0000                     _RXB0D3	set	3945
   239  0000                     _RXB0D2	set	3944
   240  0000                     _RXB0D1	set	3943
   241  0000                     _RXB0D0	set	3942
   242  0000                     _RXB0DLC	set	3941
   243  0000                     _RXB0SIDH	set	3937
   244  0000                     _RXB0EIDL	set	3940
   245  0000                     _RXB0EIDH	set	3939
   246  0000                     _RXB0SIDL	set	3938
   247  0000                     _RXB0CONbits	set	3936
   248  0000                     _PIE5bits	set	3958
   249  0000                     _PIR5bits	set	3959
   250  0000                     _ECANCON	set	3954
   251  0000                     _CANSTAT	set	3950
   252  0000                     _CANCON	set	3951
   253  0000                     _REFOCON	set	3994
   254  0000                     _OSCTUNE	set	3995
   255  0000                     _OSCCON2	set	4050
   256  0000                     _OSCCON	set	4051
   257                           
   258                           	psect	smallconst
   259  000F00                     __psmallconst:
   260                           	opt stack 0
   261  000F00  00                 	db	0
   262  000F01                     STR_16:
   263  000F01  47                 	db	71	;'G'
   264  000F02  61                 	db	97	;'a'
   265  000F03  73                 	db	115	;'s'
   266  000F04  20                 	db	32
   267  000F05  50                 	db	80	;'P'
   268  000F06  72                 	db	114	;'r'
   269  000F07  65                 	db	101	;'e'
   270  000F08  73                 	db	115	;'s'
   271  000F09  73                 	db	115	;'s'
   272  000F0A  20                 	db	32
   273  000F0B  4C                 	db	76	;'L'
   274  000F0C  6F                 	db	111	;'o'
   275  000F0D  77                 	db	119	;'w'
   276  000F0E  20                 	db	32
   277  000F0F  00                 	db	0
   278  000F10                     STR_12:
   279  000F10  53                 	db	83	;'S'
   280  000F11  50                 	db	80	;'P'
   281  000F12  45                 	db	69	;'E'
   282  000F13  45                 	db	69	;'E'
   283  000F14  44                 	db	68	;'D'
   284  000F15  00                 	db	0
   285  000F16                     STR_2:
   286  000F16  57                 	db	87	;'W'
   287  000F17  41                 	db	65	;'A'
   288  000F18  54                 	db	84	;'T'
   289  000F19  45                 	db	69	;'E'
   290  000F1A  52                 	db	82	;'R'
   291  000F1B  00                 	db	0
   292  000F1C                     STR_11:
   293  000F1C  50                 	db	80	;'P'
   294  000F1D  52                 	db	82	;'R'
   295  000F1E  45                 	db	69	;'E'
   296  000F1F  53                 	db	83	;'S'
   297  000F20  53                 	db	83	;'S'
   298  000F21  00                 	db	0
   299  000F22                     STR_9:
   300  000F22  56                 	db	86	;'V'
   301  000F23  4F                 	db	79	;'O'
   302  000F24  4C                 	db	76	;'L'
   303  000F25  54                 	db	84	;'T'
   304  000F26  53                 	db	83	;'S'
   305  000F27  00                 	db	0
   306  000F28                     STR_1:
   307  000F28  68                 	db	104	;'h'
   308  000F29  65                 	db	101	;'e'
   309  000F2A  6C                 	db	108	;'l'
   310  000F2B  6C                 	db	108	;'l'
   311  000F2C  6F                 	db	111	;'o'
   312  000F2D  00                 	db	0
   313  000F2E                     STR_7:
   314  000F2E  55                 	db	85	;'U'
   315  000F2F  53                 	db	83	;'S'
   316  000F30  45                 	db	69	;'E'
   317  000F31  44                 	db	68	;'D'
   318  000F32  00                 	db	0
   319  000F33                     STR_6:
   320  000F33  46                 	db	70	;'F'
   321  000F34  55                 	db	85	;'U'
   322  000F35  45                 	db	69	;'E'
   323  000F36  4C                 	db	76	;'L'
   324  000F37  00                 	db	0
   325  000F38                     STR_3:
   326  000F38  54                 	db	84	;'T'
   327  000F39  45                 	db	69	;'E'
   328  000F3A  4D                 	db	77	;'M'
   329  000F3B  50                 	db	80	;'P'
   330  000F3C  00                 	db	0
   331  000F3D                     STR_17:
   332  000F3D  4C                 	db	76	;'L'
   333  000F3E  41                 	db	65	;'A'
   334  000F3F  53                 	db	83	;'S'
   335  000F40  54                 	db	84	;'T'
   336  000F41  00                 	db	0
   337  000F42                     STR_18:
   338  000F42  42                 	db	66	;'B'
   339  000F43  45                 	db	69	;'E'
   340  000F44  53                 	db	83	;'S'
   341  000F45  54                 	db	84	;'T'
   342  000F46  00                 	db	0
   343  000F47                     STR_8:
   344  000F47  42                 	db	66	;'B'
   345  000F48  41                 	db	65	;'A'
   346  000F49  54                 	db	84	;'T'
   347  000F4A  54                 	db	84	;'T'
   348  000F4B  00                 	db	0
   349  000F4C                     STR_13:
   350  000F4C  4B                 	db	75	;'K'
   351  000F4D  50                 	db	80	;'P'
   352  000F4E  48                 	db	72	;'H'
   353  000F4F  00                 	db	0
   354  000F50                     STR_4:
   355  000F50  4F                 	db	79	;'O'
   356  000F51  49                 	db	73	;'I'
   357  000F52  4C                 	db	76	;'L'
   358  000F53  00                 	db	0
   359  000F54                     STR_41:
   360  000F54  52                 	db	82	;'R'
   361  000F55  50                 	db	80	;'P'
   362  000F56  4D                 	db	77	;'M'
   363  000F57  00                 	db	0
   364  000F58                     STR_19:
   365  000F58  4C                 	db	76	;'L'
   366  000F59  41                 	db	65	;'A'
   367  000F5A  50                 	db	80	;'P'
   368  000F5B  00                 	db	0
   369  000F5C                     STR_36:
   370  000F5C  31                 	db	49	;'1'
   371  000F5D  30                 	db	48	;'0'
   372  000F5E  00                 	db	0
   373  000F5F                     STR_37:
   374  000F5F  31                 	db	49	;'1'
   375  000F60  31                 	db	49	;'1'
   376  000F61  00                 	db	0
   377  000F62                     STR_38:
   378  000F62  31                 	db	49	;'1'
   379  000F63  32                 	db	50	;'2'
   380  000F64  00                 	db	0
   381  000F65                     STR_14:
   382  000F65  54                 	db	84	;'T'
   383  000F66  50                 	db	80	;'P'
   384  000F67  00                 	db	0
   385  000F68                     STR_15:
   386  000F68  25                 	db	37
   387  000F69  00                 	db	0
   388  000F6A                     STR_26:
   389  000F6A  2E                 	db	46
   390  000F6B  00                 	db	0
   391  000F6C                     STR_29:
   392  000F6C  33                 	db	51	;'3'
   393  000F6D  00                 	db	0
   394  000F6E                     STR_30:
   395  000F6E  34                 	db	52	;'4'
   396  000F6F  00                 	db	0
   397  000F70                     STR_31:
   398  000F70  35                 	db	53	;'5'
   399  000F71  00                 	db	0
   400  000F72                     STR_32:
   401  000F72  36                 	db	54	;'6'
   402  000F73  00                 	db	0
   403  000F74                     STR_33:
   404  000F74  37                 	db	55	;'7'
   405  000F75  00                 	db	0
   406  000F76                     STR_34:
   407  000F76  38                 	db	56	;'8'
   408  000F77  00                 	db	0
   409  000F78                     STR_35:
   410  000F78  39                 	db	57	;'9'
   411  000F79  00                 	db	0
   412  000F7A                     STR_20:
   413  000F7A  3A                 	db	58	;':'
   414  000F7B  00                 	db	0
   415  000F7C                     STR_40:
   416  000F7C  6B                 	db	107	;'k'
   417  000F7D  00                 	db	0
   418  0000                     
   419                           ; #config settings
   420  000F7E  00                 	db	0	; dummy byte at the end
   421  0000                     
   422                           	psect	cinit
   423  005F86                     __pcinit:
   424                           	opt stack 0
   425  005F86                     start_initialization:
   426                           	opt stack 0
   427  005F86                     __initialization:
   428                           	opt stack 0
   429                           
   430                           ; Clear objects allocated to COMRAM (4 bytes)
   431  005F86  6A3A               	clrf	(__pbssCOMRAM+3)& (0+255),c
   432  005F88  6A39               	clrf	(__pbssCOMRAM+2)& (0+255),c
   433  005F8A  6A38               	clrf	(__pbssCOMRAM+1)& (0+255),c
   434  005F8C  6A37               	clrf	__pbssCOMRAM& (0+255),c
   435  005F8E                     end_of_initialization:
   436                           	opt stack 0
   437  005F8E                     __end_of__initialization:
   438                           	opt stack 0
   439  005F8E  903D               	bcf	int$flags,0,c	;clear compiler interrupt flag (level 1)
   440  005F90  923D               	bcf	int$flags,1,c	;clear compiler interrupt flag (level 2)
   441  005F92  0E00               	movlw	low (__Lmediumconst shr (0+16))
   442  005F94  6EF8               	movwf	tblptru,c
   443  005F96  0100               	movlb	0
   444  005F98  EFBD  F029         	goto	_main	;jump to C main() function
   445                           tblptru	equ	0xFF8
   446                           
   447                           	psect	bssCOMRAM
   448  000037                     __pbssCOMRAM:
   449                           	opt stack 0
   450  000037                     _cmd_offset:
   451                           	opt stack 0
   452  000037                     	ds	2
   453  000039                     _dli:
   454                           	opt stack 0
   455  000039                     	ds	2
   456                           tblptru	equ	0xFF8
   457                           
   458                           	psect	cstackCOMRAM
   459  000001                     __pcstackCOMRAM:
   460                           	opt stack 0
   461  000001                     ??_INTERRUPT_InterruptManager:
   462  000001                     
   463                           ; 1 bytes @ 0x0
   464  000001                     	ds	14
   465  00000F                     ??_ECAN_Initialize:
   466  00000F                     ??_wait2secs:
   467  00000F                     ??_cmd_incrementn:
   468  00000F                     ?_strlen:
   469                           	opt stack 0
   470  00000F                     ?___awdiv:
   471                           	opt stack 0
   472  00000F                     ?___fttol:
   473                           	opt stack 0
   474  00000F                     SPI_Exchange8bit@data:
   475                           	opt stack 0
   476  00000F                     EUSART1_Write@txData:
   477                           	opt stack 0
   478  00000F                     IOCB4_SetInterruptHandler@InterruptHandler:
   479                           	opt stack 0
   480  00000F                     ___awdiv@dividend:
   481                           	opt stack 0
   482  00000F                     strlen@s:
   483                           	opt stack 0
   484  00000F                     ___fttol@f1:
   485                           	opt stack 0
   486                           
   487                           ; 3 bytes @ 0xE
   488  00000F                     	ds	1
   489  000010                     ?_rd16:
   490                           	opt stack 0
   491  000010                     host_command@command:
   492                           	opt stack 0
   493  000010                     wr8@addr:
   494                           	opt stack 0
   495  000010                     wr16@addr:
   496                           	opt stack 0
   497  000010                     wr32@addr:
   498                           	opt stack 0
   499  000010                     rd16@addr:
   500                           	opt stack 0
   501                           
   502                           ; 3 bytes @ 0xF
   503  000010                     	ds	1
   504  000011                     ??_strlen:
   505  000011                     cmd_incrementn@n:
   506                           	opt stack 0
   507  000011                     ___awdiv@divisor:
   508                           	opt stack 0
   509                           
   510                           ; 2 bytes @ 0x10
   511  000011                     	ds	2
   512  000013                     ??_rd16:
   513  000013                     ??___fttol:
   514  000013                     wr8@value:
   515                           	opt stack 0
   516  000013                     ___awdiv@counter:
   517                           	opt stack 0
   518  000013                     wr16@value:
   519                           	opt stack 0
   520  000013                     strlen@cp:
   521                           	opt stack 0
   522  000013                     wr32@value:
   523                           	opt stack 0
   524                           
   525                           ; 4 bytes @ 0x12
   526  000013                     	ds	1
   527  000014                     ??_wr8:
   528  000014                     ___awdiv@sign:
   529                           	opt stack 0
   530                           
   531                           ; 1 bytes @ 0x13
   532  000014                     	ds	1
   533  000015                     ??_wr16:
   534  000015                     ___awdiv@quotient:
   535                           	opt stack 0
   536  000015                     wr8s@addr:
   537                           	opt stack 0
   538                           
   539                           ; 3 bytes @ 0x14
   540  000015                     	ds	1
   541  000016                     rd16@temp:
   542                           	opt stack 0
   543                           
   544                           ; 1 bytes @ 0x15
   545  000016                     	ds	1
   546  000017                     ??_wr32:
   547  000017                     ?___awmod:
   548                           	opt stack 0
   549  000017                     ___awmod@dividend:
   550                           	opt stack 0
   551                           
   552                           ; 2 bytes @ 0x16
   553  000017                     	ds	1
   554  000018                     ___fttol@sign1:
   555                           	opt stack 0
   556  000018                     wr8s@s:
   557                           	opt stack 0
   558                           
   559                           ; 2 bytes @ 0x17
   560  000018                     	ds	1
   561  000019                     ___awmod@divisor:
   562                           	opt stack 0
   563  000019                     ___fttol@lval:
   564                           	opt stack 0
   565                           
   566                           ; 4 bytes @ 0x18
   567  000019                     	ds	1
   568  00001A                     ??_wr8s:
   569                           
   570                           ; 1 bytes @ 0x19
   571  00001A                     	ds	1
   572  00001B                     ??_FT800_Init:
   573  00001B                     ___awmod@counter:
   574                           	opt stack 0
   575                           
   576                           ; 1 bytes @ 0x1A
   577  00001B                     	ds	1
   578  00001C                     ___awmod@sign:
   579                           	opt stack 0
   580                           
   581                           ; 1 bytes @ 0x1B
   582  00001C                     	ds	1
   583  00001D                     wr8s@l:
   584                           	opt stack 0
   585  00001D                     ___fttol@exp1:
   586                           	opt stack 0
   587                           
   588                           ; 1 bytes @ 0x1C
   589  00001D                     	ds	1
   590  00001E                     wr8s@i:
   591                           	opt stack 0
   592  00001E                     cmd@command:
   593                           	opt stack 0
   594                           
   595                           ; 4 bytes @ 0x1D
   596  00001E                     	ds	4
   597  000022                     ??_cmd:
   598                           
   599                           ; 1 bytes @ 0x21
   600  000022                     	ds	3
   601  000025                     ??_display_labels:
   602  000025                     display_message@message:
   603                           	opt stack 0
   604  000025                     display_waterTemp@temp:
   605                           	opt stack 0
   606  000025                     display_oilTemp@temp:
   607                           	opt stack 0
   608  000025                     display_fuel@level:
   609                           	opt stack 0
   610  000025                     display_tp@tp:
   611                           	opt stack 0
   612  000025                     display_speed@speed:
   613                           	opt stack 0
   614  000025                     display_rpm@rpm:
   615                           	opt stack 0
   616  000025                     display_gear@gear:
   617                           	opt stack 0
   618  000025                     display_laptime@current:
   619                           	opt stack 0
   620  000025                     display_battery@volts:
   621                           	opt stack 0
   622  000025                     display_oilPress@pressure:
   623                           	opt stack 0
   624                           
   625                           ; 3 bytes @ 0x24
   626  000025                     	ds	2
   627  000027                     ??_display_waterTemp:
   628  000027                     ??_display_oilTemp:
   629  000027                     ??_display_fuel:
   630  000027                     ??_display_gear:
   631  000027                     ??_display_rpm:
   632  000027                     ??_display_speed:
   633  000027                     ??_display_tp:
   634  000027                     ??_display_message:
   635                           
   636                           ; 1 bytes @ 0x26
   637  000027                     	ds	1
   638  000028                     ??_display_battery:
   639  000028                     ??_display_oilPress:
   640  000028                     display_labels@y_start:
   641                           	opt stack 0
   642  000028                     display_laptime@best:
   643                           	opt stack 0
   644                           
   645                           ; 3 bytes @ 0x27
   646  000028                     	ds	2
   647  00002A                     display_rpm@second_digit:
   648                           	opt stack 0
   649                           
   650                           ; 2 bytes @ 0x29
   651  00002A                     	ds	1
   652  00002B                     display_laptime@last:
   653                           	opt stack 0
   654                           
   655                           ; 3 bytes @ 0x2A
   656  00002B                     	ds	1
   657  00002C                     display_rpm@first_digit:
   658                           	opt stack 0
   659                           
   660                           ; 2 bytes @ 0x2B
   661  00002C                     	ds	2
   662  00002E                     display_laptime@lap:
   663                           	opt stack 0
   664                           
   665                           ; 2 bytes @ 0x2D
   666  00002E                     	ds	2
   667  000030                     ??_display_laptime:
   668                           
   669                           ; 1 bytes @ 0x2F
   670  000030                     	ds	3
   671  000033                     ??_main:
   672                           
   673                           ; 1 bytes @ 0x32
   674  000033                     	ds	2
   675  000035                     main@y_start:
   676                           	opt stack 0
   677                           
   678                           ; 2 bytes @ 0x34
   679  000035                     	ds	2
   680                           tblptru	equ	0xFF8
   681                           
   682 ;;
   683 ;;Main: autosize = 0, tempsize = 2, incstack = 0, save=0
   684 ;;
   685 ;; *************** function _main *****************
   686 ;; Defined at:
   687 ;;		line 19 in file "main.c"
   688 ;; Parameters:    Size  Location     Type
   689 ;;		None
   690 ;; Auto vars:     Size  Location     Type
   691 ;;  test           14    0        struct .
   692 ;;  y_start         2   52[COMRAM] int 
   693 ;; Return value:  Size  Location     Type
   694 ;;                  1    wreg      void 
   695 ;; Registers used:
   696 ;;		wreg, status,2, status,0, tblptrl, tblptrh, tblptru, prodl, prodh, cstack
   697 ;; Tracked objects:
   698 ;;		On entry : 0/0
   699 ;;		On exit  : 0/0
   700 ;;		Unchanged: 0/0
   701 ;; Data sizes:     COMRAM   BANK0   BANK1   BANK2   BANK3   BANK4   BANK5   BANK6   BANK7   BANK8   BANK9  BANK10  BANK1
      +1  BANK12  BANK13  BANK14
   702 ;;      Params:         0       0       0       0       0       0       0       0       0       0       0       0       
      +0       0       0       0
   703 ;;      Locals:         2       0       0       0       0       0       0       0       0       0       0       0       
      +0       0       0       0
   704 ;;      Temps:          2       0       0       0       0       0       0       0       0       0       0       0       
      +0       0       0       0
   705 ;;      Totals:         4       0       0       0       0       0       0       0       0       0       0       0       
      +0       0       0       0
   706 ;;Total ram usage:        4 bytes
   707 ;; Hardware stack levels required when called:    8
   708 ;; This function calls:
   709 ;;		_EUSART1_Initialize
   710 ;;		_EUSART1_Write
   711 ;;		_FT800_Init
   712 ;;		_SYSTEM_Initialize
   713 ;;		_display_battery
   714 ;;		_display_end
   715 ;;		_display_fuel
   716 ;;		_display_gear
   717 ;;		_display_labels
   718 ;;		_display_laptime
   719 ;;		_display_message
   720 ;;		_display_oilPress
   721 ;;		_display_oilTemp
   722 ;;		_display_rpm
   723 ;;		_display_speed
   724 ;;		_display_start
   725 ;;		_display_tp
   726 ;;		_display_waterTemp
   727 ;;		_wait2secs
   728 ;; This function is called by:
   729 ;;		Startup code after reset
   730 ;; This function uses a non-reentrant model
   731 ;;
   732                           
   733                           	psect	text0
   734  00537A                     __ptext0:
   735                           	opt stack 0
   736  00537A                     _main:
   737                           	opt stack 23
   738                           
   739                           ;main.c: 21: int y_start = 0;
   740                           
   741                           ;incstack = 0
   742  00537A  0E00               	movlw	0
   743  00537C  6E36               	movwf	main@y_start+1,c
   744  00537E  0E00               	movlw	0
   745  005380  6E35               	movwf	main@y_start,c
   746                           
   747                           ;main.c: 22: uCAN_MSG test;
   748                           ;main.c: 24: SYSTEM_Initialize();
   749  005382  ECD9  F02F         	call	_SYSTEM_Initialize	;wreg free
   750                           
   751                           ;main.c: 27: CIOCONbits.CLKSEL = 1;
   752  005386  8070               	bsf	3952,0,c	;volatile
   753                           
   754                           ;main.c: 28: CIOCONbits.ENDRHI = 1;
   755  005388  8A70               	bsf	3952,5,c	;volatile
   756                           
   757                           ;main.c: 29: CIOCONbits.TX2SRC = 0;
   758  00538A  9E70               	bcf	3952,7,c	;volatile
   759                           
   760                           ;main.c: 30: CIOCONbits.TX2EN = 1;
   761  00538C  8C70               	bsf	3952,6,c	;volatile
   762                           
   763                           ;main.c: 31: RXB0CONbits.RXM0 = 1;
   764  00538E  8A60               	bsf	3936,5,c	;volatile
   765                           
   766                           ;main.c: 32: RXB0CONbits.RXM1 = 0;
   767  005390  9C60               	bcf	3936,6,c	;volatile
   768                           
   769                           ;main.c: 33: RXB0CONbits.RB0DBEN = 0;
   770  005392  9460               	bcf	3936,2,c	;volatile
   771                           
   772                           ;main.c: 34: RXB0CONbits.FILHIT0 = 0;
   773  005394  9060               	bcf	3936,0,c	;volatile
   774                           
   775                           ;main.c: 37: SSPSTATbits.SMP = 0;
   776  005396  9EC7               	bcf	4039,7,c	;volatile
   777                           
   778                           ;main.c: 38: SSPSTATbits.CKE = 1;
   779  005398  8CC7               	bsf	4039,6,c	;volatile
   780                           
   781                           ;main.c: 39: SSPCON1bits.SSPEN = 1;
   782  00539A  8AC6               	bsf	4038,5,c	;volatile
   783                           
   784                           ;main.c: 40: SSPCON1bits.CKP = 1;
   785  00539C  88C6               	bsf	4038,4,c	;volatile
   786                           
   787                           ;main.c: 41: SSPCON1bits.SSPM = 0b0000;
   788  00539E  90C6               	bcf	4038,0,c	;volatile
   789  0053A0  92C6               	bcf	4038,1,c	;volatile
   790  0053A2  94C6               	bcf	4038,2,c	;volatile
   791  0053A4  96C6               	bcf	4038,3,c	;volatile
   792                           
   793                           ;main.c: 42: FT800_Init();
   794  0053A6  ECC9  F027         	call	_FT800_Init	;wreg free
   795                           
   796                           ;main.c: 44: EUSART1_Initialize();
   797  0053AA  ECCE  F02F         	call	_EUSART1_Initialize	;wreg free
   798                           
   799                           ;main.c: 46: wait2secs();
   800  0053AE  ECA9  F02F         	call	_wait2secs	;wreg free
   801                           
   802                           ;main.c: 48: display_start();
   803  0053B2  ECF8  F02E         	call	_display_start	;wreg free
   804                           
   805                           ;main.c: 49: display_labels();
   806  0053B6  EC99  F01B         	call	_display_labels	;wreg free
   807                           
   808                           ;main.c: 50: display_waterTemp(95);
   809  0053BA  0E00               	movlw	0
   810  0053BC  6E26               	movwf	display_waterTemp@temp+1,c
   811  0053BE  0E5F               	movlw	95
   812  0053C0  6E25               	movwf	display_waterTemp@temp,c
   813  0053C2  EC55  F02A         	call	_display_waterTemp	;wreg free
   814                           
   815                           ;main.c: 51: display_oilTemp(101);
   816  0053C6  0E00               	movlw	0
   817  0053C8  6E26               	movwf	display_oilTemp@temp+1,c
   818  0053CA  0E65               	movlw	101
   819  0053CC  6E25               	movwf	display_oilTemp@temp,c
   820  0053CE  EC1B  F02D         	call	_display_oilTemp	;wreg free
   821                           
   822                           ;main.c: 52: display_fuel(4.2);
   823  0053D2  0E00               	movlw	0
   824  0053D4  6E26               	movwf	display_fuel@level+1,c
   825  0053D6  0E04               	movlw	4
   826  0053D8  6E25               	movwf	display_fuel@level,c
   827  0053DA  EC0F  F025         	call	_display_fuel	;wreg free
   828                           
   829                           ;main.c: 53: display_battery(13.2);
   830  0053DE  0E33               	movlw	51
   831  0053E0  6E25               	movwf	display_battery@volts,c
   832  0053E2  0E53               	movlw	83
   833  0053E4  6E26               	movwf	display_battery@volts+1,c
   834  0053E6  0E41               	movlw	65
   835  0053E8  6E27               	movwf	display_battery@volts+2,c
   836  0053EA  EC6C  F026         	call	_display_battery	;wreg free
   837                           
   838                           ;main.c: 54: display_oilPress(4);
   839  0053EE  0E00               	movlw	0
   840  0053F0  6E25               	movwf	display_oilPress@pressure,c
   841  0053F2  0E80               	movlw	128
   842  0053F4  6E26               	movwf	display_oilPress@pressure+1,c
   843  0053F6  0E40               	movlw	64
   844  0053F8  6E27               	movwf	display_oilPress@pressure+2,c
   845  0053FA  EC4B  F02B         	call	_display_oilPress	;wreg free
   846                           
   847                           ;main.c: 55: display_gear(2);
   848  0053FE  0E00               	movlw	0
   849  005400  6E26               	movwf	display_gear@gear+1,c
   850  005402  0E02               	movlw	2
   851  005404  6E25               	movwf	display_gear@gear,c
   852  005406  ECDA  F022         	call	_display_gear	;wreg free
   853                           
   854                           ;main.c: 56: display_rpm(9457);
   855  00540A  0E24               	movlw	36
   856  00540C  6E26               	movwf	display_rpm@rpm+1,c
   857  00540E  0EF1               	movlw	241
   858  005410  6E25               	movwf	display_rpm@rpm,c
   859  005412  EC10  F012         	call	_display_rpm	;wreg free
   860                           
   861                           ;main.c: 57: display_speed(102);
   862  005416  0E00               	movlw	0
   863  005418  6E26               	movwf	display_speed@speed+1,c
   864  00541A  0E66               	movlw	102
   865  00541C  6E25               	movwf	display_speed@speed,c
   866  00541E  ECA9  F02C         	call	_display_speed	;wreg free
   867                           
   868                           ;main.c: 58: display_tp(20);
   869  005422  0E00               	movlw	0
   870  005424  6E26               	movwf	display_tp@tp+1,c
   871  005426  0E14               	movlw	20
   872  005428  6E25               	movwf	display_tp@tp,c
   873  00542A  EC37  F02C         	call	_display_tp	;wreg free
   874                           
   875                           ;main.c: 59: display_laptime(0, 0, 0, 0);
   876  00542E  0E00               	movlw	0
   877  005430  6E25               	movwf	display_laptime@current,c
   878  005432  0E00               	movlw	0
   879  005434  6E26               	movwf	display_laptime@current+1,c
   880  005436  0E00               	movlw	0
   881  005438  6E27               	movwf	display_laptime@current+2,c
   882  00543A  0E00               	movlw	0
   883  00543C  6E28               	movwf	display_laptime@best,c
   884  00543E  0E00               	movlw	0
   885  005440  6E29               	movwf	display_laptime@best+1,c
   886  005442  0E00               	movlw	0
   887  005444  6E2A               	movwf	display_laptime@best+2,c
   888  005446  0E00               	movlw	0
   889  005448  6E2B               	movwf	display_laptime@last,c
   890  00544A  0E00               	movlw	0
   891  00544C  6E2C               	movwf	display_laptime@last+1,c
   892  00544E  0E00               	movlw	0
   893  005450  6E2D               	movwf	display_laptime@last+2,c
   894  005452  0E00               	movlw	0
   895  005454  6E2F               	movwf	display_laptime@lap+1,c
   896  005456  0E00               	movlw	0
   897  005458  6E2E               	movwf	display_laptime@lap,c
   898  00545A  ECC0  F007         	call	_display_laptime	;wreg free
   899                           
   900                           ;main.c: 60: display_message("hello");
   901  00545E  0E28               	movlw	low STR_1
   902  005460  6E25               	movwf	display_message@message,c
   903  005462  0E0F               	movlw	high STR_1
   904  005464  6E26               	movwf	display_message@message+1,c
   905  005466  EC0E  F029         	call	_display_message	;wreg free
   906                           
   907                           ;main.c: 61: display_end();
   908  00546A  ECD7  F02E         	call	_display_end	;wreg free
   909  00546E                     l4204:
   910  00546E  8289               	bsf	3977,1,c	;volatile
   911                           
   912                           ;main.c: 65: _delay((unsigned long)((50)*(16000000/4000.0)));
   913  005470  0E02               	movlw	2
   914  005472  6E34               	movwf	(??_main+1)& (0+255),c
   915  005474  0E04               	movlw	4
   916  005476  6E33               	movwf	??_main& (0+255),c
   917  005478  0EBA               	movlw	186
   918  00547A                     u897:
   919  00547A  2EE8               	decfsz	wreg,f,c
   920  00547C  D7FE               	bra	u897
   921  00547E  2E33               	decfsz	??_main& (0+255),f,c
   922  005480  D7FC               	bra	u897
   923  005482  2E34               	decfsz	(??_main+1)& (0+255),f,c
   924  005484  D7FA               	bra	u897
   925  005486  D000               	nop2	
   926                           
   927                           ;main.c: 66: EUSART1_Write(0xAA);
   928  005488  0EAA               	movlw	170
   929  00548A  ECFA  F02F         	call	_EUSART1_Write
   930                           
   931                           ;main.c: 67: do { LATAbits.LATA1 = 0; } while(0);
   932  00548E  9289               	bcf	3977,1,c	;volatile
   933                           
   934                           ;main.c: 68: _delay((unsigned long)((50)*(16000000/4000.0)));
   935  005490  0E02               	movlw	2
   936  005492  6E34               	movwf	(??_main+1)& (0+255),c
   937  005494  0E04               	movlw	4
   938  005496  6E33               	movwf	??_main& (0+255),c
   939  005498  0EBA               	movlw	186
   940  00549A                     u907:
   941  00549A  2EE8               	decfsz	wreg,f,c
   942  00549C  D7FE               	bra	u907
   943  00549E  2E33               	decfsz	??_main& (0+255),f,c
   944  0054A0  D7FC               	bra	u907
   945  0054A2  2E34               	decfsz	(??_main+1)& (0+255),f,c
   946  0054A4  D7FA               	bra	u907
   947  0054A6  D000               	nop2	
   948  0054A8  D7E2               	goto	l4204
   949  0054AA                     __end_of_main:
   950                           	opt stack 0
   951                           tblptru	equ	0xFF8
   952                           wreg	equ	0xFE8
   953                           
   954 ;; *************** function _wait2secs *****************
   955 ;; Defined at:
   956 ;;		line 15 in file "main.c"
   957 ;; Parameters:    Size  Location     Type
   958 ;;		None
   959 ;; Auto vars:     Size  Location     Type
   960 ;;		None
   961 ;; Return value:  Size  Location     Type
   962 ;;                  1    wreg      void 
   963 ;; Registers used:
   964 ;;		wreg
   965 ;; Tracked objects:
   966 ;;		On entry : 0/0
   967 ;;		On exit  : 0/0
   968 ;;		Unchanged: 0/0
   969 ;; Data sizes:     COMRAM   BANK0   BANK1   BANK2   BANK3   BANK4   BANK5   BANK6   BANK7   BANK8   BANK9  BANK10  BANK1
      +1  BANK12  BANK13  BANK14
   970 ;;      Params:         0       0       0       0       0       0       0       0       0       0       0       0       
      +0       0       0       0
   971 ;;      Locals:         0       0       0       0       0       0       0       0       0       0       0       0       
      +0       0       0       0
   972 ;;      Temps:          2       0       0       0       0       0       0       0       0       0       0       0       
      +0       0       0       0
   973 ;;      Totals:         2       0       0       0       0       0       0       0       0       0       0       0       
      +0       0       0       0
   974 ;;Total ram usage:        2 bytes
   975 ;; Hardware stack levels used:    1
   976 ;; Hardware stack levels required when called:    4
   977 ;; This function calls:
   978 ;;		Nothing
   979 ;; This function is called by:
   980 ;;		_main
   981 ;; This function uses a non-reentrant model
   982 ;;
   983                           
   984                           	psect	text1
   985  005F52                     __ptext1:
   986                           	opt stack 0
   987  005F52                     _wait2secs:
   988                           	opt stack 26
   989                           
   990                           ;main.c: 16: _delay((unsigned long)((2000)*(16000000/4000.0)));
   991                           
   992                           ;incstack = 0
   993  005F52  0E29               	movlw	41
   994  005F54  6E10               	movwf	(??_wait2secs+1)& (0+255),c
   995  005F56  0E96               	movlw	150
   996  005F58  6E0F               	movwf	??_wait2secs& (0+255),c
   997  005F5A  0E7F               	movlw	127
   998  005F5C                     u917:
   999  005F5C  2EE8               	decfsz	wreg,f,c
  1000  005F5E  D7FE               	bra	u917
  1001  005F60  2E0F               	decfsz	??_wait2secs& (0+255),f,c
  1002  005F62  D7FC               	bra	u917
  1003  005F64  2E10               	decfsz	(??_wait2secs+1)& (0+255),f,c
  1004  005F66  D7FA               	bra	u917
  1005  005F68  F000               	nop	
  1006  005F6A  0012               	return		;funcret
  1007  005F6C                     __end_of_wait2secs:
  1008                           	opt stack 0
  1009                           tblptru	equ	0xFF8
  1010                           wreg	equ	0xFE8
  1011                           
  1012 ;; *************** function _display_waterTemp *****************
  1013 ;; Defined at:
  1014 ;;		line 107 in file "display.c"
  1015 ;; Parameters:    Size  Location     Type
  1016 ;;  temp            2   36[COMRAM] int 
  1017 ;; Auto vars:     Size  Location     Type
  1018 ;;		None
  1019 ;; Return value:  Size  Location     Type
  1020 ;;                  1    wreg      void 
  1021 ;; Registers used:
  1022 ;;		wreg, status,2, status,0, cstack
  1023 ;; Tracked objects:
  1024 ;;		On entry : 0/0
  1025 ;;		On exit  : 0/0
  1026 ;;		Unchanged: 0/0
  1027 ;; Data sizes:     COMRAM   BANK0   BANK1   BANK2   BANK3   BANK4   BANK5   BANK6   BANK7   BANK8   BANK9  BANK10  BANK1
      +1  BANK12  BANK13  BANK14
  1028 ;;      Params:         2       0       0       0       0       0       0       0       0       0       0       0       
      +0       0       0       0
  1029 ;;      Locals:         0       0       0       0       0       0       0       0       0       0       0       0       
      +0       0       0       0
  1030 ;;      Temps:          3       0       0       0       0       0       0       0       0       0       0       0       
      +0       0       0       0
  1031 ;;      Totals:         5       0       0       0       0       0       0       0       0       0       0       0       
      +0       0       0       0
  1032 ;;Total ram usage:        5 bytes
  1033 ;; Hardware stack levels used:    1
  1034 ;; Hardware stack levels required when called:    7
  1035 ;; This function calls:
  1036 ;;		_cmd
  1037 ;;		_cmd_incrementn
  1038 ;;		_wr16
  1039 ;; This function is called by:
  1040 ;;		_main
  1041 ;; This function uses a non-reentrant model
  1042 ;;
  1043                           
  1044                           	psect	text2
  1045  0054AA                     __ptext2:
  1046                           	opt stack 0
  1047  0054AA                     _display_waterTemp:
  1048                           	opt stack 23
  1049                           
  1050                           ;display.c: 108: cmd(((4UL<<24)|(((255)&255UL)<<16)|(((255)&255UL)<<8)|(((255)&255UL)<<0
      +                          )));
  1051                           
  1052                           ;incstack = 0
  1053  0054AA  0EFF               	movlw	255
  1054  0054AC  6E1E               	movwf	cmd@command,c
  1055  0054AE  0EFF               	movlw	255
  1056  0054B0  6E1F               	movwf	cmd@command+1,c
  1057  0054B2  0EFF               	movlw	255
  1058  0054B4  6E20               	movwf	cmd@command+2,c
  1059  0054B6  0E04               	movlw	4
  1060  0054B8  6E21               	movwf	cmd@command+3,c
  1061  0054BA  EC54  F02F         	call	_cmd	;wreg free
  1062                           
  1063                           ;display.c: 109: cmd(4294967086UL);wr16(1081344UL+cmd_offset, 64);cmd_incrementn(2);wr16
      +                          (1081344UL+cmd_offset, 7);cmd_incrementn(2);wr16(1081344UL+cmd_offset, 28);cmd_increment
      +                          n(2);wr16(1081344UL+cmd_offset, 0);cmd_incrementn(2);cmd(temp);
  1064  0054BE  0E2E               	movlw	46
  1065  0054C0  6E1E               	movwf	cmd@command,c
  1066  0054C2  0EFF               	movlw	255
  1067  0054C4  6E1F               	movwf	cmd@command+1,c
  1068  0054C6  0EFF               	movlw	255
  1069  0054C8  6E20               	movwf	cmd@command+2,c
  1070  0054CA  0EFF               	movlw	255
  1071  0054CC  6E21               	movwf	cmd@command+3,c
  1072  0054CE  EC54  F02F         	call	_cmd	;wreg free
  1073  0054D2  C037  F027         	movff	_cmd_offset,??_display_waterTemp
  1074  0054D6  C038  F028         	movff	_cmd_offset+1,??_display_waterTemp+1
  1075  0054DA  6A29               	clrf	(??_display_waterTemp+2)& (0+255),c
  1076  0054DC  0E00               	movlw	0
  1077  0054DE  2427               	addwf	??_display_waterTemp,w,c
  1078  0054E0  6E10               	movwf	wr16@addr,c
  1079  0054E2  0E80               	movlw	128
  1080  0054E4  2028               	addwfc	??_display_waterTemp+1,w,c
  1081  0054E6  6E11               	movwf	wr16@addr+1,c
  1082  0054E8  0E10               	movlw	16
  1083  0054EA  2029               	addwfc	??_display_waterTemp+2,w,c
  1084  0054EC  6E12               	movwf	wr16@addr+2,c
  1085  0054EE  0E00               	movlw	0
  1086  0054F0  6E14               	movwf	wr16@value+1,c
  1087  0054F2  0E40               	movlw	64
  1088  0054F4  6E13               	movwf	wr16@value,c
  1089  0054F6  EC36  F02F         	call	_wr16	;wreg free
  1090  0054FA  0E02               	movlw	2
  1091  0054FC  EC9B  F02F         	call	_cmd_incrementn
  1092  005500  C037  F027         	movff	_cmd_offset,??_display_waterTemp
  1093  005504  C038  F028         	movff	_cmd_offset+1,??_display_waterTemp+1
  1094  005508  6A29               	clrf	(??_display_waterTemp+2)& (0+255),c
  1095  00550A  0E00               	movlw	0
  1096  00550C  2427               	addwf	??_display_waterTemp,w,c
  1097  00550E  6E10               	movwf	wr16@addr,c
  1098  005510  0E80               	movlw	128
  1099  005512  2028               	addwfc	??_display_waterTemp+1,w,c
  1100  005514  6E11               	movwf	wr16@addr+1,c
  1101  005516  0E10               	movlw	16
  1102  005518  2029               	addwfc	??_display_waterTemp+2,w,c
  1103  00551A  6E12               	movwf	wr16@addr+2,c
  1104  00551C  0E00               	movlw	0
  1105  00551E  6E14               	movwf	wr16@value+1,c
  1106  005520  0E07               	movlw	7
  1107  005522  6E13               	movwf	wr16@value,c
  1108  005524  EC36  F02F         	call	_wr16	;wreg free
  1109  005528  0E02               	movlw	2
  1110  00552A  EC9B  F02F         	call	_cmd_incrementn
  1111  00552E  C037  F027         	movff	_cmd_offset,??_display_waterTemp
  1112  005532  C038  F028         	movff	_cmd_offset+1,??_display_waterTemp+1
  1113  005536  6A29               	clrf	(??_display_waterTemp+2)& (0+255),c
  1114  005538  0E00               	movlw	0
  1115  00553A  2427               	addwf	??_display_waterTemp,w,c
  1116  00553C  6E10               	movwf	wr16@addr,c
  1117  00553E  0E80               	movlw	128
  1118  005540  2028               	addwfc	??_display_waterTemp+1,w,c
  1119  005542  6E11               	movwf	wr16@addr+1,c
  1120  005544  0E10               	movlw	16
  1121  005546  2029               	addwfc	??_display_waterTemp+2,w,c
  1122  005548  6E12               	movwf	wr16@addr+2,c
  1123  00554A  0E00               	movlw	0
  1124  00554C  6E14               	movwf	wr16@value+1,c
  1125  00554E  0E1C               	movlw	28
  1126  005550  6E13               	movwf	wr16@value,c
  1127  005552  EC36  F02F         	call	_wr16	;wreg free
  1128  005556  0E02               	movlw	2
  1129  005558  EC9B  F02F         	call	_cmd_incrementn
  1130  00555C  C037  F027         	movff	_cmd_offset,??_display_waterTemp
  1131  005560  C038  F028         	movff	_cmd_offset+1,??_display_waterTemp+1
  1132  005564  6A29               	clrf	(??_display_waterTemp+2)& (0+255),c
  1133  005566  0E00               	movlw	0
  1134  005568  2427               	addwf	??_display_waterTemp,w,c
  1135  00556A  6E10               	movwf	wr16@addr,c
  1136  00556C  0E80               	movlw	128
  1137  00556E  2028               	addwfc	??_display_waterTemp+1,w,c
  1138  005570  6E11               	movwf	wr16@addr+1,c
  1139  005572  0E10               	movlw	16
  1140  005574  2029               	addwfc	??_display_waterTemp+2,w,c
  1141  005576  6E12               	movwf	wr16@addr+2,c
  1142  005578  0E00               	movlw	0
  1143  00557A  6E14               	movwf	wr16@value+1,c
  1144  00557C  0E00               	movlw	0
  1145  00557E  6E13               	movwf	wr16@value,c
  1146  005580  EC36  F02F         	call	_wr16	;wreg free
  1147  005584  0E02               	movlw	2
  1148  005586  EC9B  F02F         	call	_cmd_incrementn
  1149  00558A  C025  F01E         	movff	display_waterTemp@temp,cmd@command
  1150  00558E  C026  F01F         	movff	display_waterTemp@temp+1,cmd@command+1
  1151  005592  0E00               	movlw	0
  1152  005594  BE1F               	btfsc	cmd@command+1,7,c
  1153  005596  0EFF               	movlw	-1
  1154  005598  6E20               	movwf	cmd@command+2,c
  1155  00559A  6E21               	movwf	cmd@command+3,c
  1156  00559C  EC54  F02F         	call	_cmd	;wreg free
  1157  0055A0  0012               	return		;funcret
  1158  0055A2                     __end_of_display_waterTemp:
  1159                           	opt stack 0
  1160                           tblptru	equ	0xFF8
  1161                           wreg	equ	0xFE8
  1162                           
  1163 ;; *************** function _display_tp *****************
  1164 ;; Defined at:
  1165 ;;		line 132 in file "display.c"
  1166 ;; Parameters:    Size  Location     Type
  1167 ;;  tp              2   36[COMRAM] int 
  1168 ;; Auto vars:     Size  Location     Type
  1169 ;;		None
  1170 ;; Return value:  Size  Location     Type
  1171 ;;                  1    wreg      void 
  1172 ;; Registers used:
  1173 ;;		wreg, status,2, status,0, cstack
  1174 ;; Tracked objects:
  1175 ;;		On entry : 0/0
  1176 ;;		On exit  : 0/0
  1177 ;;		Unchanged: 0/0
  1178 ;; Data sizes:     COMRAM   BANK0   BANK1   BANK2   BANK3   BANK4   BANK5   BANK6   BANK7   BANK8   BANK9  BANK10  BANK1
      +1  BANK12  BANK13  BANK14
  1179 ;;      Params:         2       0       0       0       0       0       0       0       0       0       0       0       
      +0       0       0       0
  1180 ;;      Locals:         0       0       0       0       0       0       0       0       0       0       0       0       
      +0       0       0       0
  1181 ;;      Temps:          3       0       0       0       0       0       0       0       0       0       0       0       
      +0       0       0       0
  1182 ;;      Totals:         5       0       0       0       0       0       0       0       0       0       0       0       
      +0       0       0       0
  1183 ;;Total ram usage:        5 bytes
  1184 ;; Hardware stack levels used:    1
  1185 ;; Hardware stack levels required when called:    7
  1186 ;; This function calls:
  1187 ;;		_cmd
  1188 ;;		_cmd_incrementn
  1189 ;;		_wr16
  1190 ;; This function is called by:
  1191 ;;		_main
  1192 ;; This function uses a non-reentrant model
  1193 ;;
  1194                           
  1195                           	psect	text3
  1196  00586E                     __ptext3:
  1197                           	opt stack 0
  1198  00586E                     _display_tp:
  1199                           	opt stack 23
  1200                           
  1201                           ;display.c: 133: cmd(4294967086UL);wr16(1081344UL+cmd_offset, 455);cmd_incrementn(2);wr1
      +                          6(1081344UL+cmd_offset, 166);cmd_incrementn(2);wr16(1081344UL+cmd_offset, 30);cmd_increm
      +                          entn(2);wr16(1081344UL+cmd_offset, 2048UL);cmd_incrementn(2);cmd(tp);
  1202                           
  1203                           ;incstack = 0
  1204  00586E  0E2E               	movlw	46
  1205  005870  6E1E               	movwf	cmd@command,c
  1206  005872  0EFF               	movlw	255
  1207  005874  6E1F               	movwf	cmd@command+1,c
  1208  005876  0EFF               	movlw	255
  1209  005878  6E20               	movwf	cmd@command+2,c
  1210  00587A  0EFF               	movlw	255
  1211  00587C  6E21               	movwf	cmd@command+3,c
  1212  00587E  EC54  F02F         	call	_cmd	;wreg free
  1213  005882  C037  F027         	movff	_cmd_offset,??_display_tp
  1214  005886  C038  F028         	movff	_cmd_offset+1,??_display_tp+1
  1215  00588A  6A29               	clrf	(??_display_tp+2)& (0+255),c
  1216  00588C  0E00               	movlw	0
  1217  00588E  2427               	addwf	??_display_tp,w,c
  1218  005890  6E10               	movwf	wr16@addr,c
  1219  005892  0E80               	movlw	128
  1220  005894  2028               	addwfc	??_display_tp+1,w,c
  1221  005896  6E11               	movwf	wr16@addr+1,c
  1222  005898  0E10               	movlw	16
  1223  00589A  2029               	addwfc	??_display_tp+2,w,c
  1224  00589C  6E12               	movwf	wr16@addr+2,c
  1225  00589E  0E01               	movlw	1
  1226  0058A0  6E14               	movwf	wr16@value+1,c
  1227  0058A2  0EC7               	movlw	199
  1228  0058A4  6E13               	movwf	wr16@value,c
  1229  0058A6  EC36  F02F         	call	_wr16	;wreg free
  1230  0058AA  0E02               	movlw	2
  1231  0058AC  EC9B  F02F         	call	_cmd_incrementn
  1232  0058B0  C037  F027         	movff	_cmd_offset,??_display_tp
  1233  0058B4  C038  F028         	movff	_cmd_offset+1,??_display_tp+1
  1234  0058B8  6A29               	clrf	(??_display_tp+2)& (0+255),c
  1235  0058BA  0E00               	movlw	0
  1236  0058BC  2427               	addwf	??_display_tp,w,c
  1237  0058BE  6E10               	movwf	wr16@addr,c
  1238  0058C0  0E80               	movlw	128
  1239  0058C2  2028               	addwfc	??_display_tp+1,w,c
  1240  0058C4  6E11               	movwf	wr16@addr+1,c
  1241  0058C6  0E10               	movlw	16
  1242  0058C8  2029               	addwfc	??_display_tp+2,w,c
  1243  0058CA  6E12               	movwf	wr16@addr+2,c
  1244  0058CC  0E00               	movlw	0
  1245  0058CE  6E14               	movwf	wr16@value+1,c
  1246  0058D0  0EA6               	movlw	166
  1247  0058D2  6E13               	movwf	wr16@value,c
  1248  0058D4  EC36  F02F         	call	_wr16	;wreg free
  1249  0058D8  0E02               	movlw	2
  1250  0058DA  EC9B  F02F         	call	_cmd_incrementn
  1251  0058DE  C037  F027         	movff	_cmd_offset,??_display_tp
  1252  0058E2  C038  F028         	movff	_cmd_offset+1,??_display_tp+1
  1253  0058E6  6A29               	clrf	(??_display_tp+2)& (0+255),c
  1254  0058E8  0E00               	movlw	0
  1255  0058EA  2427               	addwf	??_display_tp,w,c
  1256  0058EC  6E10               	movwf	wr16@addr,c
  1257  0058EE  0E80               	movlw	128
  1258  0058F0  2028               	addwfc	??_display_tp+1,w,c
  1259  0058F2  6E11               	movwf	wr16@addr+1,c
  1260  0058F4  0E10               	movlw	16
  1261  0058F6  2029               	addwfc	??_display_tp+2,w,c
  1262  0058F8  6E12               	movwf	wr16@addr+2,c
  1263  0058FA  0E00               	movlw	0
  1264  0058FC  6E14               	movwf	wr16@value+1,c
  1265  0058FE  0E1E               	movlw	30
  1266  005900  6E13               	movwf	wr16@value,c
  1267  005902  EC36  F02F         	call	_wr16	;wreg free
  1268  005906  0E02               	movlw	2
  1269  005908  EC9B  F02F         	call	_cmd_incrementn
  1270  00590C  C037  F027         	movff	_cmd_offset,??_display_tp
  1271  005910  C038  F028         	movff	_cmd_offset+1,??_display_tp+1
  1272  005914  6A29               	clrf	(??_display_tp+2)& (0+255),c
  1273  005916  0E00               	movlw	0
  1274  005918  2427               	addwf	??_display_tp,w,c
  1275  00591A  6E10               	movwf	wr16@addr,c
  1276  00591C  0E80               	movlw	128
  1277  00591E  2028               	addwfc	??_display_tp+1,w,c
  1278  005920  6E11               	movwf	wr16@addr+1,c
  1279  005922  0E10               	movlw	16
  1280  005924  2029               	addwfc	??_display_tp+2,w,c
  1281  005926  6E12               	movwf	wr16@addr+2,c
  1282  005928  0E08               	movlw	8
  1283  00592A  6E14               	movwf	wr16@value+1,c
  1284  00592C  0E00               	movlw	0
  1285  00592E  6E13               	movwf	wr16@value,c
  1286  005930  EC36  F02F         	call	_wr16	;wreg free
  1287  005934  0E02               	movlw	2
  1288  005936  EC9B  F02F         	call	_cmd_incrementn
  1289  00593A  C025  F01E         	movff	display_tp@tp,cmd@command
  1290  00593E  C026  F01F         	movff	display_tp@tp+1,cmd@command+1
  1291  005942  0E00               	movlw	0
  1292  005944  BE1F               	btfsc	cmd@command+1,7,c
  1293  005946  0EFF               	movlw	-1
  1294  005948  6E20               	movwf	cmd@command+2,c
  1295  00594A  6E21               	movwf	cmd@command+3,c
  1296  00594C  EC54  F02F         	call	_cmd	;wreg free
  1297  005950  0012               	return		;funcret
  1298  005952                     __end_of_display_tp:
  1299                           	opt stack 0
  1300                           tblptru	equ	0xFF8
  1301                           wreg	equ	0xFE8
  1302                           
  1303 ;; *************** function _display_start *****************
  1304 ;; Defined at:
  1305 ;;		line 3 in file "display.c"
  1306 ;; Parameters:    Size  Location     Type
  1307 ;;		None
  1308 ;; Auto vars:     Size  Location     Type
  1309 ;;		None
  1310 ;; Return value:  Size  Location     Type
  1311 ;;                  1    wreg      void 
  1312 ;; Registers used:
  1313 ;;		wreg, status,2, status,0, cstack
  1314 ;; Tracked objects:
  1315 ;;		On entry : 0/0
  1316 ;;		On exit  : 0/0
  1317 ;;		Unchanged: 0/0
  1318 ;; Data sizes:     COMRAM   BANK0   BANK1   BANK2   BANK3   BANK4   BANK5   BANK6   BANK7   BANK8   BANK9  BANK10  BANK1
      +1  BANK12  BANK13  BANK14
  1319 ;;      Params:         0       0       0       0       0       0       0       0       0       0       0       0       
      +0       0       0       0
  1320 ;;      Locals:         0       0       0       0       0       0       0       0       0       0       0       0       
      +0       0       0       0
  1321 ;;      Temps:          0       0       0       0       0       0       0       0       0       0       0       0       
      +0       0       0       0
  1322 ;;      Totals:         0       0       0       0       0       0       0       0       0       0       0       0       
      +0       0       0       0
  1323 ;;Total ram usage:        0 bytes
  1324 ;; Hardware stack levels used:    1
  1325 ;; Hardware stack levels required when called:    7
  1326 ;; This function calls:
  1327 ;;		_cmd
  1328 ;; This function is called by:
  1329 ;;		_main
  1330 ;; This function uses a non-reentrant model
  1331 ;;
  1332                           
  1333                           	psect	text4
  1334  005DF0                     __ptext4:
  1335                           	opt stack 0
  1336  005DF0                     _display_start:
  1337                           	opt stack 23
  1338                           
  1339                           ;display.c: 4: cmd(4294967040UL);
  1340                           
  1341                           ;incstack = 0
  1342  005DF0  0E00               	movlw	0
  1343  005DF2  6E1E               	movwf	cmd@command,c
  1344  005DF4  0EFF               	movlw	255
  1345  005DF6  6E1F               	movwf	cmd@command+1,c
  1346  005DF8  0EFF               	movlw	255
  1347  005DFA  6E20               	movwf	cmd@command+2,c
  1348  005DFC  0EFF               	movlw	255
  1349  005DFE  6E21               	movwf	cmd@command+3,c
  1350  005E00  EC54  F02F         	call	_cmd	;wreg free
  1351                           
  1352                           ;display.c: 5: cmd(((2UL<<24)|(((20)&255UL)<<16)|(((20)&255UL)<<8)|(((20)&255UL)<<0)));
  1353  005E04  0E14               	movlw	20
  1354  005E06  6E1E               	movwf	cmd@command,c
  1355  005E08  0E14               	movlw	20
  1356  005E0A  6E1F               	movwf	cmd@command+1,c
  1357  005E0C  0E14               	movlw	20
  1358  005E0E  6E20               	movwf	cmd@command+2,c
  1359  005E10  0E02               	movlw	2
  1360  005E12  6E21               	movwf	cmd@command+3,c
  1361  005E14  EC54  F02F         	call	_cmd	;wreg free
  1362                           
  1363                           ;display.c: 6: cmd(((38UL<<24)|(((1)&1UL)<<2)|(((1)&1UL)<<1)|(((1)&1UL)<<0)));
  1364  005E18  0E07               	movlw	7
  1365  005E1A  6E1E               	movwf	cmd@command,c
  1366  005E1C  0E00               	movlw	0
  1367  005E1E  6E1F               	movwf	cmd@command+1,c
  1368  005E20  0E00               	movlw	0
  1369  005E22  6E20               	movwf	cmd@command+2,c
  1370  005E24  0E26               	movlw	38
  1371  005E26  6E21               	movwf	cmd@command+3,c
  1372  005E28  EC54  F02F         	call	_cmd	;wreg free
  1373  005E2C  0012               	return		;funcret
  1374  005E2E                     __end_of_display_start:
  1375                           	opt stack 0
  1376                           tblptru	equ	0xFF8
  1377                           wreg	equ	0xFE8
  1378                           
  1379 ;; *************** function _display_speed *****************
  1380 ;; Defined at:
  1381 ;;		line 136 in file "display.c"
  1382 ;; Parameters:    Size  Location     Type
  1383 ;;  speed           2   36[COMRAM] int 
  1384 ;; Auto vars:     Size  Location     Type
  1385 ;;		None
  1386 ;; Return value:  Size  Location     Type
  1387 ;;                  1    wreg      void 
  1388 ;; Registers used:
  1389 ;;		wreg, status,2, status,0, cstack
  1390 ;; Tracked objects:
  1391 ;;		On entry : 0/0
  1392 ;;		On exit  : 0/0
  1393 ;;		Unchanged: 0/0
  1394 ;; Data sizes:     COMRAM   BANK0   BANK1   BANK2   BANK3   BANK4   BANK5   BANK6   BANK7   BANK8   BANK9  BANK10  BANK1
      +1  BANK12  BANK13  BANK14
  1395 ;;      Params:         2       0       0       0       0       0       0       0       0       0       0       0       
      +0       0       0       0
  1396 ;;      Locals:         0       0       0       0       0       0       0       0       0       0       0       0       
      +0       0       0       0
  1397 ;;      Temps:          3       0       0       0       0       0       0       0       0       0       0       0       
      +0       0       0       0
  1398 ;;      Totals:         5       0       0       0       0       0       0       0       0       0       0       0       
      +0       0       0       0
  1399 ;;Total ram usage:        5 bytes
  1400 ;; Hardware stack levels used:    1
  1401 ;; Hardware stack levels required when called:    7
  1402 ;; This function calls:
  1403 ;;		_cmd
  1404 ;;		_cmd_incrementn
  1405 ;;		_wr16
  1406 ;; This function is called by:
  1407 ;;		_main
  1408 ;; This function uses a non-reentrant model
  1409 ;;
  1410                           
  1411                           	psect	text5
  1412  005952                     __ptext5:
  1413                           	opt stack 0
  1414  005952                     _display_speed:
  1415                           	opt stack 23
  1416                           
  1417                           ;display.c: 137: cmd(4294967086UL);wr16(1081344UL+cmd_offset, 360 + 45);cmd_incrementn(2
      +                          );wr16(1081344UL+cmd_offset, 130 - 10);cmd_incrementn(2);wr16(1081344UL+cmd_offset, 31);
      +                          cmd_incrementn(2);wr16(1081344UL+cmd_offset, 0);cmd_incrementn(2);cmd(speed);
  1418                           
  1419                           ;incstack = 0
  1420  005952  0E2E               	movlw	46
  1421  005954  6E1E               	movwf	cmd@command,c
  1422  005956  0EFF               	movlw	255
  1423  005958  6E1F               	movwf	cmd@command+1,c
  1424  00595A  0EFF               	movlw	255
  1425  00595C  6E20               	movwf	cmd@command+2,c
  1426  00595E  0EFF               	movlw	255
  1427  005960  6E21               	movwf	cmd@command+3,c
  1428  005962  EC54  F02F         	call	_cmd	;wreg free
  1429  005966  C037  F027         	movff	_cmd_offset,??_display_speed
  1430  00596A  C038  F028         	movff	_cmd_offset+1,??_display_speed+1
  1431  00596E  6A29               	clrf	(??_display_speed+2)& (0+255),c
  1432  005970  0E00               	movlw	0
  1433  005972  2427               	addwf	??_display_speed,w,c
  1434  005974  6E10               	movwf	wr16@addr,c
  1435  005976  0E80               	movlw	128
  1436  005978  2028               	addwfc	??_display_speed+1,w,c
  1437  00597A  6E11               	movwf	wr16@addr+1,c
  1438  00597C  0E10               	movlw	16
  1439  00597E  2029               	addwfc	??_display_speed+2,w,c
  1440  005980  6E12               	movwf	wr16@addr+2,c
  1441  005982  0E01               	movlw	1
  1442  005984  6E14               	movwf	wr16@value+1,c
  1443  005986  0E95               	movlw	149
  1444  005988  6E13               	movwf	wr16@value,c
  1445  00598A  EC36  F02F         	call	_wr16	;wreg free
  1446  00598E  0E02               	movlw	2
  1447  005990  EC9B  F02F         	call	_cmd_incrementn
  1448  005994  C037  F027         	movff	_cmd_offset,??_display_speed
  1449  005998  C038  F028         	movff	_cmd_offset+1,??_display_speed+1
  1450  00599C  6A29               	clrf	(??_display_speed+2)& (0+255),c
  1451  00599E  0E00               	movlw	0
  1452  0059A0  2427               	addwf	??_display_speed,w,c
  1453  0059A2  6E10               	movwf	wr16@addr,c
  1454  0059A4  0E80               	movlw	128
  1455  0059A6  2028               	addwfc	??_display_speed+1,w,c
  1456  0059A8  6E11               	movwf	wr16@addr+1,c
  1457  0059AA  0E10               	movlw	16
  1458  0059AC  2029               	addwfc	??_display_speed+2,w,c
  1459  0059AE  6E12               	movwf	wr16@addr+2,c
  1460  0059B0  0E00               	movlw	0
  1461  0059B2  6E14               	movwf	wr16@value+1,c
  1462  0059B4  0E78               	movlw	120
  1463  0059B6  6E13               	movwf	wr16@value,c
  1464  0059B8  EC36  F02F         	call	_wr16	;wreg free
  1465  0059BC  0E02               	movlw	2
  1466  0059BE  EC9B  F02F         	call	_cmd_incrementn
  1467  0059C2  C037  F027         	movff	_cmd_offset,??_display_speed
  1468  0059C6  C038  F028         	movff	_cmd_offset+1,??_display_speed+1
  1469  0059CA  6A29               	clrf	(??_display_speed+2)& (0+255),c
  1470  0059CC  0E00               	movlw	0
  1471  0059CE  2427               	addwf	??_display_speed,w,c
  1472  0059D0  6E10               	movwf	wr16@addr,c
  1473  0059D2  0E80               	movlw	128
  1474  0059D4  2028               	addwfc	??_display_speed+1,w,c
  1475  0059D6  6E11               	movwf	wr16@addr+1,c
  1476  0059D8  0E10               	movlw	16
  1477  0059DA  2029               	addwfc	??_display_speed+2,w,c
  1478  0059DC  6E12               	movwf	wr16@addr+2,c
  1479  0059DE  0E00               	movlw	0
  1480  0059E0  6E14               	movwf	wr16@value+1,c
  1481  0059E2  0E1F               	movlw	31
  1482  0059E4  6E13               	movwf	wr16@value,c
  1483  0059E6  EC36  F02F         	call	_wr16	;wreg free
  1484  0059EA  0E02               	movlw	2
  1485  0059EC  EC9B  F02F         	call	_cmd_incrementn
  1486  0059F0  C037  F027         	movff	_cmd_offset,??_display_speed
  1487  0059F4  C038  F028         	movff	_cmd_offset+1,??_display_speed+1
  1488  0059F8  6A29               	clrf	(??_display_speed+2)& (0+255),c
  1489  0059FA  0E00               	movlw	0
  1490  0059FC  2427               	addwf	??_display_speed,w,c
  1491  0059FE  6E10               	movwf	wr16@addr,c
  1492  005A00  0E80               	movlw	128
  1493  005A02  2028               	addwfc	??_display_speed+1,w,c
  1494  005A04  6E11               	movwf	wr16@addr+1,c
  1495  005A06  0E10               	movlw	16
  1496  005A08  2029               	addwfc	??_display_speed+2,w,c
  1497  005A0A  6E12               	movwf	wr16@addr+2,c
  1498  005A0C  0E00               	movlw	0
  1499  005A0E  6E14               	movwf	wr16@value+1,c
  1500  005A10  0E00               	movlw	0
  1501  005A12  6E13               	movwf	wr16@value,c
  1502  005A14  EC36  F02F         	call	_wr16	;wreg free
  1503  005A18  0E02               	movlw	2
  1504  005A1A  EC9B  F02F         	call	_cmd_incrementn
  1505  005A1E  C025  F01E         	movff	display_speed@speed,cmd@command
  1506  005A22  C026  F01F         	movff	display_speed@speed+1,cmd@command+1
  1507  005A26  0E00               	movlw	0
  1508  005A28  BE1F               	btfsc	cmd@command+1,7,c
  1509  005A2A  0EFF               	movlw	-1
  1510  005A2C  6E20               	movwf	cmd@command+2,c
  1511  005A2E  6E21               	movwf	cmd@command+3,c
  1512  005A30  EC54  F02F         	call	_cmd	;wreg free
  1513  005A34  0012               	return		;funcret
  1514  005A36                     __end_of_display_speed:
  1515                           	opt stack 0
  1516                           tblptru	equ	0xFF8
  1517                           wreg	equ	0xFE8
  1518                           
  1519 ;; *************** function _display_rpm *****************
  1520 ;; Defined at:
  1521 ;;		line 140 in file "display.c"
  1522 ;; Parameters:    Size  Location     Type
  1523 ;;  rpm             2   36[COMRAM] int 
  1524 ;; Auto vars:     Size  Location     Type
  1525 ;;  first_digit     2   43[COMRAM] int 
  1526 ;;  second_digit    2   41[COMRAM] int 
  1527 ;; Return value:  Size  Location     Type
  1528 ;;                  1    wreg      void 
  1529 ;; Registers used:
  1530 ;;		wreg, status,2, status,0, tblptrl, tblptrh, tblptru, prodl, prodh, cstack
  1531 ;; Tracked objects:
  1532 ;;		On entry : 0/0
  1533 ;;		On exit  : 0/0
  1534 ;;		Unchanged: 0/0
  1535 ;; Data sizes:     COMRAM   BANK0   BANK1   BANK2   BANK3   BANK4   BANK5   BANK6   BANK7   BANK8   BANK9  BANK10  BANK1
      +1  BANK12  BANK13  BANK14
  1536 ;;      Params:         2       0       0       0       0       0       0       0       0       0       0       0       
      +0       0       0       0
  1537 ;;      Locals:         4       0       0       0       0       0       0       0       0       0       0       0       
      +0       0       0       0
  1538 ;;      Temps:          3       0       0       0       0       0       0       0       0       0       0       0       
      +0       0       0       0
  1539 ;;      Totals:         9       0       0       0       0       0       0       0       0       0       0       0       
      +0       0       0       0
  1540 ;;Total ram usage:        9 bytes
  1541 ;; Hardware stack levels used:    1
  1542 ;; Hardware stack levels required when called:    7
  1543 ;; This function calls:
  1544 ;;		___awdiv
  1545 ;;		___awmod
  1546 ;;		_cmd
  1547 ;;		_cmd_incrementn
  1548 ;;		_wr16
  1549 ;;		_wr8s
  1550 ;; This function is called by:
  1551 ;;		_main
  1552 ;; This function uses a non-reentrant model
  1553 ;;
  1554                           
  1555                           	psect	text6
  1556  002420                     __ptext6:
  1557                           	opt stack 0
  1558  002420                     _display_rpm:
  1559                           	opt stack 23
  1560                           
  1561                           ;display.c: 141: int first_digit = rpm/1000;
  1562                           
  1563                           ;incstack = 0
  1564  002420  C025  F00F         	movff	display_rpm@rpm,___awdiv@dividend
  1565  002424  C026  F010         	movff	display_rpm@rpm+1,___awdiv@dividend+1
  1566  002428  0E03               	movlw	3
  1567  00242A  6E12               	movwf	___awdiv@divisor+1,c
  1568  00242C  0EE8               	movlw	232
  1569  00242E  6E11               	movwf	___awdiv@divisor,c
  1570  002430  ECD3  F02D         	call	___awdiv	;wreg free
  1571  002434  C00F  F02C         	movff	?___awdiv,display_rpm@first_digit
  1572  002438  C010  F02D         	movff	?___awdiv+1,display_rpm@first_digit+1
  1573                           
  1574                           ;display.c: 142: int second_digit = (rpm/100)%10;
  1575  00243C  0E00               	movlw	0
  1576  00243E  6E12               	movwf	___awdiv@divisor+1,c
  1577  002440  0E64               	movlw	100
  1578  002442  6E11               	movwf	___awdiv@divisor,c
  1579  002444  C025  F00F         	movff	display_rpm@rpm,___awdiv@dividend
  1580  002448  C026  F010         	movff	display_rpm@rpm+1,___awdiv@dividend+1
  1581  00244C  ECD3  F02D         	call	___awdiv	;wreg free
  1582  002450  C00F  F017         	movff	?___awdiv,___awmod@dividend
  1583  002454  C010  F018         	movff	?___awdiv+1,___awmod@dividend+1
  1584  002458  0E00               	movlw	0
  1585  00245A  6E1A               	movwf	___awmod@divisor+1,c
  1586  00245C  0E0A               	movlw	10
  1587  00245E  6E19               	movwf	___awmod@divisor,c
  1588  002460  EC51  F02E         	call	___awmod	;wreg free
  1589  002464  C017  F02A         	movff	?___awmod,display_rpm@second_digit
  1590  002468  C018  F02B         	movff	?___awmod+1,display_rpm@second_digit+1
  1591                           
  1592                           ;display.c: 143: cmd(((4UL<<24)|(((255)&255UL)<<16)|(((255)&255UL)<<8)|(((255)&255UL)<<0
      +                          )));
  1593  00246C  0EFF               	movlw	255
  1594  00246E  6E1E               	movwf	cmd@command,c
  1595  002470  0EFF               	movlw	255
  1596  002472  6E1F               	movwf	cmd@command+1,c
  1597  002474  0EFF               	movlw	255
  1598  002476  6E20               	movwf	cmd@command+2,c
  1599  002478  0E04               	movlw	4
  1600  00247A  6E21               	movwf	cmd@command+3,c
  1601  00247C  EC54  F02F         	call	_cmd	;wreg free
  1602                           
  1603                           ;display.c: 145: cmd(4294967049UL);cmd(0x323232);
  1604  002480  0E09               	movlw	9
  1605  002482  6E1E               	movwf	cmd@command,c
  1606  002484  0EFF               	movlw	255
  1607  002486  6E1F               	movwf	cmd@command+1,c
  1608  002488  0EFF               	movlw	255
  1609  00248A  6E20               	movwf	cmd@command+2,c
  1610  00248C  0EFF               	movlw	255
  1611  00248E  6E21               	movwf	cmd@command+3,c
  1612  002490  EC54  F02F         	call	_cmd	;wreg free
  1613  002494  0E32               	movlw	50
  1614  002496  6E1E               	movwf	cmd@command,c
  1615  002498  0E32               	movlw	50
  1616  00249A  6E1F               	movwf	cmd@command+1,c
  1617  00249C  0E32               	movlw	50
  1618  00249E  6E20               	movwf	cmd@command+2,c
  1619  0024A0  0E00               	movlw	0
  1620  0024A2  6E21               	movwf	cmd@command+3,c
  1621  0024A4  EC54  F02F         	call	_cmd	;wreg free
  1622                           
  1623                           ;display.c: 146: cmd(4294967059UL);wr16(1081344UL+cmd_offset, 240);cmd_incrementn(2);wr1
      +                          6(1081344UL+cmd_offset, 115);cmd_incrementn(2);wr16(1081344UL+cmd_offset, 130);cmd_incre
      +                          mentn(2);wr16(1081344UL+cmd_offset, 16384UL | 4096UL | 256UL);cmd_incrementn(2);wr16(108
      +                          134
  1624  0024A8  0E13               	movlw	19
  1625  0024AA  6E1E               	movwf	cmd@command,c
  1626  0024AC  0EFF               	movlw	255
  1627  0024AE  6E1F               	movwf	cmd@command+1,c
  1628  0024B0  0EFF               	movlw	255
  1629  0024B2  6E20               	movwf	cmd@command+2,c
  1630  0024B4  0EFF               	movlw	255
  1631  0024B6  6E21               	movwf	cmd@command+3,c
  1632  0024B8  EC54  F02F         	call	_cmd	;wreg free
  1633  0024BC  C037  F027         	movff	_cmd_offset,??_display_rpm
  1634  0024C0  C038  F028         	movff	_cmd_offset+1,??_display_rpm+1
  1635  0024C4  6A29               	clrf	(??_display_rpm+2)& (0+255),c
  1636  0024C6  0E00               	movlw	0
  1637  0024C8  2427               	addwf	??_display_rpm,w,c
  1638  0024CA  6E10               	movwf	wr16@addr,c
  1639  0024CC  0E80               	movlw	128
  1640  0024CE  2028               	addwfc	??_display_rpm+1,w,c
  1641  0024D0  6E11               	movwf	wr16@addr+1,c
  1642  0024D2  0E10               	movlw	16
  1643  0024D4  2029               	addwfc	??_display_rpm+2,w,c
  1644  0024D6  6E12               	movwf	wr16@addr+2,c
  1645  0024D8  0E00               	movlw	0
  1646  0024DA  6E14               	movwf	wr16@value+1,c
  1647  0024DC  0EF0               	movlw	240
  1648  0024DE  6E13               	movwf	wr16@value,c
  1649  0024E0  EC36  F02F         	call	_wr16	;wreg free
  1650  0024E4  0E02               	movlw	2
  1651  0024E6  EC9B  F02F         	call	_cmd_incrementn
  1652  0024EA  C037  F027         	movff	_cmd_offset,??_display_rpm
  1653  0024EE  C038  F028         	movff	_cmd_offset+1,??_display_rpm+1
  1654  0024F2  6A29               	clrf	(??_display_rpm+2)& (0+255),c
  1655  0024F4  0E00               	movlw	0
  1656  0024F6  2427               	addwf	??_display_rpm,w,c
  1657  0024F8  6E10               	movwf	wr16@addr,c
  1658  0024FA  0E80               	movlw	128
  1659  0024FC  2028               	addwfc	??_display_rpm+1,w,c
  1660  0024FE  6E11               	movwf	wr16@addr+1,c
  1661  002500  0E10               	movlw	16
  1662  002502  2029               	addwfc	??_display_rpm+2,w,c
  1663  002504  6E12               	movwf	wr16@addr+2,c
  1664  002506  0E00               	movlw	0
  1665  002508  6E14               	movwf	wr16@value+1,c
  1666  00250A  0E73               	movlw	115
  1667  00250C  6E13               	movwf	wr16@value,c
  1668  00250E  EC36  F02F         	call	_wr16	;wreg free
  1669  002512  0E02               	movlw	2
  1670  002514  EC9B  F02F         	call	_cmd_incrementn
  1671  002518  C037  F027         	movff	_cmd_offset,??_display_rpm
  1672  00251C  C038  F028         	movff	_cmd_offset+1,??_display_rpm+1
  1673  002520  6A29               	clrf	(??_display_rpm+2)& (0+255),c
  1674  002522  0E00               	movlw	0
  1675  002524  2427               	addwf	??_display_rpm,w,c
  1676  002526  6E10               	movwf	wr16@addr,c
  1677  002528  0E80               	movlw	128
  1678  00252A  2028               	addwfc	??_display_rpm+1,w,c
  1679  00252C  6E11               	movwf	wr16@addr+1,c
  1680  00252E  0E10               	movlw	16
  1681  002530  2029               	addwfc	??_display_rpm+2,w,c
  1682  002532  6E12               	movwf	wr16@addr+2,c
  1683  002534  0E00               	movlw	0
  1684  002536  6E14               	movwf	wr16@value+1,c
  1685  002538  0E82               	movlw	130
  1686  00253A  6E13               	movwf	wr16@value,c
  1687  00253C  EC36  F02F         	call	_wr16	;wreg free
  1688  002540  0E02               	movlw	2
  1689  002542  EC9B  F02F         	call	_cmd_incrementn
  1690  002546  C037  F027         	movff	_cmd_offset,??_display_rpm
  1691  00254A  C038  F028         	movff	_cmd_offset+1,??_display_rpm+1
  1692  00254E  6A29               	clrf	(??_display_rpm+2)& (0+255),c
  1693  002550  0E00               	movlw	0
  1694  002552  2427               	addwf	??_display_rpm,w,c
  1695  002554  6E10               	movwf	wr16@addr,c
  1696  002556  0E80               	movlw	128
  1697  002558  2028               	addwfc	??_display_rpm+1,w,c
  1698  00255A  6E11               	movwf	wr16@addr+1,c
  1699  00255C  0E10               	movlw	16
  1700  00255E  2029               	addwfc	??_display_rpm+2,w,c
  1701  002560  6E12               	movwf	wr16@addr+2,c
  1702  002562  0E51               	movlw	81
  1703  002564  6E14               	movwf	wr16@value+1,c
  1704  002566  0E00               	movlw	0
  1705  002568  6E13               	movwf	wr16@value,c
  1706  00256A  EC36  F02F         	call	_wr16	;wreg free
  1707  00256E  0E02               	movlw	2
  1708  002570  EC9B  F02F         	call	_cmd_incrementn
  1709  002574  C037  F027         	movff	_cmd_offset,??_display_rpm
  1710  002578  C038  F028         	movff	_cmd_offset+1,??_display_rpm+1
  1711  00257C  6A29               	clrf	(??_display_rpm+2)& (0+255),c
  1712  00257E  0E00               	movlw	0
  1713  002580  2427               	addwf	??_display_rpm,w,c
  1714  002582  6E10               	movwf	wr16@addr,c
  1715  002584  0E80               	movlw	128
  1716  002586  2028               	addwfc	??_display_rpm+1,w,c
  1717  002588  6E11               	movwf	wr16@addr+1,c
  1718  00258A  0E10               	movlw	16
  1719  00258C  2029               	addwfc	??_display_rpm+2,w,c
  1720  00258E  6E12               	movwf	wr16@addr+2,c
  1721  002590  0E00               	movlw	0
  1722  002592  6E14               	movwf	wr16@value+1,c
  1723  002594  0E0A               	movlw	10
  1724  002596  6E13               	movwf	wr16@value,c
  1725  002598  EC36  F02F         	call	_wr16	;wreg free
  1726  00259C  0E02               	movlw	2
  1727  00259E  EC9B  F02F         	call	_cmd_incrementn
  1728  0025A2  C037  F027         	movff	_cmd_offset,??_display_rpm
  1729  0025A6  C038  F028         	movff	_cmd_offset+1,??_display_rpm+1
  1730  0025AA  6A29               	clrf	(??_display_rpm+2)& (0+255),c
  1731  0025AC  0E00               	movlw	0
  1732  0025AE  2427               	addwf	??_display_rpm,w,c
  1733  0025B0  6E10               	movwf	wr16@addr,c
  1734  0025B2  0E80               	movlw	128
  1735  0025B4  2028               	addwfc	??_display_rpm+1,w,c
  1736  0025B6  6E11               	movwf	wr16@addr+1,c
  1737  0025B8  0E10               	movlw	16
  1738  0025BA  2029               	addwfc	??_display_rpm+2,w,c
  1739  0025BC  6E12               	movwf	wr16@addr+2,c
  1740  0025BE  0E00               	movlw	0
  1741  0025C0  6E14               	movwf	wr16@value+1,c
  1742  0025C2  0E05               	movlw	5
  1743  0025C4  6E13               	movwf	wr16@value,c
  1744  0025C6  EC36  F02F         	call	_wr16	;wreg free
  1745  0025CA  0E02               	movlw	2
  1746  0025CC  EC9B  F02F         	call	_cmd_incrementn
  1747  0025D0  C037  F027         	movff	_cmd_offset,??_display_rpm
  1748  0025D4  C038  F028         	movff	_cmd_offset+1,??_display_rpm+1
  1749  0025D8  6A29               	clrf	(??_display_rpm+2)& (0+255),c
  1750  0025DA  0E00               	movlw	0
  1751  0025DC  2427               	addwf	??_display_rpm,w,c
  1752  0025DE  6E10               	movwf	wr16@addr,c
  1753  0025E0  0E80               	movlw	128
  1754  0025E2  2028               	addwfc	??_display_rpm+1,w,c
  1755  0025E4  6E11               	movwf	wr16@addr+1,c
  1756  0025E6  0E10               	movlw	16
  1757  0025E8  2029               	addwfc	??_display_rpm+2,w,c
  1758  0025EA  6E12               	movwf	wr16@addr+2,c
  1759  0025EC  0E00               	movlw	0
  1760  0025EE  6E14               	movwf	wr16@value+1,c
  1761  0025F0  0E00               	movlw	0
  1762  0025F2  6E13               	movwf	wr16@value,c
  1763  0025F4  EC36  F02F         	call	_wr16	;wreg free
  1764  0025F8  0E02               	movlw	2
  1765  0025FA  EC9B  F02F         	call	_cmd_incrementn
  1766  0025FE  C037  F027         	movff	_cmd_offset,??_display_rpm
  1767  002602  C038  F028         	movff	_cmd_offset+1,??_display_rpm+1
  1768  002606  6A29               	clrf	(??_display_rpm+2)& (0+255),c
  1769  002608  0E00               	movlw	0
  1770  00260A  2427               	addwf	??_display_rpm,w,c
  1771  00260C  6E10               	movwf	wr16@addr,c
  1772  00260E  0E80               	movlw	128
  1773  002610  2028               	addwfc	??_display_rpm+1,w,c
  1774  002612  6E11               	movwf	wr16@addr+1,c
  1775  002614  0E10               	movlw	16
  1776  002616  2029               	addwfc	??_display_rpm+2,w,c
  1777  002618  6E12               	movwf	wr16@addr+2,c
  1778  00261A  0E00               	movlw	0
  1779  00261C  6E14               	movwf	wr16@value+1,c
  1780  00261E  0E0A               	movlw	10
  1781  002620  6E13               	movwf	wr16@value,c
  1782  002622  EC36  F02F         	call	_wr16	;wreg free
  1783  002626  0E02               	movlw	2
  1784  002628  EC9B  F02F         	call	_cmd_incrementn
  1785                           
  1786                           ;display.c: 148: cmd(((4UL<<24)|(((255)&255UL)<<16)|(((0)&255UL)<<8)|(((0)&255UL)<<0)));
  1787  00262C  0E00               	movlw	0
  1788  00262E  6E1E               	movwf	cmd@command,c
  1789  002630  0E00               	movlw	0
  1790  002632  6E1F               	movwf	cmd@command+1,c
  1791  002634  0EFF               	movlw	255
  1792  002636  6E20               	movwf	cmd@command+2,c
  1793  002638  0E04               	movlw	4
  1794  00263A  6E21               	movwf	cmd@command+3,c
  1795  00263C  EC54  F02F         	call	_cmd	;wreg free
  1796                           
  1797                           ;display.c: 149: cmd(4294967059UL);wr16(1081344UL+cmd_offset, 240);cmd_incrementn(2);wr1
      +                          6(1081344UL+cmd_offset, 115);cmd_incrementn(2);wr16(1081344UL+cmd_offset, 130);cmd_incre
      +                          mentn(2);wr16(1081344UL+cmd_offset, 8192UL|4096UL | 256UL);cmd_incrementn(2);wr16(108134
      +                          4UL
  1798  002640  0E13               	movlw	19
  1799  002642  6E1E               	movwf	cmd@command,c
  1800  002644  0EFF               	movlw	255
  1801  002646  6E1F               	movwf	cmd@command+1,c
  1802  002648  0EFF               	movlw	255
  1803  00264A  6E20               	movwf	cmd@command+2,c
  1804  00264C  0EFF               	movlw	255
  1805  00264E  6E21               	movwf	cmd@command+3,c
  1806  002650  EC54  F02F         	call	_cmd	;wreg free
  1807  002654  C037  F027         	movff	_cmd_offset,??_display_rpm
  1808  002658  C038  F028         	movff	_cmd_offset+1,??_display_rpm+1
  1809  00265C  6A29               	clrf	(??_display_rpm+2)& (0+255),c
  1810  00265E  0E00               	movlw	0
  1811  002660  2427               	addwf	??_display_rpm,w,c
  1812  002662  6E10               	movwf	wr16@addr,c
  1813  002664  0E80               	movlw	128
  1814  002666  2028               	addwfc	??_display_rpm+1,w,c
  1815  002668  6E11               	movwf	wr16@addr+1,c
  1816  00266A  0E10               	movlw	16
  1817  00266C  2029               	addwfc	??_display_rpm+2,w,c
  1818  00266E  6E12               	movwf	wr16@addr+2,c
  1819  002670  0E00               	movlw	0
  1820  002672  6E14               	movwf	wr16@value+1,c
  1821  002674  0EF0               	movlw	240
  1822  002676  6E13               	movwf	wr16@value,c
  1823  002678  EC36  F02F         	call	_wr16	;wreg free
  1824  00267C  0E02               	movlw	2
  1825  00267E  EC9B  F02F         	call	_cmd_incrementn
  1826  002682  C037  F027         	movff	_cmd_offset,??_display_rpm
  1827  002686  C038  F028         	movff	_cmd_offset+1,??_display_rpm+1
  1828  00268A  6A29               	clrf	(??_display_rpm+2)& (0+255),c
  1829  00268C  0E00               	movlw	0
  1830  00268E  2427               	addwf	??_display_rpm,w,c
  1831  002690  6E10               	movwf	wr16@addr,c
  1832  002692  0E80               	movlw	128
  1833  002694  2028               	addwfc	??_display_rpm+1,w,c
  1834  002696  6E11               	movwf	wr16@addr+1,c
  1835  002698  0E10               	movlw	16
  1836  00269A  2029               	addwfc	??_display_rpm+2,w,c
  1837  00269C  6E12               	movwf	wr16@addr+2,c
  1838  00269E  0E00               	movlw	0
  1839  0026A0  6E14               	movwf	wr16@value+1,c
  1840  0026A2  0E73               	movlw	115
  1841  0026A4  6E13               	movwf	wr16@value,c
  1842  0026A6  EC36  F02F         	call	_wr16	;wreg free
  1843  0026AA  0E02               	movlw	2
  1844  0026AC  EC9B  F02F         	call	_cmd_incrementn
  1845  0026B0  C037  F027         	movff	_cmd_offset,??_display_rpm
  1846  0026B4  C038  F028         	movff	_cmd_offset+1,??_display_rpm+1
  1847  0026B8  6A29               	clrf	(??_display_rpm+2)& (0+255),c
  1848  0026BA  0E00               	movlw	0
  1849  0026BC  2427               	addwf	??_display_rpm,w,c
  1850  0026BE  6E10               	movwf	wr16@addr,c
  1851  0026C0  0E80               	movlw	128
  1852  0026C2  2028               	addwfc	??_display_rpm+1,w,c
  1853  0026C4  6E11               	movwf	wr16@addr+1,c
  1854  0026C6  0E10               	movlw	16
  1855  0026C8  2029               	addwfc	??_display_rpm+2,w,c
  1856  0026CA  6E12               	movwf	wr16@addr+2,c
  1857  0026CC  0E00               	movlw	0
  1858  0026CE  6E14               	movwf	wr16@value+1,c
  1859  0026D0  0E82               	movlw	130
  1860  0026D2  6E13               	movwf	wr16@value,c
  1861  0026D4  EC36  F02F         	call	_wr16	;wreg free
  1862  0026D8  0E02               	movlw	2
  1863  0026DA  EC9B  F02F         	call	_cmd_incrementn
  1864  0026DE  C037  F027         	movff	_cmd_offset,??_display_rpm
  1865  0026E2  C038  F028         	movff	_cmd_offset+1,??_display_rpm+1
  1866  0026E6  6A29               	clrf	(??_display_rpm+2)& (0+255),c
  1867  0026E8  0E00               	movlw	0
  1868  0026EA  2427               	addwf	??_display_rpm,w,c
  1869  0026EC  6E10               	movwf	wr16@addr,c
  1870  0026EE  0E80               	movlw	128
  1871  0026F0  2028               	addwfc	??_display_rpm+1,w,c
  1872  0026F2  6E11               	movwf	wr16@addr+1,c
  1873  0026F4  0E10               	movlw	16
  1874  0026F6  2029               	addwfc	??_display_rpm+2,w,c
  1875  0026F8  6E12               	movwf	wr16@addr+2,c
  1876  0026FA  0E31               	movlw	49
  1877  0026FC  6E14               	movwf	wr16@value+1,c
  1878  0026FE  0E00               	movlw	0
  1879  002700  6E13               	movwf	wr16@value,c
  1880  002702  EC36  F02F         	call	_wr16	;wreg free
  1881  002706  0E02               	movlw	2
  1882  002708  EC9B  F02F         	call	_cmd_incrementn
  1883  00270C  C037  F027         	movff	_cmd_offset,??_display_rpm
  1884  002710  C038  F028         	movff	_cmd_offset+1,??_display_rpm+1
  1885  002714  6A29               	clrf	(??_display_rpm+2)& (0+255),c
  1886  002716  0E00               	movlw	0
  1887  002718  2427               	addwf	??_display_rpm,w,c
  1888  00271A  6E10               	movwf	wr16@addr,c
  1889  00271C  0E80               	movlw	128
  1890  00271E  2028               	addwfc	??_display_rpm+1,w,c
  1891  002720  6E11               	movwf	wr16@addr+1,c
  1892  002722  0E10               	movlw	16
  1893  002724  2029               	addwfc	??_display_rpm+2,w,c
  1894  002726  6E12               	movwf	wr16@addr+2,c
  1895  002728  0E00               	movlw	0
  1896  00272A  6E14               	movwf	wr16@value+1,c
  1897  00272C  0E0A               	movlw	10
  1898  00272E  6E13               	movwf	wr16@value,c
  1899  002730  EC36  F02F         	call	_wr16	;wreg free
  1900  002734  0E02               	movlw	2
  1901  002736  EC9B  F02F         	call	_cmd_incrementn
  1902  00273A  C037  F027         	movff	_cmd_offset,??_display_rpm
  1903  00273E  C038  F028         	movff	_cmd_offset+1,??_display_rpm+1
  1904  002742  6A29               	clrf	(??_display_rpm+2)& (0+255),c
  1905  002744  0E00               	movlw	0
  1906  002746  2427               	addwf	??_display_rpm,w,c
  1907  002748  6E10               	movwf	wr16@addr,c
  1908  00274A  0E80               	movlw	128
  1909  00274C  2028               	addwfc	??_display_rpm+1,w,c
  1910  00274E  6E11               	movwf	wr16@addr+1,c
  1911  002750  0E10               	movlw	16
  1912  002752  2029               	addwfc	??_display_rpm+2,w,c
  1913  002754  6E12               	movwf	wr16@addr+2,c
  1914  002756  0E00               	movlw	0
  1915  002758  6E14               	movwf	wr16@value+1,c
  1916  00275A  0E05               	movlw	5
  1917  00275C  6E13               	movwf	wr16@value,c
  1918  00275E  EC36  F02F         	call	_wr16	;wreg free
  1919  002762  0E02               	movlw	2
  1920  002764  EC9B  F02F         	call	_cmd_incrementn
  1921  002768  C037  F027         	movff	_cmd_offset,??_display_rpm
  1922  00276C  C038  F028         	movff	_cmd_offset+1,??_display_rpm+1
  1923  002770  6A29               	clrf	(??_display_rpm+2)& (0+255),c
  1924  002772  0E00               	movlw	0
  1925  002774  2427               	addwf	??_display_rpm,w,c
  1926  002776  6E10               	movwf	wr16@addr,c
  1927  002778  0E80               	movlw	128
  1928  00277A  2028               	addwfc	??_display_rpm+1,w,c
  1929  00277C  6E11               	movwf	wr16@addr+1,c
  1930  00277E  0E10               	movlw	16
  1931  002780  2029               	addwfc	??_display_rpm+2,w,c
  1932  002782  6E12               	movwf	wr16@addr+2,c
  1933  002784  0EFE               	movlw	254
  1934  002786  242C               	addwf	display_rpm@first_digit,w,c
  1935  002788  6E13               	movwf	wr16@value,c
  1936  00278A  0EFF               	movlw	255
  1937  00278C  202D               	addwfc	display_rpm@first_digit+1,w,c
  1938  00278E  6E14               	movwf	wr16@value+1,c
  1939  002790  EC36  F02F         	call	_wr16	;wreg free
  1940  002794  0E02               	movlw	2
  1941  002796  EC9B  F02F         	call	_cmd_incrementn
  1942  00279A  C037  F027         	movff	_cmd_offset,??_display_rpm
  1943  00279E  C038  F028         	movff	_cmd_offset+1,??_display_rpm+1
  1944  0027A2  6A29               	clrf	(??_display_rpm+2)& (0+255),c
  1945  0027A4  0E00               	movlw	0
  1946  0027A6  2427               	addwf	??_display_rpm,w,c
  1947  0027A8  6E10               	movwf	wr16@addr,c
  1948  0027AA  0E80               	movlw	128
  1949  0027AC  2028               	addwfc	??_display_rpm+1,w,c
  1950  0027AE  6E11               	movwf	wr16@addr+1,c
  1951  0027B0  0E10               	movlw	16
  1952  0027B2  2029               	addwfc	??_display_rpm+2,w,c
  1953  0027B4  6E12               	movwf	wr16@addr+2,c
  1954  0027B6  0E00               	movlw	0
  1955  0027B8  6E14               	movwf	wr16@value+1,c
  1956  0027BA  0E0A               	movlw	10
  1957  0027BC  6E13               	movwf	wr16@value,c
  1958  0027BE  EC36  F02F         	call	_wr16	;wreg free
  1959  0027C2  0E02               	movlw	2
  1960  0027C4  EC9B  F02F         	call	_cmd_incrementn
  1961                           
  1962                           ;display.c: 151: cmd(((4UL<<24)|(((255)&255UL)<<16)|(((255)&255UL)<<8)|(((255)&255UL)<<0
      +                          )));
  1963  0027C8  0EFF               	movlw	255
  1964  0027CA  6E1E               	movwf	cmd@command,c
  1965  0027CC  0EFF               	movlw	255
  1966  0027CE  6E1F               	movwf	cmd@command+1,c
  1967  0027D0  0EFF               	movlw	255
  1968  0027D2  6E20               	movwf	cmd@command+2,c
  1969  0027D4  0E04               	movlw	4
  1970  0027D6  6E21               	movwf	cmd@command+3,c
  1971  0027D8  EC54  F02F         	call	_cmd	;wreg free
  1972                           
  1973                           ;display.c: 152: cmd(4294967086UL);wr16(1081344UL+cmd_offset, 237);cmd_incrementn(2);wr1
      +                          6(1081344UL+cmd_offset, 89);cmd_incrementn(2);wr16(1081344UL+cmd_offset, 31);cmd_increme
      +                          ntn(2);wr16(1081344UL+cmd_offset, 2048UL);cmd_incrementn(2);cmd(first_digit);
  1974  0027DC  0E2E               	movlw	46
  1975  0027DE  6E1E               	movwf	cmd@command,c
  1976  0027E0  0EFF               	movlw	255
  1977  0027E2  6E1F               	movwf	cmd@command+1,c
  1978  0027E4  0EFF               	movlw	255
  1979  0027E6  6E20               	movwf	cmd@command+2,c
  1980  0027E8  0EFF               	movlw	255
  1981  0027EA  6E21               	movwf	cmd@command+3,c
  1982  0027EC  EC54  F02F         	call	_cmd	;wreg free
  1983  0027F0  C037  F027         	movff	_cmd_offset,??_display_rpm
  1984  0027F4  C038  F028         	movff	_cmd_offset+1,??_display_rpm+1
  1985  0027F8  6A29               	clrf	(??_display_rpm+2)& (0+255),c
  1986  0027FA  0E00               	movlw	0
  1987  0027FC  2427               	addwf	??_display_rpm,w,c
  1988  0027FE  6E10               	movwf	wr16@addr,c
  1989  002800  0E80               	movlw	128
  1990  002802  2028               	addwfc	??_display_rpm+1,w,c
  1991  002804  6E11               	movwf	wr16@addr+1,c
  1992  002806  0E10               	movlw	16
  1993  002808  2029               	addwfc	??_display_rpm+2,w,c
  1994  00280A  6E12               	movwf	wr16@addr+2,c
  1995  00280C  0E00               	movlw	0
  1996  00280E  6E14               	movwf	wr16@value+1,c
  1997  002810  0EED               	movlw	237
  1998  002812  6E13               	movwf	wr16@value,c
  1999  002814  EC36  F02F         	call	_wr16	;wreg free
  2000  002818  0E02               	movlw	2
  2001  00281A  EC9B  F02F         	call	_cmd_incrementn
  2002  00281E  C037  F027         	movff	_cmd_offset,??_display_rpm
  2003  002822  C038  F028         	movff	_cmd_offset+1,??_display_rpm+1
  2004  002826  6A29               	clrf	(??_display_rpm+2)& (0+255),c
  2005  002828  0E00               	movlw	0
  2006  00282A  2427               	addwf	??_display_rpm,w,c
  2007  00282C  6E10               	movwf	wr16@addr,c
  2008  00282E  0E80               	movlw	128
  2009  002830  2028               	addwfc	??_display_rpm+1,w,c
  2010  002832  6E11               	movwf	wr16@addr+1,c
  2011  002834  0E10               	movlw	16
  2012  002836  2029               	addwfc	??_display_rpm+2,w,c
  2013  002838  6E12               	movwf	wr16@addr+2,c
  2014  00283A  0E00               	movlw	0
  2015  00283C  6E14               	movwf	wr16@value+1,c
  2016  00283E  0E59               	movlw	89
  2017  002840  6E13               	movwf	wr16@value,c
  2018  002842  EC36  F02F         	call	_wr16	;wreg free
  2019  002846  0E02               	movlw	2
  2020  002848  EC9B  F02F         	call	_cmd_incrementn
  2021  00284C  C037  F027         	movff	_cmd_offset,??_display_rpm
  2022  002850  C038  F028         	movff	_cmd_offset+1,??_display_rpm+1
  2023  002854  6A29               	clrf	(??_display_rpm+2)& (0+255),c
  2024  002856  0E00               	movlw	0
  2025  002858  2427               	addwf	??_display_rpm,w,c
  2026  00285A  6E10               	movwf	wr16@addr,c
  2027  00285C  0E80               	movlw	128
  2028  00285E  2028               	addwfc	??_display_rpm+1,w,c
  2029  002860  6E11               	movwf	wr16@addr+1,c
  2030  002862  0E10               	movlw	16
  2031  002864  2029               	addwfc	??_display_rpm+2,w,c
  2032  002866  6E12               	movwf	wr16@addr+2,c
  2033  002868  0E00               	movlw	0
  2034  00286A  6E14               	movwf	wr16@value+1,c
  2035  00286C  0E1F               	movlw	31
  2036  00286E  6E13               	movwf	wr16@value,c
  2037  002870  EC36  F02F         	call	_wr16	;wreg free
  2038  002874  0E02               	movlw	2
  2039  002876  EC9B  F02F         	call	_cmd_incrementn
  2040  00287A  C037  F027         	movff	_cmd_offset,??_display_rpm
  2041  00287E  C038  F028         	movff	_cmd_offset+1,??_display_rpm+1
  2042  002882  6A29               	clrf	(??_display_rpm+2)& (0+255),c
  2043  002884  0E00               	movlw	0
  2044  002886  2427               	addwf	??_display_rpm,w,c
  2045  002888  6E10               	movwf	wr16@addr,c
  2046  00288A  0E80               	movlw	128
  2047  00288C  2028               	addwfc	??_display_rpm+1,w,c
  2048  00288E  6E11               	movwf	wr16@addr+1,c
  2049  002890  0E10               	movlw	16
  2050  002892  2029               	addwfc	??_display_rpm+2,w,c
  2051  002894  6E12               	movwf	wr16@addr+2,c
  2052  002896  0E08               	movlw	8
  2053  002898  6E14               	movwf	wr16@value+1,c
  2054  00289A  0E00               	movlw	0
  2055  00289C  6E13               	movwf	wr16@value,c
  2056  00289E  EC36  F02F         	call	_wr16	;wreg free
  2057  0028A2  0E02               	movlw	2
  2058  0028A4  EC9B  F02F         	call	_cmd_incrementn
  2059  0028A8  C02C  F01E         	movff	display_rpm@first_digit,cmd@command
  2060  0028AC  C02D  F01F         	movff	display_rpm@first_digit+1,cmd@command+1
  2061  0028B0  0E00               	movlw	0
  2062  0028B2  BE1F               	btfsc	cmd@command+1,7,c
  2063  0028B4  0EFF               	movlw	-1
  2064  0028B6  6E20               	movwf	cmd@command+2,c
  2065  0028B8  6E21               	movwf	cmd@command+3,c
  2066  0028BA  EC54  F02F         	call	_cmd	;wreg free
  2067                           
  2068                           ;display.c: 153: cmd(4294967086UL);wr16(1081344UL+cmd_offset, 243);cmd_incrementn(2);wr1
      +                          6(1081344UL+cmd_offset, 89);cmd_incrementn(2);wr16(1081344UL+cmd_offset, 31);cmd_increme
      +                          ntn(2);wr16(1081344UL+cmd_offset, 0);cmd_incrementn(2);cmd(second_digit);
  2069  0028BE  0E2E               	movlw	46
  2070  0028C0  6E1E               	movwf	cmd@command,c
  2071  0028C2  0EFF               	movlw	255
  2072  0028C4  6E1F               	movwf	cmd@command+1,c
  2073  0028C6  0EFF               	movlw	255
  2074  0028C8  6E20               	movwf	cmd@command+2,c
  2075  0028CA  0EFF               	movlw	255
  2076  0028CC  6E21               	movwf	cmd@command+3,c
  2077  0028CE  EC54  F02F         	call	_cmd	;wreg free
  2078  0028D2  C037  F027         	movff	_cmd_offset,??_display_rpm
  2079  0028D6  C038  F028         	movff	_cmd_offset+1,??_display_rpm+1
  2080  0028DA  6A29               	clrf	(??_display_rpm+2)& (0+255),c
  2081  0028DC  0E00               	movlw	0
  2082  0028DE  2427               	addwf	??_display_rpm,w,c
  2083  0028E0  6E10               	movwf	wr16@addr,c
  2084  0028E2  0E80               	movlw	128
  2085  0028E4  2028               	addwfc	??_display_rpm+1,w,c
  2086  0028E6  6E11               	movwf	wr16@addr+1,c
  2087  0028E8  0E10               	movlw	16
  2088  0028EA  2029               	addwfc	??_display_rpm+2,w,c
  2089  0028EC  6E12               	movwf	wr16@addr+2,c
  2090  0028EE  0E00               	movlw	0
  2091  0028F0  6E14               	movwf	wr16@value+1,c
  2092  0028F2  0EF3               	movlw	243
  2093  0028F4  6E13               	movwf	wr16@value,c
  2094  0028F6  EC36  F02F         	call	_wr16	;wreg free
  2095  0028FA  0E02               	movlw	2
  2096  0028FC  EC9B  F02F         	call	_cmd_incrementn
  2097  002900  C037  F027         	movff	_cmd_offset,??_display_rpm
  2098  002904  C038  F028         	movff	_cmd_offset+1,??_display_rpm+1
  2099  002908  6A29               	clrf	(??_display_rpm+2)& (0+255),c
  2100  00290A  0E00               	movlw	0
  2101  00290C  2427               	addwf	??_display_rpm,w,c
  2102  00290E  6E10               	movwf	wr16@addr,c
  2103  002910  0E80               	movlw	128
  2104  002912  2028               	addwfc	??_display_rpm+1,w,c
  2105  002914  6E11               	movwf	wr16@addr+1,c
  2106  002916  0E10               	movlw	16
  2107  002918  2029               	addwfc	??_display_rpm+2,w,c
  2108  00291A  6E12               	movwf	wr16@addr+2,c
  2109  00291C  0E00               	movlw	0
  2110  00291E  6E14               	movwf	wr16@value+1,c
  2111  002920  0E59               	movlw	89
  2112  002922  6E13               	movwf	wr16@value,c
  2113  002924  EC36  F02F         	call	_wr16	;wreg free
  2114  002928  0E02               	movlw	2
  2115  00292A  EC9B  F02F         	call	_cmd_incrementn
  2116  00292E  C037  F027         	movff	_cmd_offset,??_display_rpm
  2117  002932  C038  F028         	movff	_cmd_offset+1,??_display_rpm+1
  2118  002936  6A29               	clrf	(??_display_rpm+2)& (0+255),c
  2119  002938  0E00               	movlw	0
  2120  00293A  2427               	addwf	??_display_rpm,w,c
  2121  00293C  6E10               	movwf	wr16@addr,c
  2122  00293E  0E80               	movlw	128
  2123  002940  2028               	addwfc	??_display_rpm+1,w,c
  2124  002942  6E11               	movwf	wr16@addr+1,c
  2125  002944  0E10               	movlw	16
  2126  002946  2029               	addwfc	??_display_rpm+2,w,c
  2127  002948  6E12               	movwf	wr16@addr+2,c
  2128  00294A  0E00               	movlw	0
  2129  00294C  6E14               	movwf	wr16@value+1,c
  2130  00294E  0E1F               	movlw	31
  2131  002950  6E13               	movwf	wr16@value,c
  2132  002952  EC36  F02F         	call	_wr16	;wreg free
  2133  002956  0E02               	movlw	2
  2134  002958  EC9B  F02F         	call	_cmd_incrementn
  2135  00295C  C037  F027         	movff	_cmd_offset,??_display_rpm
  2136  002960  C038  F028         	movff	_cmd_offset+1,??_display_rpm+1
  2137  002964  6A29               	clrf	(??_display_rpm+2)& (0+255),c
  2138  002966  0E00               	movlw	0
  2139  002968  2427               	addwf	??_display_rpm,w,c
  2140  00296A  6E10               	movwf	wr16@addr,c
  2141  00296C  0E80               	movlw	128
  2142  00296E  2028               	addwfc	??_display_rpm+1,w,c
  2143  002970  6E11               	movwf	wr16@addr+1,c
  2144  002972  0E10               	movlw	16
  2145  002974  2029               	addwfc	??_display_rpm+2,w,c
  2146  002976  6E12               	movwf	wr16@addr+2,c
  2147  002978  0E00               	movlw	0
  2148  00297A  6E14               	movwf	wr16@value+1,c
  2149  00297C  0E00               	movlw	0
  2150  00297E  6E13               	movwf	wr16@value,c
  2151  002980  EC36  F02F         	call	_wr16	;wreg free
  2152  002984  0E02               	movlw	2
  2153  002986  EC9B  F02F         	call	_cmd_incrementn
  2154  00298A  C02A  F01E         	movff	display_rpm@second_digit,cmd@command
  2155  00298E  C02B  F01F         	movff	display_rpm@second_digit+1,cmd@command+1
  2156  002992  0E00               	movlw	0
  2157  002994  BE1F               	btfsc	cmd@command+1,7,c
  2158  002996  0EFF               	movlw	-1
  2159  002998  6E20               	movwf	cmd@command+2,c
  2160  00299A  6E21               	movwf	cmd@command+3,c
  2161  00299C  EC54  F02F         	call	_cmd	;wreg free
  2162                           
  2163                           ;display.c: 155: cmd(4294967052UL);wr16(1081344UL+cmd_offset, 183);cmd_incrementn(2);wr1
      +                          6(1081344UL+cmd_offset, 161);cmd_incrementn(2);wr16(1081344UL+cmd_offset, 28);cmd_increm
      +                          entn(2);wr16(1081344UL+cmd_offset, 0);cmd_incrementn(2);cmd_incrementn(wr8s(1081344UL+cm
      +                          d_o
  2164  0029A0  0E0C               	movlw	12
  2165  0029A2  6E1E               	movwf	cmd@command,c
  2166  0029A4  0EFF               	movlw	255
  2167  0029A6  6E1F               	movwf	cmd@command+1,c
  2168  0029A8  0EFF               	movlw	255
  2169  0029AA  6E20               	movwf	cmd@command+2,c
  2170  0029AC  0EFF               	movlw	255
  2171  0029AE  6E21               	movwf	cmd@command+3,c
  2172  0029B0  EC54  F02F         	call	_cmd	;wreg free
  2173  0029B4  C037  F027         	movff	_cmd_offset,??_display_rpm
  2174  0029B8  C038  F028         	movff	_cmd_offset+1,??_display_rpm+1
  2175  0029BC  6A29               	clrf	(??_display_rpm+2)& (0+255),c
  2176  0029BE  0E00               	movlw	0
  2177  0029C0  2427               	addwf	??_display_rpm,w,c
  2178  0029C2  6E10               	movwf	wr16@addr,c
  2179  0029C4  0E80               	movlw	128
  2180  0029C6  2028               	addwfc	??_display_rpm+1,w,c
  2181  0029C8  6E11               	movwf	wr16@addr+1,c
  2182  0029CA  0E10               	movlw	16
  2183  0029CC  2029               	addwfc	??_display_rpm+2,w,c
  2184  0029CE  6E12               	movwf	wr16@addr+2,c
  2185  0029D0  0E00               	movlw	0
  2186  0029D2  6E14               	movwf	wr16@value+1,c
  2187  0029D4  0EB7               	movlw	183
  2188  0029D6  6E13               	movwf	wr16@value,c
  2189  0029D8  EC36  F02F         	call	_wr16	;wreg free
  2190  0029DC  0E02               	movlw	2
  2191  0029DE  EC9B  F02F         	call	_cmd_incrementn
  2192  0029E2  C037  F027         	movff	_cmd_offset,??_display_rpm
  2193  0029E6  C038  F028         	movff	_cmd_offset+1,??_display_rpm+1
  2194  0029EA  6A29               	clrf	(??_display_rpm+2)& (0+255),c
  2195  0029EC  0E00               	movlw	0
  2196  0029EE  2427               	addwf	??_display_rpm,w,c
  2197  0029F0  6E10               	movwf	wr16@addr,c
  2198  0029F2  0E80               	movlw	128
  2199  0029F4  2028               	addwfc	??_display_rpm+1,w,c
  2200  0029F6  6E11               	movwf	wr16@addr+1,c
  2201  0029F8  0E10               	movlw	16
  2202  0029FA  2029               	addwfc	??_display_rpm+2,w,c
  2203  0029FC  6E12               	movwf	wr16@addr+2,c
  2204  0029FE  0E00               	movlw	0
  2205  002A00  6E14               	movwf	wr16@value+1,c
  2206  002A02  0EA1               	movlw	161
  2207  002A04  6E13               	movwf	wr16@value,c
  2208  002A06  EC36  F02F         	call	_wr16	;wreg free
  2209  002A0A  0E02               	movlw	2
  2210  002A0C  EC9B  F02F         	call	_cmd_incrementn
  2211  002A10  C037  F027         	movff	_cmd_offset,??_display_rpm
  2212  002A14  C038  F028         	movff	_cmd_offset+1,??_display_rpm+1
  2213  002A18  6A29               	clrf	(??_display_rpm+2)& (0+255),c
  2214  002A1A  0E00               	movlw	0
  2215  002A1C  2427               	addwf	??_display_rpm,w,c
  2216  002A1E  6E10               	movwf	wr16@addr,c
  2217  002A20  0E80               	movlw	128
  2218  002A22  2028               	addwfc	??_display_rpm+1,w,c
  2219  002A24  6E11               	movwf	wr16@addr+1,c
  2220  002A26  0E10               	movlw	16
  2221  002A28  2029               	addwfc	??_display_rpm+2,w,c
  2222  002A2A  6E12               	movwf	wr16@addr+2,c
  2223  002A2C  0E00               	movlw	0
  2224  002A2E  6E14               	movwf	wr16@value+1,c
  2225  002A30  0E1C               	movlw	28
  2226  002A32  6E13               	movwf	wr16@value,c
  2227  002A34  EC36  F02F         	call	_wr16	;wreg free
  2228  002A38  0E02               	movlw	2
  2229  002A3A  EC9B  F02F         	call	_cmd_incrementn
  2230  002A3E  C037  F027         	movff	_cmd_offset,??_display_rpm
  2231  002A42  C038  F028         	movff	_cmd_offset+1,??_display_rpm+1
  2232  002A46  6A29               	clrf	(??_display_rpm+2)& (0+255),c
  2233  002A48  0E00               	movlw	0
  2234  002A4A  2427               	addwf	??_display_rpm,w,c
  2235  002A4C  6E10               	movwf	wr16@addr,c
  2236  002A4E  0E80               	movlw	128
  2237  002A50  2028               	addwfc	??_display_rpm+1,w,c
  2238  002A52  6E11               	movwf	wr16@addr+1,c
  2239  002A54  0E10               	movlw	16
  2240  002A56  2029               	addwfc	??_display_rpm+2,w,c
  2241  002A58  6E12               	movwf	wr16@addr+2,c
  2242  002A5A  0E00               	movlw	0
  2243  002A5C  6E14               	movwf	wr16@value+1,c
  2244  002A5E  0E00               	movlw	0
  2245  002A60  6E13               	movwf	wr16@value,c
  2246  002A62  EC36  F02F         	call	_wr16	;wreg free
  2247  002A66  0E02               	movlw	2
  2248  002A68  EC9B  F02F         	call	_cmd_incrementn
  2249  002A6C  C037  F027         	movff	_cmd_offset,??_display_rpm
  2250  002A70  C038  F028         	movff	_cmd_offset+1,??_display_rpm+1
  2251  002A74  6A29               	clrf	(??_display_rpm+2)& (0+255),c
  2252  002A76  0E00               	movlw	0
  2253  002A78  2427               	addwf	??_display_rpm,w,c
  2254  002A7A  6E15               	movwf	wr8s@addr,c
  2255  002A7C  0E80               	movlw	128
  2256  002A7E  2028               	addwfc	??_display_rpm+1,w,c
  2257  002A80  6E16               	movwf	wr8s@addr+1,c
  2258  002A82  0E10               	movlw	16
  2259  002A84  2029               	addwfc	??_display_rpm+2,w,c
  2260  002A86  6E17               	movwf	wr8s@addr+2,c
  2261  002A88  0E63               	movlw	low (STR_38+1)
  2262  002A8A  6E18               	movwf	wr8s@s,c
  2263  002A8C  0E0F               	movlw	high (STR_38+1)
  2264  002A8E  6E19               	movwf	wr8s@s+1,c
  2265  002A90  EC8D  F02D         	call	_wr8s	;wreg free
  2266  002A94  EC9B  F02F         	call	_cmd_incrementn
  2267                           
  2268                           ;display.c: 156: cmd(4294967052UL);wr16(1081344UL+cmd_offset, 160);cmd_incrementn(2);wr1
      +                          6(1081344UL+cmd_offset, 130);cmd_incrementn(2);wr16(1081344UL+cmd_offset, 28);cmd_increm
      +                          entn(2);wr16(1081344UL+cmd_offset, 0);cmd_incrementn(2);cmd_incrementn(wr8s(1081344UL+cm
      +                          d_o
  2269  002A98  0E0C               	movlw	12
  2270  002A9A  6E1E               	movwf	cmd@command,c
  2271  002A9C  0EFF               	movlw	255
  2272  002A9E  6E1F               	movwf	cmd@command+1,c
  2273  002AA0  0EFF               	movlw	255
  2274  002AA2  6E20               	movwf	cmd@command+2,c
  2275  002AA4  0EFF               	movlw	255
  2276  002AA6  6E21               	movwf	cmd@command+3,c
  2277  002AA8  EC54  F02F         	call	_cmd	;wreg free
  2278  002AAC  C037  F027         	movff	_cmd_offset,??_display_rpm
  2279  002AB0  C038  F028         	movff	_cmd_offset+1,??_display_rpm+1
  2280  002AB4  6A29               	clrf	(??_display_rpm+2)& (0+255),c
  2281  002AB6  0E00               	movlw	0
  2282  002AB8  2427               	addwf	??_display_rpm,w,c
  2283  002ABA  6E10               	movwf	wr16@addr,c
  2284  002ABC  0E80               	movlw	128
  2285  002ABE  2028               	addwfc	??_display_rpm+1,w,c
  2286  002AC0  6E11               	movwf	wr16@addr+1,c
  2287  002AC2  0E10               	movlw	16
  2288  002AC4  2029               	addwfc	??_display_rpm+2,w,c
  2289  002AC6  6E12               	movwf	wr16@addr+2,c
  2290  002AC8  0E00               	movlw	0
  2291  002ACA  6E14               	movwf	wr16@value+1,c
  2292  002ACC  0EA0               	movlw	160
  2293  002ACE  6E13               	movwf	wr16@value,c
  2294  002AD0  EC36  F02F         	call	_wr16	;wreg free
  2295  002AD4  0E02               	movlw	2
  2296  002AD6  EC9B  F02F         	call	_cmd_incrementn
  2297  002ADA  C037  F027         	movff	_cmd_offset,??_display_rpm
  2298  002ADE  C038  F028         	movff	_cmd_offset+1,??_display_rpm+1
  2299  002AE2  6A29               	clrf	(??_display_rpm+2)& (0+255),c
  2300  002AE4  0E00               	movlw	0
  2301  002AE6  2427               	addwf	??_display_rpm,w,c
  2302  002AE8  6E10               	movwf	wr16@addr,c
  2303  002AEA  0E80               	movlw	128
  2304  002AEC  2028               	addwfc	??_display_rpm+1,w,c
  2305  002AEE  6E11               	movwf	wr16@addr+1,c
  2306  002AF0  0E10               	movlw	16
  2307  002AF2  2029               	addwfc	??_display_rpm+2,w,c
  2308  002AF4  6E12               	movwf	wr16@addr+2,c
  2309  002AF6  0E00               	movlw	0
  2310  002AF8  6E14               	movwf	wr16@value+1,c
  2311  002AFA  0E82               	movlw	130
  2312  002AFC  6E13               	movwf	wr16@value,c
  2313  002AFE  EC36  F02F         	call	_wr16	;wreg free
  2314  002B02  0E02               	movlw	2
  2315  002B04  EC9B  F02F         	call	_cmd_incrementn
  2316  002B08  C037  F027         	movff	_cmd_offset,??_display_rpm
  2317  002B0C  C038  F028         	movff	_cmd_offset+1,??_display_rpm+1
  2318  002B10  6A29               	clrf	(??_display_rpm+2)& (0+255),c
  2319  002B12  0E00               	movlw	0
  2320  002B14  2427               	addwf	??_display_rpm,w,c
  2321  002B16  6E10               	movwf	wr16@addr,c
  2322  002B18  0E80               	movlw	128
  2323  002B1A  2028               	addwfc	??_display_rpm+1,w,c
  2324  002B1C  6E11               	movwf	wr16@addr+1,c
  2325  002B1E  0E10               	movlw	16
  2326  002B20  2029               	addwfc	??_display_rpm+2,w,c
  2327  002B22  6E12               	movwf	wr16@addr+2,c
  2328  002B24  0E00               	movlw	0
  2329  002B26  6E14               	movwf	wr16@value+1,c
  2330  002B28  0E1C               	movlw	28
  2331  002B2A  6E13               	movwf	wr16@value,c
  2332  002B2C  EC36  F02F         	call	_wr16	;wreg free
  2333  002B30  0E02               	movlw	2
  2334  002B32  EC9B  F02F         	call	_cmd_incrementn
  2335  002B36  C037  F027         	movff	_cmd_offset,??_display_rpm
  2336  002B3A  C038  F028         	movff	_cmd_offset+1,??_display_rpm+1
  2337  002B3E  6A29               	clrf	(??_display_rpm+2)& (0+255),c
  2338  002B40  0E00               	movlw	0
  2339  002B42  2427               	addwf	??_display_rpm,w,c
  2340  002B44  6E10               	movwf	wr16@addr,c
  2341  002B46  0E80               	movlw	128
  2342  002B48  2028               	addwfc	??_display_rpm+1,w,c
  2343  002B4A  6E11               	movwf	wr16@addr+1,c
  2344  002B4C  0E10               	movlw	16
  2345  002B4E  2029               	addwfc	??_display_rpm+2,w,c
  2346  002B50  6E12               	movwf	wr16@addr+2,c
  2347  002B52  0E00               	movlw	0
  2348  002B54  6E14               	movwf	wr16@value+1,c
  2349  002B56  0E00               	movlw	0
  2350  002B58  6E13               	movwf	wr16@value,c
  2351  002B5A  EC36  F02F         	call	_wr16	;wreg free
  2352  002B5E  0E02               	movlw	2
  2353  002B60  EC9B  F02F         	call	_cmd_incrementn
  2354  002B64  C037  F027         	movff	_cmd_offset,??_display_rpm
  2355  002B68  C038  F028         	movff	_cmd_offset+1,??_display_rpm+1
  2356  002B6C  6A29               	clrf	(??_display_rpm+2)& (0+255),c
  2357  002B6E  0E00               	movlw	0
  2358  002B70  2427               	addwf	??_display_rpm,w,c
  2359  002B72  6E15               	movwf	wr8s@addr,c
  2360  002B74  0E80               	movlw	128
  2361  002B76  2028               	addwfc	??_display_rpm+1,w,c
  2362  002B78  6E16               	movwf	wr8s@addr+1,c
  2363  002B7A  0E10               	movlw	16
  2364  002B7C  2029               	addwfc	??_display_rpm+2,w,c
  2365  002B7E  6E17               	movwf	wr8s@addr+2,c
  2366  002B80  0E6C               	movlw	low STR_29
  2367  002B82  6E18               	movwf	wr8s@s,c
  2368  002B84  0E0F               	movlw	high STR_29
  2369  002B86  6E19               	movwf	wr8s@s+1,c
  2370  002B88  EC8D  F02D         	call	_wr8s	;wreg free
  2371  002B8C  EC9B  F02F         	call	_cmd_incrementn
  2372                           
  2373                           ;display.c: 157: cmd(4294967052UL);wr16(1081344UL+cmd_offset, 155);cmd_incrementn(2);wr1
      +                          6(1081344UL+cmd_offset, 92);cmd_incrementn(2);wr16(1081344UL+cmd_offset, 28);cmd_increme
      +                          ntn(2);wr16(1081344UL+cmd_offset, 0);cmd_incrementn(2);cmd_incrementn(wr8s(1081344UL+cmd
      +                          _of
  2374  002B90  0E0C               	movlw	12
  2375  002B92  6E1E               	movwf	cmd@command,c
  2376  002B94  0EFF               	movlw	255
  2377  002B96  6E1F               	movwf	cmd@command+1,c
  2378  002B98  0EFF               	movlw	255
  2379  002B9A  6E20               	movwf	cmd@command+2,c
  2380  002B9C  0EFF               	movlw	255
  2381  002B9E  6E21               	movwf	cmd@command+3,c
  2382  002BA0  EC54  F02F         	call	_cmd	;wreg free
  2383  002BA4  C037  F027         	movff	_cmd_offset,??_display_rpm
  2384  002BA8  C038  F028         	movff	_cmd_offset+1,??_display_rpm+1
  2385  002BAC  6A29               	clrf	(??_display_rpm+2)& (0+255),c
  2386  002BAE  0E00               	movlw	0
  2387  002BB0  2427               	addwf	??_display_rpm,w,c
  2388  002BB2  6E10               	movwf	wr16@addr,c
  2389  002BB4  0E80               	movlw	128
  2390  002BB6  2028               	addwfc	??_display_rpm+1,w,c
  2391  002BB8  6E11               	movwf	wr16@addr+1,c
  2392  002BBA  0E10               	movlw	16
  2393  002BBC  2029               	addwfc	??_display_rpm+2,w,c
  2394  002BBE  6E12               	movwf	wr16@addr+2,c
  2395  002BC0  0E00               	movlw	0
  2396  002BC2  6E14               	movwf	wr16@value+1,c
  2397  002BC4  0E9B               	movlw	155
  2398  002BC6  6E13               	movwf	wr16@value,c
  2399  002BC8  EC36  F02F         	call	_wr16	;wreg free
  2400  002BCC  0E02               	movlw	2
  2401  002BCE  EC9B  F02F         	call	_cmd_incrementn
  2402  002BD2  C037  F027         	movff	_cmd_offset,??_display_rpm
  2403  002BD6  C038  F028         	movff	_cmd_offset+1,??_display_rpm+1
  2404  002BDA  6A29               	clrf	(??_display_rpm+2)& (0+255),c
  2405  002BDC  0E00               	movlw	0
  2406  002BDE  2427               	addwf	??_display_rpm,w,c
  2407  002BE0  6E10               	movwf	wr16@addr,c
  2408  002BE2  0E80               	movlw	128
  2409  002BE4  2028               	addwfc	??_display_rpm+1,w,c
  2410  002BE6  6E11               	movwf	wr16@addr+1,c
  2411  002BE8  0E10               	movlw	16
  2412  002BEA  2029               	addwfc	??_display_rpm+2,w,c
  2413  002BEC  6E12               	movwf	wr16@addr+2,c
  2414  002BEE  0E00               	movlw	0
  2415  002BF0  6E14               	movwf	wr16@value+1,c
  2416  002BF2  0E5C               	movlw	92
  2417  002BF4  6E13               	movwf	wr16@value,c
  2418  002BF6  EC36  F02F         	call	_wr16	;wreg free
  2419  002BFA  0E02               	movlw	2
  2420  002BFC  EC9B  F02F         	call	_cmd_incrementn
  2421  002C00  C037  F027         	movff	_cmd_offset,??_display_rpm
  2422  002C04  C038  F028         	movff	_cmd_offset+1,??_display_rpm+1
  2423  002C08  6A29               	clrf	(??_display_rpm+2)& (0+255),c
  2424  002C0A  0E00               	movlw	0
  2425  002C0C  2427               	addwf	??_display_rpm,w,c
  2426  002C0E  6E10               	movwf	wr16@addr,c
  2427  002C10  0E80               	movlw	128
  2428  002C12  2028               	addwfc	??_display_rpm+1,w,c
  2429  002C14  6E11               	movwf	wr16@addr+1,c
  2430  002C16  0E10               	movlw	16
  2431  002C18  2029               	addwfc	??_display_rpm+2,w,c
  2432  002C1A  6E12               	movwf	wr16@addr+2,c
  2433  002C1C  0E00               	movlw	0
  2434  002C1E  6E14               	movwf	wr16@value+1,c
  2435  002C20  0E1C               	movlw	28
  2436  002C22  6E13               	movwf	wr16@value,c
  2437  002C24  EC36  F02F         	call	_wr16	;wreg free
  2438  002C28  0E02               	movlw	2
  2439  002C2A  EC9B  F02F         	call	_cmd_incrementn
  2440  002C2E  C037  F027         	movff	_cmd_offset,??_display_rpm
  2441  002C32  C038  F028         	movff	_cmd_offset+1,??_display_rpm+1
  2442  002C36  6A29               	clrf	(??_display_rpm+2)& (0+255),c
  2443  002C38  0E00               	movlw	0
  2444  002C3A  2427               	addwf	??_display_rpm,w,c
  2445  002C3C  6E10               	movwf	wr16@addr,c
  2446  002C3E  0E80               	movlw	128
  2447  002C40  2028               	addwfc	??_display_rpm+1,w,c
  2448  002C42  6E11               	movwf	wr16@addr+1,c
  2449  002C44  0E10               	movlw	16
  2450  002C46  2029               	addwfc	??_display_rpm+2,w,c
  2451  002C48  6E12               	movwf	wr16@addr+2,c
  2452  002C4A  0E00               	movlw	0
  2453  002C4C  6E14               	movwf	wr16@value+1,c
  2454  002C4E  0E00               	movlw	0
  2455  002C50  6E13               	movwf	wr16@value,c
  2456  002C52  EC36  F02F         	call	_wr16	;wreg free
  2457  002C56  0E02               	movlw	2
  2458  002C58  EC9B  F02F         	call	_cmd_incrementn
  2459  002C5C  C037  F027         	movff	_cmd_offset,??_display_rpm
  2460  002C60  C038  F028         	movff	_cmd_offset+1,??_display_rpm+1
  2461  002C64  6A29               	clrf	(??_display_rpm+2)& (0+255),c
  2462  002C66  0E00               	movlw	0
  2463  002C68  2427               	addwf	??_display_rpm,w,c
  2464  002C6A  6E15               	movwf	wr8s@addr,c
  2465  002C6C  0E80               	movlw	128
  2466  002C6E  2028               	addwfc	??_display_rpm+1,w,c
  2467  002C70  6E16               	movwf	wr8s@addr+1,c
  2468  002C72  0E10               	movlw	16
  2469  002C74  2029               	addwfc	??_display_rpm+2,w,c
  2470  002C76  6E17               	movwf	wr8s@addr+2,c
  2471  002C78  0E6E               	movlw	low STR_30
  2472  002C7A  6E18               	movwf	wr8s@s,c
  2473  002C7C  0E0F               	movlw	high STR_30
  2474  002C7E  6E19               	movwf	wr8s@s+1,c
  2475  002C80  EC8D  F02D         	call	_wr8s	;wreg free
  2476  002C84  EC9B  F02F         	call	_cmd_incrementn
  2477                           
  2478                           ;display.c: 158: cmd(4294967052UL);wr16(1081344UL+cmd_offset, 171);cmd_incrementn(2);wr1
      +                          6(1081344UL+cmd_offset, 58);cmd_incrementn(2);wr16(1081344UL+cmd_offset, 28);cmd_increme
      +                          ntn(2);wr16(1081344UL+cmd_offset, 0);cmd_incrementn(2);cmd_incrementn(wr8s(1081344UL+cmd
      +                          _of
  2479  002C88  0E0C               	movlw	12
  2480  002C8A  6E1E               	movwf	cmd@command,c
  2481  002C8C  0EFF               	movlw	255
  2482  002C8E  6E1F               	movwf	cmd@command+1,c
  2483  002C90  0EFF               	movlw	255
  2484  002C92  6E20               	movwf	cmd@command+2,c
  2485  002C94  0EFF               	movlw	255
  2486  002C96  6E21               	movwf	cmd@command+3,c
  2487  002C98  EC54  F02F         	call	_cmd	;wreg free
  2488  002C9C  C037  F027         	movff	_cmd_offset,??_display_rpm
  2489  002CA0  C038  F028         	movff	_cmd_offset+1,??_display_rpm+1
  2490  002CA4  6A29               	clrf	(??_display_rpm+2)& (0+255),c
  2491  002CA6  0E00               	movlw	0
  2492  002CA8  2427               	addwf	??_display_rpm,w,c
  2493  002CAA  6E10               	movwf	wr16@addr,c
  2494  002CAC  0E80               	movlw	128
  2495  002CAE  2028               	addwfc	??_display_rpm+1,w,c
  2496  002CB0  6E11               	movwf	wr16@addr+1,c
  2497  002CB2  0E10               	movlw	16
  2498  002CB4  2029               	addwfc	??_display_rpm+2,w,c
  2499  002CB6  6E12               	movwf	wr16@addr+2,c
  2500  002CB8  0E00               	movlw	0
  2501  002CBA  6E14               	movwf	wr16@value+1,c
  2502  002CBC  0EAB               	movlw	171
  2503  002CBE  6E13               	movwf	wr16@value,c
  2504  002CC0  EC36  F02F         	call	_wr16	;wreg free
  2505  002CC4  0E02               	movlw	2
  2506  002CC6  EC9B  F02F         	call	_cmd_incrementn
  2507  002CCA  C037  F027         	movff	_cmd_offset,??_display_rpm
  2508  002CCE  C038  F028         	movff	_cmd_offset+1,??_display_rpm+1
  2509  002CD2  6A29               	clrf	(??_display_rpm+2)& (0+255),c
  2510  002CD4  0E00               	movlw	0
  2511  002CD6  2427               	addwf	??_display_rpm,w,c
  2512  002CD8  6E10               	movwf	wr16@addr,c
  2513  002CDA  0E80               	movlw	128
  2514  002CDC  2028               	addwfc	??_display_rpm+1,w,c
  2515  002CDE  6E11               	movwf	wr16@addr+1,c
  2516  002CE0  0E10               	movlw	16
  2517  002CE2  2029               	addwfc	??_display_rpm+2,w,c
  2518  002CE4  6E12               	movwf	wr16@addr+2,c
  2519  002CE6  0E00               	movlw	0
  2520  002CE8  6E14               	movwf	wr16@value+1,c
  2521  002CEA  0E3A               	movlw	58
  2522  002CEC  6E13               	movwf	wr16@value,c
  2523  002CEE  EC36  F02F         	call	_wr16	;wreg free
  2524  002CF2  0E02               	movlw	2
  2525  002CF4  EC9B  F02F         	call	_cmd_incrementn
  2526  002CF8  C037  F027         	movff	_cmd_offset,??_display_rpm
  2527  002CFC  C038  F028         	movff	_cmd_offset+1,??_display_rpm+1
  2528  002D00  6A29               	clrf	(??_display_rpm+2)& (0+255),c
  2529  002D02  0E00               	movlw	0
  2530  002D04  2427               	addwf	??_display_rpm,w,c
  2531  002D06  6E10               	movwf	wr16@addr,c
  2532  002D08  0E80               	movlw	128
  2533  002D0A  2028               	addwfc	??_display_rpm+1,w,c
  2534  002D0C  6E11               	movwf	wr16@addr+1,c
  2535  002D0E  0E10               	movlw	16
  2536  002D10  2029               	addwfc	??_display_rpm+2,w,c
  2537  002D12  6E12               	movwf	wr16@addr+2,c
  2538  002D14  0E00               	movlw	0
  2539  002D16  6E14               	movwf	wr16@value+1,c
  2540  002D18  0E1C               	movlw	28
  2541  002D1A  6E13               	movwf	wr16@value,c
  2542  002D1C  EC36  F02F         	call	_wr16	;wreg free
  2543  002D20  0E02               	movlw	2
  2544  002D22  EC9B  F02F         	call	_cmd_incrementn
  2545  002D26  C037  F027         	movff	_cmd_offset,??_display_rpm
  2546  002D2A  C038  F028         	movff	_cmd_offset+1,??_display_rpm+1
  2547  002D2E  6A29               	clrf	(??_display_rpm+2)& (0+255),c
  2548  002D30  0E00               	movlw	0
  2549  002D32  2427               	addwf	??_display_rpm,w,c
  2550  002D34  6E10               	movwf	wr16@addr,c
  2551  002D36  0E80               	movlw	128
  2552  002D38  2028               	addwfc	??_display_rpm+1,w,c
  2553  002D3A  6E11               	movwf	wr16@addr+1,c
  2554  002D3C  0E10               	movlw	16
  2555  002D3E  2029               	addwfc	??_display_rpm+2,w,c
  2556  002D40  6E12               	movwf	wr16@addr+2,c
  2557  002D42  0E00               	movlw	0
  2558  002D44  6E14               	movwf	wr16@value+1,c
  2559  002D46  0E00               	movlw	0
  2560  002D48  6E13               	movwf	wr16@value,c
  2561  002D4A  EC36  F02F         	call	_wr16	;wreg free
  2562  002D4E  0E02               	movlw	2
  2563  002D50  EC9B  F02F         	call	_cmd_incrementn
  2564  002D54  C037  F027         	movff	_cmd_offset,??_display_rpm
  2565  002D58  C038  F028         	movff	_cmd_offset+1,??_display_rpm+1
  2566  002D5C  6A29               	clrf	(??_display_rpm+2)& (0+255),c
  2567  002D5E  0E00               	movlw	0
  2568  002D60  2427               	addwf	??_display_rpm,w,c
  2569  002D62  6E15               	movwf	wr8s@addr,c
  2570  002D64  0E80               	movlw	128
  2571  002D66  2028               	addwfc	??_display_rpm+1,w,c
  2572  002D68  6E16               	movwf	wr8s@addr+1,c
  2573  002D6A  0E10               	movlw	16
  2574  002D6C  2029               	addwfc	??_display_rpm+2,w,c
  2575  002D6E  6E17               	movwf	wr8s@addr+2,c
  2576  002D70  0E70               	movlw	low STR_31
  2577  002D72  6E18               	movwf	wr8s@s,c
  2578  002D74  0E0F               	movlw	high STR_31
  2579  002D76  6E19               	movwf	wr8s@s+1,c
  2580  002D78  EC8D  F02D         	call	_wr8s	;wreg free
  2581  002D7C  EC9B  F02F         	call	_cmd_incrementn
  2582                           
  2583                           ;display.c: 159: cmd(4294967052UL);wr16(1081344UL+cmd_offset, 201);cmd_incrementn(2);wr1
      +                          6(1081344UL+cmd_offset, 33);cmd_incrementn(2);wr16(1081344UL+cmd_offset, 28);cmd_increme
      +                          ntn(2);wr16(1081344UL+cmd_offset, 0);cmd_incrementn(2);cmd_incrementn(wr8s(1081344UL+cmd
      +                          _of
  2584  002D80  0E0C               	movlw	12
  2585  002D82  6E1E               	movwf	cmd@command,c
  2586  002D84  0EFF               	movlw	255
  2587  002D86  6E1F               	movwf	cmd@command+1,c
  2588  002D88  0EFF               	movlw	255
  2589  002D8A  6E20               	movwf	cmd@command+2,c
  2590  002D8C  0EFF               	movlw	255
  2591  002D8E  6E21               	movwf	cmd@command+3,c
  2592  002D90  EC54  F02F         	call	_cmd	;wreg free
  2593  002D94  C037  F027         	movff	_cmd_offset,??_display_rpm
  2594  002D98  C038  F028         	movff	_cmd_offset+1,??_display_rpm+1
  2595  002D9C  6A29               	clrf	(??_display_rpm+2)& (0+255),c
  2596  002D9E  0E00               	movlw	0
  2597  002DA0  2427               	addwf	??_display_rpm,w,c
  2598  002DA2  6E10               	movwf	wr16@addr,c
  2599  002DA4  0E80               	movlw	128
  2600  002DA6  2028               	addwfc	??_display_rpm+1,w,c
  2601  002DA8  6E11               	movwf	wr16@addr+1,c
  2602  002DAA  0E10               	movlw	16
  2603  002DAC  2029               	addwfc	??_display_rpm+2,w,c
  2604  002DAE  6E12               	movwf	wr16@addr+2,c
  2605  002DB0  0E00               	movlw	0
  2606  002DB2  6E14               	movwf	wr16@value+1,c
  2607  002DB4  0EC9               	movlw	201
  2608  002DB6  6E13               	movwf	wr16@value,c
  2609  002DB8  EC36  F02F         	call	_wr16	;wreg free
  2610  002DBC  0E02               	movlw	2
  2611  002DBE  EC9B  F02F         	call	_cmd_incrementn
  2612  002DC2  C037  F027         	movff	_cmd_offset,??_display_rpm
  2613  002DC6  C038  F028         	movff	_cmd_offset+1,??_display_rpm+1
  2614  002DCA  6A29               	clrf	(??_display_rpm+2)& (0+255),c
  2615  002DCC  0E00               	movlw	0
  2616  002DCE  2427               	addwf	??_display_rpm,w,c
  2617  002DD0  6E10               	movwf	wr16@addr,c
  2618  002DD2  0E80               	movlw	128
  2619  002DD4  2028               	addwfc	??_display_rpm+1,w,c
  2620  002DD6  6E11               	movwf	wr16@addr+1,c
  2621  002DD8  0E10               	movlw	16
  2622  002DDA  2029               	addwfc	??_display_rpm+2,w,c
  2623  002DDC  6E12               	movwf	wr16@addr+2,c
  2624  002DDE  0E00               	movlw	0
  2625  002DE0  6E14               	movwf	wr16@value+1,c
  2626  002DE2  0E21               	movlw	33
  2627  002DE4  6E13               	movwf	wr16@value,c
  2628  002DE6  EC36  F02F         	call	_wr16	;wreg free
  2629  002DEA  0E02               	movlw	2
  2630  002DEC  EC9B  F02F         	call	_cmd_incrementn
  2631  002DF0  C037  F027         	movff	_cmd_offset,??_display_rpm
  2632  002DF4  C038  F028         	movff	_cmd_offset+1,??_display_rpm+1
  2633  002DF8  6A29               	clrf	(??_display_rpm+2)& (0+255),c
  2634  002DFA  0E00               	movlw	0
  2635  002DFC  2427               	addwf	??_display_rpm,w,c
  2636  002DFE  6E10               	movwf	wr16@addr,c
  2637  002E00  0E80               	movlw	128
  2638  002E02  2028               	addwfc	??_display_rpm+1,w,c
  2639  002E04  6E11               	movwf	wr16@addr+1,c
  2640  002E06  0E10               	movlw	16
  2641  002E08  2029               	addwfc	??_display_rpm+2,w,c
  2642  002E0A  6E12               	movwf	wr16@addr+2,c
  2643  002E0C  0E00               	movlw	0
  2644  002E0E  6E14               	movwf	wr16@value+1,c
  2645  002E10  0E1C               	movlw	28
  2646  002E12  6E13               	movwf	wr16@value,c
  2647  002E14  EC36  F02F         	call	_wr16	;wreg free
  2648  002E18  0E02               	movlw	2
  2649  002E1A  EC9B  F02F         	call	_cmd_incrementn
  2650  002E1E  C037  F027         	movff	_cmd_offset,??_display_rpm
  2651  002E22  C038  F028         	movff	_cmd_offset+1,??_display_rpm+1
  2652  002E26  6A29               	clrf	(??_display_rpm+2)& (0+255),c
  2653  002E28  0E00               	movlw	0
  2654  002E2A  2427               	addwf	??_display_rpm,w,c
  2655  002E2C  6E10               	movwf	wr16@addr,c
  2656  002E2E  0E80               	movlw	128
  2657  002E30  2028               	addwfc	??_display_rpm+1,w,c
  2658  002E32  6E11               	movwf	wr16@addr+1,c
  2659  002E34  0E10               	movlw	16
  2660  002E36  2029               	addwfc	??_display_rpm+2,w,c
  2661  002E38  6E12               	movwf	wr16@addr+2,c
  2662  002E3A  0E00               	movlw	0
  2663  002E3C  6E14               	movwf	wr16@value+1,c
  2664  002E3E  0E00               	movlw	0
  2665  002E40  6E13               	movwf	wr16@value,c
  2666  002E42  EC36  F02F         	call	_wr16	;wreg free
  2667  002E46  0E02               	movlw	2
  2668  002E48  EC9B  F02F         	call	_cmd_incrementn
  2669  002E4C  C037  F027         	movff	_cmd_offset,??_display_rpm
  2670  002E50  C038  F028         	movff	_cmd_offset+1,??_display_rpm+1
  2671  002E54  6A29               	clrf	(??_display_rpm+2)& (0+255),c
  2672  002E56  0E00               	movlw	0
  2673  002E58  2427               	addwf	??_display_rpm,w,c
  2674  002E5A  6E15               	movwf	wr8s@addr,c
  2675  002E5C  0E80               	movlw	128
  2676  002E5E  2028               	addwfc	??_display_rpm+1,w,c
  2677  002E60  6E16               	movwf	wr8s@addr+1,c
  2678  002E62  0E10               	movlw	16
  2679  002E64  2029               	addwfc	??_display_rpm+2,w,c
  2680  002E66  6E17               	movwf	wr8s@addr+2,c
  2681  002E68  0E72               	movlw	low STR_32
  2682  002E6A  6E18               	movwf	wr8s@s,c
  2683  002E6C  0E0F               	movlw	high STR_32
  2684  002E6E  6E19               	movwf	wr8s@s+1,c
  2685  002E70  EC8D  F02D         	call	_wr8s	;wreg free
  2686  002E74  EC9B  F02F         	call	_cmd_incrementn
  2687                           
  2688                           ;display.c: 160: cmd(4294967052UL);wr16(1081344UL+cmd_offset, 235);cmd_incrementn(2);wr1
      +                          6(1081344UL+cmd_offset, 26);cmd_incrementn(2);wr16(1081344UL+cmd_offset, 28);cmd_increme
      +                          ntn(2);wr16(1081344UL+cmd_offset, 0);cmd_incrementn(2);cmd_incrementn(wr8s(1081344UL+cmd
      +                          _of
  2689  002E78  0E0C               	movlw	12
  2690  002E7A  6E1E               	movwf	cmd@command,c
  2691  002E7C  0EFF               	movlw	255
  2692  002E7E  6E1F               	movwf	cmd@command+1,c
  2693  002E80  0EFF               	movlw	255
  2694  002E82  6E20               	movwf	cmd@command+2,c
  2695  002E84  0EFF               	movlw	255
  2696  002E86  6E21               	movwf	cmd@command+3,c
  2697  002E88  EC54  F02F         	call	_cmd	;wreg free
  2698  002E8C  C037  F027         	movff	_cmd_offset,??_display_rpm
  2699  002E90  C038  F028         	movff	_cmd_offset+1,??_display_rpm+1
  2700  002E94  6A29               	clrf	(??_display_rpm+2)& (0+255),c
  2701  002E96  0E00               	movlw	0
  2702  002E98  2427               	addwf	??_display_rpm,w,c
  2703  002E9A  6E10               	movwf	wr16@addr,c
  2704  002E9C  0E80               	movlw	128
  2705  002E9E  2028               	addwfc	??_display_rpm+1,w,c
  2706  002EA0  6E11               	movwf	wr16@addr+1,c
  2707  002EA2  0E10               	movlw	16
  2708  002EA4  2029               	addwfc	??_display_rpm+2,w,c
  2709  002EA6  6E12               	movwf	wr16@addr+2,c
  2710  002EA8  0E00               	movlw	0
  2711  002EAA  6E14               	movwf	wr16@value+1,c
  2712  002EAC  0EEB               	movlw	235
  2713  002EAE  6E13               	movwf	wr16@value,c
  2714  002EB0  EC36  F02F         	call	_wr16	;wreg free
  2715  002EB4  0E02               	movlw	2
  2716  002EB6  EC9B  F02F         	call	_cmd_incrementn
  2717  002EBA  C037  F027         	movff	_cmd_offset,??_display_rpm
  2718  002EBE  C038  F028         	movff	_cmd_offset+1,??_display_rpm+1
  2719  002EC2  6A29               	clrf	(??_display_rpm+2)& (0+255),c
  2720  002EC4  0E00               	movlw	0
  2721  002EC6  2427               	addwf	??_display_rpm,w,c
  2722  002EC8  6E10               	movwf	wr16@addr,c
  2723  002ECA  0E80               	movlw	128
  2724  002ECC  2028               	addwfc	??_display_rpm+1,w,c
  2725  002ECE  6E11               	movwf	wr16@addr+1,c
  2726  002ED0  0E10               	movlw	16
  2727  002ED2  2029               	addwfc	??_display_rpm+2,w,c
  2728  002ED4  6E12               	movwf	wr16@addr+2,c
  2729  002ED6  0E00               	movlw	0
  2730  002ED8  6E14               	movwf	wr16@value+1,c
  2731  002EDA  0E1A               	movlw	26
  2732  002EDC  6E13               	movwf	wr16@value,c
  2733  002EDE  EC36  F02F         	call	_wr16	;wreg free
  2734  002EE2  0E02               	movlw	2
  2735  002EE4  EC9B  F02F         	call	_cmd_incrementn
  2736  002EE8  C037  F027         	movff	_cmd_offset,??_display_rpm
  2737  002EEC  C038  F028         	movff	_cmd_offset+1,??_display_rpm+1
  2738  002EF0  6A29               	clrf	(??_display_rpm+2)& (0+255),c
  2739  002EF2  0E00               	movlw	0
  2740  002EF4  2427               	addwf	??_display_rpm,w,c
  2741  002EF6  6E10               	movwf	wr16@addr,c
  2742  002EF8  0E80               	movlw	128
  2743  002EFA  2028               	addwfc	??_display_rpm+1,w,c
  2744  002EFC  6E11               	movwf	wr16@addr+1,c
  2745  002EFE  0E10               	movlw	16
  2746  002F00  2029               	addwfc	??_display_rpm+2,w,c
  2747  002F02  6E12               	movwf	wr16@addr+2,c
  2748  002F04  0E00               	movlw	0
  2749  002F06  6E14               	movwf	wr16@value+1,c
  2750  002F08  0E1C               	movlw	28
  2751  002F0A  6E13               	movwf	wr16@value,c
  2752  002F0C  EC36  F02F         	call	_wr16	;wreg free
  2753  002F10  0E02               	movlw	2
  2754  002F12  EC9B  F02F         	call	_cmd_incrementn
  2755  002F16  C037  F027         	movff	_cmd_offset,??_display_rpm
  2756  002F1A  C038  F028         	movff	_cmd_offset+1,??_display_rpm+1
  2757  002F1E  6A29               	clrf	(??_display_rpm+2)& (0+255),c
  2758  002F20  0E00               	movlw	0
  2759  002F22  2427               	addwf	??_display_rpm,w,c
  2760  002F24  6E10               	movwf	wr16@addr,c
  2761  002F26  0E80               	movlw	128
  2762  002F28  2028               	addwfc	??_display_rpm+1,w,c
  2763  002F2A  6E11               	movwf	wr16@addr+1,c
  2764  002F2C  0E10               	movlw	16
  2765  002F2E  2029               	addwfc	??_display_rpm+2,w,c
  2766  002F30  6E12               	movwf	wr16@addr+2,c
  2767  002F32  0E00               	movlw	0
  2768  002F34  6E14               	movwf	wr16@value+1,c
  2769  002F36  0E00               	movlw	0
  2770  002F38  6E13               	movwf	wr16@value,c
  2771  002F3A  EC36  F02F         	call	_wr16	;wreg free
  2772  002F3E  0E02               	movlw	2
  2773  002F40  EC9B  F02F         	call	_cmd_incrementn
  2774  002F44  C037  F027         	movff	_cmd_offset,??_display_rpm
  2775  002F48  C038  F028         	movff	_cmd_offset+1,??_display_rpm+1
  2776  002F4C  6A29               	clrf	(??_display_rpm+2)& (0+255),c
  2777  002F4E  0E00               	movlw	0
  2778  002F50  2427               	addwf	??_display_rpm,w,c
  2779  002F52  6E15               	movwf	wr8s@addr,c
  2780  002F54  0E80               	movlw	128
  2781  002F56  2028               	addwfc	??_display_rpm+1,w,c
  2782  002F58  6E16               	movwf	wr8s@addr+1,c
  2783  002F5A  0E10               	movlw	16
  2784  002F5C  2029               	addwfc	??_display_rpm+2,w,c
  2785  002F5E  6E17               	movwf	wr8s@addr+2,c
  2786  002F60  0E74               	movlw	low STR_33
  2787  002F62  6E18               	movwf	wr8s@s,c
  2788  002F64  0E0F               	movlw	high STR_33
  2789  002F66  6E19               	movwf	wr8s@s+1,c
  2790  002F68  EC8D  F02D         	call	_wr8s	;wreg free
  2791  002F6C  EC9B  F02F         	call	_cmd_incrementn
  2792                           
  2793                           ;display.c: 161: cmd(4294967052UL);wr16(1081344UL+cmd_offset, 269);cmd_incrementn(2);wr1
      +                          6(1081344UL+cmd_offset, 33);cmd_incrementn(2);wr16(1081344UL+cmd_offset, 28);cmd_increme
      +                          ntn(2);wr16(1081344UL+cmd_offset, 0);cmd_incrementn(2);cmd_incrementn(wr8s(1081344UL+cmd
      +                          _of
  2794  002F70  0E0C               	movlw	12
  2795  002F72  6E1E               	movwf	cmd@command,c
  2796  002F74  0EFF               	movlw	255
  2797  002F76  6E1F               	movwf	cmd@command+1,c
  2798  002F78  0EFF               	movlw	255
  2799  002F7A  6E20               	movwf	cmd@command+2,c
  2800  002F7C  0EFF               	movlw	255
  2801  002F7E  6E21               	movwf	cmd@command+3,c
  2802  002F80  EC54  F02F         	call	_cmd	;wreg free
  2803  002F84  C037  F027         	movff	_cmd_offset,??_display_rpm
  2804  002F88  C038  F028         	movff	_cmd_offset+1,??_display_rpm+1
  2805  002F8C  6A29               	clrf	(??_display_rpm+2)& (0+255),c
  2806  002F8E  0E00               	movlw	0
  2807  002F90  2427               	addwf	??_display_rpm,w,c
  2808  002F92  6E10               	movwf	wr16@addr,c
  2809  002F94  0E80               	movlw	128
  2810  002F96  2028               	addwfc	??_display_rpm+1,w,c
  2811  002F98  6E11               	movwf	wr16@addr+1,c
  2812  002F9A  0E10               	movlw	16
  2813  002F9C  2029               	addwfc	??_display_rpm+2,w,c
  2814  002F9E  6E12               	movwf	wr16@addr+2,c
  2815  002FA0  0E01               	movlw	1
  2816  002FA2  6E14               	movwf	wr16@value+1,c
  2817  002FA4  0E0D               	movlw	13
  2818  002FA6  6E13               	movwf	wr16@value,c
  2819  002FA8  EC36  F02F         	call	_wr16	;wreg free
  2820  002FAC  0E02               	movlw	2
  2821  002FAE  EC9B  F02F         	call	_cmd_incrementn
  2822  002FB2  C037  F027         	movff	_cmd_offset,??_display_rpm
  2823  002FB6  C038  F028         	movff	_cmd_offset+1,??_display_rpm+1
  2824  002FBA  6A29               	clrf	(??_display_rpm+2)& (0+255),c
  2825  002FBC  0E00               	movlw	0
  2826  002FBE  2427               	addwf	??_display_rpm,w,c
  2827  002FC0  6E10               	movwf	wr16@addr,c
  2828  002FC2  0E80               	movlw	128
  2829  002FC4  2028               	addwfc	??_display_rpm+1,w,c
  2830  002FC6  6E11               	movwf	wr16@addr+1,c
  2831  002FC8  0E10               	movlw	16
  2832  002FCA  2029               	addwfc	??_display_rpm+2,w,c
  2833  002FCC  6E12               	movwf	wr16@addr+2,c
  2834  002FCE  0E00               	movlw	0
  2835  002FD0  6E14               	movwf	wr16@value+1,c
  2836  002FD2  0E21               	movlw	33
  2837  002FD4  6E13               	movwf	wr16@value,c
  2838  002FD6  EC36  F02F         	call	_wr16	;wreg free
  2839  002FDA  0E02               	movlw	2
  2840  002FDC  EC9B  F02F         	call	_cmd_incrementn
  2841  002FE0  C037  F027         	movff	_cmd_offset,??_display_rpm
  2842  002FE4  C038  F028         	movff	_cmd_offset+1,??_display_rpm+1
  2843  002FE8  6A29               	clrf	(??_display_rpm+2)& (0+255),c
  2844  002FEA  0E00               	movlw	0
  2845  002FEC  2427               	addwf	??_display_rpm,w,c
  2846  002FEE  6E10               	movwf	wr16@addr,c
  2847  002FF0  0E80               	movlw	128
  2848  002FF2  2028               	addwfc	??_display_rpm+1,w,c
  2849  002FF4  6E11               	movwf	wr16@addr+1,c
  2850  002FF6  0E10               	movlw	16
  2851  002FF8  2029               	addwfc	??_display_rpm+2,w,c
  2852  002FFA  6E12               	movwf	wr16@addr+2,c
  2853  002FFC  0E00               	movlw	0
  2854  002FFE  6E14               	movwf	wr16@value+1,c
  2855  003000  0E1C               	movlw	28
  2856  003002  6E13               	movwf	wr16@value,c
  2857  003004  EC36  F02F         	call	_wr16	;wreg free
  2858  003008  0E02               	movlw	2
  2859  00300A  EC9B  F02F         	call	_cmd_incrementn
  2860  00300E  C037  F027         	movff	_cmd_offset,??_display_rpm
  2861  003012  C038  F028         	movff	_cmd_offset+1,??_display_rpm+1
  2862  003016  6A29               	clrf	(??_display_rpm+2)& (0+255),c
  2863  003018  0E00               	movlw	0
  2864  00301A  2427               	addwf	??_display_rpm,w,c
  2865  00301C  6E10               	movwf	wr16@addr,c
  2866  00301E  0E80               	movlw	128
  2867  003020  2028               	addwfc	??_display_rpm+1,w,c
  2868  003022  6E11               	movwf	wr16@addr+1,c
  2869  003024  0E10               	movlw	16
  2870  003026  2029               	addwfc	??_display_rpm+2,w,c
  2871  003028  6E12               	movwf	wr16@addr+2,c
  2872  00302A  0E00               	movlw	0
  2873  00302C  6E14               	movwf	wr16@value+1,c
  2874  00302E  0E00               	movlw	0
  2875  003030  6E13               	movwf	wr16@value,c
  2876  003032  EC36  F02F         	call	_wr16	;wreg free
  2877  003036  0E02               	movlw	2
  2878  003038  EC9B  F02F         	call	_cmd_incrementn
  2879  00303C  C037  F027         	movff	_cmd_offset,??_display_rpm
  2880  003040  C038  F028         	movff	_cmd_offset+1,??_display_rpm+1
  2881  003044  6A29               	clrf	(??_display_rpm+2)& (0+255),c
  2882  003046  0E00               	movlw	0
  2883  003048  2427               	addwf	??_display_rpm,w,c
  2884  00304A  6E15               	movwf	wr8s@addr,c
  2885  00304C  0E80               	movlw	128
  2886  00304E  2028               	addwfc	??_display_rpm+1,w,c
  2887  003050  6E16               	movwf	wr8s@addr+1,c
  2888  003052  0E10               	movlw	16
  2889  003054  2029               	addwfc	??_display_rpm+2,w,c
  2890  003056  6E17               	movwf	wr8s@addr+2,c
  2891  003058  0E76               	movlw	low STR_34
  2892  00305A  6E18               	movwf	wr8s@s,c
  2893  00305C  0E0F               	movlw	high STR_34
  2894  00305E  6E19               	movwf	wr8s@s+1,c
  2895  003060  EC8D  F02D         	call	_wr8s	;wreg free
  2896  003064  EC9B  F02F         	call	_cmd_incrementn
  2897                           
  2898                           ;display.c: 162: cmd(4294967052UL);wr16(1081344UL+cmd_offset, 298);cmd_incrementn(2);wr1
      +                          6(1081344UL+cmd_offset, 58);cmd_incrementn(2);wr16(1081344UL+cmd_offset, 28);cmd_increme
      +                          ntn(2);wr16(1081344UL+cmd_offset, 0);cmd_incrementn(2);cmd_incrementn(wr8s(1081344UL+cmd
      +                          _of
  2899  003068  0E0C               	movlw	12
  2900  00306A  6E1E               	movwf	cmd@command,c
  2901  00306C  0EFF               	movlw	255
  2902  00306E  6E1F               	movwf	cmd@command+1,c
  2903  003070  0EFF               	movlw	255
  2904  003072  6E20               	movwf	cmd@command+2,c
  2905  003074  0EFF               	movlw	255
  2906  003076  6E21               	movwf	cmd@command+3,c
  2907  003078  EC54  F02F         	call	_cmd	;wreg free
  2908  00307C  C037  F027         	movff	_cmd_offset,??_display_rpm
  2909  003080  C038  F028         	movff	_cmd_offset+1,??_display_rpm+1
  2910  003084  6A29               	clrf	(??_display_rpm+2)& (0+255),c
  2911  003086  0E00               	movlw	0
  2912  003088  2427               	addwf	??_display_rpm,w,c
  2913  00308A  6E10               	movwf	wr16@addr,c
  2914  00308C  0E80               	movlw	128
  2915  00308E  2028               	addwfc	??_display_rpm+1,w,c
  2916  003090  6E11               	movwf	wr16@addr+1,c
  2917  003092  0E10               	movlw	16
  2918  003094  2029               	addwfc	??_display_rpm+2,w,c
  2919  003096  6E12               	movwf	wr16@addr+2,c
  2920  003098  0E01               	movlw	1
  2921  00309A  6E14               	movwf	wr16@value+1,c
  2922  00309C  0E2A               	movlw	42
  2923  00309E  6E13               	movwf	wr16@value,c
  2924  0030A0  EC36  F02F         	call	_wr16	;wreg free
  2925  0030A4  0E02               	movlw	2
  2926  0030A6  EC9B  F02F         	call	_cmd_incrementn
  2927  0030AA  C037  F027         	movff	_cmd_offset,??_display_rpm
  2928  0030AE  C038  F028         	movff	_cmd_offset+1,??_display_rpm+1
  2929  0030B2  6A29               	clrf	(??_display_rpm+2)& (0+255),c
  2930  0030B4  0E00               	movlw	0
  2931  0030B6  2427               	addwf	??_display_rpm,w,c
  2932  0030B8  6E10               	movwf	wr16@addr,c
  2933  0030BA  0E80               	movlw	128
  2934  0030BC  2028               	addwfc	??_display_rpm+1,w,c
  2935  0030BE  6E11               	movwf	wr16@addr+1,c
  2936  0030C0  0E10               	movlw	16
  2937  0030C2  2029               	addwfc	??_display_rpm+2,w,c
  2938  0030C4  6E12               	movwf	wr16@addr+2,c
  2939  0030C6  0E00               	movlw	0
  2940  0030C8  6E14               	movwf	wr16@value+1,c
  2941  0030CA  0E3A               	movlw	58
  2942  0030CC  6E13               	movwf	wr16@value,c
  2943  0030CE  EC36  F02F         	call	_wr16	;wreg free
  2944  0030D2  0E02               	movlw	2
  2945  0030D4  EC9B  F02F         	call	_cmd_incrementn
  2946  0030D8  C037  F027         	movff	_cmd_offset,??_display_rpm
  2947  0030DC  C038  F028         	movff	_cmd_offset+1,??_display_rpm+1
  2948  0030E0  6A29               	clrf	(??_display_rpm+2)& (0+255),c
  2949  0030E2  0E00               	movlw	0
  2950  0030E4  2427               	addwf	??_display_rpm,w,c
  2951  0030E6  6E10               	movwf	wr16@addr,c
  2952  0030E8  0E80               	movlw	128
  2953  0030EA  2028               	addwfc	??_display_rpm+1,w,c
  2954  0030EC  6E11               	movwf	wr16@addr+1,c
  2955  0030EE  0E10               	movlw	16
  2956  0030F0  2029               	addwfc	??_display_rpm+2,w,c
  2957  0030F2  6E12               	movwf	wr16@addr+2,c
  2958  0030F4  0E00               	movlw	0
  2959  0030F6  6E14               	movwf	wr16@value+1,c
  2960  0030F8  0E1C               	movlw	28
  2961  0030FA  6E13               	movwf	wr16@value,c
  2962  0030FC  EC36  F02F         	call	_wr16	;wreg free
  2963  003100  0E02               	movlw	2
  2964  003102  EC9B  F02F         	call	_cmd_incrementn
  2965  003106  C037  F027         	movff	_cmd_offset,??_display_rpm
  2966  00310A  C038  F028         	movff	_cmd_offset+1,??_display_rpm+1
  2967  00310E  6A29               	clrf	(??_display_rpm+2)& (0+255),c
  2968  003110  0E00               	movlw	0
  2969  003112  2427               	addwf	??_display_rpm,w,c
  2970  003114  6E10               	movwf	wr16@addr,c
  2971  003116  0E80               	movlw	128
  2972  003118  2028               	addwfc	??_display_rpm+1,w,c
  2973  00311A  6E11               	movwf	wr16@addr+1,c
  2974  00311C  0E10               	movlw	16
  2975  00311E  2029               	addwfc	??_display_rpm+2,w,c
  2976  003120  6E12               	movwf	wr16@addr+2,c
  2977  003122  0E00               	movlw	0
  2978  003124  6E14               	movwf	wr16@value+1,c
  2979  003126  0E00               	movlw	0
  2980  003128  6E13               	movwf	wr16@value,c
  2981  00312A  EC36  F02F         	call	_wr16	;wreg free
  2982  00312E  0E02               	movlw	2
  2983  003130  EC9B  F02F         	call	_cmd_incrementn
  2984  003134  C037  F027         	movff	_cmd_offset,??_display_rpm
  2985  003138  C038  F028         	movff	_cmd_offset+1,??_display_rpm+1
  2986  00313C  6A29               	clrf	(??_display_rpm+2)& (0+255),c
  2987  00313E  0E00               	movlw	0
  2988  003140  2427               	addwf	??_display_rpm,w,c
  2989  003142  6E15               	movwf	wr8s@addr,c
  2990  003144  0E80               	movlw	128
  2991  003146  2028               	addwfc	??_display_rpm+1,w,c
  2992  003148  6E16               	movwf	wr8s@addr+1,c
  2993  00314A  0E10               	movlw	16
  2994  00314C  2029               	addwfc	??_display_rpm+2,w,c
  2995  00314E  6E17               	movwf	wr8s@addr+2,c
  2996  003150  0E78               	movlw	low STR_35
  2997  003152  6E18               	movwf	wr8s@s,c
  2998  003154  0E0F               	movlw	high STR_35
  2999  003156  6E19               	movwf	wr8s@s+1,c
  3000  003158  EC8D  F02D         	call	_wr8s	;wreg free
  3001  00315C  EC9B  F02F         	call	_cmd_incrementn
  3002                           
  3003                           ;display.c: 163: cmd(4294967052UL);wr16(1081344UL+cmd_offset, 301);cmd_incrementn(2);wr1
      +                          6(1081344UL+cmd_offset, 92);cmd_incrementn(2);wr16(1081344UL+cmd_offset, 28);cmd_increme
      +                          ntn(2);wr16(1081344UL+cmd_offset, 0);cmd_incrementn(2);cmd_incrementn(wr8s(1081344UL+cmd
      +                          _of
  3004  003160  0E0C               	movlw	12
  3005  003162  6E1E               	movwf	cmd@command,c
  3006  003164  0EFF               	movlw	255
  3007  003166  6E1F               	movwf	cmd@command+1,c
  3008  003168  0EFF               	movlw	255
  3009  00316A  6E20               	movwf	cmd@command+2,c
  3010  00316C  0EFF               	movlw	255
  3011  00316E  6E21               	movwf	cmd@command+3,c
  3012  003170  EC54  F02F         	call	_cmd	;wreg free
  3013  003174  C037  F027         	movff	_cmd_offset,??_display_rpm
  3014  003178  C038  F028         	movff	_cmd_offset+1,??_display_rpm+1
  3015  00317C  6A29               	clrf	(??_display_rpm+2)& (0+255),c
  3016  00317E  0E00               	movlw	0
  3017  003180  2427               	addwf	??_display_rpm,w,c
  3018  003182  6E10               	movwf	wr16@addr,c
  3019  003184  0E80               	movlw	128
  3020  003186  2028               	addwfc	??_display_rpm+1,w,c
  3021  003188  6E11               	movwf	wr16@addr+1,c
  3022  00318A  0E10               	movlw	16
  3023  00318C  2029               	addwfc	??_display_rpm+2,w,c
  3024  00318E  6E12               	movwf	wr16@addr+2,c
  3025  003190  0E01               	movlw	1
  3026  003192  6E14               	movwf	wr16@value+1,c
  3027  003194  0E2D               	movlw	45
  3028  003196  6E13               	movwf	wr16@value,c
  3029  003198  EC36  F02F         	call	_wr16	;wreg free
  3030  00319C  0E02               	movlw	2
  3031  00319E  EC9B  F02F         	call	_cmd_incrementn
  3032  0031A2  C037  F027         	movff	_cmd_offset,??_display_rpm
  3033  0031A6  C038  F028         	movff	_cmd_offset+1,??_display_rpm+1
  3034  0031AA  6A29               	clrf	(??_display_rpm+2)& (0+255),c
  3035  0031AC  0E00               	movlw	0
  3036  0031AE  2427               	addwf	??_display_rpm,w,c
  3037  0031B0  6E10               	movwf	wr16@addr,c
  3038  0031B2  0E80               	movlw	128
  3039  0031B4  2028               	addwfc	??_display_rpm+1,w,c
  3040  0031B6  6E11               	movwf	wr16@addr+1,c
  3041  0031B8  0E10               	movlw	16
  3042  0031BA  2029               	addwfc	??_display_rpm+2,w,c
  3043  0031BC  6E12               	movwf	wr16@addr+2,c
  3044  0031BE  0E00               	movlw	0
  3045  0031C0  6E14               	movwf	wr16@value+1,c
  3046  0031C2  0E5C               	movlw	92
  3047  0031C4  6E13               	movwf	wr16@value,c
  3048  0031C6  EC36  F02F         	call	_wr16	;wreg free
  3049  0031CA  0E02               	movlw	2
  3050  0031CC  EC9B  F02F         	call	_cmd_incrementn
  3051  0031D0  C037  F027         	movff	_cmd_offset,??_display_rpm
  3052  0031D4  C038  F028         	movff	_cmd_offset+1,??_display_rpm+1
  3053  0031D8  6A29               	clrf	(??_display_rpm+2)& (0+255),c
  3054  0031DA  0E00               	movlw	0
  3055  0031DC  2427               	addwf	??_display_rpm,w,c
  3056  0031DE  6E10               	movwf	wr16@addr,c
  3057  0031E0  0E80               	movlw	128
  3058  0031E2  2028               	addwfc	??_display_rpm+1,w,c
  3059  0031E4  6E11               	movwf	wr16@addr+1,c
  3060  0031E6  0E10               	movlw	16
  3061  0031E8  2029               	addwfc	??_display_rpm+2,w,c
  3062  0031EA  6E12               	movwf	wr16@addr+2,c
  3063  0031EC  0E00               	movlw	0
  3064  0031EE  6E14               	movwf	wr16@value+1,c
  3065  0031F0  0E1C               	movlw	28
  3066  0031F2  6E13               	movwf	wr16@value,c
  3067  0031F4  EC36  F02F         	call	_wr16	;wreg free
  3068  0031F8  0E02               	movlw	2
  3069  0031FA  EC9B  F02F         	call	_cmd_incrementn
  3070  0031FE  C037  F027         	movff	_cmd_offset,??_display_rpm
  3071  003202  C038  F028         	movff	_cmd_offset+1,??_display_rpm+1
  3072  003206  6A29               	clrf	(??_display_rpm+2)& (0+255),c
  3073  003208  0E00               	movlw	0
  3074  00320A  2427               	addwf	??_display_rpm,w,c
  3075  00320C  6E10               	movwf	wr16@addr,c
  3076  00320E  0E80               	movlw	128
  3077  003210  2028               	addwfc	??_display_rpm+1,w,c
  3078  003212  6E11               	movwf	wr16@addr+1,c
  3079  003214  0E10               	movlw	16
  3080  003216  2029               	addwfc	??_display_rpm+2,w,c
  3081  003218  6E12               	movwf	wr16@addr+2,c
  3082  00321A  0E00               	movlw	0
  3083  00321C  6E14               	movwf	wr16@value+1,c
  3084  00321E  0E00               	movlw	0
  3085  003220  6E13               	movwf	wr16@value,c
  3086  003222  EC36  F02F         	call	_wr16	;wreg free
  3087  003226  0E02               	movlw	2
  3088  003228  EC9B  F02F         	call	_cmd_incrementn
  3089  00322C  C037  F027         	movff	_cmd_offset,??_display_rpm
  3090  003230  C038  F028         	movff	_cmd_offset+1,??_display_rpm+1
  3091  003234  6A29               	clrf	(??_display_rpm+2)& (0+255),c
  3092  003236  0E00               	movlw	0
  3093  003238  2427               	addwf	??_display_rpm,w,c
  3094  00323A  6E15               	movwf	wr8s@addr,c
  3095  00323C  0E80               	movlw	128
  3096  00323E  2028               	addwfc	??_display_rpm+1,w,c
  3097  003240  6E16               	movwf	wr8s@addr+1,c
  3098  003242  0E10               	movlw	16
  3099  003244  2029               	addwfc	??_display_rpm+2,w,c
  3100  003246  6E17               	movwf	wr8s@addr+2,c
  3101  003248  0E5C               	movlw	low STR_36
  3102  00324A  6E18               	movwf	wr8s@s,c
  3103  00324C  0E0F               	movlw	high STR_36
  3104  00324E  6E19               	movwf	wr8s@s+1,c
  3105  003250  EC8D  F02D         	call	_wr8s	;wreg free
  3106  003254  EC9B  F02F         	call	_cmd_incrementn
  3107                           
  3108                           ;display.c: 164: cmd(4294967052UL);wr16(1081344UL+cmd_offset, 299);cmd_incrementn(2);wr1
      +                          6(1081344UL+cmd_offset, 130);cmd_incrementn(2);wr16(1081344UL+cmd_offset, 28);cmd_increm
      +                          entn(2);wr16(1081344UL+cmd_offset, 0);cmd_incrementn(2);cmd_incrementn(wr8s(1081344UL+cm
      +                          d_o
  3109  003258  0E0C               	movlw	12
  3110  00325A  6E1E               	movwf	cmd@command,c
  3111  00325C  0EFF               	movlw	255
  3112  00325E  6E1F               	movwf	cmd@command+1,c
  3113  003260  0EFF               	movlw	255
  3114  003262  6E20               	movwf	cmd@command+2,c
  3115  003264  0EFF               	movlw	255
  3116  003266  6E21               	movwf	cmd@command+3,c
  3117  003268  EC54  F02F         	call	_cmd	;wreg free
  3118  00326C  C037  F027         	movff	_cmd_offset,??_display_rpm
  3119  003270  C038  F028         	movff	_cmd_offset+1,??_display_rpm+1
  3120  003274  6A29               	clrf	(??_display_rpm+2)& (0+255),c
  3121  003276  0E00               	movlw	0
  3122  003278  2427               	addwf	??_display_rpm,w,c
  3123  00327A  6E10               	movwf	wr16@addr,c
  3124  00327C  0E80               	movlw	128
  3125  00327E  2028               	addwfc	??_display_rpm+1,w,c
  3126  003280  6E11               	movwf	wr16@addr+1,c
  3127  003282  0E10               	movlw	16
  3128  003284  2029               	addwfc	??_display_rpm+2,w,c
  3129  003286  6E12               	movwf	wr16@addr+2,c
  3130  003288  0E01               	movlw	1
  3131  00328A  6E14               	movwf	wr16@value+1,c
  3132  00328C  0E2B               	movlw	43
  3133  00328E  6E13               	movwf	wr16@value,c
  3134  003290  EC36  F02F         	call	_wr16	;wreg free
  3135  003294  0E02               	movlw	2
  3136  003296  EC9B  F02F         	call	_cmd_incrementn
  3137  00329A  C037  F027         	movff	_cmd_offset,??_display_rpm
  3138  00329E  C038  F028         	movff	_cmd_offset+1,??_display_rpm+1
  3139  0032A2  6A29               	clrf	(??_display_rpm+2)& (0+255),c
  3140  0032A4  0E00               	movlw	0
  3141  0032A6  2427               	addwf	??_display_rpm,w,c
  3142  0032A8  6E10               	movwf	wr16@addr,c
  3143  0032AA  0E80               	movlw	128
  3144  0032AC  2028               	addwfc	??_display_rpm+1,w,c
  3145  0032AE  6E11               	movwf	wr16@addr+1,c
  3146  0032B0  0E10               	movlw	16
  3147  0032B2  2029               	addwfc	??_display_rpm+2,w,c
  3148  0032B4  6E12               	movwf	wr16@addr+2,c
  3149  0032B6  0E00               	movlw	0
  3150  0032B8  6E14               	movwf	wr16@value+1,c
  3151  0032BA  0E82               	movlw	130
  3152  0032BC  6E13               	movwf	wr16@value,c
  3153  0032BE  EC36  F02F         	call	_wr16	;wreg free
  3154  0032C2  0E02               	movlw	2
  3155  0032C4  EC9B  F02F         	call	_cmd_incrementn
  3156  0032C8  C037  F027         	movff	_cmd_offset,??_display_rpm
  3157  0032CC  C038  F028         	movff	_cmd_offset+1,??_display_rpm+1
  3158  0032D0  6A29               	clrf	(??_display_rpm+2)& (0+255),c
  3159  0032D2  0E00               	movlw	0
  3160  0032D4  2427               	addwf	??_display_rpm,w,c
  3161  0032D6  6E10               	movwf	wr16@addr,c
  3162  0032D8  0E80               	movlw	128
  3163  0032DA  2028               	addwfc	??_display_rpm+1,w,c
  3164  0032DC  6E11               	movwf	wr16@addr+1,c
  3165  0032DE  0E10               	movlw	16
  3166  0032E0  2029               	addwfc	??_display_rpm+2,w,c
  3167  0032E2  6E12               	movwf	wr16@addr+2,c
  3168  0032E4  0E00               	movlw	0
  3169  0032E6  6E14               	movwf	wr16@value+1,c
  3170  0032E8  0E1C               	movlw	28
  3171  0032EA  6E13               	movwf	wr16@value,c
  3172  0032EC  EC36  F02F         	call	_wr16	;wreg free
  3173  0032F0  0E02               	movlw	2
  3174  0032F2  EC9B  F02F         	call	_cmd_incrementn
  3175  0032F6  C037  F027         	movff	_cmd_offset,??_display_rpm
  3176  0032FA  C038  F028         	movff	_cmd_offset+1,??_display_rpm+1
  3177  0032FE  6A29               	clrf	(??_display_rpm+2)& (0+255),c
  3178  003300  0E00               	movlw	0
  3179  003302  2427               	addwf	??_display_rpm,w,c
  3180  003304  6E10               	movwf	wr16@addr,c
  3181  003306  0E80               	movlw	128
  3182  003308  2028               	addwfc	??_display_rpm+1,w,c
  3183  00330A  6E11               	movwf	wr16@addr+1,c
  3184  00330C  0E10               	movlw	16
  3185  00330E  2029               	addwfc	??_display_rpm+2,w,c
  3186  003310  6E12               	movwf	wr16@addr+2,c
  3187  003312  0E00               	movlw	0
  3188  003314  6E14               	movwf	wr16@value+1,c
  3189  003316  0E00               	movlw	0
  3190  003318  6E13               	movwf	wr16@value,c
  3191  00331A  EC36  F02F         	call	_wr16	;wreg free
  3192  00331E  0E02               	movlw	2
  3193  003320  EC9B  F02F         	call	_cmd_incrementn
  3194  003324  C037  F027         	movff	_cmd_offset,??_display_rpm
  3195  003328  C038  F028         	movff	_cmd_offset+1,??_display_rpm+1
  3196  00332C  6A29               	clrf	(??_display_rpm+2)& (0+255),c
  3197  00332E  0E00               	movlw	0
  3198  003330  2427               	addwf	??_display_rpm,w,c
  3199  003332  6E15               	movwf	wr8s@addr,c
  3200  003334  0E80               	movlw	128
  3201  003336  2028               	addwfc	??_display_rpm+1,w,c
  3202  003338  6E16               	movwf	wr8s@addr+1,c
  3203  00333A  0E10               	movlw	16
  3204  00333C  2029               	addwfc	??_display_rpm+2,w,c
  3205  00333E  6E17               	movwf	wr8s@addr+2,c
  3206  003340  0E5F               	movlw	low STR_37
  3207  003342  6E18               	movwf	wr8s@s,c
  3208  003344  0E0F               	movlw	high STR_37
  3209  003346  6E19               	movwf	wr8s@s+1,c
  3210  003348  EC8D  F02D         	call	_wr8s	;wreg free
  3211  00334C  EC9B  F02F         	call	_cmd_incrementn
  3212                           
  3213                           ;display.c: 165: cmd(4294967052UL);wr16(1081344UL+cmd_offset, 274);cmd_incrementn(2);wr1
      +                          6(1081344UL+cmd_offset, 161);cmd_incrementn(2);wr16(1081344UL+cmd_offset, 28);cmd_increm
      +                          entn(2);wr16(1081344UL+cmd_offset, 0);cmd_incrementn(2);cmd_incrementn(wr8s(1081344UL+cm
      +                          d_o
  3214  003350  0E0C               	movlw	12
  3215  003352  6E1E               	movwf	cmd@command,c
  3216  003354  0EFF               	movlw	255
  3217  003356  6E1F               	movwf	cmd@command+1,c
  3218  003358  0EFF               	movlw	255
  3219  00335A  6E20               	movwf	cmd@command+2,c
  3220  00335C  0EFF               	movlw	255
  3221  00335E  6E21               	movwf	cmd@command+3,c
  3222  003360  EC54  F02F         	call	_cmd	;wreg free
  3223  003364  C037  F027         	movff	_cmd_offset,??_display_rpm
  3224  003368  C038  F028         	movff	_cmd_offset+1,??_display_rpm+1
  3225  00336C  6A29               	clrf	(??_display_rpm+2)& (0+255),c
  3226  00336E  0E00               	movlw	0
  3227  003370  2427               	addwf	??_display_rpm,w,c
  3228  003372  6E10               	movwf	wr16@addr,c
  3229  003374  0E80               	movlw	128
  3230  003376  2028               	addwfc	??_display_rpm+1,w,c
  3231  003378  6E11               	movwf	wr16@addr+1,c
  3232  00337A  0E10               	movlw	16
  3233  00337C  2029               	addwfc	??_display_rpm+2,w,c
  3234  00337E  6E12               	movwf	wr16@addr+2,c
  3235  003380  0E01               	movlw	1
  3236  003382  6E14               	movwf	wr16@value+1,c
  3237  003384  0E12               	movlw	18
  3238  003386  6E13               	movwf	wr16@value,c
  3239  003388  EC36  F02F         	call	_wr16	;wreg free
  3240  00338C  0E02               	movlw	2
  3241  00338E  EC9B  F02F         	call	_cmd_incrementn
  3242  003392  C037  F027         	movff	_cmd_offset,??_display_rpm
  3243  003396  C038  F028         	movff	_cmd_offset+1,??_display_rpm+1
  3244  00339A  6A29               	clrf	(??_display_rpm+2)& (0+255),c
  3245  00339C  0E00               	movlw	0
  3246  00339E  2427               	addwf	??_display_rpm,w,c
  3247  0033A0  6E10               	movwf	wr16@addr,c
  3248  0033A2  0E80               	movlw	128
  3249  0033A4  2028               	addwfc	??_display_rpm+1,w,c
  3250  0033A6  6E11               	movwf	wr16@addr+1,c
  3251  0033A8  0E10               	movlw	16
  3252  0033AA  2029               	addwfc	??_display_rpm+2,w,c
  3253  0033AC  6E12               	movwf	wr16@addr+2,c
  3254  0033AE  0E00               	movlw	0
  3255  0033B0  6E14               	movwf	wr16@value+1,c
  3256  0033B2  0EA1               	movlw	161
  3257  0033B4  6E13               	movwf	wr16@value,c
  3258  0033B6  EC36  F02F         	call	_wr16	;wreg free
  3259  0033BA  0E02               	movlw	2
  3260  0033BC  EC9B  F02F         	call	_cmd_incrementn
  3261  0033C0  C037  F027         	movff	_cmd_offset,??_display_rpm
  3262  0033C4  C038  F028         	movff	_cmd_offset+1,??_display_rpm+1
  3263  0033C8  6A29               	clrf	(??_display_rpm+2)& (0+255),c
  3264  0033CA  0E00               	movlw	0
  3265  0033CC  2427               	addwf	??_display_rpm,w,c
  3266  0033CE  6E10               	movwf	wr16@addr,c
  3267  0033D0  0E80               	movlw	128
  3268  0033D2  2028               	addwfc	??_display_rpm+1,w,c
  3269  0033D4  6E11               	movwf	wr16@addr+1,c
  3270  0033D6  0E10               	movlw	16
  3271  0033D8  2029               	addwfc	??_display_rpm+2,w,c
  3272  0033DA  6E12               	movwf	wr16@addr+2,c
  3273  0033DC  0E00               	movlw	0
  3274  0033DE  6E14               	movwf	wr16@value+1,c
  3275  0033E0  0E1C               	movlw	28
  3276  0033E2  6E13               	movwf	wr16@value,c
  3277  0033E4  EC36  F02F         	call	_wr16	;wreg free
  3278  0033E8  0E02               	movlw	2
  3279  0033EA  EC9B  F02F         	call	_cmd_incrementn
  3280  0033EE  C037  F027         	movff	_cmd_offset,??_display_rpm
  3281  0033F2  C038  F028         	movff	_cmd_offset+1,??_display_rpm+1
  3282  0033F6  6A29               	clrf	(??_display_rpm+2)& (0+255),c
  3283  0033F8  0E00               	movlw	0
  3284  0033FA  2427               	addwf	??_display_rpm,w,c
  3285  0033FC  6E10               	movwf	wr16@addr,c
  3286  0033FE  0E80               	movlw	128
  3287  003400  2028               	addwfc	??_display_rpm+1,w,c
  3288  003402  6E11               	movwf	wr16@addr+1,c
  3289  003404  0E10               	movlw	16
  3290  003406  2029               	addwfc	??_display_rpm+2,w,c
  3291  003408  6E12               	movwf	wr16@addr+2,c
  3292  00340A  0E00               	movlw	0
  3293  00340C  6E14               	movwf	wr16@value+1,c
  3294  00340E  0E00               	movlw	0
  3295  003410  6E13               	movwf	wr16@value,c
  3296  003412  EC36  F02F         	call	_wr16	;wreg free
  3297  003416  0E02               	movlw	2
  3298  003418  EC9B  F02F         	call	_cmd_incrementn
  3299  00341C  C037  F027         	movff	_cmd_offset,??_display_rpm
  3300  003420  C038  F028         	movff	_cmd_offset+1,??_display_rpm+1
  3301  003424  6A29               	clrf	(??_display_rpm+2)& (0+255),c
  3302  003426  0E00               	movlw	0
  3303  003428  2427               	addwf	??_display_rpm,w,c
  3304  00342A  6E15               	movwf	wr8s@addr,c
  3305  00342C  0E80               	movlw	128
  3306  00342E  2028               	addwfc	??_display_rpm+1,w,c
  3307  003430  6E16               	movwf	wr8s@addr+1,c
  3308  003432  0E10               	movlw	16
  3309  003434  2029               	addwfc	??_display_rpm+2,w,c
  3310  003436  6E17               	movwf	wr8s@addr+2,c
  3311  003438  0E62               	movlw	low STR_38
  3312  00343A  6E18               	movwf	wr8s@s,c
  3313  00343C  0E0F               	movlw	high STR_38
  3314  00343E  6E19               	movwf	wr8s@s+1,c
  3315  003440  EC8D  F02D         	call	_wr8s	;wreg free
  3316  003444  EC9B  F02F         	call	_cmd_incrementn
  3317                           
  3318                           ;display.c: 166: cmd(4294967052UL);wr16(1081344UL+cmd_offset, 241);cmd_incrementn(2);wr1
      +                          6(1081344UL+cmd_offset, 114);cmd_incrementn(2);wr16(1081344UL+cmd_offset, 31);cmd_increm
      +                          entn(2);wr16(1081344UL+cmd_offset, 1536UL);cmd_incrementn(2);cmd_incrementn(wr8s(1081344
      +                          UL+
  3319  003448  0E0C               	movlw	12
  3320  00344A  6E1E               	movwf	cmd@command,c
  3321  00344C  0EFF               	movlw	255
  3322  00344E  6E1F               	movwf	cmd@command+1,c
  3323  003450  0EFF               	movlw	255
  3324  003452  6E20               	movwf	cmd@command+2,c
  3325  003454  0EFF               	movlw	255
  3326  003456  6E21               	movwf	cmd@command+3,c
  3327  003458  EC54  F02F         	call	_cmd	;wreg free
  3328  00345C  C037  F027         	movff	_cmd_offset,??_display_rpm
  3329  003460  C038  F028         	movff	_cmd_offset+1,??_display_rpm+1
  3330  003464  6A29               	clrf	(??_display_rpm+2)& (0+255),c
  3331  003466  0E00               	movlw	0
  3332  003468  2427               	addwf	??_display_rpm,w,c
  3333  00346A  6E10               	movwf	wr16@addr,c
  3334  00346C  0E80               	movlw	128
  3335  00346E  2028               	addwfc	??_display_rpm+1,w,c
  3336  003470  6E11               	movwf	wr16@addr+1,c
  3337  003472  0E10               	movlw	16
  3338  003474  2029               	addwfc	??_display_rpm+2,w,c
  3339  003476  6E12               	movwf	wr16@addr+2,c
  3340  003478  0E00               	movlw	0
  3341  00347A  6E14               	movwf	wr16@value+1,c
  3342  00347C  0EF1               	movlw	241
  3343  00347E  6E13               	movwf	wr16@value,c
  3344  003480  EC36  F02F         	call	_wr16	;wreg free
  3345  003484  0E02               	movlw	2
  3346  003486  EC9B  F02F         	call	_cmd_incrementn
  3347  00348A  C037  F027         	movff	_cmd_offset,??_display_rpm
  3348  00348E  C038  F028         	movff	_cmd_offset+1,??_display_rpm+1
  3349  003492  6A29               	clrf	(??_display_rpm+2)& (0+255),c
  3350  003494  0E00               	movlw	0
  3351  003496  2427               	addwf	??_display_rpm,w,c
  3352  003498  6E10               	movwf	wr16@addr,c
  3353  00349A  0E80               	movlw	128
  3354  00349C  2028               	addwfc	??_display_rpm+1,w,c
  3355  00349E  6E11               	movwf	wr16@addr+1,c
  3356  0034A0  0E10               	movlw	16
  3357  0034A2  2029               	addwfc	??_display_rpm+2,w,c
  3358  0034A4  6E12               	movwf	wr16@addr+2,c
  3359  0034A6  0E00               	movlw	0
  3360  0034A8  6E14               	movwf	wr16@value+1,c
  3361  0034AA  0E72               	movlw	114
  3362  0034AC  6E13               	movwf	wr16@value,c
  3363  0034AE  EC36  F02F         	call	_wr16	;wreg free
  3364  0034B2  0E02               	movlw	2
  3365  0034B4  EC9B  F02F         	call	_cmd_incrementn
  3366  0034B8  C037  F027         	movff	_cmd_offset,??_display_rpm
  3367  0034BC  C038  F028         	movff	_cmd_offset+1,??_display_rpm+1
  3368  0034C0  6A29               	clrf	(??_display_rpm+2)& (0+255),c
  3369  0034C2  0E00               	movlw	0
  3370  0034C4  2427               	addwf	??_display_rpm,w,c
  3371  0034C6  6E10               	movwf	wr16@addr,c
  3372  0034C8  0E80               	movlw	128
  3373  0034CA  2028               	addwfc	??_display_rpm+1,w,c
  3374  0034CC  6E11               	movwf	wr16@addr+1,c
  3375  0034CE  0E10               	movlw	16
  3376  0034D0  2029               	addwfc	??_display_rpm+2,w,c
  3377  0034D2  6E12               	movwf	wr16@addr+2,c
  3378  0034D4  0E00               	movlw	0
  3379  0034D6  6E14               	movwf	wr16@value+1,c
  3380  0034D8  0E1F               	movlw	31
  3381  0034DA  6E13               	movwf	wr16@value,c
  3382  0034DC  EC36  F02F         	call	_wr16	;wreg free
  3383  0034E0  0E02               	movlw	2
  3384  0034E2  EC9B  F02F         	call	_cmd_incrementn
  3385  0034E6  C037  F027         	movff	_cmd_offset,??_display_rpm
  3386  0034EA  C038  F028         	movff	_cmd_offset+1,??_display_rpm+1
  3387  0034EE  6A29               	clrf	(??_display_rpm+2)& (0+255),c
  3388  0034F0  0E00               	movlw	0
  3389  0034F2  2427               	addwf	??_display_rpm,w,c
  3390  0034F4  6E10               	movwf	wr16@addr,c
  3391  0034F6  0E80               	movlw	128
  3392  0034F8  2028               	addwfc	??_display_rpm+1,w,c
  3393  0034FA  6E11               	movwf	wr16@addr+1,c
  3394  0034FC  0E10               	movlw	16
  3395  0034FE  2029               	addwfc	??_display_rpm+2,w,c
  3396  003500  6E12               	movwf	wr16@addr+2,c
  3397  003502  0E06               	movlw	6
  3398  003504  6E14               	movwf	wr16@value+1,c
  3399  003506  0E00               	movlw	0
  3400  003508  6E13               	movwf	wr16@value,c
  3401  00350A  EC36  F02F         	call	_wr16	;wreg free
  3402  00350E  0E02               	movlw	2
  3403  003510  EC9B  F02F         	call	_cmd_incrementn
  3404  003514  C037  F027         	movff	_cmd_offset,??_display_rpm
  3405  003518  C038  F028         	movff	_cmd_offset+1,??_display_rpm+1
  3406  00351C  6A29               	clrf	(??_display_rpm+2)& (0+255),c
  3407  00351E  0E00               	movlw	0
  3408  003520  2427               	addwf	??_display_rpm,w,c
  3409  003522  6E15               	movwf	wr8s@addr,c
  3410  003524  0E80               	movlw	128
  3411  003526  2028               	addwfc	??_display_rpm+1,w,c
  3412  003528  6E16               	movwf	wr8s@addr+1,c
  3413  00352A  0E10               	movlw	16
  3414  00352C  2029               	addwfc	??_display_rpm+2,w,c
  3415  00352E  6E17               	movwf	wr8s@addr+2,c
  3416  003530  0E6A               	movlw	low STR_26
  3417  003532  6E18               	movwf	wr8s@s,c
  3418  003534  0E0F               	movlw	high STR_26
  3419  003536  6E19               	movwf	wr8s@s+1,c
  3420  003538  EC8D  F02D         	call	_wr8s	;wreg free
  3421  00353C  EC9B  F02F         	call	_cmd_incrementn
  3422                           
  3423                           ;display.c: 167: cmd(4294967052UL);wr16(1081344UL+cmd_offset, 267);cmd_incrementn(2);wr1
      +                          6(1081344UL+cmd_offset, 108);cmd_incrementn(2);wr16(1081344UL+cmd_offset, 28);cmd_increm
      +                          entn(2);wr16(1081344UL+cmd_offset, 0);cmd_incrementn(2);cmd_incrementn(wr8s(1081344UL+cm
      +                          d_o
  3424  003540  0E0C               	movlw	12
  3425  003542  6E1E               	movwf	cmd@command,c
  3426  003544  0EFF               	movlw	255
  3427  003546  6E1F               	movwf	cmd@command+1,c
  3428  003548  0EFF               	movlw	255
  3429  00354A  6E20               	movwf	cmd@command+2,c
  3430  00354C  0EFF               	movlw	255
  3431  00354E  6E21               	movwf	cmd@command+3,c
  3432  003550  EC54  F02F         	call	_cmd	;wreg free
  3433  003554  C037  F027         	movff	_cmd_offset,??_display_rpm
  3434  003558  C038  F028         	movff	_cmd_offset+1,??_display_rpm+1
  3435  00355C  6A29               	clrf	(??_display_rpm+2)& (0+255),c
  3436  00355E  0E00               	movlw	0
  3437  003560  2427               	addwf	??_display_rpm,w,c
  3438  003562  6E10               	movwf	wr16@addr,c
  3439  003564  0E80               	movlw	128
  3440  003566  2028               	addwfc	??_display_rpm+1,w,c
  3441  003568  6E11               	movwf	wr16@addr+1,c
  3442  00356A  0E10               	movlw	16
  3443  00356C  2029               	addwfc	??_display_rpm+2,w,c
  3444  00356E  6E12               	movwf	wr16@addr+2,c
  3445  003570  0E01               	movlw	1
  3446  003572  6E14               	movwf	wr16@value+1,c
  3447  003574  0E0B               	movlw	11
  3448  003576  6E13               	movwf	wr16@value,c
  3449  003578  EC36  F02F         	call	_wr16	;wreg free
  3450  00357C  0E02               	movlw	2
  3451  00357E  EC9B  F02F         	call	_cmd_incrementn
  3452  003582  C037  F027         	movff	_cmd_offset,??_display_rpm
  3453  003586  C038  F028         	movff	_cmd_offset+1,??_display_rpm+1
  3454  00358A  6A29               	clrf	(??_display_rpm+2)& (0+255),c
  3455  00358C  0E00               	movlw	0
  3456  00358E  2427               	addwf	??_display_rpm,w,c
  3457  003590  6E10               	movwf	wr16@addr,c
  3458  003592  0E80               	movlw	128
  3459  003594  2028               	addwfc	??_display_rpm+1,w,c
  3460  003596  6E11               	movwf	wr16@addr+1,c
  3461  003598  0E10               	movlw	16
  3462  00359A  2029               	addwfc	??_display_rpm+2,w,c
  3463  00359C  6E12               	movwf	wr16@addr+2,c
  3464  00359E  0E00               	movlw	0
  3465  0035A0  6E14               	movwf	wr16@value+1,c
  3466  0035A2  0E6C               	movlw	108
  3467  0035A4  6E13               	movwf	wr16@value,c
  3468  0035A6  EC36  F02F         	call	_wr16	;wreg free
  3469  0035AA  0E02               	movlw	2
  3470  0035AC  EC9B  F02F         	call	_cmd_incrementn
  3471  0035B0  C037  F027         	movff	_cmd_offset,??_display_rpm
  3472  0035B4  C038  F028         	movff	_cmd_offset+1,??_display_rpm+1
  3473  0035B8  6A29               	clrf	(??_display_rpm+2)& (0+255),c
  3474  0035BA  0E00               	movlw	0
  3475  0035BC  2427               	addwf	??_display_rpm,w,c
  3476  0035BE  6E10               	movwf	wr16@addr,c
  3477  0035C0  0E80               	movlw	128
  3478  0035C2  2028               	addwfc	??_display_rpm+1,w,c
  3479  0035C4  6E11               	movwf	wr16@addr+1,c
  3480  0035C6  0E10               	movlw	16
  3481  0035C8  2029               	addwfc	??_display_rpm+2,w,c
  3482  0035CA  6E12               	movwf	wr16@addr+2,c
  3483  0035CC  0E00               	movlw	0
  3484  0035CE  6E14               	movwf	wr16@value+1,c
  3485  0035D0  0E1C               	movlw	28
  3486  0035D2  6E13               	movwf	wr16@value,c
  3487  0035D4  EC36  F02F         	call	_wr16	;wreg free
  3488  0035D8  0E02               	movlw	2
  3489  0035DA  EC9B  F02F         	call	_cmd_incrementn
  3490  0035DE  C037  F027         	movff	_cmd_offset,??_display_rpm
  3491  0035E2  C038  F028         	movff	_cmd_offset+1,??_display_rpm+1
  3492  0035E6  6A29               	clrf	(??_display_rpm+2)& (0+255),c
  3493  0035E8  0E00               	movlw	0
  3494  0035EA  2427               	addwf	??_display_rpm,w,c
  3495  0035EC  6E10               	movwf	wr16@addr,c
  3496  0035EE  0E80               	movlw	128
  3497  0035F0  2028               	addwfc	??_display_rpm+1,w,c
  3498  0035F2  6E11               	movwf	wr16@addr+1,c
  3499  0035F4  0E10               	movlw	16
  3500  0035F6  2029               	addwfc	??_display_rpm+2,w,c
  3501  0035F8  6E12               	movwf	wr16@addr+2,c
  3502  0035FA  0E00               	movlw	0
  3503  0035FC  6E14               	movwf	wr16@value+1,c
  3504  0035FE  0E00               	movlw	0
  3505  003600  6E13               	movwf	wr16@value,c
  3506  003602  EC36  F02F         	call	_wr16	;wreg free
  3507  003606  0E02               	movlw	2
  3508  003608  EC9B  F02F         	call	_cmd_incrementn
  3509  00360C  C037  F027         	movff	_cmd_offset,??_display_rpm
  3510  003610  C038  F028         	movff	_cmd_offset+1,??_display_rpm+1
  3511  003614  6A29               	clrf	(??_display_rpm+2)& (0+255),c
  3512  003616  0E00               	movlw	0
  3513  003618  2427               	addwf	??_display_rpm,w,c
  3514  00361A  6E15               	movwf	wr8s@addr,c
  3515  00361C  0E80               	movlw	128
  3516  00361E  2028               	addwfc	??_display_rpm+1,w,c
  3517  003620  6E16               	movwf	wr8s@addr+1,c
  3518  003622  0E10               	movlw	16
  3519  003624  2029               	addwfc	??_display_rpm+2,w,c
  3520  003626  6E17               	movwf	wr8s@addr+2,c
  3521  003628  0E7C               	movlw	low STR_40
  3522  00362A  6E18               	movwf	wr8s@s,c
  3523  00362C  0E0F               	movlw	high STR_40
  3524  00362E  6E19               	movwf	wr8s@s+1,c
  3525  003630  EC8D  F02D         	call	_wr8s	;wreg free
  3526  003634  EC9B  F02F         	call	_cmd_incrementn
  3527                           
  3528                           ;display.c: 168: cmd(4294967052UL);wr16(1081344UL+cmd_offset, 227);cmd_incrementn(2);wr1
      +                          6(1081344UL+cmd_offset, 132);cmd_incrementn(2);wr16(1081344UL+cmd_offset, 26);cmd_increm
      +                          entn(2);wr16(1081344UL+cmd_offset, 0);cmd_incrementn(2);cmd_incrementn(wr8s(1081344UL+cm
      +                          d_o
  3529  003638  0E0C               	movlw	12
  3530  00363A  6E1E               	movwf	cmd@command,c
  3531  00363C  0EFF               	movlw	255
  3532  00363E  6E1F               	movwf	cmd@command+1,c
  3533  003640  0EFF               	movlw	255
  3534  003642  6E20               	movwf	cmd@command+2,c
  3535  003644  0EFF               	movlw	255
  3536  003646  6E21               	movwf	cmd@command+3,c
  3537  003648  EC54  F02F         	call	_cmd	;wreg free
  3538  00364C  C037  F027         	movff	_cmd_offset,??_display_rpm
  3539  003650  C038  F028         	movff	_cmd_offset+1,??_display_rpm+1
  3540  003654  6A29               	clrf	(??_display_rpm+2)& (0+255),c
  3541  003656  0E00               	movlw	0
  3542  003658  2427               	addwf	??_display_rpm,w,c
  3543  00365A  6E10               	movwf	wr16@addr,c
  3544  00365C  0E80               	movlw	128
  3545  00365E  2028               	addwfc	??_display_rpm+1,w,c
  3546  003660  6E11               	movwf	wr16@addr+1,c
  3547  003662  0E10               	movlw	16
  3548  003664  2029               	addwfc	??_display_rpm+2,w,c
  3549  003666  6E12               	movwf	wr16@addr+2,c
  3550  003668  0E00               	movlw	0
  3551  00366A  6E14               	movwf	wr16@value+1,c
  3552  00366C  0EE3               	movlw	227
  3553  00366E  6E13               	movwf	wr16@value,c
  3554  003670  EC36  F02F         	call	_wr16	;wreg free
  3555  003674  0E02               	movlw	2
  3556  003676  EC9B  F02F         	call	_cmd_incrementn
  3557  00367A  C037  F027         	movff	_cmd_offset,??_display_rpm
  3558  00367E  C038  F028         	movff	_cmd_offset+1,??_display_rpm+1
  3559  003682  6A29               	clrf	(??_display_rpm+2)& (0+255),c
  3560  003684  0E00               	movlw	0
  3561  003686  2427               	addwf	??_display_rpm,w,c
  3562  003688  6E10               	movwf	wr16@addr,c
  3563  00368A  0E80               	movlw	128
  3564  00368C  2028               	addwfc	??_display_rpm+1,w,c
  3565  00368E  6E11               	movwf	wr16@addr+1,c
  3566  003690  0E10               	movlw	16
  3567  003692  2029               	addwfc	??_display_rpm+2,w,c
  3568  003694  6E12               	movwf	wr16@addr+2,c
  3569  003696  0E00               	movlw	0
  3570  003698  6E14               	movwf	wr16@value+1,c
  3571  00369A  0E84               	movlw	132
  3572  00369C  6E13               	movwf	wr16@value,c
  3573  00369E  EC36  F02F         	call	_wr16	;wreg free
  3574  0036A2  0E02               	movlw	2
  3575  0036A4  EC9B  F02F         	call	_cmd_incrementn
  3576  0036A8  C037  F027         	movff	_cmd_offset,??_display_rpm
  3577  0036AC  C038  F028         	movff	_cmd_offset+1,??_display_rpm+1
  3578  0036B0  6A29               	clrf	(??_display_rpm+2)& (0+255),c
  3579  0036B2  0E00               	movlw	0
  3580  0036B4  2427               	addwf	??_display_rpm,w,c
  3581  0036B6  6E10               	movwf	wr16@addr,c
  3582  0036B8  0E80               	movlw	128
  3583  0036BA  2028               	addwfc	??_display_rpm+1,w,c
  3584  0036BC  6E11               	movwf	wr16@addr+1,c
  3585  0036BE  0E10               	movlw	16
  3586  0036C0  2029               	addwfc	??_display_rpm+2,w,c
  3587  0036C2  6E12               	movwf	wr16@addr+2,c
  3588  0036C4  0E00               	movlw	0
  3589  0036C6  6E14               	movwf	wr16@value+1,c
  3590  0036C8  0E1A               	movlw	26
  3591  0036CA  6E13               	movwf	wr16@value,c
  3592  0036CC  EC36  F02F         	call	_wr16	;wreg free
  3593  0036D0  0E02               	movlw	2
  3594  0036D2  EC9B  F02F         	call	_cmd_incrementn
  3595  0036D6  C037  F027         	movff	_cmd_offset,??_display_rpm
  3596  0036DA  C038  F028         	movff	_cmd_offset+1,??_display_rpm+1
  3597  0036DE  6A29               	clrf	(??_display_rpm+2)& (0+255),c
  3598  0036E0  0E00               	movlw	0
  3599  0036E2  2427               	addwf	??_display_rpm,w,c
  3600  0036E4  6E10               	movwf	wr16@addr,c
  3601  0036E6  0E80               	movlw	128
  3602  0036E8  2028               	addwfc	??_display_rpm+1,w,c
  3603  0036EA  6E11               	movwf	wr16@addr+1,c
  3604  0036EC  0E10               	movlw	16
  3605  0036EE  2029               	addwfc	??_display_rpm+2,w,c
  3606  0036F0  6E12               	movwf	wr16@addr+2,c
  3607  0036F2  0E00               	movlw	0
  3608  0036F4  6E14               	movwf	wr16@value+1,c
  3609  0036F6  0E00               	movlw	0
  3610  0036F8  6E13               	movwf	wr16@value,c
  3611  0036FA  EC36  F02F         	call	_wr16	;wreg free
  3612  0036FE  0E02               	movlw	2
  3613  003700  EC9B  F02F         	call	_cmd_incrementn
  3614  003704  C037  F027         	movff	_cmd_offset,??_display_rpm
  3615  003708  C038  F028         	movff	_cmd_offset+1,??_display_rpm+1
  3616  00370C  6A29               	clrf	(??_display_rpm+2)& (0+255),c
  3617  00370E  0E00               	movlw	0
  3618  003710  2427               	addwf	??_display_rpm,w,c
  3619  003712  6E15               	movwf	wr8s@addr,c
  3620  003714  0E80               	movlw	128
  3621  003716  2028               	addwfc	??_display_rpm+1,w,c
  3622  003718  6E16               	movwf	wr8s@addr+1,c
  3623  00371A  0E10               	movlw	16
  3624  00371C  2029               	addwfc	??_display_rpm+2,w,c
  3625  00371E  6E17               	movwf	wr8s@addr+2,c
  3626  003720  0E54               	movlw	low STR_41
  3627  003722  6E18               	movwf	wr8s@s,c
  3628  003724  0E0F               	movlw	high STR_41
  3629  003726  6E19               	movwf	wr8s@s+1,c
  3630  003728  EC8D  F02D         	call	_wr8s	;wreg free
  3631  00372C  EC9B  F02F         	call	_cmd_incrementn
  3632  003730  0012               	return		;funcret
  3633  003732                     __end_of_display_rpm:
  3634                           	opt stack 0
  3635                           tblptru	equ	0xFF8
  3636                           wreg	equ	0xFE8
  3637                           
  3638 ;; *************** function ___awmod *****************
  3639 ;; Defined at:
  3640 ;;		line 8 in file "C:\Program Files (x86)\Microchip\xc8\v1.42\sources\common\awmod.c"
  3641 ;; Parameters:    Size  Location     Type
  3642 ;;  dividend        2   22[COMRAM] int 
  3643 ;;  divisor         2   24[COMRAM] int 
  3644 ;; Auto vars:     Size  Location     Type
  3645 ;;  sign            1   27[COMRAM] unsigned char 
  3646 ;;  counter         1   26[COMRAM] unsigned char 
  3647 ;; Return value:  Size  Location     Type
  3648 ;;                  2   22[COMRAM] int 
  3649 ;; Registers used:
  3650 ;;		wreg, status,2, status,0
  3651 ;; Tracked objects:
  3652 ;;		On entry : 0/0
  3653 ;;		On exit  : 0/0
  3654 ;;		Unchanged: 0/0
  3655 ;; Data sizes:     COMRAM   BANK0   BANK1   BANK2   BANK3   BANK4   BANK5   BANK6   BANK7   BANK8   BANK9  BANK10  BANK1
      +1  BANK12  BANK13  BANK14
  3656 ;;      Params:         4       0       0       0       0       0       0       0       0       0       0       0       
      +0       0       0       0
  3657 ;;      Locals:         2       0       0       0       0       0       0       0       0       0       0       0       
      +0       0       0       0
  3658 ;;      Temps:          0       0       0       0       0       0       0       0       0       0       0       0       
      +0       0       0       0
  3659 ;;      Totals:         6       0       0       0       0       0       0       0       0       0       0       0       
      +0       0       0       0
  3660 ;;Total ram usage:        6 bytes
  3661 ;; Hardware stack levels used:    1
  3662 ;; Hardware stack levels required when called:    4
  3663 ;; This function calls:
  3664 ;;		Nothing
  3665 ;; This function is called by:
  3666 ;;		_display_rpm
  3667 ;; This function uses a non-reentrant model
  3668 ;;
  3669                           
  3670                           	psect	text7
  3671  005CA2                     __ptext7:
  3672                           	opt stack 0
  3673  005CA2                     ___awmod:
  3674                           	opt stack 25
  3675                           
  3676                           ;incstack = 0
  3677  005CA2  0E00               	movlw	0
  3678  005CA4  6E1C               	movwf	___awmod@sign,c
  3679  005CA6  AE18               	btfss	___awmod@dividend+1,7,c
  3680  005CA8  D006               	goto	l3148
  3681  005CAA  6C17               	negf	___awmod@dividend,c
  3682  005CAC  1E18               	comf	___awmod@dividend+1,f,c
  3683  005CAE  B0D8               	btfsc	status,0,c
  3684  005CB0  2A18               	incf	___awmod@dividend+1,f,c
  3685  005CB2  0E01               	movlw	1
  3686  005CB4  6E1C               	movwf	___awmod@sign,c
  3687  005CB6                     l3148:
  3688  005CB6  AE1A               	btfss	___awmod@divisor+1,7,c
  3689  005CB8  D004               	goto	l3152
  3690  005CBA  6C19               	negf	___awmod@divisor,c
  3691  005CBC  1E1A               	comf	___awmod@divisor+1,f,c
  3692  005CBE  B0D8               	btfsc	status,0,c
  3693  005CC0  2A1A               	incf	___awmod@divisor+1,f,c
  3694  005CC2                     l3152:
  3695  005CC2  5019               	movf	___awmod@divisor,w,c
  3696  005CC4  101A               	iorwf	___awmod@divisor+1,w,c
  3697  005CC6  B4D8               	btfsc	status,2,c
  3698  005CC8  D018               	goto	l3168
  3699  005CCA  0E01               	movlw	1
  3700  005CCC  6E1B               	movwf	___awmod@counter,c
  3701  005CCE  D004               	goto	l3158
  3702  005CD0                     l3156:
  3703  005CD0  90D8               	bcf	status,0,c
  3704  005CD2  3619               	rlcf	___awmod@divisor,f,c
  3705  005CD4  361A               	rlcf	___awmod@divisor+1,f,c
  3706  005CD6  2A1B               	incf	___awmod@counter,f,c
  3707  005CD8                     l3158:
  3708  005CD8  AE1A               	btfss	___awmod@divisor+1,7,c
  3709  005CDA  D7FA               	goto	l3156
  3710  005CDC                     l3160:
  3711  005CDC  5019               	movf	___awmod@divisor,w,c
  3712  005CDE  5C17               	subwf	___awmod@dividend,w,c
  3713  005CE0  501A               	movf	___awmod@divisor+1,w,c
  3714  005CE2  5818               	subwfb	___awmod@dividend+1,w,c
  3715  005CE4  A0D8               	btfss	status,0,c
  3716  005CE6  D004               	goto	l3164
  3717  005CE8  5019               	movf	___awmod@divisor,w,c
  3718  005CEA  5E17               	subwf	___awmod@dividend,f,c
  3719  005CEC  501A               	movf	___awmod@divisor+1,w,c
  3720  005CEE  5A18               	subwfb	___awmod@dividend+1,f,c
  3721  005CF0                     l3164:
  3722  005CF0  90D8               	bcf	status,0,c
  3723  005CF2  321A               	rrcf	___awmod@divisor+1,f,c
  3724  005CF4  3219               	rrcf	___awmod@divisor,f,c
  3725  005CF6  2E1B               	decfsz	___awmod@counter,f,c
  3726  005CF8  D7F1               	goto	l3160
  3727  005CFA                     l3168:
  3728  005CFA  501C               	movf	___awmod@sign,w,c
  3729  005CFC  B4D8               	btfsc	status,2,c
  3730  005CFE  D004               	goto	l3172
  3731  005D00  6C17               	negf	___awmod@dividend,c
  3732  005D02  1E18               	comf	___awmod@dividend+1,f,c
  3733  005D04  B0D8               	btfsc	status,0,c
  3734  005D06  2A18               	incf	___awmod@dividend+1,f,c
  3735  005D08                     l3172:
  3736  005D08  C017  F017         	movff	___awmod@dividend,?___awmod
  3737  005D0C  C018  F018         	movff	___awmod@dividend+1,?___awmod+1
  3738  005D10  0012               	return	
  3739  005D12                     __end_of___awmod:
  3740                           	opt stack 0
  3741                           tblptru	equ	0xFF8
  3742                           wreg	equ	0xFE8
  3743                           status	equ	0xFD8
  3744                           
  3745 ;; *************** function ___awdiv *****************
  3746 ;; Defined at:
  3747 ;;		line 8 in file "C:\Program Files (x86)\Microchip\xc8\v1.42\sources\common\awdiv.c"
  3748 ;; Parameters:    Size  Location     Type
  3749 ;;  dividend        2   14[COMRAM] int 
  3750 ;;  divisor         2   16[COMRAM] int 
  3751 ;; Auto vars:     Size  Location     Type
  3752 ;;  quotient        2   20[COMRAM] int 
  3753 ;;  sign            1   19[COMRAM] unsigned char 
  3754 ;;  counter         1   18[COMRAM] unsigned char 
  3755 ;; Return value:  Size  Location     Type
  3756 ;;                  2   14[COMRAM] int 
  3757 ;; Registers used:
  3758 ;;		wreg, status,2, status,0
  3759 ;; Tracked objects:
  3760 ;;		On entry : 0/0
  3761 ;;		On exit  : 0/0
  3762 ;;		Unchanged: 0/0
  3763 ;; Data sizes:     COMRAM   BANK0   BANK1   BANK2   BANK3   BANK4   BANK5   BANK6   BANK7   BANK8   BANK9  BANK10  BANK1
      +1  BANK12  BANK13  BANK14
  3764 ;;      Params:         4       0       0       0       0       0       0       0       0       0       0       0       
      +0       0       0       0
  3765 ;;      Locals:         4       0       0       0       0       0       0       0       0       0       0       0       
      +0       0       0       0
  3766 ;;      Temps:          0       0       0       0       0       0       0       0       0       0       0       0       
      +0       0       0       0
  3767 ;;      Totals:         8       0       0       0       0       0       0       0       0       0       0       0       
      +0       0       0       0
  3768 ;;Total ram usage:        8 bytes
  3769 ;; Hardware stack levels used:    1
  3770 ;; Hardware stack levels required when called:    4
  3771 ;; This function calls:
  3772 ;;		Nothing
  3773 ;; This function is called by:
  3774 ;;		_display_rpm
  3775 ;; This function uses a non-reentrant model
  3776 ;;
  3777                           
  3778                           	psect	text8
  3779  005BA6                     __ptext8:
  3780                           	opt stack 0
  3781  005BA6                     ___awdiv:
  3782                           	opt stack 25
  3783                           
  3784                           ;incstack = 0
  3785  005BA6  0E00               	movlw	0
  3786  005BA8  6E14               	movwf	___awdiv@sign,c
  3787  005BAA  AE12               	btfss	___awdiv@divisor+1,7,c
  3788  005BAC  D006               	goto	l3104
  3789  005BAE  6C11               	negf	___awdiv@divisor,c
  3790  005BB0  1E12               	comf	___awdiv@divisor+1,f,c
  3791  005BB2  B0D8               	btfsc	status,0,c
  3792  005BB4  2A12               	incf	___awdiv@divisor+1,f,c
  3793  005BB6  0E01               	movlw	1
  3794  005BB8  6E14               	movwf	___awdiv@sign,c
  3795  005BBA                     l3104:
  3796  005BBA  AE10               	btfss	___awdiv@dividend+1,7,c
  3797  005BBC  D006               	goto	l3110
  3798  005BBE  6C0F               	negf	___awdiv@dividend,c
  3799  005BC0  1E10               	comf	___awdiv@dividend+1,f,c
  3800  005BC2  B0D8               	btfsc	status,0,c
  3801  005BC4  2A10               	incf	___awdiv@dividend+1,f,c
  3802  005BC6  0E01               	movlw	1
  3803  005BC8  1A14               	xorwf	___awdiv@sign,f,c
  3804  005BCA                     l3110:
  3805  005BCA  0E00               	movlw	0
  3806  005BCC  6E16               	movwf	___awdiv@quotient+1,c
  3807  005BCE  0E00               	movlw	0
  3808  005BD0  6E15               	movwf	___awdiv@quotient,c
  3809  005BD2  5011               	movf	___awdiv@divisor,w,c
  3810  005BD4  1012               	iorwf	___awdiv@divisor+1,w,c
  3811  005BD6  B4D8               	btfsc	status,2,c
  3812  005BD8  D01C               	goto	l3132
  3813  005BDA  0E01               	movlw	1
  3814  005BDC  6E13               	movwf	___awdiv@counter,c
  3815  005BDE  D004               	goto	l3118
  3816  005BE0                     l3116:
  3817  005BE0  90D8               	bcf	status,0,c
  3818  005BE2  3611               	rlcf	___awdiv@divisor,f,c
  3819  005BE4  3612               	rlcf	___awdiv@divisor+1,f,c
  3820  005BE6  2A13               	incf	___awdiv@counter,f,c
  3821  005BE8                     l3118:
  3822  005BE8  AE12               	btfss	___awdiv@divisor+1,7,c
  3823  005BEA  D7FA               	goto	l3116
  3824  005BEC                     l3120:
  3825  005BEC  90D8               	bcf	status,0,c
  3826  005BEE  3615               	rlcf	___awdiv@quotient,f,c
  3827  005BF0  3616               	rlcf	___awdiv@quotient+1,f,c
  3828  005BF2  5011               	movf	___awdiv@divisor,w,c
  3829  005BF4  5C0F               	subwf	___awdiv@dividend,w,c
  3830  005BF6  5012               	movf	___awdiv@divisor+1,w,c
  3831  005BF8  5810               	subwfb	___awdiv@dividend+1,w,c
  3832  005BFA  A0D8               	btfss	status,0,c
  3833  005BFC  D005               	goto	l3128
  3834  005BFE  5011               	movf	___awdiv@divisor,w,c
  3835  005C00  5E0F               	subwf	___awdiv@dividend,f,c
  3836  005C02  5012               	movf	___awdiv@divisor+1,w,c
  3837  005C04  5A10               	subwfb	___awdiv@dividend+1,f,c
  3838  005C06  8015               	bsf	___awdiv@quotient,0,c
  3839  005C08                     l3128:
  3840  005C08  90D8               	bcf	status,0,c
  3841  005C0A  3212               	rrcf	___awdiv@divisor+1,f,c
  3842  005C0C  3211               	rrcf	___awdiv@divisor,f,c
  3843  005C0E  2E13               	decfsz	___awdiv@counter,f,c
  3844  005C10  D7ED               	goto	l3120
  3845  005C12                     l3132:
  3846  005C12  5014               	movf	___awdiv@sign,w,c
  3847  005C14  B4D8               	btfsc	status,2,c
  3848  005C16  D004               	goto	l3136
  3849  005C18  6C15               	negf	___awdiv@quotient,c
  3850  005C1A  1E16               	comf	___awdiv@quotient+1,f,c
  3851  005C1C  B0D8               	btfsc	status,0,c
  3852  005C1E  2A16               	incf	___awdiv@quotient+1,f,c
  3853  005C20                     l3136:
  3854  005C20  C015  F00F         	movff	___awdiv@quotient,?___awdiv
  3855  005C24  C016  F010         	movff	___awdiv@quotient+1,?___awdiv+1
  3856  005C28  0012               	return	
  3857  005C2A                     __end_of___awdiv:
  3858                           	opt stack 0
  3859                           tblptru	equ	0xFF8
  3860                           wreg	equ	0xFE8
  3861                           status	equ	0xFD8
  3862                           
  3863 ;; *************** function _display_oilTemp *****************
  3864 ;; Defined at:
  3865 ;;		line 112 in file "display.c"
  3866 ;; Parameters:    Size  Location     Type
  3867 ;;  temp            2   36[COMRAM] int 
  3868 ;; Auto vars:     Size  Location     Type
  3869 ;;		None
  3870 ;; Return value:  Size  Location     Type
  3871 ;;                  1    wreg      void 
  3872 ;; Registers used:
  3873 ;;		wreg, status,2, status,0, cstack
  3874 ;; Tracked objects:
  3875 ;;		On entry : 0/0
  3876 ;;		On exit  : 0/0
  3877 ;;		Unchanged: 0/0
  3878 ;; Data sizes:     COMRAM   BANK0   BANK1   BANK2   BANK3   BANK4   BANK5   BANK6   BANK7   BANK8   BANK9  BANK10  BANK1
      +1  BANK12  BANK13  BANK14
  3879 ;;      Params:         2       0       0       0       0       0       0       0       0       0       0       0       
      +0       0       0       0
  3880 ;;      Locals:         0       0       0       0       0       0       0       0       0       0       0       0       
      +0       0       0       0
  3881 ;;      Temps:          3       0       0       0       0       0       0       0       0       0       0       0       
      +0       0       0       0
  3882 ;;      Totals:         5       0       0       0       0       0       0       0       0       0       0       0       
      +0       0       0       0
  3883 ;;Total ram usage:        5 bytes
  3884 ;; Hardware stack levels used:    1
  3885 ;; Hardware stack levels required when called:    7
  3886 ;; This function calls:
  3887 ;;		_cmd
  3888 ;;		_cmd_incrementn
  3889 ;;		_wr16
  3890 ;; This function is called by:
  3891 ;;		_main
  3892 ;; This function uses a non-reentrant model
  3893 ;;
  3894                           
  3895                           	psect	text9
  3896  005A36                     __ptext9:
  3897                           	opt stack 0
  3898  005A36                     _display_oilTemp:
  3899                           	opt stack 23
  3900                           
  3901                           ;display.c: 113: cmd(4294967086UL);wr16(1081344UL+cmd_offset, 66);cmd_incrementn(2);wr16
      +                          (1081344UL+cmd_offset, 48);cmd_incrementn(2);wr16(1081344UL+cmd_offset, 28);cmd_incremen
      +                          tn(2);wr16(1081344UL+cmd_offset, 0);cmd_incrementn(2);cmd(temp);
  3902                           
  3903                           ;incstack = 0
  3904  005A36  0E2E               	movlw	46
  3905  005A38  6E1E               	movwf	cmd@command,c
  3906  005A3A  0EFF               	movlw	255
  3907  005A3C  6E1F               	movwf	cmd@command+1,c
  3908  005A3E  0EFF               	movlw	255
  3909  005A40  6E20               	movwf	cmd@command+2,c
  3910  005A42  0EFF               	movlw	255
  3911  005A44  6E21               	movwf	cmd@command+3,c
  3912  005A46  EC54  F02F         	call	_cmd	;wreg free
  3913  005A4A  C037  F027         	movff	_cmd_offset,??_display_oilTemp
  3914  005A4E  C038  F028         	movff	_cmd_offset+1,??_display_oilTemp+1
  3915  005A52  6A29               	clrf	(??_display_oilTemp+2)& (0+255),c
  3916  005A54  0E00               	movlw	0
  3917  005A56  2427               	addwf	??_display_oilTemp,w,c
  3918  005A58  6E10               	movwf	wr16@addr,c
  3919  005A5A  0E80               	movlw	128
  3920  005A5C  2028               	addwfc	??_display_oilTemp+1,w,c
  3921  005A5E  6E11               	movwf	wr16@addr+1,c
  3922  005A60  0E10               	movlw	16
  3923  005A62  2029               	addwfc	??_display_oilTemp+2,w,c
  3924  005A64  6E12               	movwf	wr16@addr+2,c
  3925  005A66  0E00               	movlw	0
  3926  005A68  6E14               	movwf	wr16@value+1,c
  3927  005A6A  0E42               	movlw	66
  3928  005A6C  6E13               	movwf	wr16@value,c
  3929  005A6E  EC36  F02F         	call	_wr16	;wreg free
  3930  005A72  0E02               	movlw	2
  3931  005A74  EC9B  F02F         	call	_cmd_incrementn
  3932  005A78  C037  F027         	movff	_cmd_offset,??_display_oilTemp
  3933  005A7C  C038  F028         	movff	_cmd_offset+1,??_display_oilTemp+1
  3934  005A80  6A29               	clrf	(??_display_oilTemp+2)& (0+255),c
  3935  005A82  0E00               	movlw	0
  3936  005A84  2427               	addwf	??_display_oilTemp,w,c
  3937  005A86  6E10               	movwf	wr16@addr,c
  3938  005A88  0E80               	movlw	128
  3939  005A8A  2028               	addwfc	??_display_oilTemp+1,w,c
  3940  005A8C  6E11               	movwf	wr16@addr+1,c
  3941  005A8E  0E10               	movlw	16
  3942  005A90  2029               	addwfc	??_display_oilTemp+2,w,c
  3943  005A92  6E12               	movwf	wr16@addr+2,c
  3944  005A94  0E00               	movlw	0
  3945  005A96  6E14               	movwf	wr16@value+1,c
  3946  005A98  0E30               	movlw	48
  3947  005A9A  6E13               	movwf	wr16@value,c
  3948  005A9C  EC36  F02F         	call	_wr16	;wreg free
  3949  005AA0  0E02               	movlw	2
  3950  005AA2  EC9B  F02F         	call	_cmd_incrementn
  3951  005AA6  C037  F027         	movff	_cmd_offset,??_display_oilTemp
  3952  005AAA  C038  F028         	movff	_cmd_offset+1,??_display_oilTemp+1
  3953  005AAE  6A29               	clrf	(??_display_oilTemp+2)& (0+255),c
  3954  005AB0  0E00               	movlw	0
  3955  005AB2  2427               	addwf	??_display_oilTemp,w,c
  3956  005AB4  6E10               	movwf	wr16@addr,c
  3957  005AB6  0E80               	movlw	128
  3958  005AB8  2028               	addwfc	??_display_oilTemp+1,w,c
  3959  005ABA  6E11               	movwf	wr16@addr+1,c
  3960  005ABC  0E10               	movlw	16
  3961  005ABE  2029               	addwfc	??_display_oilTemp+2,w,c
  3962  005AC0  6E12               	movwf	wr16@addr+2,c
  3963  005AC2  0E00               	movlw	0
  3964  005AC4  6E14               	movwf	wr16@value+1,c
  3965  005AC6  0E1C               	movlw	28
  3966  005AC8  6E13               	movwf	wr16@value,c
  3967  005ACA  EC36  F02F         	call	_wr16	;wreg free
  3968  005ACE  0E02               	movlw	2
  3969  005AD0  EC9B  F02F         	call	_cmd_incrementn
  3970  005AD4  C037  F027         	movff	_cmd_offset,??_display_oilTemp
  3971  005AD8  C038  F028         	movff	_cmd_offset+1,??_display_oilTemp+1
  3972  005ADC  6A29               	clrf	(??_display_oilTemp+2)& (0+255),c
  3973  005ADE  0E00               	movlw	0
  3974  005AE0  2427               	addwf	??_display_oilTemp,w,c
  3975  005AE2  6E10               	movwf	wr16@addr,c
  3976  005AE4  0E80               	movlw	128
  3977  005AE6  2028               	addwfc	??_display_oilTemp+1,w,c
  3978  005AE8  6E11               	movwf	wr16@addr+1,c
  3979  005AEA  0E10               	movlw	16
  3980  005AEC  2029               	addwfc	??_display_oilTemp+2,w,c
  3981  005AEE  6E12               	movwf	wr16@addr+2,c
  3982  005AF0  0E00               	movlw	0
  3983  005AF2  6E14               	movwf	wr16@value+1,c
  3984  005AF4  0E00               	movlw	0
  3985  005AF6  6E13               	movwf	wr16@value,c
  3986  005AF8  EC36  F02F         	call	_wr16	;wreg free
  3987  005AFC  0E02               	movlw	2
  3988  005AFE  EC9B  F02F         	call	_cmd_incrementn
  3989  005B02  C025  F01E         	movff	display_oilTemp@temp,cmd@command
  3990  005B06  C026  F01F         	movff	display_oilTemp@temp+1,cmd@command+1
  3991  005B0A  0E00               	movlw	0
  3992  005B0C  BE1F               	btfsc	cmd@command+1,7,c
  3993  005B0E  0EFF               	movlw	-1
  3994  005B10  6E20               	movwf	cmd@command+2,c
  3995  005B12  6E21               	movwf	cmd@command+3,c
  3996  005B14  EC54  F02F         	call	_cmd	;wreg free
  3997  005B18  0012               	return		;funcret
  3998  005B1A                     __end_of_display_oilTemp:
  3999                           	opt stack 0
  4000                           tblptru	equ	0xFF8
  4001                           wreg	equ	0xFE8
  4002                           status	equ	0xFD8
  4003                           
  4004 ;; *************** function _display_oilPress *****************
  4005 ;; Defined at:
  4006 ;;		line 128 in file "display.c"
  4007 ;; Parameters:    Size  Location     Type
  4008 ;;  pressure        3   36[COMRAM] float 
  4009 ;; Auto vars:     Size  Location     Type
  4010 ;;		None
  4011 ;; Return value:  Size  Location     Type
  4012 ;;                  1    wreg      void 
  4013 ;; Registers used:
  4014 ;;		wreg, status,2, status,0, cstack
  4015 ;; Tracked objects:
  4016 ;;		On entry : 0/0
  4017 ;;		On exit  : 0/0
  4018 ;;		Unchanged: 0/0
  4019 ;; Data sizes:     COMRAM   BANK0   BANK1   BANK2   BANK3   BANK4   BANK5   BANK6   BANK7   BANK8   BANK9  BANK10  BANK1
      +1  BANK12  BANK13  BANK14
  4020 ;;      Params:         3       0       0       0       0       0       0       0       0       0       0       0       
      +0       0       0       0
  4021 ;;      Locals:         0       0       0       0       0       0       0       0       0       0       0       0       
      +0       0       0       0
  4022 ;;      Temps:          3       0       0       0       0       0       0       0       0       0       0       0       
      +0       0       0       0
  4023 ;;      Totals:         6       0       0       0       0       0       0       0       0       0       0       0       
      +0       0       0       0
  4024 ;;Total ram usage:        6 bytes
  4025 ;; Hardware stack levels used:    1
  4026 ;; Hardware stack levels required when called:    7
  4027 ;; This function calls:
  4028 ;;		___fttol
  4029 ;;		_cmd
  4030 ;;		_cmd_incrementn
  4031 ;;		_wr16
  4032 ;; This function is called by:
  4033 ;;		_main
  4034 ;; This function uses a non-reentrant model
  4035 ;;
  4036                           
  4037                           	psect	text10
  4038  005696                     __ptext10:
  4039                           	opt stack 0
  4040  005696                     _display_oilPress:
  4041                           	opt stack 23
  4042                           
  4043                           ;display.c: 129: cmd(4294967086UL);wr16(1081344UL+cmd_offset, 66);cmd_incrementn(2);wr16
      +                          (1081344UL+cmd_offset, 171);cmd_incrementn(2);wr16(1081344UL+cmd_offset, 28);cmd_increme
      +                          ntn(2);wr16(1081344UL+cmd_offset, 0);cmd_incrementn(2);cmd(pressure);
  4044                           
  4045                           ;incstack = 0
  4046  005696  0E2E               	movlw	46
  4047  005698  6E1E               	movwf	cmd@command,c
  4048  00569A  0EFF               	movlw	255
  4049  00569C  6E1F               	movwf	cmd@command+1,c
  4050  00569E  0EFF               	movlw	255
  4051  0056A0  6E20               	movwf	cmd@command+2,c
  4052  0056A2  0EFF               	movlw	255
  4053  0056A4  6E21               	movwf	cmd@command+3,c
  4054  0056A6  EC54  F02F         	call	_cmd	;wreg free
  4055  0056AA  C037  F028         	movff	_cmd_offset,??_display_oilPress
  4056  0056AE  C038  F029         	movff	_cmd_offset+1,??_display_oilPress+1
  4057  0056B2  6A2A               	clrf	(??_display_oilPress+2)& (0+255),c
  4058  0056B4  0E00               	movlw	0
  4059  0056B6  2428               	addwf	??_display_oilPress,w,c
  4060  0056B8  6E10               	movwf	wr16@addr,c
  4061  0056BA  0E80               	movlw	128
  4062  0056BC  2029               	addwfc	??_display_oilPress+1,w,c
  4063  0056BE  6E11               	movwf	wr16@addr+1,c
  4064  0056C0  0E10               	movlw	16
  4065  0056C2  202A               	addwfc	??_display_oilPress+2,w,c
  4066  0056C4  6E12               	movwf	wr16@addr+2,c
  4067  0056C6  0E00               	movlw	0
  4068  0056C8  6E14               	movwf	wr16@value+1,c
  4069  0056CA  0E42               	movlw	66
  4070  0056CC  6E13               	movwf	wr16@value,c
  4071  0056CE  EC36  F02F         	call	_wr16	;wreg free
  4072  0056D2  0E02               	movlw	2
  4073  0056D4  EC9B  F02F         	call	_cmd_incrementn
  4074  0056D8  C037  F028         	movff	_cmd_offset,??_display_oilPress
  4075  0056DC  C038  F029         	movff	_cmd_offset+1,??_display_oilPress+1
  4076  0056E0  6A2A               	clrf	(??_display_oilPress+2)& (0+255),c
  4077  0056E2  0E00               	movlw	0
  4078  0056E4  2428               	addwf	??_display_oilPress,w,c
  4079  0056E6  6E10               	movwf	wr16@addr,c
  4080  0056E8  0E80               	movlw	128
  4081  0056EA  2029               	addwfc	??_display_oilPress+1,w,c
  4082  0056EC  6E11               	movwf	wr16@addr+1,c
  4083  0056EE  0E10               	movlw	16
  4084  0056F0  202A               	addwfc	??_display_oilPress+2,w,c
  4085  0056F2  6E12               	movwf	wr16@addr+2,c
  4086  0056F4  0E00               	movlw	0
  4087  0056F6  6E14               	movwf	wr16@value+1,c
  4088  0056F8  0EAB               	movlw	171
  4089  0056FA  6E13               	movwf	wr16@value,c
  4090  0056FC  EC36  F02F         	call	_wr16	;wreg free
  4091  005700  0E02               	movlw	2
  4092  005702  EC9B  F02F         	call	_cmd_incrementn
  4093  005706  C037  F028         	movff	_cmd_offset,??_display_oilPress
  4094  00570A  C038  F029         	movff	_cmd_offset+1,??_display_oilPress+1
  4095  00570E  6A2A               	clrf	(??_display_oilPress+2)& (0+255),c
  4096  005710  0E00               	movlw	0
  4097  005712  2428               	addwf	??_display_oilPress,w,c
  4098  005714  6E10               	movwf	wr16@addr,c
  4099  005716  0E80               	movlw	128
  4100  005718  2029               	addwfc	??_display_oilPress+1,w,c
  4101  00571A  6E11               	movwf	wr16@addr+1,c
  4102  00571C  0E10               	movlw	16
  4103  00571E  202A               	addwfc	??_display_oilPress+2,w,c
  4104  005720  6E12               	movwf	wr16@addr+2,c
  4105  005722  0E00               	movlw	0
  4106  005724  6E14               	movwf	wr16@value+1,c
  4107  005726  0E1C               	movlw	28
  4108  005728  6E13               	movwf	wr16@value,c
  4109  00572A  EC36  F02F         	call	_wr16	;wreg free
  4110  00572E  0E02               	movlw	2
  4111  005730  EC9B  F02F         	call	_cmd_incrementn
  4112  005734  C037  F028         	movff	_cmd_offset,??_display_oilPress
  4113  005738  C038  F029         	movff	_cmd_offset+1,??_display_oilPress+1
  4114  00573C  6A2A               	clrf	(??_display_oilPress+2)& (0+255),c
  4115  00573E  0E00               	movlw	0
  4116  005740  2428               	addwf	??_display_oilPress,w,c
  4117  005742  6E10               	movwf	wr16@addr,c
  4118  005744  0E80               	movlw	128
  4119  005746  2029               	addwfc	??_display_oilPress+1,w,c
  4120  005748  6E11               	movwf	wr16@addr+1,c
  4121  00574A  0E10               	movlw	16
  4122  00574C  202A               	addwfc	??_display_oilPress+2,w,c
  4123  00574E  6E12               	movwf	wr16@addr+2,c
  4124  005750  0E00               	movlw	0
  4125  005752  6E14               	movwf	wr16@value+1,c
  4126  005754  0E00               	movlw	0
  4127  005756  6E13               	movwf	wr16@value,c
  4128  005758  EC36  F02F         	call	_wr16	;wreg free
  4129  00575C  0E02               	movlw	2
  4130  00575E  EC9B  F02F         	call	_cmd_incrementn
  4131  005762  C025  F00F         	movff	display_oilPress@pressure,___fttol@f1
  4132  005766  C026  F010         	movff	display_oilPress@pressure+1,___fttol@f1+1
  4133  00576A  C027  F011         	movff	display_oilPress@pressure+2,___fttol@f1+2
  4134  00576E  ECD1  F02A         	call	___fttol	;wreg free
  4135  005772  C00F  F01E         	movff	?___fttol,cmd@command
  4136  005776  C010  F01F         	movff	?___fttol+1,cmd@command+1
  4137  00577A  C011  F020         	movff	?___fttol+2,cmd@command+2
  4138  00577E  C012  F021         	movff	?___fttol+3,cmd@command+3
  4139  005782  EC54  F02F         	call	_cmd	;wreg free
  4140  005786  0012               	return		;funcret
  4141  005788                     __end_of_display_oilPress:
  4142                           	opt stack 0
  4143                           tblptru	equ	0xFF8
  4144                           wreg	equ	0xFE8
  4145                           status	equ	0xFD8
  4146                           
  4147 ;; *************** function ___fttol *****************
  4148 ;; Defined at:
  4149 ;;		line 44 in file "C:\Program Files (x86)\Microchip\xc8\v1.42\sources\common\fttol.c"
  4150 ;; Parameters:    Size  Location     Type
  4151 ;;  f1              3   14[COMRAM] float 
  4152 ;; Auto vars:     Size  Location     Type
  4153 ;;  lval            4   24[COMRAM] unsigned long 
  4154 ;;  exp1            1   28[COMRAM] unsigned char 
  4155 ;;  sign1           1   23[COMRAM] unsigned char 
  4156 ;; Return value:  Size  Location     Type
  4157 ;;                  4   14[COMRAM] long 
  4158 ;; Registers used:
  4159 ;;		wreg, status,2, status,0
  4160 ;; Tracked objects:
  4161 ;;		On entry : 0/0
  4162 ;;		On exit  : 0/0
  4163 ;;		Unchanged: 0/0
  4164 ;; Data sizes:     COMRAM   BANK0   BANK1   BANK2   BANK3   BANK4   BANK5   BANK6   BANK7   BANK8   BANK9  BANK10  BANK1
      +1  BANK12  BANK13  BANK14
  4165 ;;      Params:         4       0       0       0       0       0       0       0       0       0       0       0       
      +0       0       0       0
  4166 ;;      Locals:         6       0       0       0       0       0       0       0       0       0       0       0       
      +0       0       0       0
  4167 ;;      Temps:          5       0       0       0       0       0       0       0       0       0       0       0       
      +0       0       0       0
  4168 ;;      Totals:        15       0       0       0       0       0       0       0       0       0       0       0       
      +0       0       0       0
  4169 ;;Total ram usage:       15 bytes
  4170 ;; Hardware stack levels used:    1
  4171 ;; Hardware stack levels required when called:    4
  4172 ;; This function calls:
  4173 ;;		Nothing
  4174 ;; This function is called by:
  4175 ;;		_display_oilPress
  4176 ;; This function uses a non-reentrant model
  4177 ;;
  4178                           
  4179                           	psect	text11
  4180  0055A2                     __ptext11:
  4181                           	opt stack 0
  4182  0055A2                     ___fttol:
  4183                           	opt stack 25
  4184                           
  4185                           ;incstack = 0
  4186  0055A2  C011  F013         	movff	___fttol@f1+2,??___fttol
  4187  0055A6  6A14               	clrf	(??___fttol+1)& (0+255),c
  4188  0055A8  6A15               	clrf	(??___fttol+2)& (0+255),c
  4189  0055AA  3410               	rlcf	___fttol@f1+1,w,c
  4190  0055AC  3613               	rlcf	??___fttol& (0+255),f,c
  4191  0055AE  E301               	bnc	u801
  4192  0055B0  8014               	bsf	(??___fttol+1)& (0+255),0,c
  4193  0055B2                     u801:
  4194  0055B2  5013               	movf	??___fttol,w,c
  4195  0055B4  6E1D               	movwf	___fttol@exp1,c
  4196  0055B6  501D               	movf	___fttol@exp1,w,c
  4197  0055B8  A4D8               	btfss	status,2,c
  4198  0055BA  D009               	goto	l3182
  4199  0055BC  0E00               	movlw	0
  4200  0055BE  6E0F               	movwf	?___fttol,c
  4201  0055C0  0E00               	movlw	0
  4202  0055C2  6E10               	movwf	?___fttol+1,c
  4203  0055C4  0E00               	movlw	0
  4204  0055C6  6E11               	movwf	?___fttol+2,c
  4205  0055C8  0E00               	movlw	0
  4206  0055CA  6E12               	movwf	?___fttol+3,c
  4207  0055CC  0012               	return	
  4208  0055CE                     l3182:
  4209  0055CE  0E17               	movlw	23
  4210  0055D0  6E13               	movwf	??___fttol& (0+255),c
  4211  0055D2  C00F  F014         	movff	___fttol@f1,??___fttol+1
  4212  0055D6  C010  F015         	movff	___fttol@f1+1,??___fttol+2
  4213  0055DA  C011  F016         	movff	___fttol@f1+2,??___fttol+3
  4214  0055DE  2813               	incf	??___fttol,w,c
  4215  0055E0  6E17               	movwf	(??___fttol+4)& (0+255),c
  4216  0055E2  D004               	goto	u820
  4217  0055E4                     u825:
  4218  0055E4  90D8               	bcf	status,0,c
  4219  0055E6  3216               	rrcf	??___fttol+3,f,c
  4220  0055E8  3215               	rrcf	??___fttol+2,f,c
  4221  0055EA  3214               	rrcf	??___fttol+1,f,c
  4222  0055EC                     u820:
  4223  0055EC  2E17               	decfsz	(??___fttol+4)& (0+255),f,c
  4224  0055EE  D7FA               	goto	u825
  4225  0055F0  5014               	movf	??___fttol+1,w,c
  4226  0055F2  6E18               	movwf	___fttol@sign1,c
  4227  0055F4  8E10               	bsf	___fttol@f1+1,7,c
  4228  0055F6  0EFF               	movlw	255
  4229  0055F8  160F               	andwf	___fttol@f1,f,c
  4230  0055FA  0EFF               	movlw	255
  4231  0055FC  1610               	andwf	___fttol@f1+1,f,c
  4232  0055FE  0E00               	movlw	0
  4233  005600  1611               	andwf	___fttol@f1+2,f,c
  4234  005602  500F               	movf	___fttol@f1,w,c
  4235  005604  6E19               	movwf	___fttol@lval,c
  4236  005606  5010               	movf	___fttol@f1+1,w,c
  4237  005608  6E1A               	movwf	___fttol@lval+1,c
  4238  00560A  5011               	movf	___fttol@f1+2,w,c
  4239  00560C  6E1B               	movwf	___fttol@lval+2,c
  4240  00560E  6A1C               	clrf	___fttol@lval+3,c
  4241  005610  0E8E               	movlw	142
  4242  005612  5E1D               	subwf	___fttol@exp1,f,c
  4243  005614  AE1D               	btfss	___fttol@exp1,7,c
  4244  005616  D016               	goto	l3204
  4245  005618  501D               	movf	___fttol@exp1,w,c
  4246  00561A  0A80               	xorlw	128
  4247  00561C  0F8F               	addlw	143
  4248  00561E  B0D8               	btfsc	status,0,c
  4249  005620  D009               	goto	l3200
  4250  005622  0E00               	movlw	0
  4251  005624  6E0F               	movwf	?___fttol,c
  4252  005626  0E00               	movlw	0
  4253  005628  6E10               	movwf	?___fttol+1,c
  4254  00562A  0E00               	movlw	0
  4255  00562C  6E11               	movwf	?___fttol+2,c
  4256  00562E  0E00               	movlw	0
  4257  005630  6E12               	movwf	?___fttol+3,c
  4258  005632  0012               	return	
  4259  005634                     l3200:
  4260  005634  90D8               	bcf	status,0,c
  4261  005636  321C               	rrcf	___fttol@lval+3,f,c
  4262  005638  321B               	rrcf	___fttol@lval+2,f,c
  4263  00563A  321A               	rrcf	___fttol@lval+1,f,c
  4264  00563C  3219               	rrcf	___fttol@lval,f,c
  4265  00563E  3E1D               	incfsz	___fttol@exp1,f,c
  4266  005640  D7F9               	goto	l3200
  4267  005642  D015               	goto	l3214
  4268  005644                     l3204:
  4269  005644  0E17               	movlw	23
  4270  005646  641D               	cpfsgt	___fttol@exp1,c
  4271  005648  D00F               	goto	l3212
  4272  00564A  0E00               	movlw	0
  4273  00564C  6E0F               	movwf	?___fttol,c
  4274  00564E  0E00               	movlw	0
  4275  005650  6E10               	movwf	?___fttol+1,c
  4276  005652  0E00               	movlw	0
  4277  005654  6E11               	movwf	?___fttol+2,c
  4278  005656  0E00               	movlw	0
  4279  005658  6E12               	movwf	?___fttol+3,c
  4280  00565A  0012               	return	
  4281  00565C                     l3210:
  4282  00565C  90D8               	bcf	status,0,c
  4283  00565E  3619               	rlcf	___fttol@lval,f,c
  4284  005660  361A               	rlcf	___fttol@lval+1,f,c
  4285  005662  361B               	rlcf	___fttol@lval+2,f,c
  4286  005664  361C               	rlcf	___fttol@lval+3,f,c
  4287  005666  061D               	decf	___fttol@exp1,f,c
  4288  005668                     l3212:
  4289  005668  501D               	movf	___fttol@exp1,w,c
  4290  00566A  A4D8               	btfss	status,2,c
  4291  00566C  D7F7               	goto	l3210
  4292  00566E                     l3214:
  4293  00566E  5018               	movf	___fttol@sign1,w,c
  4294  005670  B4D8               	btfsc	status,2,c
  4295  005672  D008               	goto	l3218
  4296  005674  1E1C               	comf	___fttol@lval+3,f,c
  4297  005676  1E1B               	comf	___fttol@lval+2,f,c
  4298  005678  1E1A               	comf	___fttol@lval+1,f,c
  4299  00567A  6C19               	negf	___fttol@lval,c
  4300  00567C  0E00               	movlw	0
  4301  00567E  221A               	addwfc	___fttol@lval+1,f,c
  4302  005680  221B               	addwfc	___fttol@lval+2,f,c
  4303  005682  221C               	addwfc	___fttol@lval+3,f,c
  4304  005684                     l3218:
  4305  005684  C019  F00F         	movff	___fttol@lval,?___fttol
  4306  005688  C01A  F010         	movff	___fttol@lval+1,?___fttol+1
  4307  00568C  C01B  F011         	movff	___fttol@lval+2,?___fttol+2
  4308  005690  C01C  F012         	movff	___fttol@lval+3,?___fttol+3
  4309  005694  0012               	return	
  4310  005696                     __end_of___fttol:
  4311                           	opt stack 0
  4312                           tblptru	equ	0xFF8
  4313                           wreg	equ	0xFE8
  4314                           status	equ	0xFD8
  4315                           
  4316 ;; *************** function _display_message *****************
  4317 ;; Defined at:
  4318 ;;		line 47 in file "display.c"
  4319 ;; Parameters:    Size  Location     Type
  4320 ;;  message         2   36[COMRAM] PTR unsigned char 
  4321 ;;		 -> STR_1(6), 
  4322 ;; Auto vars:     Size  Location     Type
  4323 ;;		None
  4324 ;; Return value:  Size  Location     Type
  4325 ;;                  1    wreg      void 
  4326 ;; Registers used:
  4327 ;;		wreg, status,2, status,0, tblptrl, tblptrh, tblptru, prodl, prodh, cstack
  4328 ;; Tracked objects:
  4329 ;;		On entry : 0/0
  4330 ;;		On exit  : 0/0
  4331 ;;		Unchanged: 0/0
  4332 ;; Data sizes:     COMRAM   BANK0   BANK1   BANK2   BANK3   BANK4   BANK5   BANK6   BANK7   BANK8   BANK9  BANK10  BANK1
      +1  BANK12  BANK13  BANK14
  4333 ;;      Params:         2       0       0       0       0       0       0       0       0       0       0       0       
      +0       0       0       0
  4334 ;;      Locals:         0       0       0       0       0       0       0       0       0       0       0       0       
      +0       0       0       0
  4335 ;;      Temps:          3       0       0       0       0       0       0       0       0       0       0       0       
      +0       0       0       0
  4336 ;;      Totals:         5       0       0       0       0       0       0       0       0       0       0       0       
      +0       0       0       0
  4337 ;;Total ram usage:        5 bytes
  4338 ;; Hardware stack levels used:    1
  4339 ;; Hardware stack levels required when called:    7
  4340 ;; This function calls:
  4341 ;;		_cmd
  4342 ;;		_cmd_incrementn
  4343 ;;		_wr16
  4344 ;;		_wr8s
  4345 ;; This function is called by:
  4346 ;;		_main
  4347 ;; This function uses a non-reentrant model
  4348 ;;
  4349                           
  4350                           	psect	text12
  4351  00521C                     __ptext12:
  4352                           	opt stack 0
  4353  00521C                     _display_message:
  4354                           	opt stack 23
  4355                           
  4356                           ;display.c: 48: cmd(((31UL<<24)|(((9UL)&15UL)<<0)));
  4357                           
  4358                           ;incstack = 0
  4359  00521C  0E09               	movlw	9
  4360  00521E  6E1E               	movwf	cmd@command,c
  4361  005220  0E00               	movlw	0
  4362  005222  6E1F               	movwf	cmd@command+1,c
  4363  005224  0E00               	movlw	0
  4364  005226  6E20               	movwf	cmd@command+2,c
  4365  005228  0E1F               	movlw	31
  4366  00522A  6E21               	movwf	cmd@command+3,c
  4367  00522C  EC54  F02F         	call	_cmd	;wreg free
  4368                           
  4369                           ;display.c: 49: cmd(((4UL<<24)|(((60)&255UL)<<16)|(((60)&255UL)<<8)|(((60)&255UL)<<0)));
  4370  005230  0E3C               	movlw	60
  4371  005232  6E1E               	movwf	cmd@command,c
  4372  005234  0E3C               	movlw	60
  4373  005236  6E1F               	movwf	cmd@command+1,c
  4374  005238  0E3C               	movlw	60
  4375  00523A  6E20               	movwf	cmd@command+2,c
  4376  00523C  0E04               	movlw	4
  4377  00523E  6E21               	movwf	cmd@command+3,c
  4378  005240  EC54  F02F         	call	_cmd	;wreg free
  4379                           
  4380                           ;display.c: 50: cmd(((2UL<<30)|(((350)&511UL)<<21)|(((215)&511UL)<<12)|(((0)&31UL)<<7)|(
      +                          ((0)&127UL)<<0)));
  4381  005244  0E00               	movlw	0
  4382  005246  6E1E               	movwf	cmd@command,c
  4383  005248  0E70               	movlw	112
  4384  00524A  6E1F               	movwf	cmd@command+1,c
  4385  00524C  0ECD               	movlw	205
  4386  00524E  6E20               	movwf	cmd@command+2,c
  4387  005250  0EAB               	movlw	171
  4388  005252  6E21               	movwf	cmd@command+3,c
  4389  005254  EC54  F02F         	call	_cmd	;wreg free
  4390                           
  4391                           ;display.c: 51: cmd(((2UL<<30)|(((134)&511UL)<<21)|(((230)&511UL)<<12)|(((0)&31UL)<<7)|(
      +                          ((0)&127UL)<<0)));
  4392  005258  0E00               	movlw	0
  4393  00525A  6E1E               	movwf	cmd@command,c
  4394  00525C  0E60               	movlw	96
  4395  00525E  6E1F               	movwf	cmd@command+1,c
  4396  005260  0ECE               	movlw	206
  4397  005262  6E20               	movwf	cmd@command+2,c
  4398  005264  0E90               	movlw	144
  4399  005266  6E21               	movwf	cmd@command+3,c
  4400  005268  EC54  F02F         	call	_cmd	;wreg free
  4401                           
  4402                           ;display.c: 52: cmd(((4UL<<24)|(((255)&255UL)<<16)|(((255)&255UL)<<8)|(((255)&255UL)<<0)
      +                          ));
  4403  00526C  0EFF               	movlw	255
  4404  00526E  6E1E               	movwf	cmd@command,c
  4405  005270  0EFF               	movlw	255
  4406  005272  6E1F               	movwf	cmd@command+1,c
  4407  005274  0EFF               	movlw	255
  4408  005276  6E20               	movwf	cmd@command+2,c
  4409  005278  0E04               	movlw	4
  4410  00527A  6E21               	movwf	cmd@command+3,c
  4411  00527C  EC54  F02F         	call	_cmd	;wreg free
  4412                           
  4413                           ;display.c: 53: cmd(4294967052UL);wr16(1081344UL+cmd_offset, 240);cmd_incrementn(2);wr16
      +                          (1081344UL+cmd_offset, 222);cmd_incrementn(2);wr16(1081344UL+cmd_offset, 28);cmd_increme
      +                          ntn(2);wr16(1081344UL+cmd_offset, 1536UL);cmd_incrementn(2);cmd_incrementn(wr8s(1081344U
      +                          L+
  4414  005280  0E0C               	movlw	12
  4415  005282  6E1E               	movwf	cmd@command,c
  4416  005284  0EFF               	movlw	255
  4417  005286  6E1F               	movwf	cmd@command+1,c
  4418  005288  0EFF               	movlw	255
  4419  00528A  6E20               	movwf	cmd@command+2,c
  4420  00528C  0EFF               	movlw	255
  4421  00528E  6E21               	movwf	cmd@command+3,c
  4422  005290  EC54  F02F         	call	_cmd	;wreg free
  4423  005294  C037  F027         	movff	_cmd_offset,??_display_message
  4424  005298  C038  F028         	movff	_cmd_offset+1,??_display_message+1
  4425  00529C  6A29               	clrf	(??_display_message+2)& (0+255),c
  4426  00529E  0E00               	movlw	0
  4427  0052A0  2427               	addwf	??_display_message,w,c
  4428  0052A2  6E10               	movwf	wr16@addr,c
  4429  0052A4  0E80               	movlw	128
  4430  0052A6  2028               	addwfc	??_display_message+1,w,c
  4431  0052A8  6E11               	movwf	wr16@addr+1,c
  4432  0052AA  0E10               	movlw	16
  4433  0052AC  2029               	addwfc	??_display_message+2,w,c
  4434  0052AE  6E12               	movwf	wr16@addr+2,c
  4435  0052B0  0E00               	movlw	0
  4436  0052B2  6E14               	movwf	wr16@value+1,c
  4437  0052B4  0EF0               	movlw	240
  4438  0052B6  6E13               	movwf	wr16@value,c
  4439  0052B8  EC36  F02F         	call	_wr16	;wreg free
  4440  0052BC  0E02               	movlw	2
  4441  0052BE  EC9B  F02F         	call	_cmd_incrementn
  4442  0052C2  C037  F027         	movff	_cmd_offset,??_display_message
  4443  0052C6  C038  F028         	movff	_cmd_offset+1,??_display_message+1
  4444  0052CA  6A29               	clrf	(??_display_message+2)& (0+255),c
  4445  0052CC  0E00               	movlw	0
  4446  0052CE  2427               	addwf	??_display_message,w,c
  4447  0052D0  6E10               	movwf	wr16@addr,c
  4448  0052D2  0E80               	movlw	128
  4449  0052D4  2028               	addwfc	??_display_message+1,w,c
  4450  0052D6  6E11               	movwf	wr16@addr+1,c
  4451  0052D8  0E10               	movlw	16
  4452  0052DA  2029               	addwfc	??_display_message+2,w,c
  4453  0052DC  6E12               	movwf	wr16@addr+2,c
  4454  0052DE  0E00               	movlw	0
  4455  0052E0  6E14               	movwf	wr16@value+1,c
  4456  0052E2  0EDE               	movlw	222
  4457  0052E4  6E13               	movwf	wr16@value,c
  4458  0052E6  EC36  F02F         	call	_wr16	;wreg free
  4459  0052EA  0E02               	movlw	2
  4460  0052EC  EC9B  F02F         	call	_cmd_incrementn
  4461  0052F0  C037  F027         	movff	_cmd_offset,??_display_message
  4462  0052F4  C038  F028         	movff	_cmd_offset+1,??_display_message+1
  4463  0052F8  6A29               	clrf	(??_display_message+2)& (0+255),c
  4464  0052FA  0E00               	movlw	0
  4465  0052FC  2427               	addwf	??_display_message,w,c
  4466  0052FE  6E10               	movwf	wr16@addr,c
  4467  005300  0E80               	movlw	128
  4468  005302  2028               	addwfc	??_display_message+1,w,c
  4469  005304  6E11               	movwf	wr16@addr+1,c
  4470  005306  0E10               	movlw	16
  4471  005308  2029               	addwfc	??_display_message+2,w,c
  4472  00530A  6E12               	movwf	wr16@addr+2,c
  4473  00530C  0E00               	movlw	0
  4474  00530E  6E14               	movwf	wr16@value+1,c
  4475  005310  0E1C               	movlw	28
  4476  005312  6E13               	movwf	wr16@value,c
  4477  005314  EC36  F02F         	call	_wr16	;wreg free
  4478  005318  0E02               	movlw	2
  4479  00531A  EC9B  F02F         	call	_cmd_incrementn
  4480  00531E  C037  F027         	movff	_cmd_offset,??_display_message
  4481  005322  C038  F028         	movff	_cmd_offset+1,??_display_message+1
  4482  005326  6A29               	clrf	(??_display_message+2)& (0+255),c
  4483  005328  0E00               	movlw	0
  4484  00532A  2427               	addwf	??_display_message,w,c
  4485  00532C  6E10               	movwf	wr16@addr,c
  4486  00532E  0E80               	movlw	128
  4487  005330  2028               	addwfc	??_display_message+1,w,c
  4488  005332  6E11               	movwf	wr16@addr+1,c
  4489  005334  0E10               	movlw	16
  4490  005336  2029               	addwfc	??_display_message+2,w,c
  4491  005338  6E12               	movwf	wr16@addr+2,c
  4492  00533A  0E06               	movlw	6
  4493  00533C  6E14               	movwf	wr16@value+1,c
  4494  00533E  0E00               	movlw	0
  4495  005340  6E13               	movwf	wr16@value,c
  4496  005342  EC36  F02F         	call	_wr16	;wreg free
  4497  005346  0E02               	movlw	2
  4498  005348  EC9B  F02F         	call	_cmd_incrementn
  4499  00534C  C037  F027         	movff	_cmd_offset,??_display_message
  4500  005350  C038  F028         	movff	_cmd_offset+1,??_display_message+1
  4501  005354  6A29               	clrf	(??_display_message+2)& (0+255),c
  4502  005356  0E00               	movlw	0
  4503  005358  2427               	addwf	??_display_message,w,c
  4504  00535A  6E15               	movwf	wr8s@addr,c
  4505  00535C  0E80               	movlw	128
  4506  00535E  2028               	addwfc	??_display_message+1,w,c
  4507  005360  6E16               	movwf	wr8s@addr+1,c
  4508  005362  0E10               	movlw	16
  4509  005364  2029               	addwfc	??_display_message+2,w,c
  4510  005366  6E17               	movwf	wr8s@addr+2,c
  4511  005368  0E01               	movlw	low STR_16
  4512  00536A  6E18               	movwf	wr8s@s,c
  4513  00536C  0E0F               	movlw	high STR_16
  4514  00536E  6E19               	movwf	wr8s@s+1,c
  4515  005370  EC8D  F02D         	call	_wr8s	;wreg free
  4516  005374  EC9B  F02F         	call	_cmd_incrementn
  4517  005378  0012               	return		;funcret
  4518  00537A                     __end_of_display_message:
  4519                           	opt stack 0
  4520                           tblptru	equ	0xFF8
  4521                           wreg	equ	0xFE8
  4522                           status	equ	0xFD8
  4523                           
  4524 ;; *************** function _display_laptime *****************
  4525 ;; Defined at:
  4526 ;;		line 56 in file "display.c"
  4527 ;; Parameters:    Size  Location     Type
  4528 ;;  current         3   36[COMRAM] float 
  4529 ;;  best            3   39[COMRAM] float 
  4530 ;;  last            3   42[COMRAM] float 
  4531 ;;  lap             2   45[COMRAM] int 
  4532 ;; Auto vars:     Size  Location     Type
  4533 ;;		None
  4534 ;; Return value:  Size  Location     Type
  4535 ;;                  1    wreg      void 
  4536 ;; Registers used:
  4537 ;;		wreg, status,2, status,0, tblptrl, tblptrh, tblptru, prodl, prodh, cstack
  4538 ;; Tracked objects:
  4539 ;;		On entry : 0/0
  4540 ;;		On exit  : 0/0
  4541 ;;		Unchanged: 0/0
  4542 ;; Data sizes:     COMRAM   BANK0   BANK1   BANK2   BANK3   BANK4   BANK5   BANK6   BANK7   BANK8   BANK9  BANK10  BANK1
      +1  BANK12  BANK13  BANK14
  4543 ;;      Params:        11       0       0       0       0       0       0       0       0       0       0       0       
      +0       0       0       0
  4544 ;;      Locals:         0       0       0       0       0       0       0       0       0       0       0       0       
      +0       0       0       0
  4545 ;;      Temps:          3       0       0       0       0       0       0       0       0       0       0       0       
      +0       0       0       0
  4546 ;;      Totals:        14       0       0       0       0       0       0       0       0       0       0       0       
      +0       0       0       0
  4547 ;;Total ram usage:       14 bytes
  4548 ;; Hardware stack levels used:    1
  4549 ;; Hardware stack levels required when called:    7
  4550 ;; This function calls:
  4551 ;;		_cmd
  4552 ;;		_cmd_incrementn
  4553 ;;		_wr16
  4554 ;;		_wr8s
  4555 ;; This function is called by:
  4556 ;;		_main
  4557 ;; This function uses a non-reentrant model
  4558 ;;
  4559                           
  4560                           	psect	text13
  4561  000F80                     __ptext13:
  4562                           	opt stack 0
  4563  000F80                     _display_laptime:
  4564                           	opt stack 23
  4565                           
  4566                           ;display.c: 57: cmd(((4UL<<24)|(((255)&255UL)<<16)|(((0)&255UL)<<8)|(((0)&255UL)<<0)));
  4567                           
  4568                           ;incstack = 0
  4569  000F80  0E00               	movlw	0
  4570  000F82  6E1E               	movwf	cmd@command,c
  4571  000F84  0E00               	movlw	0
  4572  000F86  6E1F               	movwf	cmd@command+1,c
  4573  000F88  0EFF               	movlw	255
  4574  000F8A  6E20               	movwf	cmd@command+2,c
  4575  000F8C  0E04               	movlw	4
  4576  000F8E  6E21               	movwf	cmd@command+3,c
  4577  000F90  EC54  F02F         	call	_cmd	;wreg free
  4578                           
  4579                           ;display.c: 58: cmd(((31UL<<24)|(((8UL)&15UL)<<0)));
  4580  000F94  0E08               	movlw	8
  4581  000F96  6E1E               	movwf	cmd@command,c
  4582  000F98  0E00               	movlw	0
  4583  000F9A  6E1F               	movwf	cmd@command+1,c
  4584  000F9C  0E00               	movlw	0
  4585  000F9E  6E20               	movwf	cmd@command+2,c
  4586  000FA0  0E1F               	movlw	31
  4587  000FA2  6E21               	movwf	cmd@command+3,c
  4588  000FA4  EC54  F02F         	call	_cmd	;wreg free
  4589                           
  4590                           ;display.c: 59: cmd(((2UL<<30)|(((0)&511UL)<<21)|(((200)&511UL)<<12)|(((0)&31UL)<<7)|(((
      +                          0)&127UL)<<0)));
  4591  000FA8  0E00               	movlw	0
  4592  000FAA  6E1E               	movwf	cmd@command,c
  4593  000FAC  0E80               	movlw	128
  4594  000FAE  6E1F               	movwf	cmd@command+1,c
  4595  000FB0  0E0C               	movlw	12
  4596  000FB2  6E20               	movwf	cmd@command+2,c
  4597  000FB4  0E80               	movlw	128
  4598  000FB6  6E21               	movwf	cmd@command+3,c
  4599  000FB8  EC54  F02F         	call	_cmd	;wreg free
  4600                           
  4601                           ;display.c: 60: cmd(((2UL<<30)|(((187)&511UL)<<21)|(((200)&511UL)<<12)|(((0)&31UL)<<7)|(
      +                          ((0)&127UL)<<0)));
  4602  000FBC  0E00               	movlw	0
  4603  000FBE  6E1E               	movwf	cmd@command,c
  4604  000FC0  0E80               	movlw	128
  4605  000FC2  6E1F               	movwf	cmd@command+1,c
  4606  000FC4  0E6C               	movlw	108
  4607  000FC6  6E20               	movwf	cmd@command+2,c
  4608  000FC8  0E97               	movlw	151
  4609  000FCA  6E21               	movwf	cmd@command+3,c
  4610  000FCC  EC54  F02F         	call	_cmd	;wreg free
  4611                           
  4612                           ;display.c: 61: cmd(((2UL<<30)|(((216)&511UL)<<21)|(((173)&511UL)<<12)|(((0)&31UL)<<7)|(
      +                          ((0)&127UL)<<0)));
  4613  000FD0  0E00               	movlw	0
  4614  000FD2  6E1E               	movwf	cmd@command,c
  4615  000FD4  0ED0               	movlw	208
  4616  000FD6  6E1F               	movwf	cmd@command+1,c
  4617  000FD8  0E0A               	movlw	10
  4618  000FDA  6E20               	movwf	cmd@command+2,c
  4619  000FDC  0E9B               	movlw	155
  4620  000FDE  6E21               	movwf	cmd@command+3,c
  4621  000FE0  EC54  F02F         	call	_cmd	;wreg free
  4622                           
  4623                           ;display.c: 62: cmd(((2UL<<30)|(((263)&511UL)<<21)|(((173)&511UL)<<12)|(((0)&31UL)<<7)|(
      +                          ((0)&127UL)<<0)));
  4624  000FE4  0E00               	movlw	0
  4625  000FE6  6E1E               	movwf	cmd@command,c
  4626  000FE8  0ED0               	movlw	208
  4627  000FEA  6E1F               	movwf	cmd@command+1,c
  4628  000FEC  0EEA               	movlw	234
  4629  000FEE  6E20               	movwf	cmd@command+2,c
  4630  000FF0  0EA0               	movlw	160
  4631  000FF2  6E21               	movwf	cmd@command+3,c
  4632  000FF4  EC54  F02F         	call	_cmd	;wreg free
  4633                           
  4634                           ;display.c: 63: cmd(((2UL<<30)|(((292)&511UL)<<21)|(((200)&511UL)<<12)|(((0)&31UL)<<7)|(
      +                          ((0)&127UL)<<0)));
  4635  000FF8  0E00               	movlw	0
  4636  000FFA  6E1E               	movwf	cmd@command,c
  4637  000FFC  0E80               	movlw	128
  4638  000FFE  6E1F               	movwf	cmd@command+1,c
  4639  001000  0E8C               	movlw	140
  4640  001002  6E20               	movwf	cmd@command+2,c
  4641  001004  0EA4               	movlw	164
  4642  001006  6E21               	movwf	cmd@command+3,c
  4643  001008  EC54  F02F         	call	_cmd	;wreg free
  4644                           
  4645                           ;display.c: 64: cmd(((2UL<<30)|(((480)&511UL)<<21)|(((200)&511UL)<<12)|(((0)&31UL)<<7)|(
      +                          ((0)&127UL)<<0)));
  4646  00100C  0E00               	movlw	0
  4647  00100E  6E1E               	movwf	cmd@command,c
  4648  001010  0E80               	movlw	128
  4649  001012  6E1F               	movwf	cmd@command+1,c
  4650  001014  0E0C               	movlw	12
  4651  001016  6E20               	movwf	cmd@command+2,c
  4652  001018  0EBC               	movlw	188
  4653  00101A  6E21               	movwf	cmd@command+3,c
  4654  00101C  EC54  F02F         	call	_cmd	;wreg free
  4655                           
  4656                           ;display.c: 66: cmd(((4UL<<24)|(((0)&255UL)<<16)|(((0)&255UL)<<8)|(((0)&255UL)<<0)));
  4657  001020  0E00               	movlw	0
  4658  001022  6E1E               	movwf	cmd@command,c
  4659  001024  0E00               	movlw	0
  4660  001026  6E1F               	movwf	cmd@command+1,c
  4661  001028  0E00               	movlw	0
  4662  00102A  6E20               	movwf	cmd@command+2,c
  4663  00102C  0E04               	movlw	4
  4664  00102E  6E21               	movwf	cmd@command+3,c
  4665  001030  EC54  F02F         	call	_cmd	;wreg free
  4666                           
  4667                           ;display.c: 67: cmd(((31UL<<24)|(((8UL)&15UL)<<0)));
  4668  001034  0E08               	movlw	8
  4669  001036  6E1E               	movwf	cmd@command,c
  4670  001038  0E00               	movlw	0
  4671  00103A  6E1F               	movwf	cmd@command+1,c
  4672  00103C  0E00               	movlw	0
  4673  00103E  6E20               	movwf	cmd@command+2,c
  4674  001040  0E1F               	movlw	31
  4675  001042  6E21               	movwf	cmd@command+3,c
  4676  001044  EC54  F02F         	call	_cmd	;wreg free
  4677                           
  4678                           ;display.c: 68: cmd(((2UL<<30)|(((0)&511UL)<<21)|(((205)&511UL)<<12)|(((0)&31UL)<<7)|(((
      +                          0)&127UL)<<0)));
  4679  001048  0E00               	movlw	0
  4680  00104A  6E1E               	movwf	cmd@command,c
  4681  00104C  0ED0               	movlw	208
  4682  00104E  6E1F               	movwf	cmd@command+1,c
  4683  001050  0E0C               	movlw	12
  4684  001052  6E20               	movwf	cmd@command+2,c
  4685  001054  0E80               	movlw	128
  4686  001056  6E21               	movwf	cmd@command+3,c
  4687  001058  EC54  F02F         	call	_cmd	;wreg free
  4688                           
  4689                           ;display.c: 69: cmd(((2UL<<30)|(((189)&511UL)<<21)|(((204)&511UL)<<12)|(((0)&31UL)<<7)|(
      +                          ((0)&127UL)<<0)));
  4690  00105C  0E00               	movlw	0
  4691  00105E  6E1E               	movwf	cmd@command,c
  4692  001060  0EC0               	movlw	192
  4693  001062  6E1F               	movwf	cmd@command+1,c
  4694  001064  0EAC               	movlw	172
  4695  001066  6E20               	movwf	cmd@command+2,c
  4696  001068  0E97               	movlw	151
  4697  00106A  6E21               	movwf	cmd@command+3,c
  4698  00106C  EC54  F02F         	call	_cmd	;wreg free
  4699                           
  4700                           ;display.c: 70: cmd(((2UL<<30)|(((217)&511UL)<<21)|(((177)&511UL)<<12)|(((0)&31UL)<<7)|(
      +                          ((0)&127UL)<<0)));
  4701  001070  0E00               	movlw	0
  4702  001072  6E1E               	movwf	cmd@command,c
  4703  001074  0E10               	movlw	16
  4704  001076  6E1F               	movwf	cmd@command+1,c
  4705  001078  0E2B               	movlw	43
  4706  00107A  6E20               	movwf	cmd@command+2,c
  4707  00107C  0E9B               	movlw	155
  4708  00107E  6E21               	movwf	cmd@command+3,c
  4709  001080  EC54  F02F         	call	_cmd	;wreg free
  4710                           
  4711                           ;display.c: 71: cmd(((2UL<<30)|(((261)&511UL)<<21)|(((177)&511UL)<<12)|(((0)&31UL)<<7)|(
      +                          ((0)&127UL)<<0)));
  4712  001084  0E00               	movlw	0
  4713  001086  6E1E               	movwf	cmd@command,c
  4714  001088  0E10               	movlw	16
  4715  00108A  6E1F               	movwf	cmd@command+1,c
  4716  00108C  0EAB               	movlw	171
  4717  00108E  6E20               	movwf	cmd@command+2,c
  4718  001090  0EA0               	movlw	160
  4719  001092  6E21               	movwf	cmd@command+3,c
  4720  001094  EC54  F02F         	call	_cmd	;wreg free
  4721                           
  4722                           ;display.c: 72: cmd(((2UL<<30)|(((289)&511UL)<<21)|(((204)&511UL)<<12)|(((0)&31UL)<<7)|(
      +                          ((0)&127UL)<<0)));
  4723  001098  0E00               	movlw	0
  4724  00109A  6E1E               	movwf	cmd@command,c
  4725  00109C  0EC0               	movlw	192
  4726  00109E  6E1F               	movwf	cmd@command+1,c
  4727  0010A0  0E2C               	movlw	44
  4728  0010A2  6E20               	movwf	cmd@command+2,c
  4729  0010A4  0EA4               	movlw	164
  4730  0010A6  6E21               	movwf	cmd@command+3,c
  4731  0010A8  EC54  F02F         	call	_cmd	;wreg free
  4732                           
  4733                           ;display.c: 73: cmd(((2UL<<30)|(((483)&511UL)<<21)|(((205)&511UL)<<12)|(((0)&31UL)<<7)|(
      +                          ((0)&127UL)<<0)));
  4734  0010AC  0E00               	movlw	0
  4735  0010AE  6E1E               	movwf	cmd@command,c
  4736  0010B0  0ED0               	movlw	208
  4737  0010B2  6E1F               	movwf	cmd@command+1,c
  4738  0010B4  0E6C               	movlw	108
  4739  0010B6  6E20               	movwf	cmd@command+2,c
  4740  0010B8  0EBC               	movlw	188
  4741  0010BA  6E21               	movwf	cmd@command+3,c
  4742  0010BC  EC54  F02F         	call	_cmd	;wreg free
  4743                           
  4744                           ;display.c: 76: cmd(((4UL<<24)|(((255)&255UL)<<16)|(((125)&255UL)<<8)|(((0)&255UL)<<0)))
      +                          ;
  4745  0010C0  0E00               	movlw	0
  4746  0010C2  6E1E               	movwf	cmd@command,c
  4747  0010C4  0E7D               	movlw	125
  4748  0010C6  6E1F               	movwf	cmd@command+1,c
  4749  0010C8  0EFF               	movlw	255
  4750  0010CA  6E20               	movwf	cmd@command+2,c
  4751  0010CC  0E04               	movlw	4
  4752  0010CE  6E21               	movwf	cmd@command+3,c
  4753  0010D0  EC54  F02F         	call	_cmd	;wreg free
  4754                           
  4755                           ;display.c: 77: cmd(4294967052UL);wr16(1081344UL+cmd_offset, 5);cmd_incrementn(2);wr16(1
      +                          081344UL+cmd_offset, 207);cmd_incrementn(2);wr16(1081344UL+cmd_offset, 27);cmd_increment
      +                          n(2);wr16(1081344UL+cmd_offset, 0);cmd_incrementn(2);cmd_incrementn(wr8s(1081344UL+cmd_o
      +                          ff
  4756  0010D4  0E0C               	movlw	12
  4757  0010D6  6E1E               	movwf	cmd@command,c
  4758  0010D8  0EFF               	movlw	255
  4759  0010DA  6E1F               	movwf	cmd@command+1,c
  4760  0010DC  0EFF               	movlw	255
  4761  0010DE  6E20               	movwf	cmd@command+2,c
  4762  0010E0  0EFF               	movlw	255
  4763  0010E2  6E21               	movwf	cmd@command+3,c
  4764  0010E4  EC54  F02F         	call	_cmd	;wreg free
  4765  0010E8  C037  F030         	movff	_cmd_offset,??_display_laptime
  4766  0010EC  C038  F031         	movff	_cmd_offset+1,??_display_laptime+1
  4767  0010F0  6A32               	clrf	(??_display_laptime+2)& (0+255),c
  4768  0010F2  0E00               	movlw	0
  4769  0010F4  2430               	addwf	??_display_laptime,w,c
  4770  0010F6  6E10               	movwf	wr16@addr,c
  4771  0010F8  0E80               	movlw	128
  4772  0010FA  2031               	addwfc	??_display_laptime+1,w,c
  4773  0010FC  6E11               	movwf	wr16@addr+1,c
  4774  0010FE  0E10               	movlw	16
  4775  001100  2032               	addwfc	??_display_laptime+2,w,c
  4776  001102  6E12               	movwf	wr16@addr+2,c
  4777  001104  0E00               	movlw	0
  4778  001106  6E14               	movwf	wr16@value+1,c
  4779  001108  0E05               	movlw	5
  4780  00110A  6E13               	movwf	wr16@value,c
  4781  00110C  EC36  F02F         	call	_wr16	;wreg free
  4782  001110  0E02               	movlw	2
  4783  001112  EC9B  F02F         	call	_cmd_incrementn
  4784  001116  C037  F030         	movff	_cmd_offset,??_display_laptime
  4785  00111A  C038  F031         	movff	_cmd_offset+1,??_display_laptime+1
  4786  00111E  6A32               	clrf	(??_display_laptime+2)& (0+255),c
  4787  001120  0E00               	movlw	0
  4788  001122  2430               	addwf	??_display_laptime,w,c
  4789  001124  6E10               	movwf	wr16@addr,c
  4790  001126  0E80               	movlw	128
  4791  001128  2031               	addwfc	??_display_laptime+1,w,c
  4792  00112A  6E11               	movwf	wr16@addr+1,c
  4793  00112C  0E10               	movlw	16
  4794  00112E  2032               	addwfc	??_display_laptime+2,w,c
  4795  001130  6E12               	movwf	wr16@addr+2,c
  4796  001132  0E00               	movlw	0
  4797  001134  6E14               	movwf	wr16@value+1,c
  4798  001136  0ECF               	movlw	207
  4799  001138  6E13               	movwf	wr16@value,c
  4800  00113A  EC36  F02F         	call	_wr16	;wreg free
  4801  00113E  0E02               	movlw	2
  4802  001140  EC9B  F02F         	call	_cmd_incrementn
  4803  001144  C037  F030         	movff	_cmd_offset,??_display_laptime
  4804  001148  C038  F031         	movff	_cmd_offset+1,??_display_laptime+1
  4805  00114C  6A32               	clrf	(??_display_laptime+2)& (0+255),c
  4806  00114E  0E00               	movlw	0
  4807  001150  2430               	addwf	??_display_laptime,w,c
  4808  001152  6E10               	movwf	wr16@addr,c
  4809  001154  0E80               	movlw	128
  4810  001156  2031               	addwfc	??_display_laptime+1,w,c
  4811  001158  6E11               	movwf	wr16@addr+1,c
  4812  00115A  0E10               	movlw	16
  4813  00115C  2032               	addwfc	??_display_laptime+2,w,c
  4814  00115E  6E12               	movwf	wr16@addr+2,c
  4815  001160  0E00               	movlw	0
  4816  001162  6E14               	movwf	wr16@value+1,c
  4817  001164  0E1B               	movlw	27
  4818  001166  6E13               	movwf	wr16@value,c
  4819  001168  EC36  F02F         	call	_wr16	;wreg free
  4820  00116C  0E02               	movlw	2
  4821  00116E  EC9B  F02F         	call	_cmd_incrementn
  4822  001172  C037  F030         	movff	_cmd_offset,??_display_laptime
  4823  001176  C038  F031         	movff	_cmd_offset+1,??_display_laptime+1
  4824  00117A  6A32               	clrf	(??_display_laptime+2)& (0+255),c
  4825  00117C  0E00               	movlw	0
  4826  00117E  2430               	addwf	??_display_laptime,w,c
  4827  001180  6E10               	movwf	wr16@addr,c
  4828  001182  0E80               	movlw	128
  4829  001184  2031               	addwfc	??_display_laptime+1,w,c
  4830  001186  6E11               	movwf	wr16@addr+1,c
  4831  001188  0E10               	movlw	16
  4832  00118A  2032               	addwfc	??_display_laptime+2,w,c
  4833  00118C  6E12               	movwf	wr16@addr+2,c
  4834  00118E  0E00               	movlw	0
  4835  001190  6E14               	movwf	wr16@value+1,c
  4836  001192  0E00               	movlw	0
  4837  001194  6E13               	movwf	wr16@value,c
  4838  001196  EC36  F02F         	call	_wr16	;wreg free
  4839  00119A  0E02               	movlw	2
  4840  00119C  EC9B  F02F         	call	_cmd_incrementn
  4841  0011A0  C037  F030         	movff	_cmd_offset,??_display_laptime
  4842  0011A4  C038  F031         	movff	_cmd_offset+1,??_display_laptime+1
  4843  0011A8  6A32               	clrf	(??_display_laptime+2)& (0+255),c
  4844  0011AA  0E00               	movlw	0
  4845  0011AC  2430               	addwf	??_display_laptime,w,c
  4846  0011AE  6E15               	movwf	wr8s@addr,c
  4847  0011B0  0E80               	movlw	128
  4848  0011B2  2031               	addwfc	??_display_laptime+1,w,c
  4849  0011B4  6E16               	movwf	wr8s@addr+1,c
  4850  0011B6  0E10               	movlw	16
  4851  0011B8  2032               	addwfc	??_display_laptime+2,w,c
  4852  0011BA  6E17               	movwf	wr8s@addr+2,c
  4853  0011BC  0E3D               	movlw	low STR_17
  4854  0011BE  6E18               	movwf	wr8s@s,c
  4855  0011C0  0E0F               	movlw	high STR_17
  4856  0011C2  6E19               	movwf	wr8s@s+1,c
  4857  0011C4  EC8D  F02D         	call	_wr8s	;wreg free
  4858  0011C8  EC9B  F02F         	call	_cmd_incrementn
  4859                           
  4860                           ;display.c: 78: cmd(4294967086UL);wr16(1081344UL+cmd_offset, 66);cmd_incrementn(2);wr16(
      +                          1081344UL+cmd_offset, 217);cmd_incrementn(2);wr16(1081344UL+cmd_offset, 27);cmd_incremen
      +                          tn(2);wr16(1081344UL+cmd_offset, 1536UL);cmd_incrementn(2);cmd(3);
  4861  0011CC  0E2E               	movlw	46
  4862  0011CE  6E1E               	movwf	cmd@command,c
  4863  0011D0  0EFF               	movlw	255
  4864  0011D2  6E1F               	movwf	cmd@command+1,c
  4865  0011D4  0EFF               	movlw	255
  4866  0011D6  6E20               	movwf	cmd@command+2,c
  4867  0011D8  0EFF               	movlw	255
  4868  0011DA  6E21               	movwf	cmd@command+3,c
  4869  0011DC  EC54  F02F         	call	_cmd	;wreg free
  4870  0011E0  C037  F030         	movff	_cmd_offset,??_display_laptime
  4871  0011E4  C038  F031         	movff	_cmd_offset+1,??_display_laptime+1
  4872  0011E8  6A32               	clrf	(??_display_laptime+2)& (0+255),c
  4873  0011EA  0E00               	movlw	0
  4874  0011EC  2430               	addwf	??_display_laptime,w,c
  4875  0011EE  6E10               	movwf	wr16@addr,c
  4876  0011F0  0E80               	movlw	128
  4877  0011F2  2031               	addwfc	??_display_laptime+1,w,c
  4878  0011F4  6E11               	movwf	wr16@addr+1,c
  4879  0011F6  0E10               	movlw	16
  4880  0011F8  2032               	addwfc	??_display_laptime+2,w,c
  4881  0011FA  6E12               	movwf	wr16@addr+2,c
  4882  0011FC  0E00               	movlw	0
  4883  0011FE  6E14               	movwf	wr16@value+1,c
  4884  001200  0E42               	movlw	66
  4885  001202  6E13               	movwf	wr16@value,c
  4886  001204  EC36  F02F         	call	_wr16	;wreg free
  4887  001208  0E02               	movlw	2
  4888  00120A  EC9B  F02F         	call	_cmd_incrementn
  4889  00120E  C037  F030         	movff	_cmd_offset,??_display_laptime
  4890  001212  C038  F031         	movff	_cmd_offset+1,??_display_laptime+1
  4891  001216  6A32               	clrf	(??_display_laptime+2)& (0+255),c
  4892  001218  0E00               	movlw	0
  4893  00121A  2430               	addwf	??_display_laptime,w,c
  4894  00121C  6E10               	movwf	wr16@addr,c
  4895  00121E  0E80               	movlw	128
  4896  001220  2031               	addwfc	??_display_laptime+1,w,c
  4897  001222  6E11               	movwf	wr16@addr+1,c
  4898  001224  0E10               	movlw	16
  4899  001226  2032               	addwfc	??_display_laptime+2,w,c
  4900  001228  6E12               	movwf	wr16@addr+2,c
  4901  00122A  0E00               	movlw	0
  4902  00122C  6E14               	movwf	wr16@value+1,c
  4903  00122E  0ED9               	movlw	217
  4904  001230  6E13               	movwf	wr16@value,c
  4905  001232  EC36  F02F         	call	_wr16	;wreg free
  4906  001236  0E02               	movlw	2
  4907  001238  EC9B  F02F         	call	_cmd_incrementn
  4908  00123C  C037  F030         	movff	_cmd_offset,??_display_laptime
  4909  001240  C038  F031         	movff	_cmd_offset+1,??_display_laptime+1
  4910  001244  6A32               	clrf	(??_display_laptime+2)& (0+255),c
  4911  001246  0E00               	movlw	0
  4912  001248  2430               	addwf	??_display_laptime,w,c
  4913  00124A  6E10               	movwf	wr16@addr,c
  4914  00124C  0E80               	movlw	128
  4915  00124E  2031               	addwfc	??_display_laptime+1,w,c
  4916  001250  6E11               	movwf	wr16@addr+1,c
  4917  001252  0E10               	movlw	16
  4918  001254  2032               	addwfc	??_display_laptime+2,w,c
  4919  001256  6E12               	movwf	wr16@addr+2,c
  4920  001258  0E00               	movlw	0
  4921  00125A  6E14               	movwf	wr16@value+1,c
  4922  00125C  0E1B               	movlw	27
  4923  00125E  6E13               	movwf	wr16@value,c
  4924  001260  EC36  F02F         	call	_wr16	;wreg free
  4925  001264  0E02               	movlw	2
  4926  001266  EC9B  F02F         	call	_cmd_incrementn
  4927  00126A  C037  F030         	movff	_cmd_offset,??_display_laptime
  4928  00126E  C038  F031         	movff	_cmd_offset+1,??_display_laptime+1
  4929  001272  6A32               	clrf	(??_display_laptime+2)& (0+255),c
  4930  001274  0E00               	movlw	0
  4931  001276  2430               	addwf	??_display_laptime,w,c
  4932  001278  6E10               	movwf	wr16@addr,c
  4933  00127A  0E80               	movlw	128
  4934  00127C  2031               	addwfc	??_display_laptime+1,w,c
  4935  00127E  6E11               	movwf	wr16@addr+1,c
  4936  001280  0E10               	movlw	16
  4937  001282  2032               	addwfc	??_display_laptime+2,w,c
  4938  001284  6E12               	movwf	wr16@addr+2,c
  4939  001286  0E06               	movlw	6
  4940  001288  6E14               	movwf	wr16@value+1,c
  4941  00128A  0E00               	movlw	0
  4942  00128C  6E13               	movwf	wr16@value,c
  4943  00128E  EC36  F02F         	call	_wr16	;wreg free
  4944  001292  0E02               	movlw	2
  4945  001294  EC9B  F02F         	call	_cmd_incrementn
  4946  001298  0E03               	movlw	3
  4947  00129A  6E1E               	movwf	cmd@command,c
  4948  00129C  0E00               	movlw	0
  4949  00129E  6E1F               	movwf	cmd@command+1,c
  4950  0012A0  0E00               	movlw	0
  4951  0012A2  6E20               	movwf	cmd@command+2,c
  4952  0012A4  0E00               	movlw	0
  4953  0012A6  6E21               	movwf	cmd@command+3,c
  4954  0012A8  EC54  F02F         	call	_cmd	;wreg free
  4955                           
  4956                           ;display.c: 79: cmd(4294967052UL);wr16(1081344UL+cmd_offset, 448);cmd_incrementn(2);wr16
      +                          (1081344UL+cmd_offset, 207);cmd_incrementn(2);wr16(1081344UL+cmd_offset, 27);cmd_increme
      +                          ntn(2);wr16(1081344UL+cmd_offset, 2048UL);cmd_incrementn(2);cmd_incrementn(wr8s(1081344U
      +                          L+
  4957  0012AC  0E0C               	movlw	12
  4958  0012AE  6E1E               	movwf	cmd@command,c
  4959  0012B0  0EFF               	movlw	255
  4960  0012B2  6E1F               	movwf	cmd@command+1,c
  4961  0012B4  0EFF               	movlw	255
  4962  0012B6  6E20               	movwf	cmd@command+2,c
  4963  0012B8  0EFF               	movlw	255
  4964  0012BA  6E21               	movwf	cmd@command+3,c
  4965  0012BC  EC54  F02F         	call	_cmd	;wreg free
  4966  0012C0  C037  F030         	movff	_cmd_offset,??_display_laptime
  4967  0012C4  C038  F031         	movff	_cmd_offset+1,??_display_laptime+1
  4968  0012C8  6A32               	clrf	(??_display_laptime+2)& (0+255),c
  4969  0012CA  0E00               	movlw	0
  4970  0012CC  2430               	addwf	??_display_laptime,w,c
  4971  0012CE  6E10               	movwf	wr16@addr,c
  4972  0012D0  0E80               	movlw	128
  4973  0012D2  2031               	addwfc	??_display_laptime+1,w,c
  4974  0012D4  6E11               	movwf	wr16@addr+1,c
  4975  0012D6  0E10               	movlw	16
  4976  0012D8  2032               	addwfc	??_display_laptime+2,w,c
  4977  0012DA  6E12               	movwf	wr16@addr+2,c
  4978  0012DC  0E01               	movlw	1
  4979  0012DE  6E14               	movwf	wr16@value+1,c
  4980  0012E0  0EC0               	movlw	192
  4981  0012E2  6E13               	movwf	wr16@value,c
  4982  0012E4  EC36  F02F         	call	_wr16	;wreg free
  4983  0012E8  0E02               	movlw	2
  4984  0012EA  EC9B  F02F         	call	_cmd_incrementn
  4985  0012EE  C037  F030         	movff	_cmd_offset,??_display_laptime
  4986  0012F2  C038  F031         	movff	_cmd_offset+1,??_display_laptime+1
  4987  0012F6  6A32               	clrf	(??_display_laptime+2)& (0+255),c
  4988  0012F8  0E00               	movlw	0
  4989  0012FA  2430               	addwf	??_display_laptime,w,c
  4990  0012FC  6E10               	movwf	wr16@addr,c
  4991  0012FE  0E80               	movlw	128
  4992  001300  2031               	addwfc	??_display_laptime+1,w,c
  4993  001302  6E11               	movwf	wr16@addr+1,c
  4994  001304  0E10               	movlw	16
  4995  001306  2032               	addwfc	??_display_laptime+2,w,c
  4996  001308  6E12               	movwf	wr16@addr+2,c
  4997  00130A  0E00               	movlw	0
  4998  00130C  6E14               	movwf	wr16@value+1,c
  4999  00130E  0ECF               	movlw	207
  5000  001310  6E13               	movwf	wr16@value,c
  5001  001312  EC36  F02F         	call	_wr16	;wreg free
  5002  001316  0E02               	movlw	2
  5003  001318  EC9B  F02F         	call	_cmd_incrementn
  5004  00131C  C037  F030         	movff	_cmd_offset,??_display_laptime
  5005  001320  C038  F031         	movff	_cmd_offset+1,??_display_laptime+1
  5006  001324  6A32               	clrf	(??_display_laptime+2)& (0+255),c
  5007  001326  0E00               	movlw	0
  5008  001328  2430               	addwf	??_display_laptime,w,c
  5009  00132A  6E10               	movwf	wr16@addr,c
  5010  00132C  0E80               	movlw	128
  5011  00132E  2031               	addwfc	??_display_laptime+1,w,c
  5012  001330  6E11               	movwf	wr16@addr+1,c
  5013  001332  0E10               	movlw	16
  5014  001334  2032               	addwfc	??_display_laptime+2,w,c
  5015  001336  6E12               	movwf	wr16@addr+2,c
  5016  001338  0E00               	movlw	0
  5017  00133A  6E14               	movwf	wr16@value+1,c
  5018  00133C  0E1B               	movlw	27
  5019  00133E  6E13               	movwf	wr16@value,c
  5020  001340  EC36  F02F         	call	_wr16	;wreg free
  5021  001344  0E02               	movlw	2
  5022  001346  EC9B  F02F         	call	_cmd_incrementn
  5023  00134A  C037  F030         	movff	_cmd_offset,??_display_laptime
  5024  00134E  C038  F031         	movff	_cmd_offset+1,??_display_laptime+1
  5025  001352  6A32               	clrf	(??_display_laptime+2)& (0+255),c
  5026  001354  0E00               	movlw	0
  5027  001356  2430               	addwf	??_display_laptime,w,c
  5028  001358  6E10               	movwf	wr16@addr,c
  5029  00135A  0E80               	movlw	128
  5030  00135C  2031               	addwfc	??_display_laptime+1,w,c
  5031  00135E  6E11               	movwf	wr16@addr+1,c
  5032  001360  0E10               	movlw	16
  5033  001362  2032               	addwfc	??_display_laptime+2,w,c
  5034  001364  6E12               	movwf	wr16@addr+2,c
  5035  001366  0E08               	movlw	8
  5036  001368  6E14               	movwf	wr16@value+1,c
  5037  00136A  0E00               	movlw	0
  5038  00136C  6E13               	movwf	wr16@value,c
  5039  00136E  EC36  F02F         	call	_wr16	;wreg free
  5040  001372  0E02               	movlw	2
  5041  001374  EC9B  F02F         	call	_cmd_incrementn
  5042  001378  C037  F030         	movff	_cmd_offset,??_display_laptime
  5043  00137C  C038  F031         	movff	_cmd_offset+1,??_display_laptime+1
  5044  001380  6A32               	clrf	(??_display_laptime+2)& (0+255),c
  5045  001382  0E00               	movlw	0
  5046  001384  2430               	addwf	??_display_laptime,w,c
  5047  001386  6E15               	movwf	wr8s@addr,c
  5048  001388  0E80               	movlw	128
  5049  00138A  2031               	addwfc	??_display_laptime+1,w,c
  5050  00138C  6E16               	movwf	wr8s@addr+1,c
  5051  00138E  0E10               	movlw	16
  5052  001390  2032               	addwfc	??_display_laptime+2,w,c
  5053  001392  6E17               	movwf	wr8s@addr+2,c
  5054  001394  0E42               	movlw	low STR_18
  5055  001396  6E18               	movwf	wr8s@s,c
  5056  001398  0E0F               	movlw	high STR_18
  5057  00139A  6E19               	movwf	wr8s@s+1,c
  5058  00139C  EC8D  F02D         	call	_wr8s	;wreg free
  5059  0013A0  EC9B  F02F         	call	_cmd_incrementn
  5060                           
  5061                           ;display.c: 80: cmd(4294967086UL);wr16(1081344UL+cmd_offset, 475);cmd_incrementn(2);wr16
      +                          (1081344UL+cmd_offset, 207);cmd_incrementn(2);wr16(1081344UL+cmd_offset, 27);cmd_increme
      +                          ntn(2);wr16(1081344UL+cmd_offset, 2048UL);cmd_incrementn(2);cmd(1);
  5062  0013A4  0E2E               	movlw	46
  5063  0013A6  6E1E               	movwf	cmd@command,c
  5064  0013A8  0EFF               	movlw	255
  5065  0013AA  6E1F               	movwf	cmd@command+1,c
  5066  0013AC  0EFF               	movlw	255
  5067  0013AE  6E20               	movwf	cmd@command+2,c
  5068  0013B0  0EFF               	movlw	255
  5069  0013B2  6E21               	movwf	cmd@command+3,c
  5070  0013B4  EC54  F02F         	call	_cmd	;wreg free
  5071  0013B8  C037  F030         	movff	_cmd_offset,??_display_laptime
  5072  0013BC  C038  F031         	movff	_cmd_offset+1,??_display_laptime+1
  5073  0013C0  6A32               	clrf	(??_display_laptime+2)& (0+255),c
  5074  0013C2  0E00               	movlw	0
  5075  0013C4  2430               	addwf	??_display_laptime,w,c
  5076  0013C6  6E10               	movwf	wr16@addr,c
  5077  0013C8  0E80               	movlw	128
  5078  0013CA  2031               	addwfc	??_display_laptime+1,w,c
  5079  0013CC  6E11               	movwf	wr16@addr+1,c
  5080  0013CE  0E10               	movlw	16
  5081  0013D0  2032               	addwfc	??_display_laptime+2,w,c
  5082  0013D2  6E12               	movwf	wr16@addr+2,c
  5083  0013D4  0E01               	movlw	1
  5084  0013D6  6E14               	movwf	wr16@value+1,c
  5085  0013D8  0EDB               	movlw	219
  5086  0013DA  6E13               	movwf	wr16@value,c
  5087  0013DC  EC36  F02F         	call	_wr16	;wreg free
  5088  0013E0  0E02               	movlw	2
  5089  0013E2  EC9B  F02F         	call	_cmd_incrementn
  5090  0013E6  C037  F030         	movff	_cmd_offset,??_display_laptime
  5091  0013EA  C038  F031         	movff	_cmd_offset+1,??_display_laptime+1
  5092  0013EE  6A32               	clrf	(??_display_laptime+2)& (0+255),c
  5093  0013F0  0E00               	movlw	0
  5094  0013F2  2430               	addwf	??_display_laptime,w,c
  5095  0013F4  6E10               	movwf	wr16@addr,c
  5096  0013F6  0E80               	movlw	128
  5097  0013F8  2031               	addwfc	??_display_laptime+1,w,c
  5098  0013FA  6E11               	movwf	wr16@addr+1,c
  5099  0013FC  0E10               	movlw	16
  5100  0013FE  2032               	addwfc	??_display_laptime+2,w,c
  5101  001400  6E12               	movwf	wr16@addr+2,c
  5102  001402  0E00               	movlw	0
  5103  001404  6E14               	movwf	wr16@value+1,c
  5104  001406  0ECF               	movlw	207
  5105  001408  6E13               	movwf	wr16@value,c
  5106  00140A  EC36  F02F         	call	_wr16	;wreg free
  5107  00140E  0E02               	movlw	2
  5108  001410  EC9B  F02F         	call	_cmd_incrementn
  5109  001414  C037  F030         	movff	_cmd_offset,??_display_laptime
  5110  001418  C038  F031         	movff	_cmd_offset+1,??_display_laptime+1
  5111  00141C  6A32               	clrf	(??_display_laptime+2)& (0+255),c
  5112  00141E  0E00               	movlw	0
  5113  001420  2430               	addwf	??_display_laptime,w,c
  5114  001422  6E10               	movwf	wr16@addr,c
  5115  001424  0E80               	movlw	128
  5116  001426  2031               	addwfc	??_display_laptime+1,w,c
  5117  001428  6E11               	movwf	wr16@addr+1,c
  5118  00142A  0E10               	movlw	16
  5119  00142C  2032               	addwfc	??_display_laptime+2,w,c
  5120  00142E  6E12               	movwf	wr16@addr+2,c
  5121  001430  0E00               	movlw	0
  5122  001432  6E14               	movwf	wr16@value+1,c
  5123  001434  0E1B               	movlw	27
  5124  001436  6E13               	movwf	wr16@value,c
  5125  001438  EC36  F02F         	call	_wr16	;wreg free
  5126  00143C  0E02               	movlw	2
  5127  00143E  EC9B  F02F         	call	_cmd_incrementn
  5128  001442  C037  F030         	movff	_cmd_offset,??_display_laptime
  5129  001446  C038  F031         	movff	_cmd_offset+1,??_display_laptime+1
  5130  00144A  6A32               	clrf	(??_display_laptime+2)& (0+255),c
  5131  00144C  0E00               	movlw	0
  5132  00144E  2430               	addwf	??_display_laptime,w,c
  5133  001450  6E10               	movwf	wr16@addr,c
  5134  001452  0E80               	movlw	128
  5135  001454  2031               	addwfc	??_display_laptime+1,w,c
  5136  001456  6E11               	movwf	wr16@addr+1,c
  5137  001458  0E10               	movlw	16
  5138  00145A  2032               	addwfc	??_display_laptime+2,w,c
  5139  00145C  6E12               	movwf	wr16@addr+2,c
  5140  00145E  0E08               	movlw	8
  5141  001460  6E14               	movwf	wr16@value+1,c
  5142  001462  0E00               	movlw	0
  5143  001464  6E13               	movwf	wr16@value,c
  5144  001466  EC36  F02F         	call	_wr16	;wreg free
  5145  00146A  0E02               	movlw	2
  5146  00146C  EC9B  F02F         	call	_cmd_incrementn
  5147  001470  0E01               	movlw	1
  5148  001472  6E1E               	movwf	cmd@command,c
  5149  001474  0E00               	movlw	0
  5150  001476  6E1F               	movwf	cmd@command+1,c
  5151  001478  0E00               	movlw	0
  5152  00147A  6E20               	movwf	cmd@command+2,c
  5153  00147C  0E00               	movlw	0
  5154  00147E  6E21               	movwf	cmd@command+3,c
  5155  001480  EC54  F02F         	call	_cmd	;wreg free
  5156                           
  5157                           ;display.c: 81: cmd(4294967052UL);wr16(1081344UL+cmd_offset, 240);cmd_incrementn(2);wr16
      +                          (1081344UL+cmd_offset, 165);cmd_incrementn(2);wr16(1081344UL+cmd_offset, 27);cmd_increme
      +                          ntn(2);wr16(1081344UL+cmd_offset, 1536UL);cmd_incrementn(2);cmd_incrementn(wr8s(1081344U
      +                          L+
  5158  001484  0E0C               	movlw	12
  5159  001486  6E1E               	movwf	cmd@command,c
  5160  001488  0EFF               	movlw	255
  5161  00148A  6E1F               	movwf	cmd@command+1,c
  5162  00148C  0EFF               	movlw	255
  5163  00148E  6E20               	movwf	cmd@command+2,c
  5164  001490  0EFF               	movlw	255
  5165  001492  6E21               	movwf	cmd@command+3,c
  5166  001494  EC54  F02F         	call	_cmd	;wreg free
  5167  001498  C037  F030         	movff	_cmd_offset,??_display_laptime
  5168  00149C  C038  F031         	movff	_cmd_offset+1,??_display_laptime+1
  5169  0014A0  6A32               	clrf	(??_display_laptime+2)& (0+255),c
  5170  0014A2  0E00               	movlw	0
  5171  0014A4  2430               	addwf	??_display_laptime,w,c
  5172  0014A6  6E10               	movwf	wr16@addr,c
  5173  0014A8  0E80               	movlw	128
  5174  0014AA  2031               	addwfc	??_display_laptime+1,w,c
  5175  0014AC  6E11               	movwf	wr16@addr+1,c
  5176  0014AE  0E10               	movlw	16
  5177  0014B0  2032               	addwfc	??_display_laptime+2,w,c
  5178  0014B2  6E12               	movwf	wr16@addr+2,c
  5179  0014B4  0E00               	movlw	0
  5180  0014B6  6E14               	movwf	wr16@value+1,c
  5181  0014B8  0EF0               	movlw	240
  5182  0014BA  6E13               	movwf	wr16@value,c
  5183  0014BC  EC36  F02F         	call	_wr16	;wreg free
  5184  0014C0  0E02               	movlw	2
  5185  0014C2  EC9B  F02F         	call	_cmd_incrementn
  5186  0014C6  C037  F030         	movff	_cmd_offset,??_display_laptime
  5187  0014CA  C038  F031         	movff	_cmd_offset+1,??_display_laptime+1
  5188  0014CE  6A32               	clrf	(??_display_laptime+2)& (0+255),c
  5189  0014D0  0E00               	movlw	0
  5190  0014D2  2430               	addwf	??_display_laptime,w,c
  5191  0014D4  6E10               	movwf	wr16@addr,c
  5192  0014D6  0E80               	movlw	128
  5193  0014D8  2031               	addwfc	??_display_laptime+1,w,c
  5194  0014DA  6E11               	movwf	wr16@addr+1,c
  5195  0014DC  0E10               	movlw	16
  5196  0014DE  2032               	addwfc	??_display_laptime+2,w,c
  5197  0014E0  6E12               	movwf	wr16@addr+2,c
  5198  0014E2  0E00               	movlw	0
  5199  0014E4  6E14               	movwf	wr16@value+1,c
  5200  0014E6  0EA5               	movlw	165
  5201  0014E8  6E13               	movwf	wr16@value,c
  5202  0014EA  EC36  F02F         	call	_wr16	;wreg free
  5203  0014EE  0E02               	movlw	2
  5204  0014F0  EC9B  F02F         	call	_cmd_incrementn
  5205  0014F4  C037  F030         	movff	_cmd_offset,??_display_laptime
  5206  0014F8  C038  F031         	movff	_cmd_offset+1,??_display_laptime+1
  5207  0014FC  6A32               	clrf	(??_display_laptime+2)& (0+255),c
  5208  0014FE  0E00               	movlw	0
  5209  001500  2430               	addwf	??_display_laptime,w,c
  5210  001502  6E10               	movwf	wr16@addr,c
  5211  001504  0E80               	movlw	128
  5212  001506  2031               	addwfc	??_display_laptime+1,w,c
  5213  001508  6E11               	movwf	wr16@addr+1,c
  5214  00150A  0E10               	movlw	16
  5215  00150C  2032               	addwfc	??_display_laptime+2,w,c
  5216  00150E  6E12               	movwf	wr16@addr+2,c
  5217  001510  0E00               	movlw	0
  5218  001512  6E14               	movwf	wr16@value+1,c
  5219  001514  0E1B               	movlw	27
  5220  001516  6E13               	movwf	wr16@value,c
  5221  001518  EC36  F02F         	call	_wr16	;wreg free
  5222  00151C  0E02               	movlw	2
  5223  00151E  EC9B  F02F         	call	_cmd_incrementn
  5224  001522  C037  F030         	movff	_cmd_offset,??_display_laptime
  5225  001526  C038  F031         	movff	_cmd_offset+1,??_display_laptime+1
  5226  00152A  6A32               	clrf	(??_display_laptime+2)& (0+255),c
  5227  00152C  0E00               	movlw	0
  5228  00152E  2430               	addwf	??_display_laptime,w,c
  5229  001530  6E10               	movwf	wr16@addr,c
  5230  001532  0E80               	movlw	128
  5231  001534  2031               	addwfc	??_display_laptime+1,w,c
  5232  001536  6E11               	movwf	wr16@addr+1,c
  5233  001538  0E10               	movlw	16
  5234  00153A  2032               	addwfc	??_display_laptime+2,w,c
  5235  00153C  6E12               	movwf	wr16@addr+2,c
  5236  00153E  0E06               	movlw	6
  5237  001540  6E14               	movwf	wr16@value+1,c
  5238  001542  0E00               	movlw	0
  5239  001544  6E13               	movwf	wr16@value,c
  5240  001546  EC36  F02F         	call	_wr16	;wreg free
  5241  00154A  0E02               	movlw	2
  5242  00154C  EC9B  F02F         	call	_cmd_incrementn
  5243  001550  C037  F030         	movff	_cmd_offset,??_display_laptime
  5244  001554  C038  F031         	movff	_cmd_offset+1,??_display_laptime+1
  5245  001558  6A32               	clrf	(??_display_laptime+2)& (0+255),c
  5246  00155A  0E00               	movlw	0
  5247  00155C  2430               	addwf	??_display_laptime,w,c
  5248  00155E  6E15               	movwf	wr8s@addr,c
  5249  001560  0E80               	movlw	128
  5250  001562  2031               	addwfc	??_display_laptime+1,w,c
  5251  001564  6E16               	movwf	wr8s@addr+1,c
  5252  001566  0E10               	movlw	16
  5253  001568  2032               	addwfc	??_display_laptime+2,w,c
  5254  00156A  6E17               	movwf	wr8s@addr+2,c
  5255  00156C  0E58               	movlw	low STR_19
  5256  00156E  6E18               	movwf	wr8s@s,c
  5257  001570  0E0F               	movlw	high STR_19
  5258  001572  6E19               	movwf	wr8s@s+1,c
  5259  001574  EC8D  F02D         	call	_wr8s	;wreg free
  5260  001578  EC9B  F02F         	call	_cmd_incrementn
  5261                           
  5262                           ;display.c: 82: cmd(4294967086UL);wr16(1081344UL+cmd_offset, 240);cmd_incrementn(2);wr16
      +                          (1081344UL+cmd_offset, 190);cmd_incrementn(2);wr16(1081344UL+cmd_offset, 29);cmd_increme
      +                          ntn(2);wr16(1081344UL+cmd_offset, 1536UL);cmd_incrementn(2);cmd(7);
  5263  00157C  0E2E               	movlw	46
  5264  00157E  6E1E               	movwf	cmd@command,c
  5265  001580  0EFF               	movlw	255
  5266  001582  6E1F               	movwf	cmd@command+1,c
  5267  001584  0EFF               	movlw	255
  5268  001586  6E20               	movwf	cmd@command+2,c
  5269  001588  0EFF               	movlw	255
  5270  00158A  6E21               	movwf	cmd@command+3,c
  5271  00158C  EC54  F02F         	call	_cmd	;wreg free
  5272  001590  C037  F030         	movff	_cmd_offset,??_display_laptime
  5273  001594  C038  F031         	movff	_cmd_offset+1,??_display_laptime+1
  5274  001598  6A32               	clrf	(??_display_laptime+2)& (0+255),c
  5275  00159A  0E00               	movlw	0
  5276  00159C  2430               	addwf	??_display_laptime,w,c
  5277  00159E  6E10               	movwf	wr16@addr,c
  5278  0015A0  0E80               	movlw	128
  5279  0015A2  2031               	addwfc	??_display_laptime+1,w,c
  5280  0015A4  6E11               	movwf	wr16@addr+1,c
  5281  0015A6  0E10               	movlw	16
  5282  0015A8  2032               	addwfc	??_display_laptime+2,w,c
  5283  0015AA  6E12               	movwf	wr16@addr+2,c
  5284  0015AC  0E00               	movlw	0
  5285  0015AE  6E14               	movwf	wr16@value+1,c
  5286  0015B0  0EF0               	movlw	240
  5287  0015B2  6E13               	movwf	wr16@value,c
  5288  0015B4  EC36  F02F         	call	_wr16	;wreg free
  5289  0015B8  0E02               	movlw	2
  5290  0015BA  EC9B  F02F         	call	_cmd_incrementn
  5291  0015BE  C037  F030         	movff	_cmd_offset,??_display_laptime
  5292  0015C2  C038  F031         	movff	_cmd_offset+1,??_display_laptime+1
  5293  0015C6  6A32               	clrf	(??_display_laptime+2)& (0+255),c
  5294  0015C8  0E00               	movlw	0
  5295  0015CA  2430               	addwf	??_display_laptime,w,c
  5296  0015CC  6E10               	movwf	wr16@addr,c
  5297  0015CE  0E80               	movlw	128
  5298  0015D0  2031               	addwfc	??_display_laptime+1,w,c
  5299  0015D2  6E11               	movwf	wr16@addr+1,c
  5300  0015D4  0E10               	movlw	16
  5301  0015D6  2032               	addwfc	??_display_laptime+2,w,c
  5302  0015D8  6E12               	movwf	wr16@addr+2,c
  5303  0015DA  0E00               	movlw	0
  5304  0015DC  6E14               	movwf	wr16@value+1,c
  5305  0015DE  0EBE               	movlw	190
  5306  0015E0  6E13               	movwf	wr16@value,c
  5307  0015E2  EC36  F02F         	call	_wr16	;wreg free
  5308  0015E6  0E02               	movlw	2
  5309  0015E8  EC9B  F02F         	call	_cmd_incrementn
  5310  0015EC  C037  F030         	movff	_cmd_offset,??_display_laptime
  5311  0015F0  C038  F031         	movff	_cmd_offset+1,??_display_laptime+1
  5312  0015F4  6A32               	clrf	(??_display_laptime+2)& (0+255),c
  5313  0015F6  0E00               	movlw	0
  5314  0015F8  2430               	addwf	??_display_laptime,w,c
  5315  0015FA  6E10               	movwf	wr16@addr,c
  5316  0015FC  0E80               	movlw	128
  5317  0015FE  2031               	addwfc	??_display_laptime+1,w,c
  5318  001600  6E11               	movwf	wr16@addr+1,c
  5319  001602  0E10               	movlw	16
  5320  001604  2032               	addwfc	??_display_laptime+2,w,c
  5321  001606  6E12               	movwf	wr16@addr+2,c
  5322  001608  0E00               	movlw	0
  5323  00160A  6E14               	movwf	wr16@value+1,c
  5324  00160C  0E1D               	movlw	29
  5325  00160E  6E13               	movwf	wr16@value,c
  5326  001610  EC36  F02F         	call	_wr16	;wreg free
  5327  001614  0E02               	movlw	2
  5328  001616  EC9B  F02F         	call	_cmd_incrementn
  5329  00161A  C037  F030         	movff	_cmd_offset,??_display_laptime
  5330  00161E  C038  F031         	movff	_cmd_offset+1,??_display_laptime+1
  5331  001622  6A32               	clrf	(??_display_laptime+2)& (0+255),c
  5332  001624  0E00               	movlw	0
  5333  001626  2430               	addwf	??_display_laptime,w,c
  5334  001628  6E10               	movwf	wr16@addr,c
  5335  00162A  0E80               	movlw	128
  5336  00162C  2031               	addwfc	??_display_laptime+1,w,c
  5337  00162E  6E11               	movwf	wr16@addr+1,c
  5338  001630  0E10               	movlw	16
  5339  001632  2032               	addwfc	??_display_laptime+2,w,c
  5340  001634  6E12               	movwf	wr16@addr+2,c
  5341  001636  0E06               	movlw	6
  5342  001638  6E14               	movwf	wr16@value+1,c
  5343  00163A  0E00               	movlw	0
  5344  00163C  6E13               	movwf	wr16@value,c
  5345  00163E  EC36  F02F         	call	_wr16	;wreg free
  5346  001642  0E02               	movlw	2
  5347  001644  EC9B  F02F         	call	_cmd_incrementn
  5348  001648  0E07               	movlw	7
  5349  00164A  6E1E               	movwf	cmd@command,c
  5350  00164C  0E00               	movlw	0
  5351  00164E  6E1F               	movwf	cmd@command+1,c
  5352  001650  0E00               	movlw	0
  5353  001652  6E20               	movwf	cmd@command+2,c
  5354  001654  0E00               	movlw	0
  5355  001656  6E21               	movwf	cmd@command+3,c
  5356  001658  EC54  F02F         	call	_cmd	;wreg free
  5357                           
  5358                           ;display.c: 85: cmd(((4UL<<24)|(((255)&255UL)<<16)|(((255)&255UL)<<8)|(((255)&255UL)<<0)
      +                          ));
  5359  00165C  0EFF               	movlw	255
  5360  00165E  6E1E               	movwf	cmd@command,c
  5361  001660  0EFF               	movlw	255
  5362  001662  6E1F               	movwf	cmd@command+1,c
  5363  001664  0EFF               	movlw	255
  5364  001666  6E20               	movwf	cmd@command+2,c
  5365  001668  0E04               	movlw	4
  5366  00166A  6E21               	movwf	cmd@command+3,c
  5367  00166C  EC54  F02F         	call	_cmd	;wreg free
  5368                           
  5369                           ;display.c: 86: cmd(4294967086UL);wr16(1081344UL+cmd_offset, 36);cmd_incrementn(2);wr16(
      +                          1081344UL+cmd_offset, 222);cmd_incrementn(2);wr16(1081344UL+cmd_offset, 30);cmd_incremen
      +                          tn(2);wr16(1081344UL+cmd_offset, 2048UL);cmd_incrementn(2);cmd(18);
  5370  001670  0E2E               	movlw	46
  5371  001672  6E1E               	movwf	cmd@command,c
  5372  001674  0EFF               	movlw	255
  5373  001676  6E1F               	movwf	cmd@command+1,c
  5374  001678  0EFF               	movlw	255
  5375  00167A  6E20               	movwf	cmd@command+2,c
  5376  00167C  0EFF               	movlw	255
  5377  00167E  6E21               	movwf	cmd@command+3,c
  5378  001680  EC54  F02F         	call	_cmd	;wreg free
  5379  001684  C037  F030         	movff	_cmd_offset,??_display_laptime
  5380  001688  C038  F031         	movff	_cmd_offset+1,??_display_laptime+1
  5381  00168C  6A32               	clrf	(??_display_laptime+2)& (0+255),c
  5382  00168E  0E00               	movlw	0
  5383  001690  2430               	addwf	??_display_laptime,w,c
  5384  001692  6E10               	movwf	wr16@addr,c
  5385  001694  0E80               	movlw	128
  5386  001696  2031               	addwfc	??_display_laptime+1,w,c
  5387  001698  6E11               	movwf	wr16@addr+1,c
  5388  00169A  0E10               	movlw	16
  5389  00169C  2032               	addwfc	??_display_laptime+2,w,c
  5390  00169E  6E12               	movwf	wr16@addr+2,c
  5391  0016A0  0E00               	movlw	0
  5392  0016A2  6E14               	movwf	wr16@value+1,c
  5393  0016A4  0E24               	movlw	36
  5394  0016A6  6E13               	movwf	wr16@value,c
  5395  0016A8  EC36  F02F         	call	_wr16	;wreg free
  5396  0016AC  0E02               	movlw	2
  5397  0016AE  EC9B  F02F         	call	_cmd_incrementn
  5398  0016B2  C037  F030         	movff	_cmd_offset,??_display_laptime
  5399  0016B6  C038  F031         	movff	_cmd_offset+1,??_display_laptime+1
  5400  0016BA  6A32               	clrf	(??_display_laptime+2)& (0+255),c
  5401  0016BC  0E00               	movlw	0
  5402  0016BE  2430               	addwf	??_display_laptime,w,c
  5403  0016C0  6E10               	movwf	wr16@addr,c
  5404  0016C2  0E80               	movlw	128
  5405  0016C4  2031               	addwfc	??_display_laptime+1,w,c
  5406  0016C6  6E11               	movwf	wr16@addr+1,c
  5407  0016C8  0E10               	movlw	16
  5408  0016CA  2032               	addwfc	??_display_laptime+2,w,c
  5409  0016CC  6E12               	movwf	wr16@addr+2,c
  5410  0016CE  0E00               	movlw	0
  5411  0016D0  6E14               	movwf	wr16@value+1,c
  5412  0016D2  0EDE               	movlw	222
  5413  0016D4  6E13               	movwf	wr16@value,c
  5414  0016D6  EC36  F02F         	call	_wr16	;wreg free
  5415  0016DA  0E02               	movlw	2
  5416  0016DC  EC9B  F02F         	call	_cmd_incrementn
  5417  0016E0  C037  F030         	movff	_cmd_offset,??_display_laptime
  5418  0016E4  C038  F031         	movff	_cmd_offset+1,??_display_laptime+1
  5419  0016E8  6A32               	clrf	(??_display_laptime+2)& (0+255),c
  5420  0016EA  0E00               	movlw	0
  5421  0016EC  2430               	addwf	??_display_laptime,w,c
  5422  0016EE  6E10               	movwf	wr16@addr,c
  5423  0016F0  0E80               	movlw	128
  5424  0016F2  2031               	addwfc	??_display_laptime+1,w,c
  5425  0016F4  6E11               	movwf	wr16@addr+1,c
  5426  0016F6  0E10               	movlw	16
  5427  0016F8  2032               	addwfc	??_display_laptime+2,w,c
  5428  0016FA  6E12               	movwf	wr16@addr+2,c
  5429  0016FC  0E00               	movlw	0
  5430  0016FE  6E14               	movwf	wr16@value+1,c
  5431  001700  0E1E               	movlw	30
  5432  001702  6E13               	movwf	wr16@value,c
  5433  001704  EC36  F02F         	call	_wr16	;wreg free
  5434  001708  0E02               	movlw	2
  5435  00170A  EC9B  F02F         	call	_cmd_incrementn
  5436  00170E  C037  F030         	movff	_cmd_offset,??_display_laptime
  5437  001712  C038  F031         	movff	_cmd_offset+1,??_display_laptime+1
  5438  001716  6A32               	clrf	(??_display_laptime+2)& (0+255),c
  5439  001718  0E00               	movlw	0
  5440  00171A  2430               	addwf	??_display_laptime,w,c
  5441  00171C  6E10               	movwf	wr16@addr,c
  5442  00171E  0E80               	movlw	128
  5443  001720  2031               	addwfc	??_display_laptime+1,w,c
  5444  001722  6E11               	movwf	wr16@addr+1,c
  5445  001724  0E10               	movlw	16
  5446  001726  2032               	addwfc	??_display_laptime+2,w,c
  5447  001728  6E12               	movwf	wr16@addr+2,c
  5448  00172A  0E08               	movlw	8
  5449  00172C  6E14               	movwf	wr16@value+1,c
  5450  00172E  0E00               	movlw	0
  5451  001730  6E13               	movwf	wr16@value,c
  5452  001732  EC36  F02F         	call	_wr16	;wreg free
  5453  001736  0E02               	movlw	2
  5454  001738  EC9B  F02F         	call	_cmd_incrementn
  5455  00173C  0E12               	movlw	18
  5456  00173E  6E1E               	movwf	cmd@command,c
  5457  001740  0E00               	movlw	0
  5458  001742  6E1F               	movwf	cmd@command+1,c
  5459  001744  0E00               	movlw	0
  5460  001746  6E20               	movwf	cmd@command+2,c
  5461  001748  0E00               	movlw	0
  5462  00174A  6E21               	movwf	cmd@command+3,c
  5463  00174C  EC54  F02F         	call	_cmd	;wreg free
  5464                           
  5465                           ;display.c: 87: cmd(4294967052UL);wr16(1081344UL+cmd_offset, 39);cmd_incrementn(2);wr16(
      +                          1081344UL+cmd_offset, 238);cmd_incrementn(2);wr16(1081344UL+cmd_offset, 28);cmd_incremen
      +                          tn(2);wr16(1081344UL+cmd_offset, 1536UL);cmd_incrementn(2);cmd_incrementn(wr8s(1081344UL
      +                          +c
  5466  001750  0E0C               	movlw	12
  5467  001752  6E1E               	movwf	cmd@command,c
  5468  001754  0EFF               	movlw	255
  5469  001756  6E1F               	movwf	cmd@command+1,c
  5470  001758  0EFF               	movlw	255
  5471  00175A  6E20               	movwf	cmd@command+2,c
  5472  00175C  0EFF               	movlw	255
  5473  00175E  6E21               	movwf	cmd@command+3,c
  5474  001760  EC54  F02F         	call	_cmd	;wreg free
  5475  001764  C037  F030         	movff	_cmd_offset,??_display_laptime
  5476  001768  C038  F031         	movff	_cmd_offset+1,??_display_laptime+1
  5477  00176C  6A32               	clrf	(??_display_laptime+2)& (0+255),c
  5478  00176E  0E00               	movlw	0
  5479  001770  2430               	addwf	??_display_laptime,w,c
  5480  001772  6E10               	movwf	wr16@addr,c
  5481  001774  0E80               	movlw	128
  5482  001776  2031               	addwfc	??_display_laptime+1,w,c
  5483  001778  6E11               	movwf	wr16@addr+1,c
  5484  00177A  0E10               	movlw	16
  5485  00177C  2032               	addwfc	??_display_laptime+2,w,c
  5486  00177E  6E12               	movwf	wr16@addr+2,c
  5487  001780  0E00               	movlw	0
  5488  001782  6E14               	movwf	wr16@value+1,c
  5489  001784  0E27               	movlw	39
  5490  001786  6E13               	movwf	wr16@value,c
  5491  001788  EC36  F02F         	call	_wr16	;wreg free
  5492  00178C  0E02               	movlw	2
  5493  00178E  EC9B  F02F         	call	_cmd_incrementn
  5494  001792  C037  F030         	movff	_cmd_offset,??_display_laptime
  5495  001796  C038  F031         	movff	_cmd_offset+1,??_display_laptime+1
  5496  00179A  6A32               	clrf	(??_display_laptime+2)& (0+255),c
  5497  00179C  0E00               	movlw	0
  5498  00179E  2430               	addwf	??_display_laptime,w,c
  5499  0017A0  6E10               	movwf	wr16@addr,c
  5500  0017A2  0E80               	movlw	128
  5501  0017A4  2031               	addwfc	??_display_laptime+1,w,c
  5502  0017A6  6E11               	movwf	wr16@addr+1,c
  5503  0017A8  0E10               	movlw	16
  5504  0017AA  2032               	addwfc	??_display_laptime+2,w,c
  5505  0017AC  6E12               	movwf	wr16@addr+2,c
  5506  0017AE  0E00               	movlw	0
  5507  0017B0  6E14               	movwf	wr16@value+1,c
  5508  0017B2  0EEE               	movlw	238
  5509  0017B4  6E13               	movwf	wr16@value,c
  5510  0017B6  EC36  F02F         	call	_wr16	;wreg free
  5511  0017BA  0E02               	movlw	2
  5512  0017BC  EC9B  F02F         	call	_cmd_incrementn
  5513  0017C0  C037  F030         	movff	_cmd_offset,??_display_laptime
  5514  0017C4  C038  F031         	movff	_cmd_offset+1,??_display_laptime+1
  5515  0017C8  6A32               	clrf	(??_display_laptime+2)& (0+255),c
  5516  0017CA  0E00               	movlw	0
  5517  0017CC  2430               	addwf	??_display_laptime,w,c
  5518  0017CE  6E10               	movwf	wr16@addr,c
  5519  0017D0  0E80               	movlw	128
  5520  0017D2  2031               	addwfc	??_display_laptime+1,w,c
  5521  0017D4  6E11               	movwf	wr16@addr+1,c
  5522  0017D6  0E10               	movlw	16
  5523  0017D8  2032               	addwfc	??_display_laptime+2,w,c
  5524  0017DA  6E12               	movwf	wr16@addr+2,c
  5525  0017DC  0E00               	movlw	0
  5526  0017DE  6E14               	movwf	wr16@value+1,c
  5527  0017E0  0E1C               	movlw	28
  5528  0017E2  6E13               	movwf	wr16@value,c
  5529  0017E4  EC36  F02F         	call	_wr16	;wreg free
  5530  0017E8  0E02               	movlw	2
  5531  0017EA  EC9B  F02F         	call	_cmd_incrementn
  5532  0017EE  C037  F030         	movff	_cmd_offset,??_display_laptime
  5533  0017F2  C038  F031         	movff	_cmd_offset+1,??_display_laptime+1
  5534  0017F6  6A32               	clrf	(??_display_laptime+2)& (0+255),c
  5535  0017F8  0E00               	movlw	0
  5536  0017FA  2430               	addwf	??_display_laptime,w,c
  5537  0017FC  6E10               	movwf	wr16@addr,c
  5538  0017FE  0E80               	movlw	128
  5539  001800  2031               	addwfc	??_display_laptime+1,w,c
  5540  001802  6E11               	movwf	wr16@addr+1,c
  5541  001804  0E10               	movlw	16
  5542  001806  2032               	addwfc	??_display_laptime+2,w,c
  5543  001808  6E12               	movwf	wr16@addr+2,c
  5544  00180A  0E06               	movlw	6
  5545  00180C  6E14               	movwf	wr16@value+1,c
  5546  00180E  0E00               	movlw	0
  5547  001810  6E13               	movwf	wr16@value,c
  5548  001812  EC36  F02F         	call	_wr16	;wreg free
  5549  001816  0E02               	movlw	2
  5550  001818  EC9B  F02F         	call	_cmd_incrementn
  5551  00181C  C037  F030         	movff	_cmd_offset,??_display_laptime
  5552  001820  C038  F031         	movff	_cmd_offset+1,??_display_laptime+1
  5553  001824  6A32               	clrf	(??_display_laptime+2)& (0+255),c
  5554  001826  0E00               	movlw	0
  5555  001828  2430               	addwf	??_display_laptime,w,c
  5556  00182A  6E15               	movwf	wr8s@addr,c
  5557  00182C  0E80               	movlw	128
  5558  00182E  2031               	addwfc	??_display_laptime+1,w,c
  5559  001830  6E16               	movwf	wr8s@addr+1,c
  5560  001832  0E10               	movlw	16
  5561  001834  2032               	addwfc	??_display_laptime+2,w,c
  5562  001836  6E17               	movwf	wr8s@addr+2,c
  5563  001838  0E7A               	movlw	low STR_20
  5564  00183A  6E18               	movwf	wr8s@s,c
  5565  00183C  0E0F               	movlw	high STR_20
  5566  00183E  6E19               	movwf	wr8s@s+1,c
  5567  001840  EC8D  F02D         	call	_wr8s	;wreg free
  5568  001844  EC9B  F02F         	call	_cmd_incrementn
  5569                           
  5570                           ;display.c: 88: cmd(4294967086UL);wr16(1081344UL+cmd_offset, 42);cmd_incrementn(2);wr16(
      +                          1081344UL+cmd_offset, 222);cmd_incrementn(2);wr16(1081344UL+cmd_offset, 30);cmd_incremen
      +                          tn(2);wr16(1081344UL+cmd_offset, 2UL);cmd_incrementn(2);cmd(36);
  5571  001848  0E2E               	movlw	46
  5572  00184A  6E1E               	movwf	cmd@command,c
  5573  00184C  0EFF               	movlw	255
  5574  00184E  6E1F               	movwf	cmd@command+1,c
  5575  001850  0EFF               	movlw	255
  5576  001852  6E20               	movwf	cmd@command+2,c
  5577  001854  0EFF               	movlw	255
  5578  001856  6E21               	movwf	cmd@command+3,c
  5579  001858  EC54  F02F         	call	_cmd	;wreg free
  5580  00185C  C037  F030         	movff	_cmd_offset,??_display_laptime
  5581  001860  C038  F031         	movff	_cmd_offset+1,??_display_laptime+1
  5582  001864  6A32               	clrf	(??_display_laptime+2)& (0+255),c
  5583  001866  0E00               	movlw	0
  5584  001868  2430               	addwf	??_display_laptime,w,c
  5585  00186A  6E10               	movwf	wr16@addr,c
  5586  00186C  0E80               	movlw	128
  5587  00186E  2031               	addwfc	??_display_laptime+1,w,c
  5588  001870  6E11               	movwf	wr16@addr+1,c
  5589  001872  0E10               	movlw	16
  5590  001874  2032               	addwfc	??_display_laptime+2,w,c
  5591  001876  6E12               	movwf	wr16@addr+2,c
  5592  001878  0E00               	movlw	0
  5593  00187A  6E14               	movwf	wr16@value+1,c
  5594  00187C  0E2A               	movlw	42
  5595  00187E  6E13               	movwf	wr16@value,c
  5596  001880  EC36  F02F         	call	_wr16	;wreg free
  5597  001884  0E02               	movlw	2
  5598  001886  EC9B  F02F         	call	_cmd_incrementn
  5599  00188A  C037  F030         	movff	_cmd_offset,??_display_laptime
  5600  00188E  C038  F031         	movff	_cmd_offset+1,??_display_laptime+1
  5601  001892  6A32               	clrf	(??_display_laptime+2)& (0+255),c
  5602  001894  0E00               	movlw	0
  5603  001896  2430               	addwf	??_display_laptime,w,c
  5604  001898  6E10               	movwf	wr16@addr,c
  5605  00189A  0E80               	movlw	128
  5606  00189C  2031               	addwfc	??_display_laptime+1,w,c
  5607  00189E  6E11               	movwf	wr16@addr+1,c
  5608  0018A0  0E10               	movlw	16
  5609  0018A2  2032               	addwfc	??_display_laptime+2,w,c
  5610  0018A4  6E12               	movwf	wr16@addr+2,c
  5611  0018A6  0E00               	movlw	0
  5612  0018A8  6E14               	movwf	wr16@value+1,c
  5613  0018AA  0EDE               	movlw	222
  5614  0018AC  6E13               	movwf	wr16@value,c
  5615  0018AE  EC36  F02F         	call	_wr16	;wreg free
  5616  0018B2  0E02               	movlw	2
  5617  0018B4  EC9B  F02F         	call	_cmd_incrementn
  5618  0018B8  C037  F030         	movff	_cmd_offset,??_display_laptime
  5619  0018BC  C038  F031         	movff	_cmd_offset+1,??_display_laptime+1
  5620  0018C0  6A32               	clrf	(??_display_laptime+2)& (0+255),c
  5621  0018C2  0E00               	movlw	0
  5622  0018C4  2430               	addwf	??_display_laptime,w,c
  5623  0018C6  6E10               	movwf	wr16@addr,c
  5624  0018C8  0E80               	movlw	128
  5625  0018CA  2031               	addwfc	??_display_laptime+1,w,c
  5626  0018CC  6E11               	movwf	wr16@addr+1,c
  5627  0018CE  0E10               	movlw	16
  5628  0018D0  2032               	addwfc	??_display_laptime+2,w,c
  5629  0018D2  6E12               	movwf	wr16@addr+2,c
  5630  0018D4  0E00               	movlw	0
  5631  0018D6  6E14               	movwf	wr16@value+1,c
  5632  0018D8  0E1E               	movlw	30
  5633  0018DA  6E13               	movwf	wr16@value,c
  5634  0018DC  EC36  F02F         	call	_wr16	;wreg free
  5635  0018E0  0E02               	movlw	2
  5636  0018E2  EC9B  F02F         	call	_cmd_incrementn
  5637  0018E6  C037  F030         	movff	_cmd_offset,??_display_laptime
  5638  0018EA  C038  F031         	movff	_cmd_offset+1,??_display_laptime+1
  5639  0018EE  6A32               	clrf	(??_display_laptime+2)& (0+255),c
  5640  0018F0  0E00               	movlw	0
  5641  0018F2  2430               	addwf	??_display_laptime,w,c
  5642  0018F4  6E10               	movwf	wr16@addr,c
  5643  0018F6  0E80               	movlw	128
  5644  0018F8  2031               	addwfc	??_display_laptime+1,w,c
  5645  0018FA  6E11               	movwf	wr16@addr+1,c
  5646  0018FC  0E10               	movlw	16
  5647  0018FE  2032               	addwfc	??_display_laptime+2,w,c
  5648  001900  6E12               	movwf	wr16@addr+2,c
  5649  001902  0E00               	movlw	0
  5650  001904  6E14               	movwf	wr16@value+1,c
  5651  001906  0E02               	movlw	2
  5652  001908  6E13               	movwf	wr16@value,c
  5653  00190A  EC36  F02F         	call	_wr16	;wreg free
  5654  00190E  0E02               	movlw	2
  5655  001910  EC9B  F02F         	call	_cmd_incrementn
  5656  001914  0E24               	movlw	36
  5657  001916  6E1E               	movwf	cmd@command,c
  5658  001918  0E00               	movlw	0
  5659  00191A  6E1F               	movwf	cmd@command+1,c
  5660  00191C  0E00               	movlw	0
  5661  00191E  6E20               	movwf	cmd@command+2,c
  5662  001920  0E00               	movlw	0
  5663  001922  6E21               	movwf	cmd@command+3,c
  5664  001924  EC54  F02F         	call	_cmd	;wreg free
  5665                           
  5666                           ;display.c: 89: cmd(4294967052UL);wr16(1081344UL+cmd_offset, 79);cmd_incrementn(2);wr16(
      +                          1081344UL+cmd_offset, 238);cmd_incrementn(2);wr16(1081344UL+cmd_offset, 28);cmd_incremen
      +                          tn(2);wr16(1081344UL+cmd_offset, 1536UL);cmd_incrementn(2);cmd_incrementn(wr8s(1081344UL
      +                          +c
  5667  001928  0E0C               	movlw	12
  5668  00192A  6E1E               	movwf	cmd@command,c
  5669  00192C  0EFF               	movlw	255
  5670  00192E  6E1F               	movwf	cmd@command+1,c
  5671  001930  0EFF               	movlw	255
  5672  001932  6E20               	movwf	cmd@command+2,c
  5673  001934  0EFF               	movlw	255
  5674  001936  6E21               	movwf	cmd@command+3,c
  5675  001938  EC54  F02F         	call	_cmd	;wreg free
  5676  00193C  C037  F030         	movff	_cmd_offset,??_display_laptime
  5677  001940  C038  F031         	movff	_cmd_offset+1,??_display_laptime+1
  5678  001944  6A32               	clrf	(??_display_laptime+2)& (0+255),c
  5679  001946  0E00               	movlw	0
  5680  001948  2430               	addwf	??_display_laptime,w,c
  5681  00194A  6E10               	movwf	wr16@addr,c
  5682  00194C  0E80               	movlw	128
  5683  00194E  2031               	addwfc	??_display_laptime+1,w,c
  5684  001950  6E11               	movwf	wr16@addr+1,c
  5685  001952  0E10               	movlw	16
  5686  001954  2032               	addwfc	??_display_laptime+2,w,c
  5687  001956  6E12               	movwf	wr16@addr+2,c
  5688  001958  0E00               	movlw	0
  5689  00195A  6E14               	movwf	wr16@value+1,c
  5690  00195C  0E4F               	movlw	79
  5691  00195E  6E13               	movwf	wr16@value,c
  5692  001960  EC36  F02F         	call	_wr16	;wreg free
  5693  001964  0E02               	movlw	2
  5694  001966  EC9B  F02F         	call	_cmd_incrementn
  5695  00196A  C037  F030         	movff	_cmd_offset,??_display_laptime
  5696  00196E  C038  F031         	movff	_cmd_offset+1,??_display_laptime+1
  5697  001972  6A32               	clrf	(??_display_laptime+2)& (0+255),c
  5698  001974  0E00               	movlw	0
  5699  001976  2430               	addwf	??_display_laptime,w,c
  5700  001978  6E10               	movwf	wr16@addr,c
  5701  00197A  0E80               	movlw	128
  5702  00197C  2031               	addwfc	??_display_laptime+1,w,c
  5703  00197E  6E11               	movwf	wr16@addr+1,c
  5704  001980  0E10               	movlw	16
  5705  001982  2032               	addwfc	??_display_laptime+2,w,c
  5706  001984  6E12               	movwf	wr16@addr+2,c
  5707  001986  0E00               	movlw	0
  5708  001988  6E14               	movwf	wr16@value+1,c
  5709  00198A  0EEE               	movlw	238
  5710  00198C  6E13               	movwf	wr16@value,c
  5711  00198E  EC36  F02F         	call	_wr16	;wreg free
  5712  001992  0E02               	movlw	2
  5713  001994  EC9B  F02F         	call	_cmd_incrementn
  5714  001998  C037  F030         	movff	_cmd_offset,??_display_laptime
  5715  00199C  C038  F031         	movff	_cmd_offset+1,??_display_laptime+1
  5716  0019A0  6A32               	clrf	(??_display_laptime+2)& (0+255),c
  5717  0019A2  0E00               	movlw	0
  5718  0019A4  2430               	addwf	??_display_laptime,w,c
  5719  0019A6  6E10               	movwf	wr16@addr,c
  5720  0019A8  0E80               	movlw	128
  5721  0019AA  2031               	addwfc	??_display_laptime+1,w,c
  5722  0019AC  6E11               	movwf	wr16@addr+1,c
  5723  0019AE  0E10               	movlw	16
  5724  0019B0  2032               	addwfc	??_display_laptime+2,w,c
  5725  0019B2  6E12               	movwf	wr16@addr+2,c
  5726  0019B4  0E00               	movlw	0
  5727  0019B6  6E14               	movwf	wr16@value+1,c
  5728  0019B8  0E1C               	movlw	28
  5729  0019BA  6E13               	movwf	wr16@value,c
  5730  0019BC  EC36  F02F         	call	_wr16	;wreg free
  5731  0019C0  0E02               	movlw	2
  5732  0019C2  EC9B  F02F         	call	_cmd_incrementn
  5733  0019C6  C037  F030         	movff	_cmd_offset,??_display_laptime
  5734  0019CA  C038  F031         	movff	_cmd_offset+1,??_display_laptime+1
  5735  0019CE  6A32               	clrf	(??_display_laptime+2)& (0+255),c
  5736  0019D0  0E00               	movlw	0
  5737  0019D2  2430               	addwf	??_display_laptime,w,c
  5738  0019D4  6E10               	movwf	wr16@addr,c
  5739  0019D6  0E80               	movlw	128
  5740  0019D8  2031               	addwfc	??_display_laptime+1,w,c
  5741  0019DA  6E11               	movwf	wr16@addr+1,c
  5742  0019DC  0E10               	movlw	16
  5743  0019DE  2032               	addwfc	??_display_laptime+2,w,c
  5744  0019E0  6E12               	movwf	wr16@addr+2,c
  5745  0019E2  0E06               	movlw	6
  5746  0019E4  6E14               	movwf	wr16@value+1,c
  5747  0019E6  0E00               	movlw	0
  5748  0019E8  6E13               	movwf	wr16@value,c
  5749  0019EA  EC36  F02F         	call	_wr16	;wreg free
  5750  0019EE  0E02               	movlw	2
  5751  0019F0  EC9B  F02F         	call	_cmd_incrementn
  5752  0019F4  C037  F030         	movff	_cmd_offset,??_display_laptime
  5753  0019F8  C038  F031         	movff	_cmd_offset+1,??_display_laptime+1
  5754  0019FC  6A32               	clrf	(??_display_laptime+2)& (0+255),c
  5755  0019FE  0E00               	movlw	0
  5756  001A00  2430               	addwf	??_display_laptime,w,c
  5757  001A02  6E15               	movwf	wr8s@addr,c
  5758  001A04  0E80               	movlw	128
  5759  001A06  2031               	addwfc	??_display_laptime+1,w,c
  5760  001A08  6E16               	movwf	wr8s@addr+1,c
  5761  001A0A  0E10               	movlw	16
  5762  001A0C  2032               	addwfc	??_display_laptime+2,w,c
  5763  001A0E  6E17               	movwf	wr8s@addr+2,c
  5764  001A10  0E7A               	movlw	low STR_20
  5765  001A12  6E18               	movwf	wr8s@s,c
  5766  001A14  0E0F               	movlw	high STR_20
  5767  001A16  6E19               	movwf	wr8s@s+1,c
  5768  001A18  EC8D  F02D         	call	_wr8s	;wreg free
  5769  001A1C  EC9B  F02F         	call	_cmd_incrementn
  5770                           
  5771                           ;display.c: 90: cmd(4294967086UL);wr16(1081344UL+cmd_offset, 82);cmd_incrementn(2);wr16(
      +                          1081344UL+cmd_offset, 221);cmd_incrementn(2);wr16(1081344UL+cmd_offset, 30);cmd_incremen
      +                          tn(2);wr16(1081344UL+cmd_offset, 2UL);cmd_incrementn(2);cmd(89);
  5772  001A20  0E2E               	movlw	46
  5773  001A22  6E1E               	movwf	cmd@command,c
  5774  001A24  0EFF               	movlw	255
  5775  001A26  6E1F               	movwf	cmd@command+1,c
  5776  001A28  0EFF               	movlw	255
  5777  001A2A  6E20               	movwf	cmd@command+2,c
  5778  001A2C  0EFF               	movlw	255
  5779  001A2E  6E21               	movwf	cmd@command+3,c
  5780  001A30  EC54  F02F         	call	_cmd	;wreg free
  5781  001A34  C037  F030         	movff	_cmd_offset,??_display_laptime
  5782  001A38  C038  F031         	movff	_cmd_offset+1,??_display_laptime+1
  5783  001A3C  6A32               	clrf	(??_display_laptime+2)& (0+255),c
  5784  001A3E  0E00               	movlw	0
  5785  001A40  2430               	addwf	??_display_laptime,w,c
  5786  001A42  6E10               	movwf	wr16@addr,c
  5787  001A44  0E80               	movlw	128
  5788  001A46  2031               	addwfc	??_display_laptime+1,w,c
  5789  001A48  6E11               	movwf	wr16@addr+1,c
  5790  001A4A  0E10               	movlw	16
  5791  001A4C  2032               	addwfc	??_display_laptime+2,w,c
  5792  001A4E  6E12               	movwf	wr16@addr+2,c
  5793  001A50  0E00               	movlw	0
  5794  001A52  6E14               	movwf	wr16@value+1,c
  5795  001A54  0E52               	movlw	82
  5796  001A56  6E13               	movwf	wr16@value,c
  5797  001A58  EC36  F02F         	call	_wr16	;wreg free
  5798  001A5C  0E02               	movlw	2
  5799  001A5E  EC9B  F02F         	call	_cmd_incrementn
  5800  001A62  C037  F030         	movff	_cmd_offset,??_display_laptime
  5801  001A66  C038  F031         	movff	_cmd_offset+1,??_display_laptime+1
  5802  001A6A  6A32               	clrf	(??_display_laptime+2)& (0+255),c
  5803  001A6C  0E00               	movlw	0
  5804  001A6E  2430               	addwf	??_display_laptime,w,c
  5805  001A70  6E10               	movwf	wr16@addr,c
  5806  001A72  0E80               	movlw	128
  5807  001A74  2031               	addwfc	??_display_laptime+1,w,c
  5808  001A76  6E11               	movwf	wr16@addr+1,c
  5809  001A78  0E10               	movlw	16
  5810  001A7A  2032               	addwfc	??_display_laptime+2,w,c
  5811  001A7C  6E12               	movwf	wr16@addr+2,c
  5812  001A7E  0E00               	movlw	0
  5813  001A80  6E14               	movwf	wr16@value+1,c
  5814  001A82  0EDD               	movlw	221
  5815  001A84  6E13               	movwf	wr16@value,c
  5816  001A86  EC36  F02F         	call	_wr16	;wreg free
  5817  001A8A  0E02               	movlw	2
  5818  001A8C  EC9B  F02F         	call	_cmd_incrementn
  5819  001A90  C037  F030         	movff	_cmd_offset,??_display_laptime
  5820  001A94  C038  F031         	movff	_cmd_offset+1,??_display_laptime+1
  5821  001A98  6A32               	clrf	(??_display_laptime+2)& (0+255),c
  5822  001A9A  0E00               	movlw	0
  5823  001A9C  2430               	addwf	??_display_laptime,w,c
  5824  001A9E  6E10               	movwf	wr16@addr,c
  5825  001AA0  0E80               	movlw	128
  5826  001AA2  2031               	addwfc	??_display_laptime+1,w,c
  5827  001AA4  6E11               	movwf	wr16@addr+1,c
  5828  001AA6  0E10               	movlw	16
  5829  001AA8  2032               	addwfc	??_display_laptime+2,w,c
  5830  001AAA  6E12               	movwf	wr16@addr+2,c
  5831  001AAC  0E00               	movlw	0
  5832  001AAE  6E14               	movwf	wr16@value+1,c
  5833  001AB0  0E1E               	movlw	30
  5834  001AB2  6E13               	movwf	wr16@value,c
  5835  001AB4  EC36  F02F         	call	_wr16	;wreg free
  5836  001AB8  0E02               	movlw	2
  5837  001ABA  EC9B  F02F         	call	_cmd_incrementn
  5838  001ABE  C037  F030         	movff	_cmd_offset,??_display_laptime
  5839  001AC2  C038  F031         	movff	_cmd_offset+1,??_display_laptime+1
  5840  001AC6  6A32               	clrf	(??_display_laptime+2)& (0+255),c
  5841  001AC8  0E00               	movlw	0
  5842  001ACA  2430               	addwf	??_display_laptime,w,c
  5843  001ACC  6E10               	movwf	wr16@addr,c
  5844  001ACE  0E80               	movlw	128
  5845  001AD0  2031               	addwfc	??_display_laptime+1,w,c
  5846  001AD2  6E11               	movwf	wr16@addr+1,c
  5847  001AD4  0E10               	movlw	16
  5848  001AD6  2032               	addwfc	??_display_laptime+2,w,c
  5849  001AD8  6E12               	movwf	wr16@addr+2,c
  5850  001ADA  0E00               	movlw	0
  5851  001ADC  6E14               	movwf	wr16@value+1,c
  5852  001ADE  0E02               	movlw	2
  5853  001AE0  6E13               	movwf	wr16@value,c
  5854  001AE2  EC36  F02F         	call	_wr16	;wreg free
  5855  001AE6  0E02               	movlw	2
  5856  001AE8  EC9B  F02F         	call	_cmd_incrementn
  5857  001AEC  0E59               	movlw	89
  5858  001AEE  6E1E               	movwf	cmd@command,c
  5859  001AF0  0E00               	movlw	0
  5860  001AF2  6E1F               	movwf	cmd@command+1,c
  5861  001AF4  0E00               	movlw	0
  5862  001AF6  6E20               	movwf	cmd@command+2,c
  5863  001AF8  0E00               	movlw	0
  5864  001AFA  6E21               	movwf	cmd@command+3,c
  5865  001AFC  EC54  F02F         	call	_cmd	;wreg free
  5866                           
  5867                           ;display.c: 93: cmd(4294967086UL);wr16(1081344UL+cmd_offset, 397);cmd_incrementn(2);wr16
      +                          (1081344UL+cmd_offset, 222);cmd_incrementn(2);wr16(1081344UL+cmd_offset, 30);cmd_increme
      +                          ntn(2);wr16(1081344UL+cmd_offset, 2048UL);cmd_incrementn(2);cmd(19);
  5868  001B00  0E2E               	movlw	46
  5869  001B02  6E1E               	movwf	cmd@command,c
  5870  001B04  0EFF               	movlw	255
  5871  001B06  6E1F               	movwf	cmd@command+1,c
  5872  001B08  0EFF               	movlw	255
  5873  001B0A  6E20               	movwf	cmd@command+2,c
  5874  001B0C  0EFF               	movlw	255
  5875  001B0E  6E21               	movwf	cmd@command+3,c
  5876  001B10  EC54  F02F         	call	_cmd	;wreg free
  5877  001B14  C037  F030         	movff	_cmd_offset,??_display_laptime
  5878  001B18  C038  F031         	movff	_cmd_offset+1,??_display_laptime+1
  5879  001B1C  6A32               	clrf	(??_display_laptime+2)& (0+255),c
  5880  001B1E  0E00               	movlw	0
  5881  001B20  2430               	addwf	??_display_laptime,w,c
  5882  001B22  6E10               	movwf	wr16@addr,c
  5883  001B24  0E80               	movlw	128
  5884  001B26  2031               	addwfc	??_display_laptime+1,w,c
  5885  001B28  6E11               	movwf	wr16@addr+1,c
  5886  001B2A  0E10               	movlw	16
  5887  001B2C  2032               	addwfc	??_display_laptime+2,w,c
  5888  001B2E  6E12               	movwf	wr16@addr+2,c
  5889  001B30  0E01               	movlw	1
  5890  001B32  6E14               	movwf	wr16@value+1,c
  5891  001B34  0E8D               	movlw	141
  5892  001B36  6E13               	movwf	wr16@value,c
  5893  001B38  EC36  F02F         	call	_wr16	;wreg free
  5894  001B3C  0E02               	movlw	2
  5895  001B3E  EC9B  F02F         	call	_cmd_incrementn
  5896  001B42  C037  F030         	movff	_cmd_offset,??_display_laptime
  5897  001B46  C038  F031         	movff	_cmd_offset+1,??_display_laptime+1
  5898  001B4A  6A32               	clrf	(??_display_laptime+2)& (0+255),c
  5899  001B4C  0E00               	movlw	0
  5900  001B4E  2430               	addwf	??_display_laptime,w,c
  5901  001B50  6E10               	movwf	wr16@addr,c
  5902  001B52  0E80               	movlw	128
  5903  001B54  2031               	addwfc	??_display_laptime+1,w,c
  5904  001B56  6E11               	movwf	wr16@addr+1,c
  5905  001B58  0E10               	movlw	16
  5906  001B5A  2032               	addwfc	??_display_laptime+2,w,c
  5907  001B5C  6E12               	movwf	wr16@addr+2,c
  5908  001B5E  0E00               	movlw	0
  5909  001B60  6E14               	movwf	wr16@value+1,c
  5910  001B62  0EDE               	movlw	222
  5911  001B64  6E13               	movwf	wr16@value,c
  5912  001B66  EC36  F02F         	call	_wr16	;wreg free
  5913  001B6A  0E02               	movlw	2
  5914  001B6C  EC9B  F02F         	call	_cmd_incrementn
  5915  001B70  C037  F030         	movff	_cmd_offset,??_display_laptime
  5916  001B74  C038  F031         	movff	_cmd_offset+1,??_display_laptime+1
  5917  001B78  6A32               	clrf	(??_display_laptime+2)& (0+255),c
  5918  001B7A  0E00               	movlw	0
  5919  001B7C  2430               	addwf	??_display_laptime,w,c
  5920  001B7E  6E10               	movwf	wr16@addr,c
  5921  001B80  0E80               	movlw	128
  5922  001B82  2031               	addwfc	??_display_laptime+1,w,c
  5923  001B84  6E11               	movwf	wr16@addr+1,c
  5924  001B86  0E10               	movlw	16
  5925  001B88  2032               	addwfc	??_display_laptime+2,w,c
  5926  001B8A  6E12               	movwf	wr16@addr+2,c
  5927  001B8C  0E00               	movlw	0
  5928  001B8E  6E14               	movwf	wr16@value+1,c
  5929  001B90  0E1E               	movlw	30
  5930  001B92  6E13               	movwf	wr16@value,c
  5931  001B94  EC36  F02F         	call	_wr16	;wreg free
  5932  001B98  0E02               	movlw	2
  5933  001B9A  EC9B  F02F         	call	_cmd_incrementn
  5934  001B9E  C037  F030         	movff	_cmd_offset,??_display_laptime
  5935  001BA2  C038  F031         	movff	_cmd_offset+1,??_display_laptime+1
  5936  001BA6  6A32               	clrf	(??_display_laptime+2)& (0+255),c
  5937  001BA8  0E00               	movlw	0
  5938  001BAA  2430               	addwf	??_display_laptime,w,c
  5939  001BAC  6E10               	movwf	wr16@addr,c
  5940  001BAE  0E80               	movlw	128
  5941  001BB0  2031               	addwfc	??_display_laptime+1,w,c
  5942  001BB2  6E11               	movwf	wr16@addr+1,c
  5943  001BB4  0E10               	movlw	16
  5944  001BB6  2032               	addwfc	??_display_laptime+2,w,c
  5945  001BB8  6E12               	movwf	wr16@addr+2,c
  5946  001BBA  0E08               	movlw	8
  5947  001BBC  6E14               	movwf	wr16@value+1,c
  5948  001BBE  0E00               	movlw	0
  5949  001BC0  6E13               	movwf	wr16@value,c
  5950  001BC2  EC36  F02F         	call	_wr16	;wreg free
  5951  001BC6  0E02               	movlw	2
  5952  001BC8  EC9B  F02F         	call	_cmd_incrementn
  5953  001BCC  0E13               	movlw	19
  5954  001BCE  6E1E               	movwf	cmd@command,c
  5955  001BD0  0E00               	movlw	0
  5956  001BD2  6E1F               	movwf	cmd@command+1,c
  5957  001BD4  0E00               	movlw	0
  5958  001BD6  6E20               	movwf	cmd@command+2,c
  5959  001BD8  0E00               	movlw	0
  5960  001BDA  6E21               	movwf	cmd@command+3,c
  5961  001BDC  EC54  F02F         	call	_cmd	;wreg free
  5962                           
  5963                           ;display.c: 94: cmd(4294967052UL);wr16(1081344UL+cmd_offset, 400);cmd_incrementn(2);wr16
      +                          (1081344UL+cmd_offset, 239);cmd_incrementn(2);wr16(1081344UL+cmd_offset, 28);cmd_increme
      +                          ntn(2);wr16(1081344UL+cmd_offset, 1536UL);cmd_incrementn(2);cmd_incrementn(wr8s(1081344U
      +                          L+
  5964  001BE0  0E0C               	movlw	12
  5965  001BE2  6E1E               	movwf	cmd@command,c
  5966  001BE4  0EFF               	movlw	255
  5967  001BE6  6E1F               	movwf	cmd@command+1,c
  5968  001BE8  0EFF               	movlw	255
  5969  001BEA  6E20               	movwf	cmd@command+2,c
  5970  001BEC  0EFF               	movlw	255
  5971  001BEE  6E21               	movwf	cmd@command+3,c
  5972  001BF0  EC54  F02F         	call	_cmd	;wreg free
  5973  001BF4  C037  F030         	movff	_cmd_offset,??_display_laptime
  5974  001BF8  C038  F031         	movff	_cmd_offset+1,??_display_laptime+1
  5975  001BFC  6A32               	clrf	(??_display_laptime+2)& (0+255),c
  5976  001BFE  0E00               	movlw	0
  5977  001C00  2430               	addwf	??_display_laptime,w,c
  5978  001C02  6E10               	movwf	wr16@addr,c
  5979  001C04  0E80               	movlw	128
  5980  001C06  2031               	addwfc	??_display_laptime+1,w,c
  5981  001C08  6E11               	movwf	wr16@addr+1,c
  5982  001C0A  0E10               	movlw	16
  5983  001C0C  2032               	addwfc	??_display_laptime+2,w,c
  5984  001C0E  6E12               	movwf	wr16@addr+2,c
  5985  001C10  0E01               	movlw	1
  5986  001C12  6E14               	movwf	wr16@value+1,c
  5987  001C14  0E90               	movlw	144
  5988  001C16  6E13               	movwf	wr16@value,c
  5989  001C18  EC36  F02F         	call	_wr16	;wreg free
  5990  001C1C  0E02               	movlw	2
  5991  001C1E  EC9B  F02F         	call	_cmd_incrementn
  5992  001C22  C037  F030         	movff	_cmd_offset,??_display_laptime
  5993  001C26  C038  F031         	movff	_cmd_offset+1,??_display_laptime+1
  5994  001C2A  6A32               	clrf	(??_display_laptime+2)& (0+255),c
  5995  001C2C  0E00               	movlw	0
  5996  001C2E  2430               	addwf	??_display_laptime,w,c
  5997  001C30  6E10               	movwf	wr16@addr,c
  5998  001C32  0E80               	movlw	128
  5999  001C34  2031               	addwfc	??_display_laptime+1,w,c
  6000  001C36  6E11               	movwf	wr16@addr+1,c
  6001  001C38  0E10               	movlw	16
  6002  001C3A  2032               	addwfc	??_display_laptime+2,w,c
  6003  001C3C  6E12               	movwf	wr16@addr+2,c
  6004  001C3E  0E00               	movlw	0
  6005  001C40  6E14               	movwf	wr16@value+1,c
  6006  001C42  0EEF               	movlw	239
  6007  001C44  6E13               	movwf	wr16@value,c
  6008  001C46  EC36  F02F         	call	_wr16	;wreg free
  6009  001C4A  0E02               	movlw	2
  6010  001C4C  EC9B  F02F         	call	_cmd_incrementn
  6011  001C50  C037  F030         	movff	_cmd_offset,??_display_laptime
  6012  001C54  C038  F031         	movff	_cmd_offset+1,??_display_laptime+1
  6013  001C58  6A32               	clrf	(??_display_laptime+2)& (0+255),c
  6014  001C5A  0E00               	movlw	0
  6015  001C5C  2430               	addwf	??_display_laptime,w,c
  6016  001C5E  6E10               	movwf	wr16@addr,c
  6017  001C60  0E80               	movlw	128
  6018  001C62  2031               	addwfc	??_display_laptime+1,w,c
  6019  001C64  6E11               	movwf	wr16@addr+1,c
  6020  001C66  0E10               	movlw	16
  6021  001C68  2032               	addwfc	??_display_laptime+2,w,c
  6022  001C6A  6E12               	movwf	wr16@addr+2,c
  6023  001C6C  0E00               	movlw	0
  6024  001C6E  6E14               	movwf	wr16@value+1,c
  6025  001C70  0E1C               	movlw	28
  6026  001C72  6E13               	movwf	wr16@value,c
  6027  001C74  EC36  F02F         	call	_wr16	;wreg free
  6028  001C78  0E02               	movlw	2
  6029  001C7A  EC9B  F02F         	call	_cmd_incrementn
  6030  001C7E  C037  F030         	movff	_cmd_offset,??_display_laptime
  6031  001C82  C038  F031         	movff	_cmd_offset+1,??_display_laptime+1
  6032  001C86  6A32               	clrf	(??_display_laptime+2)& (0+255),c
  6033  001C88  0E00               	movlw	0
  6034  001C8A  2430               	addwf	??_display_laptime,w,c
  6035  001C8C  6E10               	movwf	wr16@addr,c
  6036  001C8E  0E80               	movlw	128
  6037  001C90  2031               	addwfc	??_display_laptime+1,w,c
  6038  001C92  6E11               	movwf	wr16@addr+1,c
  6039  001C94  0E10               	movlw	16
  6040  001C96  2032               	addwfc	??_display_laptime+2,w,c
  6041  001C98  6E12               	movwf	wr16@addr+2,c
  6042  001C9A  0E06               	movlw	6
  6043  001C9C  6E14               	movwf	wr16@value+1,c
  6044  001C9E  0E00               	movlw	0
  6045  001CA0  6E13               	movwf	wr16@value,c
  6046  001CA2  EC36  F02F         	call	_wr16	;wreg free
  6047  001CA6  0E02               	movlw	2
  6048  001CA8  EC9B  F02F         	call	_cmd_incrementn
  6049  001CAC  C037  F030         	movff	_cmd_offset,??_display_laptime
  6050  001CB0  C038  F031         	movff	_cmd_offset+1,??_display_laptime+1
  6051  001CB4  6A32               	clrf	(??_display_laptime+2)& (0+255),c
  6052  001CB6  0E00               	movlw	0
  6053  001CB8  2430               	addwf	??_display_laptime,w,c
  6054  001CBA  6E15               	movwf	wr8s@addr,c
  6055  001CBC  0E80               	movlw	128
  6056  001CBE  2031               	addwfc	??_display_laptime+1,w,c
  6057  001CC0  6E16               	movwf	wr8s@addr+1,c
  6058  001CC2  0E10               	movlw	16
  6059  001CC4  2032               	addwfc	??_display_laptime+2,w,c
  6060  001CC6  6E17               	movwf	wr8s@addr+2,c
  6061  001CC8  0E7A               	movlw	low STR_20
  6062  001CCA  6E18               	movwf	wr8s@s,c
  6063  001CCC  0E0F               	movlw	high STR_20
  6064  001CCE  6E19               	movwf	wr8s@s+1,c
  6065  001CD0  EC8D  F02D         	call	_wr8s	;wreg free
  6066  001CD4  EC9B  F02F         	call	_cmd_incrementn
  6067                           
  6068                           ;display.c: 95: cmd(4294967086UL);wr16(1081344UL+cmd_offset, 403);cmd_incrementn(2);wr16
      +                          (1081344UL+cmd_offset, 222);cmd_incrementn(2);wr16(1081344UL+cmd_offset, 30);cmd_increme
      +                          ntn(2);wr16(1081344UL+cmd_offset, 2UL);cmd_incrementn(2);cmd(25);
  6069  001CD8  0E2E               	movlw	46
  6070  001CDA  6E1E               	movwf	cmd@command,c
  6071  001CDC  0EFF               	movlw	255
  6072  001CDE  6E1F               	movwf	cmd@command+1,c
  6073  001CE0  0EFF               	movlw	255
  6074  001CE2  6E20               	movwf	cmd@command+2,c
  6075  001CE4  0EFF               	movlw	255
  6076  001CE6  6E21               	movwf	cmd@command+3,c
  6077  001CE8  EC54  F02F         	call	_cmd	;wreg free
  6078  001CEC  C037  F030         	movff	_cmd_offset,??_display_laptime
  6079  001CF0  C038  F031         	movff	_cmd_offset+1,??_display_laptime+1
  6080  001CF4  6A32               	clrf	(??_display_laptime+2)& (0+255),c
  6081  001CF6  0E00               	movlw	0
  6082  001CF8  2430               	addwf	??_display_laptime,w,c
  6083  001CFA  6E10               	movwf	wr16@addr,c
  6084  001CFC  0E80               	movlw	128
  6085  001CFE  2031               	addwfc	??_display_laptime+1,w,c
  6086  001D00  6E11               	movwf	wr16@addr+1,c
  6087  001D02  0E10               	movlw	16
  6088  001D04  2032               	addwfc	??_display_laptime+2,w,c
  6089  001D06  6E12               	movwf	wr16@addr+2,c
  6090  001D08  0E01               	movlw	1
  6091  001D0A  6E14               	movwf	wr16@value+1,c
  6092  001D0C  0E93               	movlw	147
  6093  001D0E  6E13               	movwf	wr16@value,c
  6094  001D10  EC36  F02F         	call	_wr16	;wreg free
  6095  001D14  0E02               	movlw	2
  6096  001D16  EC9B  F02F         	call	_cmd_incrementn
  6097  001D1A  C037  F030         	movff	_cmd_offset,??_display_laptime
  6098  001D1E  C038  F031         	movff	_cmd_offset+1,??_display_laptime+1
  6099  001D22  6A32               	clrf	(??_display_laptime+2)& (0+255),c
  6100  001D24  0E00               	movlw	0
  6101  001D26  2430               	addwf	??_display_laptime,w,c
  6102  001D28  6E10               	movwf	wr16@addr,c
  6103  001D2A  0E80               	movlw	128
  6104  001D2C  2031               	addwfc	??_display_laptime+1,w,c
  6105  001D2E  6E11               	movwf	wr16@addr+1,c
  6106  001D30  0E10               	movlw	16
  6107  001D32  2032               	addwfc	??_display_laptime+2,w,c
  6108  001D34  6E12               	movwf	wr16@addr+2,c
  6109  001D36  0E00               	movlw	0
  6110  001D38  6E14               	movwf	wr16@value+1,c
  6111  001D3A  0EDE               	movlw	222
  6112  001D3C  6E13               	movwf	wr16@value,c
  6113  001D3E  EC36  F02F         	call	_wr16	;wreg free
  6114  001D42  0E02               	movlw	2
  6115  001D44  EC9B  F02F         	call	_cmd_incrementn
  6116  001D48  C037  F030         	movff	_cmd_offset,??_display_laptime
  6117  001D4C  C038  F031         	movff	_cmd_offset+1,??_display_laptime+1
  6118  001D50  6A32               	clrf	(??_display_laptime+2)& (0+255),c
  6119  001D52  0E00               	movlw	0
  6120  001D54  2430               	addwf	??_display_laptime,w,c
  6121  001D56  6E10               	movwf	wr16@addr,c
  6122  001D58  0E80               	movlw	128
  6123  001D5A  2031               	addwfc	??_display_laptime+1,w,c
  6124  001D5C  6E11               	movwf	wr16@addr+1,c
  6125  001D5E  0E10               	movlw	16
  6126  001D60  2032               	addwfc	??_display_laptime+2,w,c
  6127  001D62  6E12               	movwf	wr16@addr+2,c
  6128  001D64  0E00               	movlw	0
  6129  001D66  6E14               	movwf	wr16@value+1,c
  6130  001D68  0E1E               	movlw	30
  6131  001D6A  6E13               	movwf	wr16@value,c
  6132  001D6C  EC36  F02F         	call	_wr16	;wreg free
  6133  001D70  0E02               	movlw	2
  6134  001D72  EC9B  F02F         	call	_cmd_incrementn
  6135  001D76  C037  F030         	movff	_cmd_offset,??_display_laptime
  6136  001D7A  C038  F031         	movff	_cmd_offset+1,??_display_laptime+1
  6137  001D7E  6A32               	clrf	(??_display_laptime+2)& (0+255),c
  6138  001D80  0E00               	movlw	0
  6139  001D82  2430               	addwf	??_display_laptime,w,c
  6140  001D84  6E10               	movwf	wr16@addr,c
  6141  001D86  0E80               	movlw	128
  6142  001D88  2031               	addwfc	??_display_laptime+1,w,c
  6143  001D8A  6E11               	movwf	wr16@addr+1,c
  6144  001D8C  0E10               	movlw	16
  6145  001D8E  2032               	addwfc	??_display_laptime+2,w,c
  6146  001D90  6E12               	movwf	wr16@addr+2,c
  6147  001D92  0E00               	movlw	0
  6148  001D94  6E14               	movwf	wr16@value+1,c
  6149  001D96  0E02               	movlw	2
  6150  001D98  6E13               	movwf	wr16@value,c
  6151  001D9A  EC36  F02F         	call	_wr16	;wreg free
  6152  001D9E  0E02               	movlw	2
  6153  001DA0  EC9B  F02F         	call	_cmd_incrementn
  6154  001DA4  0E19               	movlw	25
  6155  001DA6  6E1E               	movwf	cmd@command,c
  6156  001DA8  0E00               	movlw	0
  6157  001DAA  6E1F               	movwf	cmd@command+1,c
  6158  001DAC  0E00               	movlw	0
  6159  001DAE  6E20               	movwf	cmd@command+2,c
  6160  001DB0  0E00               	movlw	0
  6161  001DB2  6E21               	movwf	cmd@command+3,c
  6162  001DB4  EC54  F02F         	call	_cmd	;wreg free
  6163                           
  6164                           ;display.c: 96: cmd(4294967052UL);wr16(1081344UL+cmd_offset, 439);cmd_incrementn(2);wr16
      +                          (1081344UL+cmd_offset, 239);cmd_incrementn(2);wr16(1081344UL+cmd_offset, 28);cmd_increme
      +                          ntn(2);wr16(1081344UL+cmd_offset, 1536UL);cmd_incrementn(2);cmd_incrementn(wr8s(1081344U
      +                          L+
  6165  001DB8  0E0C               	movlw	12
  6166  001DBA  6E1E               	movwf	cmd@command,c
  6167  001DBC  0EFF               	movlw	255
  6168  001DBE  6E1F               	movwf	cmd@command+1,c
  6169  001DC0  0EFF               	movlw	255
  6170  001DC2  6E20               	movwf	cmd@command+2,c
  6171  001DC4  0EFF               	movlw	255
  6172  001DC6  6E21               	movwf	cmd@command+3,c
  6173  001DC8  EC54  F02F         	call	_cmd	;wreg free
  6174  001DCC  C037  F030         	movff	_cmd_offset,??_display_laptime
  6175  001DD0  C038  F031         	movff	_cmd_offset+1,??_display_laptime+1
  6176  001DD4  6A32               	clrf	(??_display_laptime+2)& (0+255),c
  6177  001DD6  0E00               	movlw	0
  6178  001DD8  2430               	addwf	??_display_laptime,w,c
  6179  001DDA  6E10               	movwf	wr16@addr,c
  6180  001DDC  0E80               	movlw	128
  6181  001DDE  2031               	addwfc	??_display_laptime+1,w,c
  6182  001DE0  6E11               	movwf	wr16@addr+1,c
  6183  001DE2  0E10               	movlw	16
  6184  001DE4  2032               	addwfc	??_display_laptime+2,w,c
  6185  001DE6  6E12               	movwf	wr16@addr+2,c
  6186  001DE8  0E01               	movlw	1
  6187  001DEA  6E14               	movwf	wr16@value+1,c
  6188  001DEC  0EB7               	movlw	183
  6189  001DEE  6E13               	movwf	wr16@value,c
  6190  001DF0  EC36  F02F         	call	_wr16	;wreg free
  6191  001DF4  0E02               	movlw	2
  6192  001DF6  EC9B  F02F         	call	_cmd_incrementn
  6193  001DFA  C037  F030         	movff	_cmd_offset,??_display_laptime
  6194  001DFE  C038  F031         	movff	_cmd_offset+1,??_display_laptime+1
  6195  001E02  6A32               	clrf	(??_display_laptime+2)& (0+255),c
  6196  001E04  0E00               	movlw	0
  6197  001E06  2430               	addwf	??_display_laptime,w,c
  6198  001E08  6E10               	movwf	wr16@addr,c
  6199  001E0A  0E80               	movlw	128
  6200  001E0C  2031               	addwfc	??_display_laptime+1,w,c
  6201  001E0E  6E11               	movwf	wr16@addr+1,c
  6202  001E10  0E10               	movlw	16
  6203  001E12  2032               	addwfc	??_display_laptime+2,w,c
  6204  001E14  6E12               	movwf	wr16@addr+2,c
  6205  001E16  0E00               	movlw	0
  6206  001E18  6E14               	movwf	wr16@value+1,c
  6207  001E1A  0EEF               	movlw	239
  6208  001E1C  6E13               	movwf	wr16@value,c
  6209  001E1E  EC36  F02F         	call	_wr16	;wreg free
  6210  001E22  0E02               	movlw	2
  6211  001E24  EC9B  F02F         	call	_cmd_incrementn
  6212  001E28  C037  F030         	movff	_cmd_offset,??_display_laptime
  6213  001E2C  C038  F031         	movff	_cmd_offset+1,??_display_laptime+1
  6214  001E30  6A32               	clrf	(??_display_laptime+2)& (0+255),c
  6215  001E32  0E00               	movlw	0
  6216  001E34  2430               	addwf	??_display_laptime,w,c
  6217  001E36  6E10               	movwf	wr16@addr,c
  6218  001E38  0E80               	movlw	128
  6219  001E3A  2031               	addwfc	??_display_laptime+1,w,c
  6220  001E3C  6E11               	movwf	wr16@addr+1,c
  6221  001E3E  0E10               	movlw	16
  6222  001E40  2032               	addwfc	??_display_laptime+2,w,c
  6223  001E42  6E12               	movwf	wr16@addr+2,c
  6224  001E44  0E00               	movlw	0
  6225  001E46  6E14               	movwf	wr16@value+1,c
  6226  001E48  0E1C               	movlw	28
  6227  001E4A  6E13               	movwf	wr16@value,c
  6228  001E4C  EC36  F02F         	call	_wr16	;wreg free
  6229  001E50  0E02               	movlw	2
  6230  001E52  EC9B  F02F         	call	_cmd_incrementn
  6231  001E56  C037  F030         	movff	_cmd_offset,??_display_laptime
  6232  001E5A  C038  F031         	movff	_cmd_offset+1,??_display_laptime+1
  6233  001E5E  6A32               	clrf	(??_display_laptime+2)& (0+255),c
  6234  001E60  0E00               	movlw	0
  6235  001E62  2430               	addwf	??_display_laptime,w,c
  6236  001E64  6E10               	movwf	wr16@addr,c
  6237  001E66  0E80               	movlw	128
  6238  001E68  2031               	addwfc	??_display_laptime+1,w,c
  6239  001E6A  6E11               	movwf	wr16@addr+1,c
  6240  001E6C  0E10               	movlw	16
  6241  001E6E  2032               	addwfc	??_display_laptime+2,w,c
  6242  001E70  6E12               	movwf	wr16@addr+2,c
  6243  001E72  0E06               	movlw	6
  6244  001E74  6E14               	movwf	wr16@value+1,c
  6245  001E76  0E00               	movlw	0
  6246  001E78  6E13               	movwf	wr16@value,c
  6247  001E7A  EC36  F02F         	call	_wr16	;wreg free
  6248  001E7E  0E02               	movlw	2
  6249  001E80  EC9B  F02F         	call	_cmd_incrementn
  6250  001E84  C037  F030         	movff	_cmd_offset,??_display_laptime
  6251  001E88  C038  F031         	movff	_cmd_offset+1,??_display_laptime+1
  6252  001E8C  6A32               	clrf	(??_display_laptime+2)& (0+255),c
  6253  001E8E  0E00               	movlw	0
  6254  001E90  2430               	addwf	??_display_laptime,w,c
  6255  001E92  6E15               	movwf	wr8s@addr,c
  6256  001E94  0E80               	movlw	128
  6257  001E96  2031               	addwfc	??_display_laptime+1,w,c
  6258  001E98  6E16               	movwf	wr8s@addr+1,c
  6259  001E9A  0E10               	movlw	16
  6260  001E9C  2032               	addwfc	??_display_laptime+2,w,c
  6261  001E9E  6E17               	movwf	wr8s@addr+2,c
  6262  001EA0  0E7A               	movlw	low STR_20
  6263  001EA2  6E18               	movwf	wr8s@s,c
  6264  001EA4  0E0F               	movlw	high STR_20
  6265  001EA6  6E19               	movwf	wr8s@s+1,c
  6266  001EA8  EC8D  F02D         	call	_wr8s	;wreg free
  6267  001EAC  EC9B  F02F         	call	_cmd_incrementn
  6268                           
  6269                           ;display.c: 97: cmd(4294967086UL);wr16(1081344UL+cmd_offset, 475);cmd_incrementn(2);wr16
      +                          (1081344UL+cmd_offset, 222);cmd_incrementn(2);wr16(1081344UL+cmd_offset, 30);cmd_increme
      +                          ntn(2);wr16(1081344UL+cmd_offset, 2048UL);cmd_incrementn(2);cmd(89);
  6270  001EB0  0E2E               	movlw	46
  6271  001EB2  6E1E               	movwf	cmd@command,c
  6272  001EB4  0EFF               	movlw	255
  6273  001EB6  6E1F               	movwf	cmd@command+1,c
  6274  001EB8  0EFF               	movlw	255
  6275  001EBA  6E20               	movwf	cmd@command+2,c
  6276  001EBC  0EFF               	movlw	255
  6277  001EBE  6E21               	movwf	cmd@command+3,c
  6278  001EC0  EC54  F02F         	call	_cmd	;wreg free
  6279  001EC4  C037  F030         	movff	_cmd_offset,??_display_laptime
  6280  001EC8  C038  F031         	movff	_cmd_offset+1,??_display_laptime+1
  6281  001ECC  6A32               	clrf	(??_display_laptime+2)& (0+255),c
  6282  001ECE  0E00               	movlw	0
  6283  001ED0  2430               	addwf	??_display_laptime,w,c
  6284  001ED2  6E10               	movwf	wr16@addr,c
  6285  001ED4  0E80               	movlw	128
  6286  001ED6  2031               	addwfc	??_display_laptime+1,w,c
  6287  001ED8  6E11               	movwf	wr16@addr+1,c
  6288  001EDA  0E10               	movlw	16
  6289  001EDC  2032               	addwfc	??_display_laptime+2,w,c
  6290  001EDE  6E12               	movwf	wr16@addr+2,c
  6291  001EE0  0E01               	movlw	1
  6292  001EE2  6E14               	movwf	wr16@value+1,c
  6293  001EE4  0EDB               	movlw	219
  6294  001EE6  6E13               	movwf	wr16@value,c
  6295  001EE8  EC36  F02F         	call	_wr16	;wreg free
  6296  001EEC  0E02               	movlw	2
  6297  001EEE  EC9B  F02F         	call	_cmd_incrementn
  6298  001EF2  C037  F030         	movff	_cmd_offset,??_display_laptime
  6299  001EF6  C038  F031         	movff	_cmd_offset+1,??_display_laptime+1
  6300  001EFA  6A32               	clrf	(??_display_laptime+2)& (0+255),c
  6301  001EFC  0E00               	movlw	0
  6302  001EFE  2430               	addwf	??_display_laptime,w,c
  6303  001F00  6E10               	movwf	wr16@addr,c
  6304  001F02  0E80               	movlw	128
  6305  001F04  2031               	addwfc	??_display_laptime+1,w,c
  6306  001F06  6E11               	movwf	wr16@addr+1,c
  6307  001F08  0E10               	movlw	16
  6308  001F0A  2032               	addwfc	??_display_laptime+2,w,c
  6309  001F0C  6E12               	movwf	wr16@addr+2,c
  6310  001F0E  0E00               	movlw	0
  6311  001F10  6E14               	movwf	wr16@value+1,c
  6312  001F12  0EDE               	movlw	222
  6313  001F14  6E13               	movwf	wr16@value,c
  6314  001F16  EC36  F02F         	call	_wr16	;wreg free
  6315  001F1A  0E02               	movlw	2
  6316  001F1C  EC9B  F02F         	call	_cmd_incrementn
  6317  001F20  C037  F030         	movff	_cmd_offset,??_display_laptime
  6318  001F24  C038  F031         	movff	_cmd_offset+1,??_display_laptime+1
  6319  001F28  6A32               	clrf	(??_display_laptime+2)& (0+255),c
  6320  001F2A  0E00               	movlw	0
  6321  001F2C  2430               	addwf	??_display_laptime,w,c
  6322  001F2E  6E10               	movwf	wr16@addr,c
  6323  001F30  0E80               	movlw	128
  6324  001F32  2031               	addwfc	??_display_laptime+1,w,c
  6325  001F34  6E11               	movwf	wr16@addr+1,c
  6326  001F36  0E10               	movlw	16
  6327  001F38  2032               	addwfc	??_display_laptime+2,w,c
  6328  001F3A  6E12               	movwf	wr16@addr+2,c
  6329  001F3C  0E00               	movlw	0
  6330  001F3E  6E14               	movwf	wr16@value+1,c
  6331  001F40  0E1E               	movlw	30
  6332  001F42  6E13               	movwf	wr16@value,c
  6333  001F44  EC36  F02F         	call	_wr16	;wreg free
  6334  001F48  0E02               	movlw	2
  6335  001F4A  EC9B  F02F         	call	_cmd_incrementn
  6336  001F4E  C037  F030         	movff	_cmd_offset,??_display_laptime
  6337  001F52  C038  F031         	movff	_cmd_offset+1,??_display_laptime+1
  6338  001F56  6A32               	clrf	(??_display_laptime+2)& (0+255),c
  6339  001F58  0E00               	movlw	0
  6340  001F5A  2430               	addwf	??_display_laptime,w,c
  6341  001F5C  6E10               	movwf	wr16@addr,c
  6342  001F5E  0E80               	movlw	128
  6343  001F60  2031               	addwfc	??_display_laptime+1,w,c
  6344  001F62  6E11               	movwf	wr16@addr+1,c
  6345  001F64  0E10               	movlw	16
  6346  001F66  2032               	addwfc	??_display_laptime+2,w,c
  6347  001F68  6E12               	movwf	wr16@addr+2,c
  6348  001F6A  0E08               	movlw	8
  6349  001F6C  6E14               	movwf	wr16@value+1,c
  6350  001F6E  0E00               	movlw	0
  6351  001F70  6E13               	movwf	wr16@value,c
  6352  001F72  EC36  F02F         	call	_wr16	;wreg free
  6353  001F76  0E02               	movlw	2
  6354  001F78  EC9B  F02F         	call	_cmd_incrementn
  6355  001F7C  0E59               	movlw	89
  6356  001F7E  6E1E               	movwf	cmd@command,c
  6357  001F80  0E00               	movlw	0
  6358  001F82  6E1F               	movwf	cmd@command+1,c
  6359  001F84  0E00               	movlw	0
  6360  001F86  6E20               	movwf	cmd@command+2,c
  6361  001F88  0E00               	movlw	0
  6362  001F8A  6E21               	movwf	cmd@command+3,c
  6363  001F8C  EC54  F02F         	call	_cmd	;wreg free
  6364                           
  6365                           ;display.c: 100: cmd(4294967086UL);wr16(1081344UL+cmd_offset, 217);cmd_incrementn(2);wr1
      +                          6(1081344UL+cmd_offset, 237);cmd_incrementn(2);wr16(1081344UL+cmd_offset, 30);cmd_increm
      +                          entn(2);wr16(1081344UL+cmd_offset, 2048UL);cmd_incrementn(2);cmd(19);
  6366  001F90  0E2E               	movlw	46
  6367  001F92  6E1E               	movwf	cmd@command,c
  6368  001F94  0EFF               	movlw	255
  6369  001F96  6E1F               	movwf	cmd@command+1,c
  6370  001F98  0EFF               	movlw	255
  6371  001F9A  6E20               	movwf	cmd@command+2,c
  6372  001F9C  0EFF               	movlw	255
  6373  001F9E  6E21               	movwf	cmd@command+3,c
  6374  001FA0  EC54  F02F         	call	_cmd	;wreg free
  6375  001FA4  C037  F030         	movff	_cmd_offset,??_display_laptime
  6376  001FA8  C038  F031         	movff	_cmd_offset+1,??_display_laptime+1
  6377  001FAC  6A32               	clrf	(??_display_laptime+2)& (0+255),c
  6378  001FAE  0E00               	movlw	0
  6379  001FB0  2430               	addwf	??_display_laptime,w,c
  6380  001FB2  6E10               	movwf	wr16@addr,c
  6381  001FB4  0E80               	movlw	128
  6382  001FB6  2031               	addwfc	??_display_laptime+1,w,c
  6383  001FB8  6E11               	movwf	wr16@addr+1,c
  6384  001FBA  0E10               	movlw	16
  6385  001FBC  2032               	addwfc	??_display_laptime+2,w,c
  6386  001FBE  6E12               	movwf	wr16@addr+2,c
  6387  001FC0  0E00               	movlw	0
  6388  001FC2  6E14               	movwf	wr16@value+1,c
  6389  001FC4  0ED9               	movlw	217
  6390  001FC6  6E13               	movwf	wr16@value,c
  6391  001FC8  EC36  F02F         	call	_wr16	;wreg free
  6392  001FCC  0E02               	movlw	2
  6393  001FCE  EC9B  F02F         	call	_cmd_incrementn
  6394  001FD2  C037  F030         	movff	_cmd_offset,??_display_laptime
  6395  001FD6  C038  F031         	movff	_cmd_offset+1,??_display_laptime+1
  6396  001FDA  6A32               	clrf	(??_display_laptime+2)& (0+255),c
  6397  001FDC  0E00               	movlw	0
  6398  001FDE  2430               	addwf	??_display_laptime,w,c
  6399  001FE0  6E10               	movwf	wr16@addr,c
  6400  001FE2  0E80               	movlw	128
  6401  001FE4  2031               	addwfc	??_display_laptime+1,w,c
  6402  001FE6  6E11               	movwf	wr16@addr+1,c
  6403  001FE8  0E10               	movlw	16
  6404  001FEA  2032               	addwfc	??_display_laptime+2,w,c
  6405  001FEC  6E12               	movwf	wr16@addr+2,c
  6406  001FEE  0E00               	movlw	0
  6407  001FF0  6E14               	movwf	wr16@value+1,c
  6408  001FF2  0EED               	movlw	237
  6409  001FF4  6E13               	movwf	wr16@value,c
  6410  001FF6  EC36  F02F         	call	_wr16	;wreg free
  6411  001FFA  0E02               	movlw	2
  6412  001FFC  EC9B  F02F         	call	_cmd_incrementn
  6413  002000  C037  F030         	movff	_cmd_offset,??_display_laptime
  6414  002004  C038  F031         	movff	_cmd_offset+1,??_display_laptime+1
  6415  002008  6A32               	clrf	(??_display_laptime+2)& (0+255),c
  6416  00200A  0E00               	movlw	0
  6417  00200C  2430               	addwf	??_display_laptime,w,c
  6418  00200E  6E10               	movwf	wr16@addr,c
  6419  002010  0E80               	movlw	128
  6420  002012  2031               	addwfc	??_display_laptime+1,w,c
  6421  002014  6E11               	movwf	wr16@addr+1,c
  6422  002016  0E10               	movlw	16
  6423  002018  2032               	addwfc	??_display_laptime+2,w,c
  6424  00201A  6E12               	movwf	wr16@addr+2,c
  6425  00201C  0E00               	movlw	0
  6426  00201E  6E14               	movwf	wr16@value+1,c
  6427  002020  0E1E               	movlw	30
  6428  002022  6E13               	movwf	wr16@value,c
  6429  002024  EC36  F02F         	call	_wr16	;wreg free
  6430  002028  0E02               	movlw	2
  6431  00202A  EC9B  F02F         	call	_cmd_incrementn
  6432  00202E  C037  F030         	movff	_cmd_offset,??_display_laptime
  6433  002032  C038  F031         	movff	_cmd_offset+1,??_display_laptime+1
  6434  002036  6A32               	clrf	(??_display_laptime+2)& (0+255),c
  6435  002038  0E00               	movlw	0
  6436  00203A  2430               	addwf	??_display_laptime,w,c
  6437  00203C  6E10               	movwf	wr16@addr,c
  6438  00203E  0E80               	movlw	128
  6439  002040  2031               	addwfc	??_display_laptime+1,w,c
  6440  002042  6E11               	movwf	wr16@addr+1,c
  6441  002044  0E10               	movlw	16
  6442  002046  2032               	addwfc	??_display_laptime+2,w,c
  6443  002048  6E12               	movwf	wr16@addr+2,c
  6444  00204A  0E08               	movlw	8
  6445  00204C  6E14               	movwf	wr16@value+1,c
  6446  00204E  0E00               	movlw	0
  6447  002050  6E13               	movwf	wr16@value,c
  6448  002052  EC36  F02F         	call	_wr16	;wreg free
  6449  002056  0E02               	movlw	2
  6450  002058  EC9B  F02F         	call	_cmd_incrementn
  6451  00205C  0E13               	movlw	19
  6452  00205E  6E1E               	movwf	cmd@command,c
  6453  002060  0E00               	movlw	0
  6454  002062  6E1F               	movwf	cmd@command+1,c
  6455  002064  0E00               	movlw	0
  6456  002066  6E20               	movwf	cmd@command+2,c
  6457  002068  0E00               	movlw	0
  6458  00206A  6E21               	movwf	cmd@command+3,c
  6459  00206C  EC54  F02F         	call	_cmd	;wreg free
  6460                           
  6461                           ;display.c: 101: cmd(4294967052UL);wr16(1081344UL+cmd_offset, 221);cmd_incrementn(2);wr1
      +                          6(1081344UL+cmd_offset, 254);cmd_incrementn(2);wr16(1081344UL+cmd_offset, 28);cmd_increm
      +                          entn(2);wr16(1081344UL+cmd_offset, 1536UL);cmd_incrementn(2);cmd_incrementn(wr8s(1081344
      +                          UL+
  6462  002070  0E0C               	movlw	12
  6463  002072  6E1E               	movwf	cmd@command,c
  6464  002074  0EFF               	movlw	255
  6465  002076  6E1F               	movwf	cmd@command+1,c
  6466  002078  0EFF               	movlw	255
  6467  00207A  6E20               	movwf	cmd@command+2,c
  6468  00207C  0EFF               	movlw	255
  6469  00207E  6E21               	movwf	cmd@command+3,c
  6470  002080  EC54  F02F         	call	_cmd	;wreg free
  6471  002084  C037  F030         	movff	_cmd_offset,??_display_laptime
  6472  002088  C038  F031         	movff	_cmd_offset+1,??_display_laptime+1
  6473  00208C  6A32               	clrf	(??_display_laptime+2)& (0+255),c
  6474  00208E  0E00               	movlw	0
  6475  002090  2430               	addwf	??_display_laptime,w,c
  6476  002092  6E10               	movwf	wr16@addr,c
  6477  002094  0E80               	movlw	128
  6478  002096  2031               	addwfc	??_display_laptime+1,w,c
  6479  002098  6E11               	movwf	wr16@addr+1,c
  6480  00209A  0E10               	movlw	16
  6481  00209C  2032               	addwfc	??_display_laptime+2,w,c
  6482  00209E  6E12               	movwf	wr16@addr+2,c
  6483  0020A0  0E00               	movlw	0
  6484  0020A2  6E14               	movwf	wr16@value+1,c
  6485  0020A4  0EDD               	movlw	221
  6486  0020A6  6E13               	movwf	wr16@value,c
  6487  0020A8  EC36  F02F         	call	_wr16	;wreg free
  6488  0020AC  0E02               	movlw	2
  6489  0020AE  EC9B  F02F         	call	_cmd_incrementn
  6490  0020B2  C037  F030         	movff	_cmd_offset,??_display_laptime
  6491  0020B6  C038  F031         	movff	_cmd_offset+1,??_display_laptime+1
  6492  0020BA  6A32               	clrf	(??_display_laptime+2)& (0+255),c
  6493  0020BC  0E00               	movlw	0
  6494  0020BE  2430               	addwf	??_display_laptime,w,c
  6495  0020C0  6E10               	movwf	wr16@addr,c
  6496  0020C2  0E80               	movlw	128
  6497  0020C4  2031               	addwfc	??_display_laptime+1,w,c
  6498  0020C6  6E11               	movwf	wr16@addr+1,c
  6499  0020C8  0E10               	movlw	16
  6500  0020CA  2032               	addwfc	??_display_laptime+2,w,c
  6501  0020CC  6E12               	movwf	wr16@addr+2,c
  6502  0020CE  0E00               	movlw	0
  6503  0020D0  6E14               	movwf	wr16@value+1,c
  6504  0020D2  0EFE               	movlw	254
  6505  0020D4  6E13               	movwf	wr16@value,c
  6506  0020D6  EC36  F02F         	call	_wr16	;wreg free
  6507  0020DA  0E02               	movlw	2
  6508  0020DC  EC9B  F02F         	call	_cmd_incrementn
  6509  0020E0  C037  F030         	movff	_cmd_offset,??_display_laptime
  6510  0020E4  C038  F031         	movff	_cmd_offset+1,??_display_laptime+1
  6511  0020E8  6A32               	clrf	(??_display_laptime+2)& (0+255),c
  6512  0020EA  0E00               	movlw	0
  6513  0020EC  2430               	addwf	??_display_laptime,w,c
  6514  0020EE  6E10               	movwf	wr16@addr,c
  6515  0020F0  0E80               	movlw	128
  6516  0020F2  2031               	addwfc	??_display_laptime+1,w,c
  6517  0020F4  6E11               	movwf	wr16@addr+1,c
  6518  0020F6  0E10               	movlw	16
  6519  0020F8  2032               	addwfc	??_display_laptime+2,w,c
  6520  0020FA  6E12               	movwf	wr16@addr+2,c
  6521  0020FC  0E00               	movlw	0
  6522  0020FE  6E14               	movwf	wr16@value+1,c
  6523  002100  0E1C               	movlw	28
  6524  002102  6E13               	movwf	wr16@value,c
  6525  002104  EC36  F02F         	call	_wr16	;wreg free
  6526  002108  0E02               	movlw	2
  6527  00210A  EC9B  F02F         	call	_cmd_incrementn
  6528  00210E  C037  F030         	movff	_cmd_offset,??_display_laptime
  6529  002112  C038  F031         	movff	_cmd_offset+1,??_display_laptime+1
  6530  002116  6A32               	clrf	(??_display_laptime+2)& (0+255),c
  6531  002118  0E00               	movlw	0
  6532  00211A  2430               	addwf	??_display_laptime,w,c
  6533  00211C  6E10               	movwf	wr16@addr,c
  6534  00211E  0E80               	movlw	128
  6535  002120  2031               	addwfc	??_display_laptime+1,w,c
  6536  002122  6E11               	movwf	wr16@addr+1,c
  6537  002124  0E10               	movlw	16
  6538  002126  2032               	addwfc	??_display_laptime+2,w,c
  6539  002128  6E12               	movwf	wr16@addr+2,c
  6540  00212A  0E06               	movlw	6
  6541  00212C  6E14               	movwf	wr16@value+1,c
  6542  00212E  0E00               	movlw	0
  6543  002130  6E13               	movwf	wr16@value,c
  6544  002132  EC36  F02F         	call	_wr16	;wreg free
  6545  002136  0E02               	movlw	2
  6546  002138  EC9B  F02F         	call	_cmd_incrementn
  6547  00213C  C037  F030         	movff	_cmd_offset,??_display_laptime
  6548  002140  C038  F031         	movff	_cmd_offset+1,??_display_laptime+1
  6549  002144  6A32               	clrf	(??_display_laptime+2)& (0+255),c
  6550  002146  0E00               	movlw	0
  6551  002148  2430               	addwf	??_display_laptime,w,c
  6552  00214A  6E15               	movwf	wr8s@addr,c
  6553  00214C  0E80               	movlw	128
  6554  00214E  2031               	addwfc	??_display_laptime+1,w,c
  6555  002150  6E16               	movwf	wr8s@addr+1,c
  6556  002152  0E10               	movlw	16
  6557  002154  2032               	addwfc	??_display_laptime+2,w,c
  6558  002156  6E17               	movwf	wr8s@addr+2,c
  6559  002158  0E7A               	movlw	low STR_20
  6560  00215A  6E18               	movwf	wr8s@s,c
  6561  00215C  0E0F               	movlw	high STR_20
  6562  00215E  6E19               	movwf	wr8s@s+1,c
  6563  002160  EC8D  F02D         	call	_wr8s	;wreg free
  6564  002164  EC9B  F02F         	call	_cmd_incrementn
  6565                           
  6566                           ;display.c: 102: cmd(4294967086UL);wr16(1081344UL+cmd_offset, 240);cmd_incrementn(2);wr1
      +                          6(1081344UL+cmd_offset, 255);cmd_incrementn(2);wr16(1081344UL+cmd_offset, 30);cmd_increm
      +                          entn(2);wr16(1081344UL+cmd_offset, 1536UL);cmd_incrementn(2);cmd(25);
  6567  002168  0E2E               	movlw	46
  6568  00216A  6E1E               	movwf	cmd@command,c
  6569  00216C  0EFF               	movlw	255
  6570  00216E  6E1F               	movwf	cmd@command+1,c
  6571  002170  0EFF               	movlw	255
  6572  002172  6E20               	movwf	cmd@command+2,c
  6573  002174  0EFF               	movlw	255
  6574  002176  6E21               	movwf	cmd@command+3,c
  6575  002178  EC54  F02F         	call	_cmd	;wreg free
  6576  00217C  C037  F030         	movff	_cmd_offset,??_display_laptime
  6577  002180  C038  F031         	movff	_cmd_offset+1,??_display_laptime+1
  6578  002184  6A32               	clrf	(??_display_laptime+2)& (0+255),c
  6579  002186  0E00               	movlw	0
  6580  002188  2430               	addwf	??_display_laptime,w,c
  6581  00218A  6E10               	movwf	wr16@addr,c
  6582  00218C  0E80               	movlw	128
  6583  00218E  2031               	addwfc	??_display_laptime+1,w,c
  6584  002190  6E11               	movwf	wr16@addr+1,c
  6585  002192  0E10               	movlw	16
  6586  002194  2032               	addwfc	??_display_laptime+2,w,c
  6587  002196  6E12               	movwf	wr16@addr+2,c
  6588  002198  0E00               	movlw	0
  6589  00219A  6E14               	movwf	wr16@value+1,c
  6590  00219C  0EF0               	movlw	240
  6591  00219E  6E13               	movwf	wr16@value,c
  6592  0021A0  EC36  F02F         	call	_wr16	;wreg free
  6593  0021A4  0E02               	movlw	2
  6594  0021A6  EC9B  F02F         	call	_cmd_incrementn
  6595  0021AA  C037  F030         	movff	_cmd_offset,??_display_laptime
  6596  0021AE  C038  F031         	movff	_cmd_offset+1,??_display_laptime+1
  6597  0021B2  6A32               	clrf	(??_display_laptime+2)& (0+255),c
  6598  0021B4  0E00               	movlw	0
  6599  0021B6  2430               	addwf	??_display_laptime,w,c
  6600  0021B8  6E10               	movwf	wr16@addr,c
  6601  0021BA  0E80               	movlw	128
  6602  0021BC  2031               	addwfc	??_display_laptime+1,w,c
  6603  0021BE  6E11               	movwf	wr16@addr+1,c
  6604  0021C0  0E10               	movlw	16
  6605  0021C2  2032               	addwfc	??_display_laptime+2,w,c
  6606  0021C4  6E12               	movwf	wr16@addr+2,c
  6607  0021C6  0E00               	movlw	0
  6608  0021C8  6E14               	movwf	wr16@value+1,c
  6609  0021CA  6813               	setf	wr16@value,c
  6610  0021CC  EC36  F02F         	call	_wr16	;wreg free
  6611  0021D0  0E02               	movlw	2
  6612  0021D2  EC9B  F02F         	call	_cmd_incrementn
  6613  0021D6  C037  F030         	movff	_cmd_offset,??_display_laptime
  6614  0021DA  C038  F031         	movff	_cmd_offset+1,??_display_laptime+1
  6615  0021DE  6A32               	clrf	(??_display_laptime+2)& (0+255),c
  6616  0021E0  0E00               	movlw	0
  6617  0021E2  2430               	addwf	??_display_laptime,w,c
  6618  0021E4  6E10               	movwf	wr16@addr,c
  6619  0021E6  0E80               	movlw	128
  6620  0021E8  2031               	addwfc	??_display_laptime+1,w,c
  6621  0021EA  6E11               	movwf	wr16@addr+1,c
  6622  0021EC  0E10               	movlw	16
  6623  0021EE  2032               	addwfc	??_display_laptime+2,w,c
  6624  0021F0  6E12               	movwf	wr16@addr+2,c
  6625  0021F2  0E00               	movlw	0
  6626  0021F4  6E14               	movwf	wr16@value+1,c
  6627  0021F6  0E1E               	movlw	30
  6628  0021F8  6E13               	movwf	wr16@value,c
  6629  0021FA  EC36  F02F         	call	_wr16	;wreg free
  6630  0021FE  0E02               	movlw	2
  6631  002200  EC9B  F02F         	call	_cmd_incrementn
  6632  002204  C037  F030         	movff	_cmd_offset,??_display_laptime
  6633  002208  C038  F031         	movff	_cmd_offset+1,??_display_laptime+1
  6634  00220C  6A32               	clrf	(??_display_laptime+2)& (0+255),c
  6635  00220E  0E00               	movlw	0
  6636  002210  2430               	addwf	??_display_laptime,w,c
  6637  002212  6E10               	movwf	wr16@addr,c
  6638  002214  0E80               	movlw	128
  6639  002216  2031               	addwfc	??_display_laptime+1,w,c
  6640  002218  6E11               	movwf	wr16@addr+1,c
  6641  00221A  0E10               	movlw	16
  6642  00221C  2032               	addwfc	??_display_laptime+2,w,c
  6643  00221E  6E12               	movwf	wr16@addr+2,c
  6644  002220  0E06               	movlw	6
  6645  002222  6E14               	movwf	wr16@value+1,c
  6646  002224  0E00               	movlw	0
  6647  002226  6E13               	movwf	wr16@value,c
  6648  002228  EC36  F02F         	call	_wr16	;wreg free
  6649  00222C  0E02               	movlw	2
  6650  00222E  EC9B  F02F         	call	_cmd_incrementn
  6651  002232  0E19               	movlw	25
  6652  002234  6E1E               	movwf	cmd@command,c
  6653  002236  0E00               	movlw	0
  6654  002238  6E1F               	movwf	cmd@command+1,c
  6655  00223A  0E00               	movlw	0
  6656  00223C  6E20               	movwf	cmd@command+2,c
  6657  00223E  0E00               	movlw	0
  6658  002240  6E21               	movwf	cmd@command+3,c
  6659  002242  EC54  F02F         	call	_cmd	;wreg free
  6660                           
  6661                           ;display.c: 103: cmd(4294967052UL);wr16(1081344UL+cmd_offset, 261);cmd_incrementn(2);wr1
      +                          6(1081344UL+cmd_offset, 254);cmd_incrementn(2);wr16(1081344UL+cmd_offset, 28);cmd_increm
      +                          entn(2);wr16(1081344UL+cmd_offset, 1536UL);cmd_incrementn(2);cmd_incrementn(wr8s(1081344
      +                          UL+
  6662  002246  0E0C               	movlw	12
  6663  002248  6E1E               	movwf	cmd@command,c
  6664  00224A  0EFF               	movlw	255
  6665  00224C  6E1F               	movwf	cmd@command+1,c
  6666  00224E  0EFF               	movlw	255
  6667  002250  6E20               	movwf	cmd@command+2,c
  6668  002252  0EFF               	movlw	255
  6669  002254  6E21               	movwf	cmd@command+3,c
  6670  002256  EC54  F02F         	call	_cmd	;wreg free
  6671  00225A  C037  F030         	movff	_cmd_offset,??_display_laptime
  6672  00225E  C038  F031         	movff	_cmd_offset+1,??_display_laptime+1
  6673  002262  6A32               	clrf	(??_display_laptime+2)& (0+255),c
  6674  002264  0E00               	movlw	0
  6675  002266  2430               	addwf	??_display_laptime,w,c
  6676  002268  6E10               	movwf	wr16@addr,c
  6677  00226A  0E80               	movlw	128
  6678  00226C  2031               	addwfc	??_display_laptime+1,w,c
  6679  00226E  6E11               	movwf	wr16@addr+1,c
  6680  002270  0E10               	movlw	16
  6681  002272  2032               	addwfc	??_display_laptime+2,w,c
  6682  002274  6E12               	movwf	wr16@addr+2,c
  6683  002276  0E01               	movlw	1
  6684  002278  6E14               	movwf	wr16@value+1,c
  6685  00227A  0E05               	movlw	5
  6686  00227C  6E13               	movwf	wr16@value,c
  6687  00227E  EC36  F02F         	call	_wr16	;wreg free
  6688  002282  0E02               	movlw	2
  6689  002284  EC9B  F02F         	call	_cmd_incrementn
  6690  002288  C037  F030         	movff	_cmd_offset,??_display_laptime
  6691  00228C  C038  F031         	movff	_cmd_offset+1,??_display_laptime+1
  6692  002290  6A32               	clrf	(??_display_laptime+2)& (0+255),c
  6693  002292  0E00               	movlw	0
  6694  002294  2430               	addwf	??_display_laptime,w,c
  6695  002296  6E10               	movwf	wr16@addr,c
  6696  002298  0E80               	movlw	128
  6697  00229A  2031               	addwfc	??_display_laptime+1,w,c
  6698  00229C  6E11               	movwf	wr16@addr+1,c
  6699  00229E  0E10               	movlw	16
  6700  0022A0  2032               	addwfc	??_display_laptime+2,w,c
  6701  0022A2  6E12               	movwf	wr16@addr+2,c
  6702  0022A4  0E00               	movlw	0
  6703  0022A6  6E14               	movwf	wr16@value+1,c
  6704  0022A8  0EFE               	movlw	254
  6705  0022AA  6E13               	movwf	wr16@value,c
  6706  0022AC  EC36  F02F         	call	_wr16	;wreg free
  6707  0022B0  0E02               	movlw	2
  6708  0022B2  EC9B  F02F         	call	_cmd_incrementn
  6709  0022B6  C037  F030         	movff	_cmd_offset,??_display_laptime
  6710  0022BA  C038  F031         	movff	_cmd_offset+1,??_display_laptime+1
  6711  0022BE  6A32               	clrf	(??_display_laptime+2)& (0+255),c
  6712  0022C0  0E00               	movlw	0
  6713  0022C2  2430               	addwf	??_display_laptime,w,c
  6714  0022C4  6E10               	movwf	wr16@addr,c
  6715  0022C6  0E80               	movlw	128
  6716  0022C8  2031               	addwfc	??_display_laptime+1,w,c
  6717  0022CA  6E11               	movwf	wr16@addr+1,c
  6718  0022CC  0E10               	movlw	16
  6719  0022CE  2032               	addwfc	??_display_laptime+2,w,c
  6720  0022D0  6E12               	movwf	wr16@addr+2,c
  6721  0022D2  0E00               	movlw	0
  6722  0022D4  6E14               	movwf	wr16@value+1,c
  6723  0022D6  0E1C               	movlw	28
  6724  0022D8  6E13               	movwf	wr16@value,c
  6725  0022DA  EC36  F02F         	call	_wr16	;wreg free
  6726  0022DE  0E02               	movlw	2
  6727  0022E0  EC9B  F02F         	call	_cmd_incrementn
  6728  0022E4  C037  F030         	movff	_cmd_offset,??_display_laptime
  6729  0022E8  C038  F031         	movff	_cmd_offset+1,??_display_laptime+1
  6730  0022EC  6A32               	clrf	(??_display_laptime+2)& (0+255),c
  6731  0022EE  0E00               	movlw	0
  6732  0022F0  2430               	addwf	??_display_laptime,w,c
  6733  0022F2  6E10               	movwf	wr16@addr,c
  6734  0022F4  0E80               	movlw	128
  6735  0022F6  2031               	addwfc	??_display_laptime+1,w,c
  6736  0022F8  6E11               	movwf	wr16@addr+1,c
  6737  0022FA  0E10               	movlw	16
  6738  0022FC  2032               	addwfc	??_display_laptime+2,w,c
  6739  0022FE  6E12               	movwf	wr16@addr+2,c
  6740  002300  0E06               	movlw	6
  6741  002302  6E14               	movwf	wr16@value+1,c
  6742  002304  0E00               	movlw	0
  6743  002306  6E13               	movwf	wr16@value,c
  6744  002308  EC36  F02F         	call	_wr16	;wreg free
  6745  00230C  0E02               	movlw	2
  6746  00230E  EC9B  F02F         	call	_cmd_incrementn
  6747  002312  C037  F030         	movff	_cmd_offset,??_display_laptime
  6748  002316  C038  F031         	movff	_cmd_offset+1,??_display_laptime+1
  6749  00231A  6A32               	clrf	(??_display_laptime+2)& (0+255),c
  6750  00231C  0E00               	movlw	0
  6751  00231E  2430               	addwf	??_display_laptime,w,c
  6752  002320  6E15               	movwf	wr8s@addr,c
  6753  002322  0E80               	movlw	128
  6754  002324  2031               	addwfc	??_display_laptime+1,w,c
  6755  002326  6E16               	movwf	wr8s@addr+1,c
  6756  002328  0E10               	movlw	16
  6757  00232A  2032               	addwfc	??_display_laptime+2,w,c
  6758  00232C  6E17               	movwf	wr8s@addr+2,c
  6759  00232E  0E7A               	movlw	low STR_20
  6760  002330  6E18               	movwf	wr8s@s,c
  6761  002332  0E0F               	movlw	high STR_20
  6762  002334  6E19               	movwf	wr8s@s+1,c
  6763  002336  EC8D  F02D         	call	_wr8s	;wreg free
  6764  00233A  EC9B  F02F         	call	_cmd_incrementn
  6765                           
  6766                           ;display.c: 104: cmd(4294967086UL);wr16(1081344UL+cmd_offset, 298);cmd_incrementn(2);wr1
      +                          6(1081344UL+cmd_offset, 237);cmd_incrementn(2);wr16(1081344UL+cmd_offset, 30);cmd_increm
      +                          entn(2);wr16(1081344UL+cmd_offset, 2048UL);cmd_incrementn(2);cmd(89);
  6767  00233E  0E2E               	movlw	46
  6768  002340  6E1E               	movwf	cmd@command,c
  6769  002342  0EFF               	movlw	255
  6770  002344  6E1F               	movwf	cmd@command+1,c
  6771  002346  0EFF               	movlw	255
  6772  002348  6E20               	movwf	cmd@command+2,c
  6773  00234A  0EFF               	movlw	255
  6774  00234C  6E21               	movwf	cmd@command+3,c
  6775  00234E  EC54  F02F         	call	_cmd	;wreg free
  6776  002352  C037  F030         	movff	_cmd_offset,??_display_laptime
  6777  002356  C038  F031         	movff	_cmd_offset+1,??_display_laptime+1
  6778  00235A  6A32               	clrf	(??_display_laptime+2)& (0+255),c
  6779  00235C  0E00               	movlw	0
  6780  00235E  2430               	addwf	??_display_laptime,w,c
  6781  002360  6E10               	movwf	wr16@addr,c
  6782  002362  0E80               	movlw	128
  6783  002364  2031               	addwfc	??_display_laptime+1,w,c
  6784  002366  6E11               	movwf	wr16@addr+1,c
  6785  002368  0E10               	movlw	16
  6786  00236A  2032               	addwfc	??_display_laptime+2,w,c
  6787  00236C  6E12               	movwf	wr16@addr+2,c
  6788  00236E  0E01               	movlw	1
  6789  002370  6E14               	movwf	wr16@value+1,c
  6790  002372  0E2A               	movlw	42
  6791  002374  6E13               	movwf	wr16@value,c
  6792  002376  EC36  F02F         	call	_wr16	;wreg free
  6793  00237A  0E02               	movlw	2
  6794  00237C  EC9B  F02F         	call	_cmd_incrementn
  6795  002380  C037  F030         	movff	_cmd_offset,??_display_laptime
  6796  002384  C038  F031         	movff	_cmd_offset+1,??_display_laptime+1
  6797  002388  6A32               	clrf	(??_display_laptime+2)& (0+255),c
  6798  00238A  0E00               	movlw	0
  6799  00238C  2430               	addwf	??_display_laptime,w,c
  6800  00238E  6E10               	movwf	wr16@addr,c
  6801  002390  0E80               	movlw	128
  6802  002392  2031               	addwfc	??_display_laptime+1,w,c
  6803  002394  6E11               	movwf	wr16@addr+1,c
  6804  002396  0E10               	movlw	16
  6805  002398  2032               	addwfc	??_display_laptime+2,w,c
  6806  00239A  6E12               	movwf	wr16@addr+2,c
  6807  00239C  0E00               	movlw	0
  6808  00239E  6E14               	movwf	wr16@value+1,c
  6809  0023A0  0EED               	movlw	237
  6810  0023A2  6E13               	movwf	wr16@value,c
  6811  0023A4  EC36  F02F         	call	_wr16	;wreg free
  6812  0023A8  0E02               	movlw	2
  6813  0023AA  EC9B  F02F         	call	_cmd_incrementn
  6814  0023AE  C037  F030         	movff	_cmd_offset,??_display_laptime
  6815  0023B2  C038  F031         	movff	_cmd_offset+1,??_display_laptime+1
  6816  0023B6  6A32               	clrf	(??_display_laptime+2)& (0+255),c
  6817  0023B8  0E00               	movlw	0
  6818  0023BA  2430               	addwf	??_display_laptime,w,c
  6819  0023BC  6E10               	movwf	wr16@addr,c
  6820  0023BE  0E80               	movlw	128
  6821  0023C0  2031               	addwfc	??_display_laptime+1,w,c
  6822  0023C2  6E11               	movwf	wr16@addr+1,c
  6823  0023C4  0E10               	movlw	16
  6824  0023C6  2032               	addwfc	??_display_laptime+2,w,c
  6825  0023C8  6E12               	movwf	wr16@addr+2,c
  6826  0023CA  0E00               	movlw	0
  6827  0023CC  6E14               	movwf	wr16@value+1,c
  6828  0023CE  0E1E               	movlw	30
  6829  0023D0  6E13               	movwf	wr16@value,c
  6830  0023D2  EC36  F02F         	call	_wr16	;wreg free
  6831  0023D6  0E02               	movlw	2
  6832  0023D8  EC9B  F02F         	call	_cmd_incrementn
  6833  0023DC  C037  F030         	movff	_cmd_offset,??_display_laptime
  6834  0023E0  C038  F031         	movff	_cmd_offset+1,??_display_laptime+1
  6835  0023E4  6A32               	clrf	(??_display_laptime+2)& (0+255),c
  6836  0023E6  0E00               	movlw	0
  6837  0023E8  2430               	addwf	??_display_laptime,w,c
  6838  0023EA  6E10               	movwf	wr16@addr,c
  6839  0023EC  0E80               	movlw	128
  6840  0023EE  2031               	addwfc	??_display_laptime+1,w,c
  6841  0023F0  6E11               	movwf	wr16@addr+1,c
  6842  0023F2  0E10               	movlw	16
  6843  0023F4  2032               	addwfc	??_display_laptime+2,w,c
  6844  0023F6  6E12               	movwf	wr16@addr+2,c
  6845  0023F8  0E08               	movlw	8
  6846  0023FA  6E14               	movwf	wr16@value+1,c
  6847  0023FC  0E00               	movlw	0
  6848  0023FE  6E13               	movwf	wr16@value,c
  6849  002400  EC36  F02F         	call	_wr16	;wreg free
  6850  002404  0E02               	movlw	2
  6851  002406  EC9B  F02F         	call	_cmd_incrementn
  6852  00240A  0E59               	movlw	89
  6853  00240C  6E1E               	movwf	cmd@command,c
  6854  00240E  0E00               	movlw	0
  6855  002410  6E1F               	movwf	cmd@command+1,c
  6856  002412  0E00               	movlw	0
  6857  002414  6E20               	movwf	cmd@command+2,c
  6858  002416  0E00               	movlw	0
  6859  002418  6E21               	movwf	cmd@command+3,c
  6860  00241A  EC54  F02F         	call	_cmd	;wreg free
  6861  00241E  0012               	return		;funcret
  6862  002420                     __end_of_display_laptime:
  6863                           	opt stack 0
  6864                           tblptru	equ	0xFF8
  6865                           wreg	equ	0xFE8
  6866                           status	equ	0xFD8
  6867                           
  6868 ;; *************** function _display_labels *****************
  6869 ;; Defined at:
  6870 ;;		line 15 in file "display.c"
  6871 ;; Parameters:    Size  Location     Type
  6872 ;;		None
  6873 ;; Auto vars:     Size  Location     Type
  6874 ;;  y_start         2   39[COMRAM] int 
  6875 ;; Return value:  Size  Location     Type
  6876 ;;                  1    wreg      void 
  6877 ;; Registers used:
  6878 ;;		wreg, status,2, status,0, tblptrl, tblptrh, tblptru, prodl, prodh, cstack
  6879 ;; Tracked objects:
  6880 ;;		On entry : 0/0
  6881 ;;		On exit  : 0/0
  6882 ;;		Unchanged: 0/0
  6883 ;; Data sizes:     COMRAM   BANK0   BANK1   BANK2   BANK3   BANK4   BANK5   BANK6   BANK7   BANK8   BANK9  BANK10  BANK1
      +1  BANK12  BANK13  BANK14
  6884 ;;      Params:         0       0       0       0       0       0       0       0       0       0       0       0       
      +0       0       0       0
  6885 ;;      Locals:         2       0       0       0       0       0       0       0       0       0       0       0       
      +0       0       0       0
  6886 ;;      Temps:          3       0       0       0       0       0       0       0       0       0       0       0       
      +0       0       0       0
  6887 ;;      Totals:         5       0       0       0       0       0       0       0       0       0       0       0       
      +0       0       0       0
  6888 ;;Total ram usage:        5 bytes
  6889 ;; Hardware stack levels used:    1
  6890 ;; Hardware stack levels required when called:    7
  6891 ;; This function calls:
  6892 ;;		_cmd
  6893 ;;		_cmd_incrementn
  6894 ;;		_wr16
  6895 ;;		_wr8s
  6896 ;; This function is called by:
  6897 ;;		_main
  6898 ;; This function uses a non-reentrant model
  6899 ;;
  6900                           
  6901                           	psect	text14
  6902  003732                     __ptext14:
  6903                           	opt stack 0
  6904  003732                     _display_labels:
  6905                           	opt stack 23
  6906                           
  6907                           ;display.c: 16: int y_start = 5;
  6908                           
  6909                           ;incstack = 0
  6910  003732  0E00               	movlw	0
  6911  003734  6E29               	movwf	display_labels@y_start+1,c
  6912  003736  0E05               	movlw	5
  6913  003738  6E28               	movwf	display_labels@y_start,c
  6914                           
  6915                           ;display.c: 19: cmd(((4UL<<24)|(((255)&255UL)<<16)|(((255)&255UL)<<8)|(((255)&255UL)<<0)
      +                          ));
  6916  00373A  0EFF               	movlw	255
  6917  00373C  6E1E               	movwf	cmd@command,c
  6918  00373E  0EFF               	movlw	255
  6919  003740  6E1F               	movwf	cmd@command+1,c
  6920  003742  0EFF               	movlw	255
  6921  003744  6E20               	movwf	cmd@command+2,c
  6922  003746  0E04               	movlw	4
  6923  003748  6E21               	movwf	cmd@command+3,c
  6924  00374A  EC54  F02F         	call	_cmd	;wreg free
  6925                           
  6926                           ;display.c: 20: cmd(4294967052UL);wr16(1081344UL+cmd_offset, 5);cmd_incrementn(2);wr16(1
      +                          081344UL+cmd_offset, y_start);cmd_incrementn(2);wr16(1081344UL+cmd_offset, 26);cmd_incre
      +                          mentn(2);wr16(1081344UL+cmd_offset, 0);cmd_incrementn(2);cmd_incrementn(wr8s(1081344UL+c
      +                          md
  6927  00374E  0E0C               	movlw	12
  6928  003750  6E1E               	movwf	cmd@command,c
  6929  003752  0EFF               	movlw	255
  6930  003754  6E1F               	movwf	cmd@command+1,c
  6931  003756  0EFF               	movlw	255
  6932  003758  6E20               	movwf	cmd@command+2,c
  6933  00375A  0EFF               	movlw	255
  6934  00375C  6E21               	movwf	cmd@command+3,c
  6935  00375E  EC54  F02F         	call	_cmd	;wreg free
  6936  003762  C037  F025         	movff	_cmd_offset,??_display_labels
  6937  003766  C038  F026         	movff	_cmd_offset+1,??_display_labels+1
  6938  00376A  6A27               	clrf	(??_display_labels+2)& (0+255),c
  6939  00376C  0E00               	movlw	0
  6940  00376E  2425               	addwf	??_display_labels,w,c
  6941  003770  6E10               	movwf	wr16@addr,c
  6942  003772  0E80               	movlw	128
  6943  003774  2026               	addwfc	??_display_labels+1,w,c
  6944  003776  6E11               	movwf	wr16@addr+1,c
  6945  003778  0E10               	movlw	16
  6946  00377A  2027               	addwfc	??_display_labels+2,w,c
  6947  00377C  6E12               	movwf	wr16@addr+2,c
  6948  00377E  0E00               	movlw	0
  6949  003780  6E14               	movwf	wr16@value+1,c
  6950  003782  0E05               	movlw	5
  6951  003784  6E13               	movwf	wr16@value,c
  6952  003786  EC36  F02F         	call	_wr16	;wreg free
  6953  00378A  0E02               	movlw	2
  6954  00378C  EC9B  F02F         	call	_cmd_incrementn
  6955  003790  C037  F025         	movff	_cmd_offset,??_display_labels
  6956  003794  C038  F026         	movff	_cmd_offset+1,??_display_labels+1
  6957  003798  6A27               	clrf	(??_display_labels+2)& (0+255),c
  6958  00379A  0E00               	movlw	0
  6959  00379C  2425               	addwf	??_display_labels,w,c
  6960  00379E  6E10               	movwf	wr16@addr,c
  6961  0037A0  0E80               	movlw	128
  6962  0037A2  2026               	addwfc	??_display_labels+1,w,c
  6963  0037A4  6E11               	movwf	wr16@addr+1,c
  6964  0037A6  0E10               	movlw	16
  6965  0037A8  2027               	addwfc	??_display_labels+2,w,c
  6966  0037AA  6E12               	movwf	wr16@addr+2,c
  6967  0037AC  C028  F013         	movff	display_labels@y_start,wr16@value
  6968  0037B0  C029  F014         	movff	display_labels@y_start+1,wr16@value+1
  6969  0037B4  EC36  F02F         	call	_wr16	;wreg free
  6970  0037B8  0E02               	movlw	2
  6971  0037BA  EC9B  F02F         	call	_cmd_incrementn
  6972  0037BE  C037  F025         	movff	_cmd_offset,??_display_labels
  6973  0037C2  C038  F026         	movff	_cmd_offset+1,??_display_labels+1
  6974  0037C6  6A27               	clrf	(??_display_labels+2)& (0+255),c
  6975  0037C8  0E00               	movlw	0
  6976  0037CA  2425               	addwf	??_display_labels,w,c
  6977  0037CC  6E10               	movwf	wr16@addr,c
  6978  0037CE  0E80               	movlw	128
  6979  0037D0  2026               	addwfc	??_display_labels+1,w,c
  6980  0037D2  6E11               	movwf	wr16@addr+1,c
  6981  0037D4  0E10               	movlw	16
  6982  0037D6  2027               	addwfc	??_display_labels+2,w,c
  6983  0037D8  6E12               	movwf	wr16@addr+2,c
  6984  0037DA  0E00               	movlw	0
  6985  0037DC  6E14               	movwf	wr16@value+1,c
  6986  0037DE  0E1A               	movlw	26
  6987  0037E0  6E13               	movwf	wr16@value,c
  6988  0037E2  EC36  F02F         	call	_wr16	;wreg free
  6989  0037E6  0E02               	movlw	2
  6990  0037E8  EC9B  F02F         	call	_cmd_incrementn
  6991  0037EC  C037  F025         	movff	_cmd_offset,??_display_labels
  6992  0037F0  C038  F026         	movff	_cmd_offset+1,??_display_labels+1
  6993  0037F4  6A27               	clrf	(??_display_labels+2)& (0+255),c
  6994  0037F6  0E00               	movlw	0
  6995  0037F8  2425               	addwf	??_display_labels,w,c
  6996  0037FA  6E10               	movwf	wr16@addr,c
  6997  0037FC  0E80               	movlw	128
  6998  0037FE  2026               	addwfc	??_display_labels+1,w,c
  6999  003800  6E11               	movwf	wr16@addr+1,c
  7000  003802  0E10               	movlw	16
  7001  003804  2027               	addwfc	??_display_labels+2,w,c
  7002  003806  6E12               	movwf	wr16@addr+2,c
  7003  003808  0E00               	movlw	0
  7004  00380A  6E14               	movwf	wr16@value+1,c
  7005  00380C  0E00               	movlw	0
  7006  00380E  6E13               	movwf	wr16@value,c
  7007  003810  EC36  F02F         	call	_wr16	;wreg free
  7008  003814  0E02               	movlw	2
  7009  003816  EC9B  F02F         	call	_cmd_incrementn
  7010  00381A  C037  F025         	movff	_cmd_offset,??_display_labels
  7011  00381E  C038  F026         	movff	_cmd_offset+1,??_display_labels+1
  7012  003822  6A27               	clrf	(??_display_labels+2)& (0+255),c
  7013  003824  0E00               	movlw	0
  7014  003826  2425               	addwf	??_display_labels,w,c
  7015  003828  6E15               	movwf	wr8s@addr,c
  7016  00382A  0E80               	movlw	128
  7017  00382C  2026               	addwfc	??_display_labels+1,w,c
  7018  00382E  6E16               	movwf	wr8s@addr+1,c
  7019  003830  0E10               	movlw	16
  7020  003832  2027               	addwfc	??_display_labels+2,w,c
  7021  003834  6E17               	movwf	wr8s@addr+2,c
  7022  003836  0E16               	movlw	low STR_2
  7023  003838  6E18               	movwf	wr8s@s,c
  7024  00383A  0E0F               	movlw	high STR_2
  7025  00383C  6E19               	movwf	wr8s@s+1,c
  7026  00383E  EC8D  F02D         	call	_wr8s	;wreg free
  7027  003842  EC9B  F02F         	call	_cmd_incrementn
  7028                           
  7029                           ;display.c: 21: cmd(4294967052UL);wr16(1081344UL+cmd_offset, 5);cmd_incrementn(2);wr16(1
      +                          081344UL+cmd_offset, y_start += 15);cmd_incrementn(2);wr16(1081344UL+cmd_offset, 26);cmd
      +                          _incrementn(2);wr16(1081344UL+cmd_offset, 0);cmd_incrementn(2);cmd_incrementn(wr8s(10813
      +                          44
  7030  003846  0E0C               	movlw	12
  7031  003848  6E1E               	movwf	cmd@command,c
  7032  00384A  0EFF               	movlw	255
  7033  00384C  6E1F               	movwf	cmd@command+1,c
  7034  00384E  0EFF               	movlw	255
  7035  003850  6E20               	movwf	cmd@command+2,c
  7036  003852  0EFF               	movlw	255
  7037  003854  6E21               	movwf	cmd@command+3,c
  7038  003856  EC54  F02F         	call	_cmd	;wreg free
  7039  00385A  C037  F025         	movff	_cmd_offset,??_display_labels
  7040  00385E  C038  F026         	movff	_cmd_offset+1,??_display_labels+1
  7041  003862  6A27               	clrf	(??_display_labels+2)& (0+255),c
  7042  003864  0E00               	movlw	0
  7043  003866  2425               	addwf	??_display_labels,w,c
  7044  003868  6E10               	movwf	wr16@addr,c
  7045  00386A  0E80               	movlw	128
  7046  00386C  2026               	addwfc	??_display_labels+1,w,c
  7047  00386E  6E11               	movwf	wr16@addr+1,c
  7048  003870  0E10               	movlw	16
  7049  003872  2027               	addwfc	??_display_labels+2,w,c
  7050  003874  6E12               	movwf	wr16@addr+2,c
  7051  003876  0E00               	movlw	0
  7052  003878  6E14               	movwf	wr16@value+1,c
  7053  00387A  0E05               	movlw	5
  7054  00387C  6E13               	movwf	wr16@value,c
  7055  00387E  EC36  F02F         	call	_wr16	;wreg free
  7056  003882  0E02               	movlw	2
  7057  003884  EC9B  F02F         	call	_cmd_incrementn
  7058  003888  C037  F025         	movff	_cmd_offset,??_display_labels
  7059  00388C  C038  F026         	movff	_cmd_offset+1,??_display_labels+1
  7060  003890  6A27               	clrf	(??_display_labels+2)& (0+255),c
  7061  003892  0E00               	movlw	0
  7062  003894  2425               	addwf	??_display_labels,w,c
  7063  003896  6E10               	movwf	wr16@addr,c
  7064  003898  0E80               	movlw	128
  7065  00389A  2026               	addwfc	??_display_labels+1,w,c
  7066  00389C  6E11               	movwf	wr16@addr+1,c
  7067  00389E  0E10               	movlw	16
  7068  0038A0  2027               	addwfc	??_display_labels+2,w,c
  7069  0038A2  6E12               	movwf	wr16@addr+2,c
  7070  0038A4  0E0F               	movlw	15
  7071  0038A6  2628               	addwf	display_labels@y_start,f,c
  7072  0038A8  0E00               	movlw	0
  7073  0038AA  2229               	addwfc	display_labels@y_start+1,f,c
  7074  0038AC  C028  F013         	movff	display_labels@y_start,wr16@value
  7075  0038B0  C029  F014         	movff	display_labels@y_start+1,wr16@value+1
  7076  0038B4  EC36  F02F         	call	_wr16	;wreg free
  7077  0038B8  0E02               	movlw	2
  7078  0038BA  EC9B  F02F         	call	_cmd_incrementn
  7079  0038BE  C037  F025         	movff	_cmd_offset,??_display_labels
  7080  0038C2  C038  F026         	movff	_cmd_offset+1,??_display_labels+1
  7081  0038C6  6A27               	clrf	(??_display_labels+2)& (0+255),c
  7082  0038C8  0E00               	movlw	0
  7083  0038CA  2425               	addwf	??_display_labels,w,c
  7084  0038CC  6E10               	movwf	wr16@addr,c
  7085  0038CE  0E80               	movlw	128
  7086  0038D0  2026               	addwfc	??_display_labels+1,w,c
  7087  0038D2  6E11               	movwf	wr16@addr+1,c
  7088  0038D4  0E10               	movlw	16
  7089  0038D6  2027               	addwfc	??_display_labels+2,w,c
  7090  0038D8  6E12               	movwf	wr16@addr+2,c
  7091  0038DA  0E00               	movlw	0
  7092  0038DC  6E14               	movwf	wr16@value+1,c
  7093  0038DE  0E1A               	movlw	26
  7094  0038E0  6E13               	movwf	wr16@value,c
  7095  0038E2  EC36  F02F         	call	_wr16	;wreg free
  7096  0038E6  0E02               	movlw	2
  7097  0038E8  EC9B  F02F         	call	_cmd_incrementn
  7098  0038EC  C037  F025         	movff	_cmd_offset,??_display_labels
  7099  0038F0  C038  F026         	movff	_cmd_offset+1,??_display_labels+1
  7100  0038F4  6A27               	clrf	(??_display_labels+2)& (0+255),c
  7101  0038F6  0E00               	movlw	0
  7102  0038F8  2425               	addwf	??_display_labels,w,c
  7103  0038FA  6E10               	movwf	wr16@addr,c
  7104  0038FC  0E80               	movlw	128
  7105  0038FE  2026               	addwfc	??_display_labels+1,w,c
  7106  003900  6E11               	movwf	wr16@addr+1,c
  7107  003902  0E10               	movlw	16
  7108  003904  2027               	addwfc	??_display_labels+2,w,c
  7109  003906  6E12               	movwf	wr16@addr+2,c
  7110  003908  0E00               	movlw	0
  7111  00390A  6E14               	movwf	wr16@value+1,c
  7112  00390C  0E00               	movlw	0
  7113  00390E  6E13               	movwf	wr16@value,c
  7114  003910  EC36  F02F         	call	_wr16	;wreg free
  7115  003914  0E02               	movlw	2
  7116  003916  EC9B  F02F         	call	_cmd_incrementn
  7117  00391A  C037  F025         	movff	_cmd_offset,??_display_labels
  7118  00391E  C038  F026         	movff	_cmd_offset+1,??_display_labels+1
  7119  003922  6A27               	clrf	(??_display_labels+2)& (0+255),c
  7120  003924  0E00               	movlw	0
  7121  003926  2425               	addwf	??_display_labels,w,c
  7122  003928  6E15               	movwf	wr8s@addr,c
  7123  00392A  0E80               	movlw	128
  7124  00392C  2026               	addwfc	??_display_labels+1,w,c
  7125  00392E  6E16               	movwf	wr8s@addr+1,c
  7126  003930  0E10               	movlw	16
  7127  003932  2027               	addwfc	??_display_labels+2,w,c
  7128  003934  6E17               	movwf	wr8s@addr+2,c
  7129  003936  0E38               	movlw	low STR_3
  7130  003938  6E18               	movwf	wr8s@s,c
  7131  00393A  0E0F               	movlw	high STR_3
  7132  00393C  6E19               	movwf	wr8s@s+1,c
  7133  00393E  EC8D  F02D         	call	_wr8s	;wreg free
  7134  003942  EC9B  F02F         	call	_cmd_incrementn
  7135                           
  7136                           ;display.c: 22: cmd(4294967052UL);wr16(1081344UL+cmd_offset, 5);cmd_incrementn(2);wr16(1
      +                          081344UL+cmd_offset, y_start += 25);cmd_incrementn(2);wr16(1081344UL+cmd_offset, 26);cmd
      +                          _incrementn(2);wr16(1081344UL+cmd_offset, 0);cmd_incrementn(2);cmd_incrementn(wr8s(10813
      +                          44
  7137  003946  0E0C               	movlw	12
  7138  003948  6E1E               	movwf	cmd@command,c
  7139  00394A  0EFF               	movlw	255
  7140  00394C  6E1F               	movwf	cmd@command+1,c
  7141  00394E  0EFF               	movlw	255
  7142  003950  6E20               	movwf	cmd@command+2,c
  7143  003952  0EFF               	movlw	255
  7144  003954  6E21               	movwf	cmd@command+3,c
  7145  003956  EC54  F02F         	call	_cmd	;wreg free
  7146  00395A  C037  F025         	movff	_cmd_offset,??_display_labels
  7147  00395E  C038  F026         	movff	_cmd_offset+1,??_display_labels+1
  7148  003962  6A27               	clrf	(??_display_labels+2)& (0+255),c
  7149  003964  0E00               	movlw	0
  7150  003966  2425               	addwf	??_display_labels,w,c
  7151  003968  6E10               	movwf	wr16@addr,c
  7152  00396A  0E80               	movlw	128
  7153  00396C  2026               	addwfc	??_display_labels+1,w,c
  7154  00396E  6E11               	movwf	wr16@addr+1,c
  7155  003970  0E10               	movlw	16
  7156  003972  2027               	addwfc	??_display_labels+2,w,c
  7157  003974  6E12               	movwf	wr16@addr+2,c
  7158  003976  0E00               	movlw	0
  7159  003978  6E14               	movwf	wr16@value+1,c
  7160  00397A  0E05               	movlw	5
  7161  00397C  6E13               	movwf	wr16@value,c
  7162  00397E  EC36  F02F         	call	_wr16	;wreg free
  7163  003982  0E02               	movlw	2
  7164  003984  EC9B  F02F         	call	_cmd_incrementn
  7165  003988  C037  F025         	movff	_cmd_offset,??_display_labels
  7166  00398C  C038  F026         	movff	_cmd_offset+1,??_display_labels+1
  7167  003990  6A27               	clrf	(??_display_labels+2)& (0+255),c
  7168  003992  0E00               	movlw	0
  7169  003994  2425               	addwf	??_display_labels,w,c
  7170  003996  6E10               	movwf	wr16@addr,c
  7171  003998  0E80               	movlw	128
  7172  00399A  2026               	addwfc	??_display_labels+1,w,c
  7173  00399C  6E11               	movwf	wr16@addr+1,c
  7174  00399E  0E10               	movlw	16
  7175  0039A0  2027               	addwfc	??_display_labels+2,w,c
  7176  0039A2  6E12               	movwf	wr16@addr+2,c
  7177  0039A4  0E19               	movlw	25
  7178  0039A6  2628               	addwf	display_labels@y_start,f,c
  7179  0039A8  0E00               	movlw	0
  7180  0039AA  2229               	addwfc	display_labels@y_start+1,f,c
  7181  0039AC  C028  F013         	movff	display_labels@y_start,wr16@value
  7182  0039B0  C029  F014         	movff	display_labels@y_start+1,wr16@value+1
  7183  0039B4  EC36  F02F         	call	_wr16	;wreg free
  7184  0039B8  0E02               	movlw	2
  7185  0039BA  EC9B  F02F         	call	_cmd_incrementn
  7186  0039BE  C037  F025         	movff	_cmd_offset,??_display_labels
  7187  0039C2  C038  F026         	movff	_cmd_offset+1,??_display_labels+1
  7188  0039C6  6A27               	clrf	(??_display_labels+2)& (0+255),c
  7189  0039C8  0E00               	movlw	0
  7190  0039CA  2425               	addwf	??_display_labels,w,c
  7191  0039CC  6E10               	movwf	wr16@addr,c
  7192  0039CE  0E80               	movlw	128
  7193  0039D0  2026               	addwfc	??_display_labels+1,w,c
  7194  0039D2  6E11               	movwf	wr16@addr+1,c
  7195  0039D4  0E10               	movlw	16
  7196  0039D6  2027               	addwfc	??_display_labels+2,w,c
  7197  0039D8  6E12               	movwf	wr16@addr+2,c
  7198  0039DA  0E00               	movlw	0
  7199  0039DC  6E14               	movwf	wr16@value+1,c
  7200  0039DE  0E1A               	movlw	26
  7201  0039E0  6E13               	movwf	wr16@value,c
  7202  0039E2  EC36  F02F         	call	_wr16	;wreg free
  7203  0039E6  0E02               	movlw	2
  7204  0039E8  EC9B  F02F         	call	_cmd_incrementn
  7205  0039EC  C037  F025         	movff	_cmd_offset,??_display_labels
  7206  0039F0  C038  F026         	movff	_cmd_offset+1,??_display_labels+1
  7207  0039F4  6A27               	clrf	(??_display_labels+2)& (0+255),c
  7208  0039F6  0E00               	movlw	0
  7209  0039F8  2425               	addwf	??_display_labels,w,c
  7210  0039FA  6E10               	movwf	wr16@addr,c
  7211  0039FC  0E80               	movlw	128
  7212  0039FE  2026               	addwfc	??_display_labels+1,w,c
  7213  003A00  6E11               	movwf	wr16@addr+1,c
  7214  003A02  0E10               	movlw	16
  7215  003A04  2027               	addwfc	??_display_labels+2,w,c
  7216  003A06  6E12               	movwf	wr16@addr+2,c
  7217  003A08  0E00               	movlw	0
  7218  003A0A  6E14               	movwf	wr16@value+1,c
  7219  003A0C  0E00               	movlw	0
  7220  003A0E  6E13               	movwf	wr16@value,c
  7221  003A10  EC36  F02F         	call	_wr16	;wreg free
  7222  003A14  0E02               	movlw	2
  7223  003A16  EC9B  F02F         	call	_cmd_incrementn
  7224  003A1A  C037  F025         	movff	_cmd_offset,??_display_labels
  7225  003A1E  C038  F026         	movff	_cmd_offset+1,??_display_labels+1
  7226  003A22  6A27               	clrf	(??_display_labels+2)& (0+255),c
  7227  003A24  0E00               	movlw	0
  7228  003A26  2425               	addwf	??_display_labels,w,c
  7229  003A28  6E15               	movwf	wr8s@addr,c
  7230  003A2A  0E80               	movlw	128
  7231  003A2C  2026               	addwfc	??_display_labels+1,w,c
  7232  003A2E  6E16               	movwf	wr8s@addr+1,c
  7233  003A30  0E10               	movlw	16
  7234  003A32  2027               	addwfc	??_display_labels+2,w,c
  7235  003A34  6E17               	movwf	wr8s@addr+2,c
  7236  003A36  0E50               	movlw	low STR_4
  7237  003A38  6E18               	movwf	wr8s@s,c
  7238  003A3A  0E0F               	movlw	high STR_4
  7239  003A3C  6E19               	movwf	wr8s@s+1,c
  7240  003A3E  EC8D  F02D         	call	_wr8s	;wreg free
  7241  003A42  EC9B  F02F         	call	_cmd_incrementn
  7242                           
  7243                           ;display.c: 23: cmd(4294967052UL);wr16(1081344UL+cmd_offset, 5);cmd_incrementn(2);wr16(1
      +                          081344UL+cmd_offset, y_start += 15);cmd_incrementn(2);wr16(1081344UL+cmd_offset, 26);cmd
      +                          _incrementn(2);wr16(1081344UL+cmd_offset, 0);cmd_incrementn(2);cmd_incrementn(wr8s(10813
      +                          44
  7244  003A46  0E0C               	movlw	12
  7245  003A48  6E1E               	movwf	cmd@command,c
  7246  003A4A  0EFF               	movlw	255
  7247  003A4C  6E1F               	movwf	cmd@command+1,c
  7248  003A4E  0EFF               	movlw	255
  7249  003A50  6E20               	movwf	cmd@command+2,c
  7250  003A52  0EFF               	movlw	255
  7251  003A54  6E21               	movwf	cmd@command+3,c
  7252  003A56  EC54  F02F         	call	_cmd	;wreg free
  7253  003A5A  C037  F025         	movff	_cmd_offset,??_display_labels
  7254  003A5E  C038  F026         	movff	_cmd_offset+1,??_display_labels+1
  7255  003A62  6A27               	clrf	(??_display_labels+2)& (0+255),c
  7256  003A64  0E00               	movlw	0
  7257  003A66  2425               	addwf	??_display_labels,w,c
  7258  003A68  6E10               	movwf	wr16@addr,c
  7259  003A6A  0E80               	movlw	128
  7260  003A6C  2026               	addwfc	??_display_labels+1,w,c
  7261  003A6E  6E11               	movwf	wr16@addr+1,c
  7262  003A70  0E10               	movlw	16
  7263  003A72  2027               	addwfc	??_display_labels+2,w,c
  7264  003A74  6E12               	movwf	wr16@addr+2,c
  7265  003A76  0E00               	movlw	0
  7266  003A78  6E14               	movwf	wr16@value+1,c
  7267  003A7A  0E05               	movlw	5
  7268  003A7C  6E13               	movwf	wr16@value,c
  7269  003A7E  EC36  F02F         	call	_wr16	;wreg free
  7270  003A82  0E02               	movlw	2
  7271  003A84  EC9B  F02F         	call	_cmd_incrementn
  7272  003A88  C037  F025         	movff	_cmd_offset,??_display_labels
  7273  003A8C  C038  F026         	movff	_cmd_offset+1,??_display_labels+1
  7274  003A90  6A27               	clrf	(??_display_labels+2)& (0+255),c
  7275  003A92  0E00               	movlw	0
  7276  003A94  2425               	addwf	??_display_labels,w,c
  7277  003A96  6E10               	movwf	wr16@addr,c
  7278  003A98  0E80               	movlw	128
  7279  003A9A  2026               	addwfc	??_display_labels+1,w,c
  7280  003A9C  6E11               	movwf	wr16@addr+1,c
  7281  003A9E  0E10               	movlw	16
  7282  003AA0  2027               	addwfc	??_display_labels+2,w,c
  7283  003AA2  6E12               	movwf	wr16@addr+2,c
  7284  003AA4  0E0F               	movlw	15
  7285  003AA6  2628               	addwf	display_labels@y_start,f,c
  7286  003AA8  0E00               	movlw	0
  7287  003AAA  2229               	addwfc	display_labels@y_start+1,f,c
  7288  003AAC  C028  F013         	movff	display_labels@y_start,wr16@value
  7289  003AB0  C029  F014         	movff	display_labels@y_start+1,wr16@value+1
  7290  003AB4  EC36  F02F         	call	_wr16	;wreg free
  7291  003AB8  0E02               	movlw	2
  7292  003ABA  EC9B  F02F         	call	_cmd_incrementn
  7293  003ABE  C037  F025         	movff	_cmd_offset,??_display_labels
  7294  003AC2  C038  F026         	movff	_cmd_offset+1,??_display_labels+1
  7295  003AC6  6A27               	clrf	(??_display_labels+2)& (0+255),c
  7296  003AC8  0E00               	movlw	0
  7297  003ACA  2425               	addwf	??_display_labels,w,c
  7298  003ACC  6E10               	movwf	wr16@addr,c
  7299  003ACE  0E80               	movlw	128
  7300  003AD0  2026               	addwfc	??_display_labels+1,w,c
  7301  003AD2  6E11               	movwf	wr16@addr+1,c
  7302  003AD4  0E10               	movlw	16
  7303  003AD6  2027               	addwfc	??_display_labels+2,w,c
  7304  003AD8  6E12               	movwf	wr16@addr+2,c
  7305  003ADA  0E00               	movlw	0
  7306  003ADC  6E14               	movwf	wr16@value+1,c
  7307  003ADE  0E1A               	movlw	26
  7308  003AE0  6E13               	movwf	wr16@value,c
  7309  003AE2  EC36  F02F         	call	_wr16	;wreg free
  7310  003AE6  0E02               	movlw	2
  7311  003AE8  EC9B  F02F         	call	_cmd_incrementn
  7312  003AEC  C037  F025         	movff	_cmd_offset,??_display_labels
  7313  003AF0  C038  F026         	movff	_cmd_offset+1,??_display_labels+1
  7314  003AF4  6A27               	clrf	(??_display_labels+2)& (0+255),c
  7315  003AF6  0E00               	movlw	0
  7316  003AF8  2425               	addwf	??_display_labels,w,c
  7317  003AFA  6E10               	movwf	wr16@addr,c
  7318  003AFC  0E80               	movlw	128
  7319  003AFE  2026               	addwfc	??_display_labels+1,w,c
  7320  003B00  6E11               	movwf	wr16@addr+1,c
  7321  003B02  0E10               	movlw	16
  7322  003B04  2027               	addwfc	??_display_labels+2,w,c
  7323  003B06  6E12               	movwf	wr16@addr+2,c
  7324  003B08  0E00               	movlw	0
  7325  003B0A  6E14               	movwf	wr16@value+1,c
  7326  003B0C  0E00               	movlw	0
  7327  003B0E  6E13               	movwf	wr16@value,c
  7328  003B10  EC36  F02F         	call	_wr16	;wreg free
  7329  003B14  0E02               	movlw	2
  7330  003B16  EC9B  F02F         	call	_cmd_incrementn
  7331  003B1A  C037  F025         	movff	_cmd_offset,??_display_labels
  7332  003B1E  C038  F026         	movff	_cmd_offset+1,??_display_labels+1
  7333  003B22  6A27               	clrf	(??_display_labels+2)& (0+255),c
  7334  003B24  0E00               	movlw	0
  7335  003B26  2425               	addwf	??_display_labels,w,c
  7336  003B28  6E15               	movwf	wr8s@addr,c
  7337  003B2A  0E80               	movlw	128
  7338  003B2C  2026               	addwfc	??_display_labels+1,w,c
  7339  003B2E  6E16               	movwf	wr8s@addr+1,c
  7340  003B30  0E10               	movlw	16
  7341  003B32  2027               	addwfc	??_display_labels+2,w,c
  7342  003B34  6E17               	movwf	wr8s@addr+2,c
  7343  003B36  0E38               	movlw	low STR_3
  7344  003B38  6E18               	movwf	wr8s@s,c
  7345  003B3A  0E0F               	movlw	high STR_3
  7346  003B3C  6E19               	movwf	wr8s@s+1,c
  7347  003B3E  EC8D  F02D         	call	_wr8s	;wreg free
  7348  003B42  EC9B  F02F         	call	_cmd_incrementn
  7349                           
  7350                           ;display.c: 24: cmd(4294967052UL);wr16(1081344UL+cmd_offset, 5);cmd_incrementn(2);wr16(1
      +                          081344UL+cmd_offset, y_start += 25);cmd_incrementn(2);wr16(1081344UL+cmd_offset, 26);cmd
      +                          _incrementn(2);wr16(1081344UL+cmd_offset, 0);cmd_incrementn(2);cmd_incrementn(wr8s(10813
      +                          44
  7351  003B46  0E0C               	movlw	12
  7352  003B48  6E1E               	movwf	cmd@command,c
  7353  003B4A  0EFF               	movlw	255
  7354  003B4C  6E1F               	movwf	cmd@command+1,c
  7355  003B4E  0EFF               	movlw	255
  7356  003B50  6E20               	movwf	cmd@command+2,c
  7357  003B52  0EFF               	movlw	255
  7358  003B54  6E21               	movwf	cmd@command+3,c
  7359  003B56  EC54  F02F         	call	_cmd	;wreg free
  7360  003B5A  C037  F025         	movff	_cmd_offset,??_display_labels
  7361  003B5E  C038  F026         	movff	_cmd_offset+1,??_display_labels+1
  7362  003B62  6A27               	clrf	(??_display_labels+2)& (0+255),c
  7363  003B64  0E00               	movlw	0
  7364  003B66  2425               	addwf	??_display_labels,w,c
  7365  003B68  6E10               	movwf	wr16@addr,c
  7366  003B6A  0E80               	movlw	128
  7367  003B6C  2026               	addwfc	??_display_labels+1,w,c
  7368  003B6E  6E11               	movwf	wr16@addr+1,c
  7369  003B70  0E10               	movlw	16
  7370  003B72  2027               	addwfc	??_display_labels+2,w,c
  7371  003B74  6E12               	movwf	wr16@addr+2,c
  7372  003B76  0E00               	movlw	0
  7373  003B78  6E14               	movwf	wr16@value+1,c
  7374  003B7A  0E05               	movlw	5
  7375  003B7C  6E13               	movwf	wr16@value,c
  7376  003B7E  EC36  F02F         	call	_wr16	;wreg free
  7377  003B82  0E02               	movlw	2
  7378  003B84  EC9B  F02F         	call	_cmd_incrementn
  7379  003B88  C037  F025         	movff	_cmd_offset,??_display_labels
  7380  003B8C  C038  F026         	movff	_cmd_offset+1,??_display_labels+1
  7381  003B90  6A27               	clrf	(??_display_labels+2)& (0+255),c
  7382  003B92  0E00               	movlw	0
  7383  003B94  2425               	addwf	??_display_labels,w,c
  7384  003B96  6E10               	movwf	wr16@addr,c
  7385  003B98  0E80               	movlw	128
  7386  003B9A  2026               	addwfc	??_display_labels+1,w,c
  7387  003B9C  6E11               	movwf	wr16@addr+1,c
  7388  003B9E  0E10               	movlw	16
  7389  003BA0  2027               	addwfc	??_display_labels+2,w,c
  7390  003BA2  6E12               	movwf	wr16@addr+2,c
  7391  003BA4  0E19               	movlw	25
  7392  003BA6  2628               	addwf	display_labels@y_start,f,c
  7393  003BA8  0E00               	movlw	0
  7394  003BAA  2229               	addwfc	display_labels@y_start+1,f,c
  7395  003BAC  C028  F013         	movff	display_labels@y_start,wr16@value
  7396  003BB0  C029  F014         	movff	display_labels@y_start+1,wr16@value+1
  7397  003BB4  EC36  F02F         	call	_wr16	;wreg free
  7398  003BB8  0E02               	movlw	2
  7399  003BBA  EC9B  F02F         	call	_cmd_incrementn
  7400  003BBE  C037  F025         	movff	_cmd_offset,??_display_labels
  7401  003BC2  C038  F026         	movff	_cmd_offset+1,??_display_labels+1
  7402  003BC6  6A27               	clrf	(??_display_labels+2)& (0+255),c
  7403  003BC8  0E00               	movlw	0
  7404  003BCA  2425               	addwf	??_display_labels,w,c
  7405  003BCC  6E10               	movwf	wr16@addr,c
  7406  003BCE  0E80               	movlw	128
  7407  003BD0  2026               	addwfc	??_display_labels+1,w,c
  7408  003BD2  6E11               	movwf	wr16@addr+1,c
  7409  003BD4  0E10               	movlw	16
  7410  003BD6  2027               	addwfc	??_display_labels+2,w,c
  7411  003BD8  6E12               	movwf	wr16@addr+2,c
  7412  003BDA  0E00               	movlw	0
  7413  003BDC  6E14               	movwf	wr16@value+1,c
  7414  003BDE  0E1A               	movlw	26
  7415  003BE0  6E13               	movwf	wr16@value,c
  7416  003BE2  EC36  F02F         	call	_wr16	;wreg free
  7417  003BE6  0E02               	movlw	2
  7418  003BE8  EC9B  F02F         	call	_cmd_incrementn
  7419  003BEC  C037  F025         	movff	_cmd_offset,??_display_labels
  7420  003BF0  C038  F026         	movff	_cmd_offset+1,??_display_labels+1
  7421  003BF4  6A27               	clrf	(??_display_labels+2)& (0+255),c
  7422  003BF6  0E00               	movlw	0
  7423  003BF8  2425               	addwf	??_display_labels,w,c
  7424  003BFA  6E10               	movwf	wr16@addr,c
  7425  003BFC  0E80               	movlw	128
  7426  003BFE  2026               	addwfc	??_display_labels+1,w,c
  7427  003C00  6E11               	movwf	wr16@addr+1,c
  7428  003C02  0E10               	movlw	16
  7429  003C04  2027               	addwfc	??_display_labels+2,w,c
  7430  003C06  6E12               	movwf	wr16@addr+2,c
  7431  003C08  0E00               	movlw	0
  7432  003C0A  6E14               	movwf	wr16@value+1,c
  7433  003C0C  0E00               	movlw	0
  7434  003C0E  6E13               	movwf	wr16@value,c
  7435  003C10  EC36  F02F         	call	_wr16	;wreg free
  7436  003C14  0E02               	movlw	2
  7437  003C16  EC9B  F02F         	call	_cmd_incrementn
  7438  003C1A  C037  F025         	movff	_cmd_offset,??_display_labels
  7439  003C1E  C038  F026         	movff	_cmd_offset+1,??_display_labels+1
  7440  003C22  6A27               	clrf	(??_display_labels+2)& (0+255),c
  7441  003C24  0E00               	movlw	0
  7442  003C26  2425               	addwf	??_display_labels,w,c
  7443  003C28  6E15               	movwf	wr8s@addr,c
  7444  003C2A  0E80               	movlw	128
  7445  003C2C  2026               	addwfc	??_display_labels+1,w,c
  7446  003C2E  6E16               	movwf	wr8s@addr+1,c
  7447  003C30  0E10               	movlw	16
  7448  003C32  2027               	addwfc	??_display_labels+2,w,c
  7449  003C34  6E17               	movwf	wr8s@addr+2,c
  7450  003C36  0E33               	movlw	low STR_6
  7451  003C38  6E18               	movwf	wr8s@s,c
  7452  003C3A  0E0F               	movlw	high STR_6
  7453  003C3C  6E19               	movwf	wr8s@s+1,c
  7454  003C3E  EC8D  F02D         	call	_wr8s	;wreg free
  7455  003C42  EC9B  F02F         	call	_cmd_incrementn
  7456                           
  7457                           ;display.c: 25: cmd(4294967052UL);wr16(1081344UL+cmd_offset, 5);cmd_incrementn(2);wr16(1
      +                          081344UL+cmd_offset, y_start += 15);cmd_incrementn(2);wr16(1081344UL+cmd_offset, 26);cmd
      +                          _incrementn(2);wr16(1081344UL+cmd_offset, 0);cmd_incrementn(2);cmd_incrementn(wr8s(10813
      +                          44
  7458  003C46  0E0C               	movlw	12
  7459  003C48  6E1E               	movwf	cmd@command,c
  7460  003C4A  0EFF               	movlw	255
  7461  003C4C  6E1F               	movwf	cmd@command+1,c
  7462  003C4E  0EFF               	movlw	255
  7463  003C50  6E20               	movwf	cmd@command+2,c
  7464  003C52  0EFF               	movlw	255
  7465  003C54  6E21               	movwf	cmd@command+3,c
  7466  003C56  EC54  F02F         	call	_cmd	;wreg free
  7467  003C5A  C037  F025         	movff	_cmd_offset,??_display_labels
  7468  003C5E  C038  F026         	movff	_cmd_offset+1,??_display_labels+1
  7469  003C62  6A27               	clrf	(??_display_labels+2)& (0+255),c
  7470  003C64  0E00               	movlw	0
  7471  003C66  2425               	addwf	??_display_labels,w,c
  7472  003C68  6E10               	movwf	wr16@addr,c
  7473  003C6A  0E80               	movlw	128
  7474  003C6C  2026               	addwfc	??_display_labels+1,w,c
  7475  003C6E  6E11               	movwf	wr16@addr+1,c
  7476  003C70  0E10               	movlw	16
  7477  003C72  2027               	addwfc	??_display_labels+2,w,c
  7478  003C74  6E12               	movwf	wr16@addr+2,c
  7479  003C76  0E00               	movlw	0
  7480  003C78  6E14               	movwf	wr16@value+1,c
  7481  003C7A  0E05               	movlw	5
  7482  003C7C  6E13               	movwf	wr16@value,c
  7483  003C7E  EC36  F02F         	call	_wr16	;wreg free
  7484  003C82  0E02               	movlw	2
  7485  003C84  EC9B  F02F         	call	_cmd_incrementn
  7486  003C88  C037  F025         	movff	_cmd_offset,??_display_labels
  7487  003C8C  C038  F026         	movff	_cmd_offset+1,??_display_labels+1
  7488  003C90  6A27               	clrf	(??_display_labels+2)& (0+255),c
  7489  003C92  0E00               	movlw	0
  7490  003C94  2425               	addwf	??_display_labels,w,c
  7491  003C96  6E10               	movwf	wr16@addr,c
  7492  003C98  0E80               	movlw	128
  7493  003C9A  2026               	addwfc	??_display_labels+1,w,c
  7494  003C9C  6E11               	movwf	wr16@addr+1,c
  7495  003C9E  0E10               	movlw	16
  7496  003CA0  2027               	addwfc	??_display_labels+2,w,c
  7497  003CA2  6E12               	movwf	wr16@addr+2,c
  7498  003CA4  0E0F               	movlw	15
  7499  003CA6  2628               	addwf	display_labels@y_start,f,c
  7500  003CA8  0E00               	movlw	0
  7501  003CAA  2229               	addwfc	display_labels@y_start+1,f,c
  7502  003CAC  C028  F013         	movff	display_labels@y_start,wr16@value
  7503  003CB0  C029  F014         	movff	display_labels@y_start+1,wr16@value+1
  7504  003CB4  EC36  F02F         	call	_wr16	;wreg free
  7505  003CB8  0E02               	movlw	2
  7506  003CBA  EC9B  F02F         	call	_cmd_incrementn
  7507  003CBE  C037  F025         	movff	_cmd_offset,??_display_labels
  7508  003CC2  C038  F026         	movff	_cmd_offset+1,??_display_labels+1
  7509  003CC6  6A27               	clrf	(??_display_labels+2)& (0+255),c
  7510  003CC8  0E00               	movlw	0
  7511  003CCA  2425               	addwf	??_display_labels,w,c
  7512  003CCC  6E10               	movwf	wr16@addr,c
  7513  003CCE  0E80               	movlw	128
  7514  003CD0  2026               	addwfc	??_display_labels+1,w,c
  7515  003CD2  6E11               	movwf	wr16@addr+1,c
  7516  003CD4  0E10               	movlw	16
  7517  003CD6  2027               	addwfc	??_display_labels+2,w,c
  7518  003CD8  6E12               	movwf	wr16@addr+2,c
  7519  003CDA  0E00               	movlw	0
  7520  003CDC  6E14               	movwf	wr16@value+1,c
  7521  003CDE  0E1A               	movlw	26
  7522  003CE0  6E13               	movwf	wr16@value,c
  7523  003CE2  EC36  F02F         	call	_wr16	;wreg free
  7524  003CE6  0E02               	movlw	2
  7525  003CE8  EC9B  F02F         	call	_cmd_incrementn
  7526  003CEC  C037  F025         	movff	_cmd_offset,??_display_labels
  7527  003CF0  C038  F026         	movff	_cmd_offset+1,??_display_labels+1
  7528  003CF4  6A27               	clrf	(??_display_labels+2)& (0+255),c
  7529  003CF6  0E00               	movlw	0
  7530  003CF8  2425               	addwf	??_display_labels,w,c
  7531  003CFA  6E10               	movwf	wr16@addr,c
  7532  003CFC  0E80               	movlw	128
  7533  003CFE  2026               	addwfc	??_display_labels+1,w,c
  7534  003D00  6E11               	movwf	wr16@addr+1,c
  7535  003D02  0E10               	movlw	16
  7536  003D04  2027               	addwfc	??_display_labels+2,w,c
  7537  003D06  6E12               	movwf	wr16@addr+2,c
  7538  003D08  0E00               	movlw	0
  7539  003D0A  6E14               	movwf	wr16@value+1,c
  7540  003D0C  0E00               	movlw	0
  7541  003D0E  6E13               	movwf	wr16@value,c
  7542  003D10  EC36  F02F         	call	_wr16	;wreg free
  7543  003D14  0E02               	movlw	2
  7544  003D16  EC9B  F02F         	call	_cmd_incrementn
  7545  003D1A  C037  F025         	movff	_cmd_offset,??_display_labels
  7546  003D1E  C038  F026         	movff	_cmd_offset+1,??_display_labels+1
  7547  003D22  6A27               	clrf	(??_display_labels+2)& (0+255),c
  7548  003D24  0E00               	movlw	0
  7549  003D26  2425               	addwf	??_display_labels,w,c
  7550  003D28  6E15               	movwf	wr8s@addr,c
  7551  003D2A  0E80               	movlw	128
  7552  003D2C  2026               	addwfc	??_display_labels+1,w,c
  7553  003D2E  6E16               	movwf	wr8s@addr+1,c
  7554  003D30  0E10               	movlw	16
  7555  003D32  2027               	addwfc	??_display_labels+2,w,c
  7556  003D34  6E17               	movwf	wr8s@addr+2,c
  7557  003D36  0E2E               	movlw	low STR_7
  7558  003D38  6E18               	movwf	wr8s@s,c
  7559  003D3A  0E0F               	movlw	high STR_7
  7560  003D3C  6E19               	movwf	wr8s@s+1,c
  7561  003D3E  EC8D  F02D         	call	_wr8s	;wreg free
  7562  003D42  EC9B  F02F         	call	_cmd_incrementn
  7563                           
  7564                           ;display.c: 26: cmd(4294967052UL);wr16(1081344UL+cmd_offset, 5);cmd_incrementn(2);wr16(1
      +                          081344UL+cmd_offset, y_start += 25);cmd_incrementn(2);wr16(1081344UL+cmd_offset, 26);cmd
      +                          _incrementn(2);wr16(1081344UL+cmd_offset, 0);cmd_incrementn(2);cmd_incrementn(wr8s(10813
      +                          44
  7565  003D46  0E0C               	movlw	12
  7566  003D48  6E1E               	movwf	cmd@command,c
  7567  003D4A  0EFF               	movlw	255
  7568  003D4C  6E1F               	movwf	cmd@command+1,c
  7569  003D4E  0EFF               	movlw	255
  7570  003D50  6E20               	movwf	cmd@command+2,c
  7571  003D52  0EFF               	movlw	255
  7572  003D54  6E21               	movwf	cmd@command+3,c
  7573  003D56  EC54  F02F         	call	_cmd	;wreg free
  7574  003D5A  C037  F025         	movff	_cmd_offset,??_display_labels
  7575  003D5E  C038  F026         	movff	_cmd_offset+1,??_display_labels+1
  7576  003D62  6A27               	clrf	(??_display_labels+2)& (0+255),c
  7577  003D64  0E00               	movlw	0
  7578  003D66  2425               	addwf	??_display_labels,w,c
  7579  003D68  6E10               	movwf	wr16@addr,c
  7580  003D6A  0E80               	movlw	128
  7581  003D6C  2026               	addwfc	??_display_labels+1,w,c
  7582  003D6E  6E11               	movwf	wr16@addr+1,c
  7583  003D70  0E10               	movlw	16
  7584  003D72  2027               	addwfc	??_display_labels+2,w,c
  7585  003D74  6E12               	movwf	wr16@addr+2,c
  7586  003D76  0E00               	movlw	0
  7587  003D78  6E14               	movwf	wr16@value+1,c
  7588  003D7A  0E05               	movlw	5
  7589  003D7C  6E13               	movwf	wr16@value,c
  7590  003D7E  EC36  F02F         	call	_wr16	;wreg free
  7591  003D82  0E02               	movlw	2
  7592  003D84  EC9B  F02F         	call	_cmd_incrementn
  7593  003D88  C037  F025         	movff	_cmd_offset,??_display_labels
  7594  003D8C  C038  F026         	movff	_cmd_offset+1,??_display_labels+1
  7595  003D90  6A27               	clrf	(??_display_labels+2)& (0+255),c
  7596  003D92  0E00               	movlw	0
  7597  003D94  2425               	addwf	??_display_labels,w,c
  7598  003D96  6E10               	movwf	wr16@addr,c
  7599  003D98  0E80               	movlw	128
  7600  003D9A  2026               	addwfc	??_display_labels+1,w,c
  7601  003D9C  6E11               	movwf	wr16@addr+1,c
  7602  003D9E  0E10               	movlw	16
  7603  003DA0  2027               	addwfc	??_display_labels+2,w,c
  7604  003DA2  6E12               	movwf	wr16@addr+2,c
  7605  003DA4  0E19               	movlw	25
  7606  003DA6  2628               	addwf	display_labels@y_start,f,c
  7607  003DA8  0E00               	movlw	0
  7608  003DAA  2229               	addwfc	display_labels@y_start+1,f,c
  7609  003DAC  C028  F013         	movff	display_labels@y_start,wr16@value
  7610  003DB0  C029  F014         	movff	display_labels@y_start+1,wr16@value+1
  7611  003DB4  EC36  F02F         	call	_wr16	;wreg free
  7612  003DB8  0E02               	movlw	2
  7613  003DBA  EC9B  F02F         	call	_cmd_incrementn
  7614  003DBE  C037  F025         	movff	_cmd_offset,??_display_labels
  7615  003DC2  C038  F026         	movff	_cmd_offset+1,??_display_labels+1
  7616  003DC6  6A27               	clrf	(??_display_labels+2)& (0+255),c
  7617  003DC8  0E00               	movlw	0
  7618  003DCA  2425               	addwf	??_display_labels,w,c
  7619  003DCC  6E10               	movwf	wr16@addr,c
  7620  003DCE  0E80               	movlw	128
  7621  003DD0  2026               	addwfc	??_display_labels+1,w,c
  7622  003DD2  6E11               	movwf	wr16@addr+1,c
  7623  003DD4  0E10               	movlw	16
  7624  003DD6  2027               	addwfc	??_display_labels+2,w,c
  7625  003DD8  6E12               	movwf	wr16@addr+2,c
  7626  003DDA  0E00               	movlw	0
  7627  003DDC  6E14               	movwf	wr16@value+1,c
  7628  003DDE  0E1A               	movlw	26
  7629  003DE0  6E13               	movwf	wr16@value,c
  7630  003DE2  EC36  F02F         	call	_wr16	;wreg free
  7631  003DE6  0E02               	movlw	2
  7632  003DE8  EC9B  F02F         	call	_cmd_incrementn
  7633  003DEC  C037  F025         	movff	_cmd_offset,??_display_labels
  7634  003DF0  C038  F026         	movff	_cmd_offset+1,??_display_labels+1
  7635  003DF4  6A27               	clrf	(??_display_labels+2)& (0+255),c
  7636  003DF6  0E00               	movlw	0
  7637  003DF8  2425               	addwf	??_display_labels,w,c
  7638  003DFA  6E10               	movwf	wr16@addr,c
  7639  003DFC  0E80               	movlw	128
  7640  003DFE  2026               	addwfc	??_display_labels+1,w,c
  7641  003E00  6E11               	movwf	wr16@addr+1,c
  7642  003E02  0E10               	movlw	16
  7643  003E04  2027               	addwfc	??_display_labels+2,w,c
  7644  003E06  6E12               	movwf	wr16@addr+2,c
  7645  003E08  0E00               	movlw	0
  7646  003E0A  6E14               	movwf	wr16@value+1,c
  7647  003E0C  0E00               	movlw	0
  7648  003E0E  6E13               	movwf	wr16@value,c
  7649  003E10  EC36  F02F         	call	_wr16	;wreg free
  7650  003E14  0E02               	movlw	2
  7651  003E16  EC9B  F02F         	call	_cmd_incrementn
  7652  003E1A  C037  F025         	movff	_cmd_offset,??_display_labels
  7653  003E1E  C038  F026         	movff	_cmd_offset+1,??_display_labels+1
  7654  003E22  6A27               	clrf	(??_display_labels+2)& (0+255),c
  7655  003E24  0E00               	movlw	0
  7656  003E26  2425               	addwf	??_display_labels,w,c
  7657  003E28  6E15               	movwf	wr8s@addr,c
  7658  003E2A  0E80               	movlw	128
  7659  003E2C  2026               	addwfc	??_display_labels+1,w,c
  7660  003E2E  6E16               	movwf	wr8s@addr+1,c
  7661  003E30  0E10               	movlw	16
  7662  003E32  2027               	addwfc	??_display_labels+2,w,c
  7663  003E34  6E17               	movwf	wr8s@addr+2,c
  7664  003E36  0E47               	movlw	low STR_8
  7665  003E38  6E18               	movwf	wr8s@s,c
  7666  003E3A  0E0F               	movlw	high STR_8
  7667  003E3C  6E19               	movwf	wr8s@s+1,c
  7668  003E3E  EC8D  F02D         	call	_wr8s	;wreg free
  7669  003E42  EC9B  F02F         	call	_cmd_incrementn
  7670                           
  7671                           ;display.c: 27: cmd(4294967052UL);wr16(1081344UL+cmd_offset, 5);cmd_incrementn(2);wr16(1
      +                          081344UL+cmd_offset, y_start += 15);cmd_incrementn(2);wr16(1081344UL+cmd_offset, 26);cmd
      +                          _incrementn(2);wr16(1081344UL+cmd_offset, 0);cmd_incrementn(2);cmd_incrementn(wr8s(10813
      +                          44
  7672  003E46  0E0C               	movlw	12
  7673  003E48  6E1E               	movwf	cmd@command,c
  7674  003E4A  0EFF               	movlw	255
  7675  003E4C  6E1F               	movwf	cmd@command+1,c
  7676  003E4E  0EFF               	movlw	255
  7677  003E50  6E20               	movwf	cmd@command+2,c
  7678  003E52  0EFF               	movlw	255
  7679  003E54  6E21               	movwf	cmd@command+3,c
  7680  003E56  EC54  F02F         	call	_cmd	;wreg free
  7681  003E5A  C037  F025         	movff	_cmd_offset,??_display_labels
  7682  003E5E  C038  F026         	movff	_cmd_offset+1,??_display_labels+1
  7683  003E62  6A27               	clrf	(??_display_labels+2)& (0+255),c
  7684  003E64  0E00               	movlw	0
  7685  003E66  2425               	addwf	??_display_labels,w,c
  7686  003E68  6E10               	movwf	wr16@addr,c
  7687  003E6A  0E80               	movlw	128
  7688  003E6C  2026               	addwfc	??_display_labels+1,w,c
  7689  003E6E  6E11               	movwf	wr16@addr+1,c
  7690  003E70  0E10               	movlw	16
  7691  003E72  2027               	addwfc	??_display_labels+2,w,c
  7692  003E74  6E12               	movwf	wr16@addr+2,c
  7693  003E76  0E00               	movlw	0
  7694  003E78  6E14               	movwf	wr16@value+1,c
  7695  003E7A  0E05               	movlw	5
  7696  003E7C  6E13               	movwf	wr16@value,c
  7697  003E7E  EC36  F02F         	call	_wr16	;wreg free
  7698  003E82  0E02               	movlw	2
  7699  003E84  EC9B  F02F         	call	_cmd_incrementn
  7700  003E88  C037  F025         	movff	_cmd_offset,??_display_labels
  7701  003E8C  C038  F026         	movff	_cmd_offset+1,??_display_labels+1
  7702  003E90  6A27               	clrf	(??_display_labels+2)& (0+255),c
  7703  003E92  0E00               	movlw	0
  7704  003E94  2425               	addwf	??_display_labels,w,c
  7705  003E96  6E10               	movwf	wr16@addr,c
  7706  003E98  0E80               	movlw	128
  7707  003E9A  2026               	addwfc	??_display_labels+1,w,c
  7708  003E9C  6E11               	movwf	wr16@addr+1,c
  7709  003E9E  0E10               	movlw	16
  7710  003EA0  2027               	addwfc	??_display_labels+2,w,c
  7711  003EA2  6E12               	movwf	wr16@addr+2,c
  7712  003EA4  0E0F               	movlw	15
  7713  003EA6  2628               	addwf	display_labels@y_start,f,c
  7714  003EA8  0E00               	movlw	0
  7715  003EAA  2229               	addwfc	display_labels@y_start+1,f,c
  7716  003EAC  C028  F013         	movff	display_labels@y_start,wr16@value
  7717  003EB0  C029  F014         	movff	display_labels@y_start+1,wr16@value+1
  7718  003EB4  EC36  F02F         	call	_wr16	;wreg free
  7719  003EB8  0E02               	movlw	2
  7720  003EBA  EC9B  F02F         	call	_cmd_incrementn
  7721  003EBE  C037  F025         	movff	_cmd_offset,??_display_labels
  7722  003EC2  C038  F026         	movff	_cmd_offset+1,??_display_labels+1
  7723  003EC6  6A27               	clrf	(??_display_labels+2)& (0+255),c
  7724  003EC8  0E00               	movlw	0
  7725  003ECA  2425               	addwf	??_display_labels,w,c
  7726  003ECC  6E10               	movwf	wr16@addr,c
  7727  003ECE  0E80               	movlw	128
  7728  003ED0  2026               	addwfc	??_display_labels+1,w,c
  7729  003ED2  6E11               	movwf	wr16@addr+1,c
  7730  003ED4  0E10               	movlw	16
  7731  003ED6  2027               	addwfc	??_display_labels+2,w,c
  7732  003ED8  6E12               	movwf	wr16@addr+2,c
  7733  003EDA  0E00               	movlw	0
  7734  003EDC  6E14               	movwf	wr16@value+1,c
  7735  003EDE  0E1A               	movlw	26
  7736  003EE0  6E13               	movwf	wr16@value,c
  7737  003EE2  EC36  F02F         	call	_wr16	;wreg free
  7738  003EE6  0E02               	movlw	2
  7739  003EE8  EC9B  F02F         	call	_cmd_incrementn
  7740  003EEC  C037  F025         	movff	_cmd_offset,??_display_labels
  7741  003EF0  C038  F026         	movff	_cmd_offset+1,??_display_labels+1
  7742  003EF4  6A27               	clrf	(??_display_labels+2)& (0+255),c
  7743  003EF6  0E00               	movlw	0
  7744  003EF8  2425               	addwf	??_display_labels,w,c
  7745  003EFA  6E10               	movwf	wr16@addr,c
  7746  003EFC  0E80               	movlw	128
  7747  003EFE  2026               	addwfc	??_display_labels+1,w,c
  7748  003F00  6E11               	movwf	wr16@addr+1,c
  7749  003F02  0E10               	movlw	16
  7750  003F04  2027               	addwfc	??_display_labels+2,w,c
  7751  003F06  6E12               	movwf	wr16@addr+2,c
  7752  003F08  0E00               	movlw	0
  7753  003F0A  6E14               	movwf	wr16@value+1,c
  7754  003F0C  0E00               	movlw	0
  7755  003F0E  6E13               	movwf	wr16@value,c
  7756  003F10  EC36  F02F         	call	_wr16	;wreg free
  7757  003F14  0E02               	movlw	2
  7758  003F16  EC9B  F02F         	call	_cmd_incrementn
  7759  003F1A  C037  F025         	movff	_cmd_offset,??_display_labels
  7760  003F1E  C038  F026         	movff	_cmd_offset+1,??_display_labels+1
  7761  003F22  6A27               	clrf	(??_display_labels+2)& (0+255),c
  7762  003F24  0E00               	movlw	0
  7763  003F26  2425               	addwf	??_display_labels,w,c
  7764  003F28  6E15               	movwf	wr8s@addr,c
  7765  003F2A  0E80               	movlw	128
  7766  003F2C  2026               	addwfc	??_display_labels+1,w,c
  7767  003F2E  6E16               	movwf	wr8s@addr+1,c
  7768  003F30  0E10               	movlw	16
  7769  003F32  2027               	addwfc	??_display_labels+2,w,c
  7770  003F34  6E17               	movwf	wr8s@addr+2,c
  7771  003F36  0E22               	movlw	low STR_9
  7772  003F38  6E18               	movwf	wr8s@s,c
  7773  003F3A  0E0F               	movlw	high STR_9
  7774  003F3C  6E19               	movwf	wr8s@s+1,c
  7775  003F3E  EC8D  F02D         	call	_wr8s	;wreg free
  7776  003F42  EC9B  F02F         	call	_cmd_incrementn
  7777                           
  7778                           ;display.c: 28: cmd(4294967052UL);wr16(1081344UL+cmd_offset, 5);cmd_incrementn(2);wr16(1
      +                          081344UL+cmd_offset, y_start += 25);cmd_incrementn(2);wr16(1081344UL+cmd_offset, 26);cmd
      +                          _incrementn(2);wr16(1081344UL+cmd_offset, 0);cmd_incrementn(2);cmd_incrementn(wr8s(10813
      +                          44
  7779  003F46  0E0C               	movlw	12
  7780  003F48  6E1E               	movwf	cmd@command,c
  7781  003F4A  0EFF               	movlw	255
  7782  003F4C  6E1F               	movwf	cmd@command+1,c
  7783  003F4E  0EFF               	movlw	255
  7784  003F50  6E20               	movwf	cmd@command+2,c
  7785  003F52  0EFF               	movlw	255
  7786  003F54  6E21               	movwf	cmd@command+3,c
  7787  003F56  EC54  F02F         	call	_cmd	;wreg free
  7788  003F5A  C037  F025         	movff	_cmd_offset,??_display_labels
  7789  003F5E  C038  F026         	movff	_cmd_offset+1,??_display_labels+1
  7790  003F62  6A27               	clrf	(??_display_labels+2)& (0+255),c
  7791  003F64  0E00               	movlw	0
  7792  003F66  2425               	addwf	??_display_labels,w,c
  7793  003F68  6E10               	movwf	wr16@addr,c
  7794  003F6A  0E80               	movlw	128
  7795  003F6C  2026               	addwfc	??_display_labels+1,w,c
  7796  003F6E  6E11               	movwf	wr16@addr+1,c
  7797  003F70  0E10               	movlw	16
  7798  003F72  2027               	addwfc	??_display_labels+2,w,c
  7799  003F74  6E12               	movwf	wr16@addr+2,c
  7800  003F76  0E00               	movlw	0
  7801  003F78  6E14               	movwf	wr16@value+1,c
  7802  003F7A  0E05               	movlw	5
  7803  003F7C  6E13               	movwf	wr16@value,c
  7804  003F7E  EC36  F02F         	call	_wr16	;wreg free
  7805  003F82  0E02               	movlw	2
  7806  003F84  EC9B  F02F         	call	_cmd_incrementn
  7807  003F88  C037  F025         	movff	_cmd_offset,??_display_labels
  7808  003F8C  C038  F026         	movff	_cmd_offset+1,??_display_labels+1
  7809  003F90  6A27               	clrf	(??_display_labels+2)& (0+255),c
  7810  003F92  0E00               	movlw	0
  7811  003F94  2425               	addwf	??_display_labels,w,c
  7812  003F96  6E10               	movwf	wr16@addr,c
  7813  003F98  0E80               	movlw	128
  7814  003F9A  2026               	addwfc	??_display_labels+1,w,c
  7815  003F9C  6E11               	movwf	wr16@addr+1,c
  7816  003F9E  0E10               	movlw	16
  7817  003FA0  2027               	addwfc	??_display_labels+2,w,c
  7818  003FA2  6E12               	movwf	wr16@addr+2,c
  7819  003FA4  0E19               	movlw	25
  7820  003FA6  2628               	addwf	display_labels@y_start,f,c
  7821  003FA8  0E00               	movlw	0
  7822  003FAA  2229               	addwfc	display_labels@y_start+1,f,c
  7823  003FAC  C028  F013         	movff	display_labels@y_start,wr16@value
  7824  003FB0  C029  F014         	movff	display_labels@y_start+1,wr16@value+1
  7825  003FB4  EC36  F02F         	call	_wr16	;wreg free
  7826  003FB8  0E02               	movlw	2
  7827  003FBA  EC9B  F02F         	call	_cmd_incrementn
  7828  003FBE  C037  F025         	movff	_cmd_offset,??_display_labels
  7829  003FC2  C038  F026         	movff	_cmd_offset+1,??_display_labels+1
  7830  003FC6  6A27               	clrf	(??_display_labels+2)& (0+255),c
  7831  003FC8  0E00               	movlw	0
  7832  003FCA  2425               	addwf	??_display_labels,w,c
  7833  003FCC  6E10               	movwf	wr16@addr,c
  7834  003FCE  0E80               	movlw	128
  7835  003FD0  2026               	addwfc	??_display_labels+1,w,c
  7836  003FD2  6E11               	movwf	wr16@addr+1,c
  7837  003FD4  0E10               	movlw	16
  7838  003FD6  2027               	addwfc	??_display_labels+2,w,c
  7839  003FD8  6E12               	movwf	wr16@addr+2,c
  7840  003FDA  0E00               	movlw	0
  7841  003FDC  6E14               	movwf	wr16@value+1,c
  7842  003FDE  0E1A               	movlw	26
  7843  003FE0  6E13               	movwf	wr16@value,c
  7844  003FE2  EC36  F02F         	call	_wr16	;wreg free
  7845  003FE6  0E02               	movlw	2
  7846  003FE8  EC9B  F02F         	call	_cmd_incrementn
  7847  003FEC  C037  F025         	movff	_cmd_offset,??_display_labels
  7848  003FF0  C038  F026         	movff	_cmd_offset+1,??_display_labels+1
  7849  003FF4  6A27               	clrf	(??_display_labels+2)& (0+255),c
  7850  003FF6  0E00               	movlw	0
  7851  003FF8  2425               	addwf	??_display_labels,w,c
  7852  003FFA  6E10               	movwf	wr16@addr,c
  7853  003FFC  0E80               	movlw	128
  7854  003FFE  2026               	addwfc	??_display_labels+1,w,c
  7855  004000  6E11               	movwf	wr16@addr+1,c
  7856  004002  0E10               	movlw	16
  7857  004004  2027               	addwfc	??_display_labels+2,w,c
  7858  004006  6E12               	movwf	wr16@addr+2,c
  7859  004008  0E00               	movlw	0
  7860  00400A  6E14               	movwf	wr16@value+1,c
  7861  00400C  0E00               	movlw	0
  7862  00400E  6E13               	movwf	wr16@value,c
  7863  004010  EC36  F02F         	call	_wr16	;wreg free
  7864  004014  0E02               	movlw	2
  7865  004016  EC9B  F02F         	call	_cmd_incrementn
  7866  00401A  C037  F025         	movff	_cmd_offset,??_display_labels
  7867  00401E  C038  F026         	movff	_cmd_offset+1,??_display_labels+1
  7868  004022  6A27               	clrf	(??_display_labels+2)& (0+255),c
  7869  004024  0E00               	movlw	0
  7870  004026  2425               	addwf	??_display_labels,w,c
  7871  004028  6E15               	movwf	wr8s@addr,c
  7872  00402A  0E80               	movlw	128
  7873  00402C  2026               	addwfc	??_display_labels+1,w,c
  7874  00402E  6E16               	movwf	wr8s@addr+1,c
  7875  004030  0E10               	movlw	16
  7876  004032  2027               	addwfc	??_display_labels+2,w,c
  7877  004034  6E17               	movwf	wr8s@addr+2,c
  7878  004036  0E50               	movlw	low STR_4
  7879  004038  6E18               	movwf	wr8s@s,c
  7880  00403A  0E0F               	movlw	high STR_4
  7881  00403C  6E19               	movwf	wr8s@s+1,c
  7882  00403E  EC8D  F02D         	call	_wr8s	;wreg free
  7883  004042  EC9B  F02F         	call	_cmd_incrementn
  7884                           
  7885                           ;display.c: 29: cmd(4294967052UL);wr16(1081344UL+cmd_offset, 5);cmd_incrementn(2);wr16(1
      +                          081344UL+cmd_offset, y_start += 15);cmd_incrementn(2);wr16(1081344UL+cmd_offset, 26);cmd
      +                          _incrementn(2);wr16(1081344UL+cmd_offset, 0);cmd_incrementn(2);cmd_incrementn(wr8s(10813
      +                          44
  7886  004046  0E0C               	movlw	12
  7887  004048  6E1E               	movwf	cmd@command,c
  7888  00404A  0EFF               	movlw	255
  7889  00404C  6E1F               	movwf	cmd@command+1,c
  7890  00404E  0EFF               	movlw	255
  7891  004050  6E20               	movwf	cmd@command+2,c
  7892  004052  0EFF               	movlw	255
  7893  004054  6E21               	movwf	cmd@command+3,c
  7894  004056  EC54  F02F         	call	_cmd	;wreg free
  7895  00405A  C037  F025         	movff	_cmd_offset,??_display_labels
  7896  00405E  C038  F026         	movff	_cmd_offset+1,??_display_labels+1
  7897  004062  6A27               	clrf	(??_display_labels+2)& (0+255),c
  7898  004064  0E00               	movlw	0
  7899  004066  2425               	addwf	??_display_labels,w,c
  7900  004068  6E10               	movwf	wr16@addr,c
  7901  00406A  0E80               	movlw	128
  7902  00406C  2026               	addwfc	??_display_labels+1,w,c
  7903  00406E  6E11               	movwf	wr16@addr+1,c
  7904  004070  0E10               	movlw	16
  7905  004072  2027               	addwfc	??_display_labels+2,w,c
  7906  004074  6E12               	movwf	wr16@addr+2,c
  7907  004076  0E00               	movlw	0
  7908  004078  6E14               	movwf	wr16@value+1,c
  7909  00407A  0E05               	movlw	5
  7910  00407C  6E13               	movwf	wr16@value,c
  7911  00407E  EC36  F02F         	call	_wr16	;wreg free
  7912  004082  0E02               	movlw	2
  7913  004084  EC9B  F02F         	call	_cmd_incrementn
  7914  004088  C037  F025         	movff	_cmd_offset,??_display_labels
  7915  00408C  C038  F026         	movff	_cmd_offset+1,??_display_labels+1
  7916  004090  6A27               	clrf	(??_display_labels+2)& (0+255),c
  7917  004092  0E00               	movlw	0
  7918  004094  2425               	addwf	??_display_labels,w,c
  7919  004096  6E10               	movwf	wr16@addr,c
  7920  004098  0E80               	movlw	128
  7921  00409A  2026               	addwfc	??_display_labels+1,w,c
  7922  00409C  6E11               	movwf	wr16@addr+1,c
  7923  00409E  0E10               	movlw	16
  7924  0040A0  2027               	addwfc	??_display_labels+2,w,c
  7925  0040A2  6E12               	movwf	wr16@addr+2,c
  7926  0040A4  0E0F               	movlw	15
  7927  0040A6  2628               	addwf	display_labels@y_start,f,c
  7928  0040A8  0E00               	movlw	0
  7929  0040AA  2229               	addwfc	display_labels@y_start+1,f,c
  7930  0040AC  C028  F013         	movff	display_labels@y_start,wr16@value
  7931  0040B0  C029  F014         	movff	display_labels@y_start+1,wr16@value+1
  7932  0040B4  EC36  F02F         	call	_wr16	;wreg free
  7933  0040B8  0E02               	movlw	2
  7934  0040BA  EC9B  F02F         	call	_cmd_incrementn
  7935  0040BE  C037  F025         	movff	_cmd_offset,??_display_labels
  7936  0040C2  C038  F026         	movff	_cmd_offset+1,??_display_labels+1
  7937  0040C6  6A27               	clrf	(??_display_labels+2)& (0+255),c
  7938  0040C8  0E00               	movlw	0
  7939  0040CA  2425               	addwf	??_display_labels,w,c
  7940  0040CC  6E10               	movwf	wr16@addr,c
  7941  0040CE  0E80               	movlw	128
  7942  0040D0  2026               	addwfc	??_display_labels+1,w,c
  7943  0040D2  6E11               	movwf	wr16@addr+1,c
  7944  0040D4  0E10               	movlw	16
  7945  0040D6  2027               	addwfc	??_display_labels+2,w,c
  7946  0040D8  6E12               	movwf	wr16@addr+2,c
  7947  0040DA  0E00               	movlw	0
  7948  0040DC  6E14               	movwf	wr16@value+1,c
  7949  0040DE  0E1A               	movlw	26
  7950  0040E0  6E13               	movwf	wr16@value,c
  7951  0040E2  EC36  F02F         	call	_wr16	;wreg free
  7952  0040E6  0E02               	movlw	2
  7953  0040E8  EC9B  F02F         	call	_cmd_incrementn
  7954  0040EC  C037  F025         	movff	_cmd_offset,??_display_labels
  7955  0040F0  C038  F026         	movff	_cmd_offset+1,??_display_labels+1
  7956  0040F4  6A27               	clrf	(??_display_labels+2)& (0+255),c
  7957  0040F6  0E00               	movlw	0
  7958  0040F8  2425               	addwf	??_display_labels,w,c
  7959  0040FA  6E10               	movwf	wr16@addr,c
  7960  0040FC  0E80               	movlw	128
  7961  0040FE  2026               	addwfc	??_display_labels+1,w,c
  7962  004100  6E11               	movwf	wr16@addr+1,c
  7963  004102  0E10               	movlw	16
  7964  004104  2027               	addwfc	??_display_labels+2,w,c
  7965  004106  6E12               	movwf	wr16@addr+2,c
  7966  004108  0E00               	movlw	0
  7967  00410A  6E14               	movwf	wr16@value+1,c
  7968  00410C  0E00               	movlw	0
  7969  00410E  6E13               	movwf	wr16@value,c
  7970  004110  EC36  F02F         	call	_wr16	;wreg free
  7971  004114  0E02               	movlw	2
  7972  004116  EC9B  F02F         	call	_cmd_incrementn
  7973  00411A  C037  F025         	movff	_cmd_offset,??_display_labels
  7974  00411E  C038  F026         	movff	_cmd_offset+1,??_display_labels+1
  7975  004122  6A27               	clrf	(??_display_labels+2)& (0+255),c
  7976  004124  0E00               	movlw	0
  7977  004126  2425               	addwf	??_display_labels,w,c
  7978  004128  6E15               	movwf	wr8s@addr,c
  7979  00412A  0E80               	movlw	128
  7980  00412C  2026               	addwfc	??_display_labels+1,w,c
  7981  00412E  6E16               	movwf	wr8s@addr+1,c
  7982  004130  0E10               	movlw	16
  7983  004132  2027               	addwfc	??_display_labels+2,w,c
  7984  004134  6E17               	movwf	wr8s@addr+2,c
  7985  004136  0E1C               	movlw	low STR_11
  7986  004138  6E18               	movwf	wr8s@s,c
  7987  00413A  0E0F               	movlw	high STR_11
  7988  00413C  6E19               	movwf	wr8s@s+1,c
  7989  00413E  EC8D  F02D         	call	_wr8s	;wreg free
  7990  004142  EC9B  F02F         	call	_cmd_incrementn
  7991                           
  7992                           ;display.c: 30: cmd(4294967052UL);wr16(1081344UL+cmd_offset, 360);cmd_incrementn(2);wr16
      +                          (1081344UL+cmd_offset, 130);cmd_incrementn(2);wr16(1081344UL+cmd_offset, 26);cmd_increme
      +                          ntn(2);wr16(1081344UL+cmd_offset, 0);cmd_incrementn(2);cmd_incrementn(wr8s(1081344UL+cmd
      +                          _o
  7993  004146  0E0C               	movlw	12
  7994  004148  6E1E               	movwf	cmd@command,c
  7995  00414A  0EFF               	movlw	255
  7996  00414C  6E1F               	movwf	cmd@command+1,c
  7997  00414E  0EFF               	movlw	255
  7998  004150  6E20               	movwf	cmd@command+2,c
  7999  004152  0EFF               	movlw	255
  8000  004154  6E21               	movwf	cmd@command+3,c
  8001  004156  EC54  F02F         	call	_cmd	;wreg free
  8002  00415A  C037  F025         	movff	_cmd_offset,??_display_labels
  8003  00415E  C038  F026         	movff	_cmd_offset+1,??_display_labels+1
  8004  004162  6A27               	clrf	(??_display_labels+2)& (0+255),c
  8005  004164  0E00               	movlw	0
  8006  004166  2425               	addwf	??_display_labels,w,c
  8007  004168  6E10               	movwf	wr16@addr,c
  8008  00416A  0E80               	movlw	128
  8009  00416C  2026               	addwfc	??_display_labels+1,w,c
  8010  00416E  6E11               	movwf	wr16@addr+1,c
  8011  004170  0E10               	movlw	16
  8012  004172  2027               	addwfc	??_display_labels+2,w,c
  8013  004174  6E12               	movwf	wr16@addr+2,c
  8014  004176  0E01               	movlw	1
  8015  004178  6E14               	movwf	wr16@value+1,c
  8016  00417A  0E68               	movlw	104
  8017  00417C  6E13               	movwf	wr16@value,c
  8018  00417E  EC36  F02F         	call	_wr16	;wreg free
  8019  004182  0E02               	movlw	2
  8020  004184  EC9B  F02F         	call	_cmd_incrementn
  8021  004188  C037  F025         	movff	_cmd_offset,??_display_labels
  8022  00418C  C038  F026         	movff	_cmd_offset+1,??_display_labels+1
  8023  004190  6A27               	clrf	(??_display_labels+2)& (0+255),c
  8024  004192  0E00               	movlw	0
  8025  004194  2425               	addwf	??_display_labels,w,c
  8026  004196  6E10               	movwf	wr16@addr,c
  8027  004198  0E80               	movlw	128
  8028  00419A  2026               	addwfc	??_display_labels+1,w,c
  8029  00419C  6E11               	movwf	wr16@addr+1,c
  8030  00419E  0E10               	movlw	16
  8031  0041A0  2027               	addwfc	??_display_labels+2,w,c
  8032  0041A2  6E12               	movwf	wr16@addr+2,c
  8033  0041A4  0E00               	movlw	0
  8034  0041A6  6E14               	movwf	wr16@value+1,c
  8035  0041A8  0E82               	movlw	130
  8036  0041AA  6E13               	movwf	wr16@value,c
  8037  0041AC  EC36  F02F         	call	_wr16	;wreg free
  8038  0041B0  0E02               	movlw	2
  8039  0041B2  EC9B  F02F         	call	_cmd_incrementn
  8040  0041B6  C037  F025         	movff	_cmd_offset,??_display_labels
  8041  0041BA  C038  F026         	movff	_cmd_offset+1,??_display_labels+1
  8042  0041BE  6A27               	clrf	(??_display_labels+2)& (0+255),c
  8043  0041C0  0E00               	movlw	0
  8044  0041C2  2425               	addwf	??_display_labels,w,c
  8045  0041C4  6E10               	movwf	wr16@addr,c
  8046  0041C6  0E80               	movlw	128
  8047  0041C8  2026               	addwfc	??_display_labels+1,w,c
  8048  0041CA  6E11               	movwf	wr16@addr+1,c
  8049  0041CC  0E10               	movlw	16
  8050  0041CE  2027               	addwfc	??_display_labels+2,w,c
  8051  0041D0  6E12               	movwf	wr16@addr+2,c
  8052  0041D2  0E00               	movlw	0
  8053  0041D4  6E14               	movwf	wr16@value+1,c
  8054  0041D6  0E1A               	movlw	26
  8055  0041D8  6E13               	movwf	wr16@value,c
  8056  0041DA  EC36  F02F         	call	_wr16	;wreg free
  8057  0041DE  0E02               	movlw	2
  8058  0041E0  EC9B  F02F         	call	_cmd_incrementn
  8059  0041E4  C037  F025         	movff	_cmd_offset,??_display_labels
  8060  0041E8  C038  F026         	movff	_cmd_offset+1,??_display_labels+1
  8061  0041EC  6A27               	clrf	(??_display_labels+2)& (0+255),c
  8062  0041EE  0E00               	movlw	0
  8063  0041F0  2425               	addwf	??_display_labels,w,c
  8064  0041F2  6E10               	movwf	wr16@addr,c
  8065  0041F4  0E80               	movlw	128
  8066  0041F6  2026               	addwfc	??_display_labels+1,w,c
  8067  0041F8  6E11               	movwf	wr16@addr+1,c
  8068  0041FA  0E10               	movlw	16
  8069  0041FC  2027               	addwfc	??_display_labels+2,w,c
  8070  0041FE  6E12               	movwf	wr16@addr+2,c
  8071  004200  0E00               	movlw	0
  8072  004202  6E14               	movwf	wr16@value+1,c
  8073  004204  0E00               	movlw	0
  8074  004206  6E13               	movwf	wr16@value,c
  8075  004208  EC36  F02F         	call	_wr16	;wreg free
  8076  00420C  0E02               	movlw	2
  8077  00420E  EC9B  F02F         	call	_cmd_incrementn
  8078  004212  C037  F025         	movff	_cmd_offset,??_display_labels
  8079  004216  C038  F026         	movff	_cmd_offset+1,??_display_labels+1
  8080  00421A  6A27               	clrf	(??_display_labels+2)& (0+255),c
  8081  00421C  0E00               	movlw	0
  8082  00421E  2425               	addwf	??_display_labels,w,c
  8083  004220  6E15               	movwf	wr8s@addr,c
  8084  004222  0E80               	movlw	128
  8085  004224  2026               	addwfc	??_display_labels+1,w,c
  8086  004226  6E16               	movwf	wr8s@addr+1,c
  8087  004228  0E10               	movlw	16
  8088  00422A  2027               	addwfc	??_display_labels+2,w,c
  8089  00422C  6E17               	movwf	wr8s@addr+2,c
  8090  00422E  0E10               	movlw	low STR_12
  8091  004230  6E18               	movwf	wr8s@s,c
  8092  004232  0E0F               	movlw	high STR_12
  8093  004234  6E19               	movwf	wr8s@s+1,c
  8094  004236  EC8D  F02D         	call	_wr8s	;wreg free
  8095  00423A  EC9B  F02F         	call	_cmd_incrementn
  8096                           
  8097                           ;display.c: 31: cmd(4294967052UL);wr16(1081344UL+cmd_offset, 360);cmd_incrementn(2);wr16
      +                          (1081344UL+cmd_offset, 130 + 15);cmd_incrementn(2);wr16(1081344UL+cmd_offset, 26);cmd_in
      +                          crementn(2);wr16(1081344UL+cmd_offset, 0);cmd_incrementn(2);cmd_incrementn(wr8s(1081344U
      +                          L+
  8098  00423E  0E0C               	movlw	12
  8099  004240  6E1E               	movwf	cmd@command,c
  8100  004242  0EFF               	movlw	255
  8101  004244  6E1F               	movwf	cmd@command+1,c
  8102  004246  0EFF               	movlw	255
  8103  004248  6E20               	movwf	cmd@command+2,c
  8104  00424A  0EFF               	movlw	255
  8105  00424C  6E21               	movwf	cmd@command+3,c
  8106  00424E  EC54  F02F         	call	_cmd	;wreg free
  8107  004252  C037  F025         	movff	_cmd_offset,??_display_labels
  8108  004256  C038  F026         	movff	_cmd_offset+1,??_display_labels+1
  8109  00425A  6A27               	clrf	(??_display_labels+2)& (0+255),c
  8110  00425C  0E00               	movlw	0
  8111  00425E  2425               	addwf	??_display_labels,w,c
  8112  004260  6E10               	movwf	wr16@addr,c
  8113  004262  0E80               	movlw	128
  8114  004264  2026               	addwfc	??_display_labels+1,w,c
  8115  004266  6E11               	movwf	wr16@addr+1,c
  8116  004268  0E10               	movlw	16
  8117  00426A  2027               	addwfc	??_display_labels+2,w,c
  8118  00426C  6E12               	movwf	wr16@addr+2,c
  8119  00426E  0E01               	movlw	1
  8120  004270  6E14               	movwf	wr16@value+1,c
  8121  004272  0E68               	movlw	104
  8122  004274  6E13               	movwf	wr16@value,c
  8123  004276  EC36  F02F         	call	_wr16	;wreg free
  8124  00427A  0E02               	movlw	2
  8125  00427C  EC9B  F02F         	call	_cmd_incrementn
  8126  004280  C037  F025         	movff	_cmd_offset,??_display_labels
  8127  004284  C038  F026         	movff	_cmd_offset+1,??_display_labels+1
  8128  004288  6A27               	clrf	(??_display_labels+2)& (0+255),c
  8129  00428A  0E00               	movlw	0
  8130  00428C  2425               	addwf	??_display_labels,w,c
  8131  00428E  6E10               	movwf	wr16@addr,c
  8132  004290  0E80               	movlw	128
  8133  004292  2026               	addwfc	??_display_labels+1,w,c
  8134  004294  6E11               	movwf	wr16@addr+1,c
  8135  004296  0E10               	movlw	16
  8136  004298  2027               	addwfc	??_display_labels+2,w,c
  8137  00429A  6E12               	movwf	wr16@addr+2,c
  8138  00429C  0E00               	movlw	0
  8139  00429E  6E14               	movwf	wr16@value+1,c
  8140  0042A0  0E91               	movlw	145
  8141  0042A2  6E13               	movwf	wr16@value,c
  8142  0042A4  EC36  F02F         	call	_wr16	;wreg free
  8143  0042A8  0E02               	movlw	2
  8144  0042AA  EC9B  F02F         	call	_cmd_incrementn
  8145  0042AE  C037  F025         	movff	_cmd_offset,??_display_labels
  8146  0042B2  C038  F026         	movff	_cmd_offset+1,??_display_labels+1
  8147  0042B6  6A27               	clrf	(??_display_labels+2)& (0+255),c
  8148  0042B8  0E00               	movlw	0
  8149  0042BA  2425               	addwf	??_display_labels,w,c
  8150  0042BC  6E10               	movwf	wr16@addr,c
  8151  0042BE  0E80               	movlw	128
  8152  0042C0  2026               	addwfc	??_display_labels+1,w,c
  8153  0042C2  6E11               	movwf	wr16@addr+1,c
  8154  0042C4  0E10               	movlw	16
  8155  0042C6  2027               	addwfc	??_display_labels+2,w,c
  8156  0042C8  6E12               	movwf	wr16@addr+2,c
  8157  0042CA  0E00               	movlw	0
  8158  0042CC  6E14               	movwf	wr16@value+1,c
  8159  0042CE  0E1A               	movlw	26
  8160  0042D0  6E13               	movwf	wr16@value,c
  8161  0042D2  EC36  F02F         	call	_wr16	;wreg free
  8162  0042D6  0E02               	movlw	2
  8163  0042D8  EC9B  F02F         	call	_cmd_incrementn
  8164  0042DC  C037  F025         	movff	_cmd_offset,??_display_labels
  8165  0042E0  C038  F026         	movff	_cmd_offset+1,??_display_labels+1
  8166  0042E4  6A27               	clrf	(??_display_labels+2)& (0+255),c
  8167  0042E6  0E00               	movlw	0
  8168  0042E8  2425               	addwf	??_display_labels,w,c
  8169  0042EA  6E10               	movwf	wr16@addr,c
  8170  0042EC  0E80               	movlw	128
  8171  0042EE  2026               	addwfc	??_display_labels+1,w,c
  8172  0042F0  6E11               	movwf	wr16@addr+1,c
  8173  0042F2  0E10               	movlw	16
  8174  0042F4  2027               	addwfc	??_display_labels+2,w,c
  8175  0042F6  6E12               	movwf	wr16@addr+2,c
  8176  0042F8  0E00               	movlw	0
  8177  0042FA  6E14               	movwf	wr16@value+1,c
  8178  0042FC  0E00               	movlw	0
  8179  0042FE  6E13               	movwf	wr16@value,c
  8180  004300  EC36  F02F         	call	_wr16	;wreg free
  8181  004304  0E02               	movlw	2
  8182  004306  EC9B  F02F         	call	_cmd_incrementn
  8183  00430A  C037  F025         	movff	_cmd_offset,??_display_labels
  8184  00430E  C038  F026         	movff	_cmd_offset+1,??_display_labels+1
  8185  004312  6A27               	clrf	(??_display_labels+2)& (0+255),c
  8186  004314  0E00               	movlw	0
  8187  004316  2425               	addwf	??_display_labels,w,c
  8188  004318  6E15               	movwf	wr8s@addr,c
  8189  00431A  0E80               	movlw	128
  8190  00431C  2026               	addwfc	??_display_labels+1,w,c
  8191  00431E  6E16               	movwf	wr8s@addr+1,c
  8192  004320  0E10               	movlw	16
  8193  004322  2027               	addwfc	??_display_labels+2,w,c
  8194  004324  6E17               	movwf	wr8s@addr+2,c
  8195  004326  0E4C               	movlw	low STR_13
  8196  004328  6E18               	movwf	wr8s@s,c
  8197  00432A  0E0F               	movlw	high STR_13
  8198  00432C  6E19               	movwf	wr8s@s+1,c
  8199  00432E  EC8D  F02D         	call	_wr8s	;wreg free
  8200  004332  EC9B  F02F         	call	_cmd_incrementn
  8201                           
  8202                           ;display.c: 32: cmd(4294967052UL);wr16(1081344UL+cmd_offset, 380);cmd_incrementn(2);wr16
      +                          (1081344UL+cmd_offset, 180);cmd_incrementn(2);wr16(1081344UL+cmd_offset, 26);cmd_increme
      +                          ntn(2);wr16(1081344UL+cmd_offset, 0);cmd_incrementn(2);cmd_incrementn(wr8s(1081344UL+cmd
      +                          _o
  8203  004336  0E0C               	movlw	12
  8204  004338  6E1E               	movwf	cmd@command,c
  8205  00433A  0EFF               	movlw	255
  8206  00433C  6E1F               	movwf	cmd@command+1,c
  8207  00433E  0EFF               	movlw	255
  8208  004340  6E20               	movwf	cmd@command+2,c
  8209  004342  0EFF               	movlw	255
  8210  004344  6E21               	movwf	cmd@command+3,c
  8211  004346  EC54  F02F         	call	_cmd	;wreg free
  8212  00434A  C037  F025         	movff	_cmd_offset,??_display_labels
  8213  00434E  C038  F026         	movff	_cmd_offset+1,??_display_labels+1
  8214  004352  6A27               	clrf	(??_display_labels+2)& (0+255),c
  8215  004354  0E00               	movlw	0
  8216  004356  2425               	addwf	??_display_labels,w,c
  8217  004358  6E10               	movwf	wr16@addr,c
  8218  00435A  0E80               	movlw	128
  8219  00435C  2026               	addwfc	??_display_labels+1,w,c
  8220  00435E  6E11               	movwf	wr16@addr+1,c
  8221  004360  0E10               	movlw	16
  8222  004362  2027               	addwfc	??_display_labels+2,w,c
  8223  004364  6E12               	movwf	wr16@addr+2,c
  8224  004366  0E01               	movlw	1
  8225  004368  6E14               	movwf	wr16@value+1,c
  8226  00436A  0E7C               	movlw	124
  8227  00436C  6E13               	movwf	wr16@value,c
  8228  00436E  EC36  F02F         	call	_wr16	;wreg free
  8229  004372  0E02               	movlw	2
  8230  004374  EC9B  F02F         	call	_cmd_incrementn
  8231  004378  C037  F025         	movff	_cmd_offset,??_display_labels
  8232  00437C  C038  F026         	movff	_cmd_offset+1,??_display_labels+1
  8233  004380  6A27               	clrf	(??_display_labels+2)& (0+255),c
  8234  004382  0E00               	movlw	0
  8235  004384  2425               	addwf	??_display_labels,w,c
  8236  004386  6E10               	movwf	wr16@addr,c
  8237  004388  0E80               	movlw	128
  8238  00438A  2026               	addwfc	??_display_labels+1,w,c
  8239  00438C  6E11               	movwf	wr16@addr+1,c
  8240  00438E  0E10               	movlw	16
  8241  004390  2027               	addwfc	??_display_labels+2,w,c
  8242  004392  6E12               	movwf	wr16@addr+2,c
  8243  004394  0E00               	movlw	0
  8244  004396  6E14               	movwf	wr16@value+1,c
  8245  004398  0EB4               	movlw	180
  8246  00439A  6E13               	movwf	wr16@value,c
  8247  00439C  EC36  F02F         	call	_wr16	;wreg free
  8248  0043A0  0E02               	movlw	2
  8249  0043A2  EC9B  F02F         	call	_cmd_incrementn
  8250  0043A6  C037  F025         	movff	_cmd_offset,??_display_labels
  8251  0043AA  C038  F026         	movff	_cmd_offset+1,??_display_labels+1
  8252  0043AE  6A27               	clrf	(??_display_labels+2)& (0+255),c
  8253  0043B0  0E00               	movlw	0
  8254  0043B2  2425               	addwf	??_display_labels,w,c
  8255  0043B4  6E10               	movwf	wr16@addr,c
  8256  0043B6  0E80               	movlw	128
  8257  0043B8  2026               	addwfc	??_display_labels+1,w,c
  8258  0043BA  6E11               	movwf	wr16@addr+1,c
  8259  0043BC  0E10               	movlw	16
  8260  0043BE  2027               	addwfc	??_display_labels+2,w,c
  8261  0043C0  6E12               	movwf	wr16@addr+2,c
  8262  0043C2  0E00               	movlw	0
  8263  0043C4  6E14               	movwf	wr16@value+1,c
  8264  0043C6  0E1A               	movlw	26
  8265  0043C8  6E13               	movwf	wr16@value,c
  8266  0043CA  EC36  F02F         	call	_wr16	;wreg free
  8267  0043CE  0E02               	movlw	2
  8268  0043D0  EC9B  F02F         	call	_cmd_incrementn
  8269  0043D4  C037  F025         	movff	_cmd_offset,??_display_labels
  8270  0043D8  C038  F026         	movff	_cmd_offset+1,??_display_labels+1
  8271  0043DC  6A27               	clrf	(??_display_labels+2)& (0+255),c
  8272  0043DE  0E00               	movlw	0
  8273  0043E0  2425               	addwf	??_display_labels,w,c
  8274  0043E2  6E10               	movwf	wr16@addr,c
  8275  0043E4  0E80               	movlw	128
  8276  0043E6  2026               	addwfc	??_display_labels+1,w,c
  8277  0043E8  6E11               	movwf	wr16@addr+1,c
  8278  0043EA  0E10               	movlw	16
  8279  0043EC  2027               	addwfc	??_display_labels+2,w,c
  8280  0043EE  6E12               	movwf	wr16@addr+2,c
  8281  0043F0  0E00               	movlw	0
  8282  0043F2  6E14               	movwf	wr16@value+1,c
  8283  0043F4  0E00               	movlw	0
  8284  0043F6  6E13               	movwf	wr16@value,c
  8285  0043F8  EC36  F02F         	call	_wr16	;wreg free
  8286  0043FC  0E02               	movlw	2
  8287  0043FE  EC9B  F02F         	call	_cmd_incrementn
  8288  004402  C037  F025         	movff	_cmd_offset,??_display_labels
  8289  004406  C038  F026         	movff	_cmd_offset+1,??_display_labels+1
  8290  00440A  6A27               	clrf	(??_display_labels+2)& (0+255),c
  8291  00440C  0E00               	movlw	0
  8292  00440E  2425               	addwf	??_display_labels,w,c
  8293  004410  6E15               	movwf	wr8s@addr,c
  8294  004412  0E80               	movlw	128
  8295  004414  2026               	addwfc	??_display_labels+1,w,c
  8296  004416  6E16               	movwf	wr8s@addr+1,c
  8297  004418  0E10               	movlw	16
  8298  00441A  2027               	addwfc	??_display_labels+2,w,c
  8299  00441C  6E17               	movwf	wr8s@addr+2,c
  8300  00441E  0E65               	movlw	low STR_14
  8301  004420  6E18               	movwf	wr8s@s,c
  8302  004422  0E0F               	movlw	high STR_14
  8303  004424  6E19               	movwf	wr8s@s+1,c
  8304  004426  EC8D  F02D         	call	_wr8s	;wreg free
  8305  00442A  EC9B  F02F         	call	_cmd_incrementn
  8306                           
  8307                           ;display.c: 33: cmd(4294967052UL);wr16(1081344UL+cmd_offset, 459);cmd_incrementn(2);wr16
      +                          (1081344UL+cmd_offset, 174);cmd_incrementn(2);wr16(1081344UL+cmd_offset, 28);cmd_increme
      +                          ntn(2);wr16(1081344UL+cmd_offset, 0);cmd_incrementn(2);cmd_incrementn(wr8s(1081344UL+cmd
      +                          _o
  8308  00442E  0E0C               	movlw	12
  8309  004430  6E1E               	movwf	cmd@command,c
  8310  004432  0EFF               	movlw	255
  8311  004434  6E1F               	movwf	cmd@command+1,c
  8312  004436  0EFF               	movlw	255
  8313  004438  6E20               	movwf	cmd@command+2,c
  8314  00443A  0EFF               	movlw	255
  8315  00443C  6E21               	movwf	cmd@command+3,c
  8316  00443E  EC54  F02F         	call	_cmd	;wreg free
  8317  004442  C037  F025         	movff	_cmd_offset,??_display_labels
  8318  004446  C038  F026         	movff	_cmd_offset+1,??_display_labels+1
  8319  00444A  6A27               	clrf	(??_display_labels+2)& (0+255),c
  8320  00444C  0E00               	movlw	0
  8321  00444E  2425               	addwf	??_display_labels,w,c
  8322  004450  6E10               	movwf	wr16@addr,c
  8323  004452  0E80               	movlw	128
  8324  004454  2026               	addwfc	??_display_labels+1,w,c
  8325  004456  6E11               	movwf	wr16@addr+1,c
  8326  004458  0E10               	movlw	16
  8327  00445A  2027               	addwfc	??_display_labels+2,w,c
  8328  00445C  6E12               	movwf	wr16@addr+2,c
  8329  00445E  0E01               	movlw	1
  8330  004460  6E14               	movwf	wr16@value+1,c
  8331  004462  0ECB               	movlw	203
  8332  004464  6E13               	movwf	wr16@value,c
  8333  004466  EC36  F02F         	call	_wr16	;wreg free
  8334  00446A  0E02               	movlw	2
  8335  00446C  EC9B  F02F         	call	_cmd_incrementn
  8336  004470  C037  F025         	movff	_cmd_offset,??_display_labels
  8337  004474  C038  F026         	movff	_cmd_offset+1,??_display_labels+1
  8338  004478  6A27               	clrf	(??_display_labels+2)& (0+255),c
  8339  00447A  0E00               	movlw	0
  8340  00447C  2425               	addwf	??_display_labels,w,c
  8341  00447E  6E10               	movwf	wr16@addr,c
  8342  004480  0E80               	movlw	128
  8343  004482  2026               	addwfc	??_display_labels+1,w,c
  8344  004484  6E11               	movwf	wr16@addr+1,c
  8345  004486  0E10               	movlw	16
  8346  004488  2027               	addwfc	??_display_labels+2,w,c
  8347  00448A  6E12               	movwf	wr16@addr+2,c
  8348  00448C  0E00               	movlw	0
  8349  00448E  6E14               	movwf	wr16@value+1,c
  8350  004490  0EAE               	movlw	174
  8351  004492  6E13               	movwf	wr16@value,c
  8352  004494  EC36  F02F         	call	_wr16	;wreg free
  8353  004498  0E02               	movlw	2
  8354  00449A  EC9B  F02F         	call	_cmd_incrementn
  8355  00449E  C037  F025         	movff	_cmd_offset,??_display_labels
  8356  0044A2  C038  F026         	movff	_cmd_offset+1,??_display_labels+1
  8357  0044A6  6A27               	clrf	(??_display_labels+2)& (0+255),c
  8358  0044A8  0E00               	movlw	0
  8359  0044AA  2425               	addwf	??_display_labels,w,c
  8360  0044AC  6E10               	movwf	wr16@addr,c
  8361  0044AE  0E80               	movlw	128
  8362  0044B0  2026               	addwfc	??_display_labels+1,w,c
  8363  0044B2  6E11               	movwf	wr16@addr+1,c
  8364  0044B4  0E10               	movlw	16
  8365  0044B6  2027               	addwfc	??_display_labels+2,w,c
  8366  0044B8  6E12               	movwf	wr16@addr+2,c
  8367  0044BA  0E00               	movlw	0
  8368  0044BC  6E14               	movwf	wr16@value+1,c
  8369  0044BE  0E1C               	movlw	28
  8370  0044C0  6E13               	movwf	wr16@value,c
  8371  0044C2  EC36  F02F         	call	_wr16	;wreg free
  8372  0044C6  0E02               	movlw	2
  8373  0044C8  EC9B  F02F         	call	_cmd_incrementn
  8374  0044CC  C037  F025         	movff	_cmd_offset,??_display_labels
  8375  0044D0  C038  F026         	movff	_cmd_offset+1,??_display_labels+1
  8376  0044D4  6A27               	clrf	(??_display_labels+2)& (0+255),c
  8377  0044D6  0E00               	movlw	0
  8378  0044D8  2425               	addwf	??_display_labels,w,c
  8379  0044DA  6E10               	movwf	wr16@addr,c
  8380  0044DC  0E80               	movlw	128
  8381  0044DE  2026               	addwfc	??_display_labels+1,w,c
  8382  0044E0  6E11               	movwf	wr16@addr+1,c
  8383  0044E2  0E10               	movlw	16
  8384  0044E4  2027               	addwfc	??_display_labels+2,w,c
  8385  0044E6  6E12               	movwf	wr16@addr+2,c
  8386  0044E8  0E00               	movlw	0
  8387  0044EA  6E14               	movwf	wr16@value+1,c
  8388  0044EC  0E00               	movlw	0
  8389  0044EE  6E13               	movwf	wr16@value,c
  8390  0044F0  EC36  F02F         	call	_wr16	;wreg free
  8391  0044F4  0E02               	movlw	2
  8392  0044F6  EC9B  F02F         	call	_cmd_incrementn
  8393  0044FA  C037  F025         	movff	_cmd_offset,??_display_labels
  8394  0044FE  C038  F026         	movff	_cmd_offset+1,??_display_labels+1
  8395  004502  6A27               	clrf	(??_display_labels+2)& (0+255),c
  8396  004504  0E00               	movlw	0
  8397  004506  2425               	addwf	??_display_labels,w,c
  8398  004508  6E15               	movwf	wr8s@addr,c
  8399  00450A  0E80               	movlw	128
  8400  00450C  2026               	addwfc	??_display_labels+1,w,c
  8401  00450E  6E16               	movwf	wr8s@addr+1,c
  8402  004510  0E10               	movlw	16
  8403  004512  2027               	addwfc	??_display_labels+2,w,c
  8404  004514  6E17               	movwf	wr8s@addr+2,c
  8405  004516  0E68               	movlw	low STR_15
  8406  004518  6E18               	movwf	wr8s@s,c
  8407  00451A  0E0F               	movlw	high STR_15
  8408  00451C  6E19               	movwf	wr8s@s+1,c
  8409  00451E  EC8D  F02D         	call	_wr8s	;wreg free
  8410  004522  EC9B  F02F         	call	_cmd_incrementn
  8411                           
  8412                           ;display.c: 37: cmd(((31UL<<24)|(((2UL)&15UL)<<0)));
  8413  004526  0E02               	movlw	2
  8414  004528  6E1E               	movwf	cmd@command,c
  8415  00452A  0E00               	movlw	0
  8416  00452C  6E1F               	movwf	cmd@command+1,c
  8417  00452E  0E00               	movlw	0
  8418  004530  6E20               	movwf	cmd@command+2,c
  8419  004532  0E1F               	movlw	31
  8420  004534  6E21               	movwf	cmd@command+3,c
  8421  004536  EC54  F02F         	call	_cmd	;wreg free
  8422                           
  8423                           ;display.c: 38: cmd(((4UL<<24)|(((20)&255UL)<<16)|(((20)&255UL)<<8)|(((20)&255UL)<<0)));
  8424  00453A  0E14               	movlw	20
  8425  00453C  6E1E               	movwf	cmd@command,c
  8426  00453E  0E14               	movlw	20
  8427  004540  6E1F               	movwf	cmd@command+1,c
  8428  004542  0E14               	movlw	20
  8429  004544  6E20               	movwf	cmd@command+2,c
  8430  004546  0E04               	movlw	4
  8431  004548  6E21               	movwf	cmd@command+3,c
  8432  00454A  EC54  F02F         	call	_cmd	;wreg free
  8433                           
  8434                           ;display.c: 39: cmd(((13UL<<24)|(((1750)&8191UL)<<0)));
  8435  00454E  0ED6               	movlw	214
  8436  004550  6E1E               	movwf	cmd@command,c
  8437  004552  0E06               	movlw	6
  8438  004554  6E1F               	movwf	cmd@command+1,c
  8439  004556  0E00               	movlw	0
  8440  004558  6E20               	movwf	cmd@command+2,c
  8441  00455A  0E0D               	movlw	13
  8442  00455C  6E21               	movwf	cmd@command+3,c
  8443  00455E  EC54  F02F         	call	_cmd	;wreg free
  8444                           
  8445                           ;display.c: 40: cmd(((2UL<<30)|(((240)&511UL)<<21)|(((115)&511UL)<<12)|(((0)&31UL)<<7)|(
      +                          ((0)&127UL)<<0)));
  8446  004562  0E00               	movlw	0
  8447  004564  6E1E               	movwf	cmd@command,c
  8448  004566  0E30               	movlw	48
  8449  004568  6E1F               	movwf	cmd@command+1,c
  8450  00456A  0E07               	movlw	7
  8451  00456C  6E20               	movwf	cmd@command+2,c
  8452  00456E  0E9E               	movlw	158
  8453  004570  6E21               	movwf	cmd@command+3,c
  8454  004572  EC54  F02F         	call	_cmd	;wreg free
  8455                           
  8456                           ;display.c: 41: cmd(((4UL<<24)|(((60)&255UL)<<16)|(((60)&255UL)<<8)|(((60)&255UL)<<0)));
  8457  004576  0E3C               	movlw	60
  8458  004578  6E1E               	movwf	cmd@command,c
  8459  00457A  0E3C               	movlw	60
  8460  00457C  6E1F               	movwf	cmd@command+1,c
  8461  00457E  0E3C               	movlw	60
  8462  004580  6E20               	movwf	cmd@command+2,c
  8463  004582  0E04               	movlw	4
  8464  004584  6E21               	movwf	cmd@command+3,c
  8465  004586  EC54  F02F         	call	_cmd	;wreg free
  8466                           
  8467                           ;display.c: 42: cmd(((13UL<<24)|(((1650)&8191UL)<<0)));
  8468  00458A  0E72               	movlw	114
  8469  00458C  6E1E               	movwf	cmd@command,c
  8470  00458E  0E06               	movlw	6
  8471  004590  6E1F               	movwf	cmd@command+1,c
  8472  004592  0E00               	movlw	0
  8473  004594  6E20               	movwf	cmd@command+2,c
  8474  004596  0E0D               	movlw	13
  8475  004598  6E21               	movwf	cmd@command+3,c
  8476  00459A  EC54  F02F         	call	_cmd	;wreg free
  8477                           
  8478                           ;display.c: 43: cmd(((2UL<<30)|(((240)&511UL)<<21)|(((115)&511UL)<<12)|(((0)&31UL)<<7)|(
      +                          ((0)&127UL)<<0)));
  8479  00459E  0E00               	movlw	0
  8480  0045A0  6E1E               	movwf	cmd@command,c
  8481  0045A2  0E30               	movlw	48
  8482  0045A4  6E1F               	movwf	cmd@command+1,c
  8483  0045A6  0E07               	movlw	7
  8484  0045A8  6E20               	movwf	cmd@command+2,c
  8485  0045AA  0E9E               	movlw	158
  8486  0045AC  6E21               	movwf	cmd@command+3,c
  8487  0045AE  EC54  F02F         	call	_cmd	;wreg free
  8488  0045B2  0012               	return		;funcret
  8489  0045B4                     __end_of_display_labels:
  8490                           	opt stack 0
  8491                           tblptru	equ	0xFF8
  8492                           wreg	equ	0xFE8
  8493                           status	equ	0xFD8
  8494                           
  8495 ;; *************** function _display_gear *****************
  8496 ;; Defined at:
  8497 ;;		line 171 in file "display.c"
  8498 ;; Parameters:    Size  Location     Type
  8499 ;;  gear            2   36[COMRAM] int 
  8500 ;; Auto vars:     Size  Location     Type
  8501 ;;		None
  8502 ;; Return value:  Size  Location     Type
  8503 ;;                  1    wreg      void 
  8504 ;; Registers used:
  8505 ;;		wreg, status,2, status,0, cstack
  8506 ;; Tracked objects:
  8507 ;;		On entry : 0/0
  8508 ;;		On exit  : 0/0
  8509 ;;		Unchanged: 0/0
  8510 ;; Data sizes:     COMRAM   BANK0   BANK1   BANK2   BANK3   BANK4   BANK5   BANK6   BANK7   BANK8   BANK9  BANK10  BANK1
      +1  BANK12  BANK13  BANK14
  8511 ;;      Params:         2       0       0       0       0       0       0       0       0       0       0       0       
      +0       0       0       0
  8512 ;;      Locals:         0       0       0       0       0       0       0       0       0       0       0       0       
      +0       0       0       0
  8513 ;;      Temps:          2       0       0       0       0       0       0       0       0       0       0       0       
      +0       0       0       0
  8514 ;;      Totals:         4       0       0       0       0       0       0       0       0       0       0       0       
      +0       0       0       0
  8515 ;;Total ram usage:        4 bytes
  8516 ;; Hardware stack levels used:    1
  8517 ;; Hardware stack levels required when called:    7
  8518 ;; This function calls:
  8519 ;;		_cmd
  8520 ;; This function is called by:
  8521 ;;		_main
  8522 ;; This function uses a non-reentrant model
  8523 ;;
  8524                           
  8525                           	psect	text15
  8526  0045B4                     __ptext15:
  8527                           	opt stack 0
  8528  0045B4                     _display_gear:
  8529                           	opt stack 23
  8530                           
  8531                           ;display.c: 172: cmd(((14UL<<24)|(((96)&4095UL)<<0)));
  8532                           
  8533                           ;incstack = 0
  8534  0045B4  0E60               	movlw	96
  8535  0045B6  6E1E               	movwf	cmd@command,c
  8536  0045B8  0E00               	movlw	0
  8537  0045BA  6E1F               	movwf	cmd@command+1,c
  8538  0045BC  0E00               	movlw	0
  8539  0045BE  6E20               	movwf	cmd@command+2,c
  8540  0045C0  0E0E               	movlw	14
  8541  0045C2  6E21               	movwf	cmd@command+3,c
  8542  0045C4  EC54  F02F         	call	_cmd	;wreg free
  8543                           
  8544                           ;display.c: 173: cmd(((4UL<<24)|(((202)&255UL)<<16)|(((125)&255UL)<<8)|(((0)&255UL)<<0))
      +                          );
  8545  0045C8  0E00               	movlw	0
  8546  0045CA  6E1E               	movwf	cmd@command,c
  8547  0045CC  0E7D               	movlw	125
  8548  0045CE  6E1F               	movwf	cmd@command+1,c
  8549  0045D0  0ECA               	movlw	202
  8550  0045D2  6E20               	movwf	cmd@command+2,c
  8551  0045D4  0E04               	movlw	4
  8552  0045D6  6E21               	movwf	cmd@command+3,c
  8553  0045D8  EC54  F02F         	call	_cmd	;wreg free
  8554                           
  8555                           ;display.c: 174: cmd(((31UL<<24)|(((3UL)&15UL)<<0)));
  8556  0045DC  0E03               	movlw	3
  8557  0045DE  6E1E               	movwf	cmd@command,c
  8558  0045E0  0E00               	movlw	0
  8559  0045E2  6E1F               	movwf	cmd@command+1,c
  8560  0045E4  0E00               	movlw	0
  8561  0045E6  6E20               	movwf	cmd@command+2,c
  8562  0045E8  0E1F               	movlw	31
  8563  0045EA  6E21               	movwf	cmd@command+3,c
  8564  0045EC  EC54  F02F         	call	_cmd	;wreg free
  8565                           
  8566                           ;display.c: 175: switch (gear) {
  8567  0045F0  D1FA               	goto	l3660
  8568  0045F2                     l3646:
  8569                           
  8570                           ;display.c: 177: cmd(((2UL<<30)|(((380+40)&511UL)<<21)|(((0+15)&511UL)<<12)|(((0)&31UL)<
      +                          <7)|(((0)&127UL)<<0)));
  8571  0045F2  0E00               	movlw	0
  8572  0045F4  6E1E               	movwf	cmd@command,c
  8573  0045F6  0EF0               	movlw	240
  8574  0045F8  6E1F               	movwf	cmd@command+1,c
  8575  0045FA  0E80               	movlw	128
  8576  0045FC  6E20               	movwf	cmd@command+2,c
  8577  0045FE  0EB4               	movlw	180
  8578  004600  6E21               	movwf	cmd@command+3,c
  8579  004602  EC54  F02F         	call	_cmd	;wreg free
  8580                           
  8581                           ;display.c: 178: cmd(((2UL<<30)|(((380+40)&511UL)<<21)|(((0+115)&511UL)<<12)|(((0)&31UL)
      +                          <<7)|(((0)&127UL)<<0)));
  8582  004606  0E00               	movlw	0
  8583  004608  6E1E               	movwf	cmd@command,c
  8584  00460A  0E30               	movlw	48
  8585  00460C  6E1F               	movwf	cmd@command+1,c
  8586  00460E  0E87               	movlw	135
  8587  004610  6E20               	movwf	cmd@command+2,c
  8588  004612  0EB4               	movlw	180
  8589  004614  6E21               	movwf	cmd@command+3,c
  8590  004616  EC54  F02F         	call	_cmd	;wreg free
  8591                           
  8592                           ;display.c: 179: cmd(((2UL<<30)|(((380+39)&511UL)<<21)|(((0+15)&511UL)<<12)|(((0)&31UL)<
      +                          <7)|(((0)&127UL)<<0)));
  8593  00461A  0E00               	movlw	0
  8594  00461C  6E1E               	movwf	cmd@command,c
  8595  00461E  0EF0               	movlw	240
  8596  004620  6E1F               	movwf	cmd@command+1,c
  8597  004622  0E60               	movlw	96
  8598  004624  6E20               	movwf	cmd@command+2,c
  8599  004626  0EB4               	movlw	180
  8600  004628  6E21               	movwf	cmd@command+3,c
  8601  00462A  EC54  F02F         	call	_cmd	;wreg free
  8602                           
  8603                           ;display.c: 180: cmd(((2UL<<30)|(((380+20)&511UL)<<21)|(((0+30)&511UL)<<12)|(((0)&31UL)<
      +                          <7)|(((0)&127UL)<<0)));
  8604  00462E  0E00               	movlw	0
  8605  004630  6E1E               	movwf	cmd@command,c
  8606  004632  0EE0               	movlw	224
  8607  004634  6E1F               	movwf	cmd@command+1,c
  8608  004636  0E01               	movlw	1
  8609  004638  6E20               	movwf	cmd@command+2,c
  8610  00463A  0EB2               	movlw	178
  8611  00463C  6E21               	movwf	cmd@command+3,c
  8612  00463E  EC54  F02F         	call	_cmd	;wreg free
  8613                           
  8614                           ;display.c: 181: cmd(((2UL<<30)|(((380+25)&511UL)<<21)|(((0+116)&511UL)<<12)|(((0)&31UL)
      +                          <<7)|(((0)&127UL)<<0)));
  8615  004642  0E00               	movlw	0
  8616  004644  6E1E               	movwf	cmd@command,c
  8617  004646  0E40               	movlw	64
  8618  004648  6E1F               	movwf	cmd@command+1,c
  8619  00464A  0EA7               	movlw	167
  8620  00464C  6E20               	movwf	cmd@command+2,c
  8621  00464E  0EB2               	movlw	178
  8622  004650  6E21               	movwf	cmd@command+3,c
  8623  004652  EC54  F02F         	call	_cmd	;wreg free
  8624                           
  8625                           ;display.c: 182: cmd(((2UL<<30)|(((380+55)&511UL)<<21)|(((0+116)&511UL)<<12)|(((0)&31UL)
      +                          <<7)|(((0)&127UL)<<0)));
  8626  004656  0E00               	movlw	0
  8627  004658  6E1E               	movwf	cmd@command,c
  8628  00465A  0E40               	movlw	64
  8629  00465C  6E1F               	movwf	cmd@command+1,c
  8630  00465E  0E67               	movlw	103
  8631  004660  6E20               	movwf	cmd@command+2,c
  8632  004662  0EB6               	movlw	182
  8633  004664  6E21               	movwf	cmd@command+3,c
  8634  004666  EC54  F02F         	call	_cmd	;wreg free
  8635                           
  8636                           ;display.c: 183: break;
  8637  00466A  0012               	return	
  8638  00466C                     l3648:
  8639                           
  8640                           ;display.c: 185: cmd(((2UL<<30)|(((380)&511UL)<<21)|(((0+15)&511UL)<<12)|(((0)&31UL)<<7)
      +                          |(((0)&127UL)<<0)));
  8641  00466C  0E00               	movlw	0
  8642  00466E  6E1E               	movwf	cmd@command,c
  8643  004670  0EF0               	movlw	240
  8644  004672  6E1F               	movwf	cmd@command+1,c
  8645  004674  0E80               	movlw	128
  8646  004676  6E20               	movwf	cmd@command+2,c
  8647  004678  0EAF               	movlw	175
  8648  00467A  6E21               	movwf	cmd@command+3,c
  8649  00467C  EC54  F02F         	call	_cmd	;wreg free
  8650                           
  8651                           ;display.c: 186: cmd(((2UL<<30)|(((380+80)&511UL)<<21)|(((0+15)&511UL)<<12)|(((0)&31UL)<
      +                          <7)|(((0)&127UL)<<0)));
  8652  004680  0E00               	movlw	0
  8653  004682  6E1E               	movwf	cmd@command,c
  8654  004684  0EF0               	movlw	240
  8655  004686  6E1F               	movwf	cmd@command+1,c
  8656  004688  0E80               	movlw	128
  8657  00468A  6E20               	movwf	cmd@command+2,c
  8658  00468C  0EB9               	movlw	185
  8659  00468E  6E21               	movwf	cmd@command+3,c
  8660  004690  EC54  F02F         	call	_cmd	;wreg free
  8661                           
  8662                           ;display.c: 187: cmd(((2UL<<30)|(((380+80)&511UL)<<21)|(((0+16)&511UL)<<12)|(((0)&31UL)<
      +                          <7)|(((0)&127UL)<<0)));
  8663  004694  0E00               	movlw	0
  8664  004696  6E1E               	movwf	cmd@command,c
  8665  004698  0E00               	movlw	0
  8666  00469A  6E1F               	movwf	cmd@command+1,c
  8667  00469C  0E81               	movlw	129
  8668  00469E  6E20               	movwf	cmd@command+2,c
  8669  0046A0  0EB9               	movlw	185
  8670  0046A2  6E21               	movwf	cmd@command+3,c
  8671  0046A4  EC54  F02F         	call	_cmd	;wreg free
  8672                           
  8673                           ;display.c: 188: cmd(((2UL<<30)|(((380+80)&511UL)<<21)|(((0+64)&511UL)<<12)|(((0)&31UL)<
      +                          <7)|(((0)&127UL)<<0)));
  8674  0046A8  0E00               	movlw	0
  8675  0046AA  6E1E               	movwf	cmd@command,c
  8676  0046AC  0E00               	movlw	0
  8677  0046AE  6E1F               	movwf	cmd@command+1,c
  8678  0046B0  0E84               	movlw	132
  8679  0046B2  6E20               	movwf	cmd@command+2,c
  8680  0046B4  0EB9               	movlw	185
  8681  0046B6  6E21               	movwf	cmd@command+3,c
  8682  0046B8  EC54  F02F         	call	_cmd	;wreg free
  8683                           
  8684                           ;display.c: 189: cmd(((2UL<<30)|(((380+80)&511UL)<<21)|(((0+65)&511UL)<<12)|(((0)&31UL)<
      +                          <7)|(((0)&127UL)<<0)));
  8685  0046BC  0E00               	movlw	0
  8686  0046BE  6E1E               	movwf	cmd@command,c
  8687  0046C0  0E10               	movlw	16
  8688  0046C2  6E1F               	movwf	cmd@command+1,c
  8689  0046C4  0E84               	movlw	132
  8690  0046C6  6E20               	movwf	cmd@command+2,c
  8691  0046C8  0EB9               	movlw	185
  8692  0046CA  6E21               	movwf	cmd@command+3,c
  8693  0046CC  EC54  F02F         	call	_cmd	;wreg free
  8694                           
  8695                           ;display.c: 190: cmd(((2UL<<30)|(((380)&511UL)<<21)|(((0+65)&511UL)<<12)|(((0)&31UL)<<7)
      +                          |(((0)&127UL)<<0)));
  8696  0046D0  0E00               	movlw	0
  8697  0046D2  6E1E               	movwf	cmd@command,c
  8698  0046D4  0E10               	movlw	16
  8699  0046D6  6E1F               	movwf	cmd@command+1,c
  8700  0046D8  0E84               	movlw	132
  8701  0046DA  6E20               	movwf	cmd@command+2,c
  8702  0046DC  0EAF               	movlw	175
  8703  0046DE  6E21               	movwf	cmd@command+3,c
  8704  0046E0  EC54  F02F         	call	_cmd	;wreg free
  8705                           
  8706                           ;display.c: 191: cmd(((2UL<<30)|(((380)&511UL)<<21)|(((0+66)&511UL)<<12)|(((0)&31UL)<<7)
      +                          |(((0)&127UL)<<0)));
  8707  0046E4  0E00               	movlw	0
  8708  0046E6  6E1E               	movwf	cmd@command,c
  8709  0046E8  0E20               	movlw	32
  8710  0046EA  6E1F               	movwf	cmd@command+1,c
  8711  0046EC  0E84               	movlw	132
  8712  0046EE  6E20               	movwf	cmd@command+2,c
  8713  0046F0  0EAF               	movlw	175
  8714  0046F2  6E21               	movwf	cmd@command+3,c
  8715  0046F4  EC54  F02F         	call	_cmd	;wreg free
  8716                           
  8717                           ;display.c: 192: cmd(((2UL<<30)|(((380)&511UL)<<21)|(((0+115)&511UL)<<12)|(((0)&31UL)<<7
      +                          )|(((0)&127UL)<<0)));
  8718  0046F8  0E00               	movlw	0
  8719  0046FA  6E1E               	movwf	cmd@command,c
  8720  0046FC  0E30               	movlw	48
  8721  0046FE  6E1F               	movwf	cmd@command+1,c
  8722  004700  0E87               	movlw	135
  8723  004702  6E20               	movwf	cmd@command+2,c
  8724  004704  0EAF               	movlw	175
  8725  004706  6E21               	movwf	cmd@command+3,c
  8726  004708  EC54  F02F         	call	_cmd	;wreg free
  8727                           
  8728                           ;display.c: 193: cmd(((2UL<<30)|(((380+1)&511UL)<<21)|(((0+115)&511UL)<<12)|(((0)&31UL)<
      +                          <7)|(((0)&127UL)<<0)));
  8729  00470C  0E00               	movlw	0
  8730  00470E  6E1E               	movwf	cmd@command,c
  8731  004710  0E30               	movlw	48
  8732  004712  6E1F               	movwf	cmd@command+1,c
  8733  004714  0EA7               	movlw	167
  8734  004716  6E20               	movwf	cmd@command+2,c
  8735  004718  0EAF               	movlw	175
  8736  00471A  6E21               	movwf	cmd@command+3,c
  8737  00471C  EC54  F02F         	call	_cmd	;wreg free
  8738                           
  8739                           ;display.c: 194: cmd(((2UL<<30)|(((380+80)&511UL)<<21)|(((0+115)&511UL)<<12)|(((0)&31UL)
      +                          <<7)|(((0)&127UL)<<0)));
  8740  004720  0E00               	movlw	0
  8741  004722  6E1E               	movwf	cmd@command,c
  8742  004724  0E30               	movlw	48
  8743  004726  6E1F               	movwf	cmd@command+1,c
  8744  004728  0E87               	movlw	135
  8745  00472A  6E20               	movwf	cmd@command+2,c
  8746  00472C  0EB9               	movlw	185
  8747  00472E  6E21               	movwf	cmd@command+3,c
  8748  004730  EC54  F02F         	call	_cmd	;wreg free
  8749                           
  8750                           ;display.c: 195: break;
  8751  004734  0012               	return	
  8752  004736                     l3650:
  8753                           
  8754                           ;display.c: 197: cmd(((2UL<<30)|(((380)&511UL)<<21)|(((0+15)&511UL)<<12)|(((0)&31UL)<<7)
      +                          |(((0)&127UL)<<0)));
  8755  004736  0E00               	movlw	0
  8756  004738  6E1E               	movwf	cmd@command,c
  8757  00473A  0EF0               	movlw	240
  8758  00473C  6E1F               	movwf	cmd@command+1,c
  8759  00473E  0E80               	movlw	128
  8760  004740  6E20               	movwf	cmd@command+2,c
  8761  004742  0EAF               	movlw	175
  8762  004744  6E21               	movwf	cmd@command+3,c
  8763  004746  EC54  F02F         	call	_cmd	;wreg free
  8764                           
  8765                           ;display.c: 198: cmd(((2UL<<30)|(((380+79)&511UL)<<21)|(((0+15)&511UL)<<12)|(((0)&31UL)<
      +                          <7)|(((0)&127UL)<<0)));
  8766  00474A  0E00               	movlw	0
  8767  00474C  6E1E               	movwf	cmd@command,c
  8768  00474E  0EF0               	movlw	240
  8769  004750  6E1F               	movwf	cmd@command+1,c
  8770  004752  0E60               	movlw	96
  8771  004754  6E20               	movwf	cmd@command+2,c
  8772  004756  0EB9               	movlw	185
  8773  004758  6E21               	movwf	cmd@command+3,c
  8774  00475A  EC54  F02F         	call	_cmd	;wreg free
  8775                           
  8776                           ;display.c: 199: cmd(((2UL<<30)|(((380+80)&511UL)<<21)|(((0+16)&511UL)<<12)|(((0)&31UL)<
      +                          <7)|(((0)&127UL)<<0)));
  8777  00475E  0E00               	movlw	0
  8778  004760  6E1E               	movwf	cmd@command,c
  8779  004762  0E00               	movlw	0
  8780  004764  6E1F               	movwf	cmd@command+1,c
  8781  004766  0E81               	movlw	129
  8782  004768  6E20               	movwf	cmd@command+2,c
  8783  00476A  0EB9               	movlw	185
  8784  00476C  6E21               	movwf	cmd@command+3,c
  8785  00476E  EC54  F02F         	call	_cmd	;wreg free
  8786                           
  8787                           ;display.c: 200: cmd(((2UL<<30)|(((380+80)&511UL)<<21)|(((0+115)&511UL)<<12)|(((0)&31UL)
      +                          <<7)|(((0)&127UL)<<0)));
  8788  004772  0E00               	movlw	0
  8789  004774  6E1E               	movwf	cmd@command,c
  8790  004776  0E30               	movlw	48
  8791  004778  6E1F               	movwf	cmd@command+1,c
  8792  00477A  0E87               	movlw	135
  8793  00477C  6E20               	movwf	cmd@command+2,c
  8794  00477E  0EB9               	movlw	185
  8795  004780  6E21               	movwf	cmd@command+3,c
  8796  004782  EC54  F02F         	call	_cmd	;wreg free
  8797                           
  8798                           ;display.c: 201: cmd(((2UL<<30)|(((380+79)&511UL)<<21)|(((0+65)&511UL)<<12)|(((0)&31UL)<
      +                          <7)|(((0)&127UL)<<0)));
  8799  004786  0E00               	movlw	0
  8800  004788  6E1E               	movwf	cmd@command,c
  8801  00478A  0E10               	movlw	16
  8802  00478C  6E1F               	movwf	cmd@command+1,c
  8803  00478E  0E64               	movlw	100
  8804  004790  6E20               	movwf	cmd@command+2,c
  8805  004792  0EB9               	movlw	185
  8806  004794  6E21               	movwf	cmd@command+3,c
  8807  004796  EC54  F02F         	call	_cmd	;wreg free
  8808                           
  8809                           ;display.c: 202: cmd(((2UL<<30)|(((380)&511UL)<<21)|(((0+65)&511UL)<<12)|(((0)&31UL)<<7)
      +                          |(((0)&127UL)<<0)));
  8810  00479A  0E00               	movlw	0
  8811  00479C  6E1E               	movwf	cmd@command,c
  8812  00479E  0E10               	movlw	16
  8813  0047A0  6E1F               	movwf	cmd@command+1,c
  8814  0047A2  0E84               	movlw	132
  8815  0047A4  6E20               	movwf	cmd@command+2,c
  8816  0047A6  0EAF               	movlw	175
  8817  0047A8  6E21               	movwf	cmd@command+3,c
  8818  0047AA  EC54  F02F         	call	_cmd	;wreg free
  8819                           
  8820                           ;display.c: 203: cmd(((2UL<<30)|(((380+1)&511UL)<<21)|(((0+115)&511UL)<<12)|(((0)&31UL)<
      +                          <7)|(((0)&127UL)<<0)));
  8821  0047AE  0E00               	movlw	0
  8822  0047B0  6E1E               	movwf	cmd@command,c
  8823  0047B2  0E30               	movlw	48
  8824  0047B4  6E1F               	movwf	cmd@command+1,c
  8825  0047B6  0EA7               	movlw	167
  8826  0047B8  6E20               	movwf	cmd@command+2,c
  8827  0047BA  0EAF               	movlw	175
  8828  0047BC  6E21               	movwf	cmd@command+3,c
  8829  0047BE  EC54  F02F         	call	_cmd	;wreg free
  8830                           
  8831                           ;display.c: 204: cmd(((2UL<<30)|(((380+79)&511UL)<<21)|(((0+115)&511UL)<<12)|(((0)&31UL)
      +                          <<7)|(((0)&127UL)<<0)));
  8832  0047C2  0E00               	movlw	0
  8833  0047C4  6E1E               	movwf	cmd@command,c
  8834  0047C6  0E30               	movlw	48
  8835  0047C8  6E1F               	movwf	cmd@command+1,c
  8836  0047CA  0E67               	movlw	103
  8837  0047CC  6E20               	movwf	cmd@command+2,c
  8838  0047CE  0EB9               	movlw	185
  8839  0047D0  6E21               	movwf	cmd@command+3,c
  8840  0047D2  EC54  F02F         	call	_cmd	;wreg free
  8841                           
  8842                           ;display.c: 205: break;
  8843  0047D6  0012               	return	
  8844  0047D8                     l3652:
  8845                           
  8846                           ;display.c: 207: cmd(((2UL<<30)|(((380)&511UL)<<21)|(((0+15)&511UL)<<12)|(((0)&31UL)<<7)
      +                          |(((0)&127UL)<<0)));
  8847  0047D8  0E00               	movlw	0
  8848  0047DA  6E1E               	movwf	cmd@command,c
  8849  0047DC  0EF0               	movlw	240
  8850  0047DE  6E1F               	movwf	cmd@command+1,c
  8851  0047E0  0E80               	movlw	128
  8852  0047E2  6E20               	movwf	cmd@command+2,c
  8853  0047E4  0EAF               	movlw	175
  8854  0047E6  6E21               	movwf	cmd@command+3,c
  8855  0047E8  EC54  F02F         	call	_cmd	;wreg free
  8856                           
  8857                           ;display.c: 208: cmd(((2UL<<30)|(((380)&511UL)<<21)|(((0+64)&511UL)<<12)|(((0)&31UL)<<7)
      +                          |(((0)&127UL)<<0)));
  8858  0047EC  0E00               	movlw	0
  8859  0047EE  6E1E               	movwf	cmd@command,c
  8860  0047F0  0E00               	movlw	0
  8861  0047F2  6E1F               	movwf	cmd@command+1,c
  8862  0047F4  0E84               	movlw	132
  8863  0047F6  6E20               	movwf	cmd@command+2,c
  8864  0047F8  0EAF               	movlw	175
  8865  0047FA  6E21               	movwf	cmd@command+3,c
  8866  0047FC  EC54  F02F         	call	_cmd	;wreg free
  8867                           
  8868                           ;display.c: 209: cmd(((2UL<<30)|(((380+80)&511UL)<<21)|(((0+16)&511UL)<<12)|(((0)&31UL)<
      +                          <7)|(((0)&127UL)<<0)));
  8869  004800  0E00               	movlw	0
  8870  004802  6E1E               	movwf	cmd@command,c
  8871  004804  0E00               	movlw	0
  8872  004806  6E1F               	movwf	cmd@command+1,c
  8873  004808  0E81               	movlw	129
  8874  00480A  6E20               	movwf	cmd@command+2,c
  8875  00480C  0EB9               	movlw	185
  8876  00480E  6E21               	movwf	cmd@command+3,c
  8877  004810  EC54  F02F         	call	_cmd	;wreg free
  8878                           
  8879                           ;display.c: 210: cmd(((2UL<<30)|(((380+80)&511UL)<<21)|(((0+115)&511UL)<<12)|(((0)&31UL)
      +                          <<7)|(((0)&127UL)<<0)));
  8880  004814  0E00               	movlw	0
  8881  004816  6E1E               	movwf	cmd@command,c
  8882  004818  0E30               	movlw	48
  8883  00481A  6E1F               	movwf	cmd@command+1,c
  8884  00481C  0E87               	movlw	135
  8885  00481E  6E20               	movwf	cmd@command+2,c
  8886  004820  0EB9               	movlw	185
  8887  004822  6E21               	movwf	cmd@command+3,c
  8888  004824  EC54  F02F         	call	_cmd	;wreg free
  8889                           
  8890                           ;display.c: 211: cmd(((2UL<<30)|(((380+77)&511UL)<<21)|(((0+65)&511UL)<<12)|(((0)&31UL)<
      +                          <7)|(((0)&127UL)<<0)));
  8891  004828  0E00               	movlw	0
  8892  00482A  6E1E               	movwf	cmd@command,c
  8893  00482C  0E10               	movlw	16
  8894  00482E  6E1F               	movwf	cmd@command+1,c
  8895  004830  0E24               	movlw	36
  8896  004832  6E20               	movwf	cmd@command+2,c
  8897  004834  0EB9               	movlw	185
  8898  004836  6E21               	movwf	cmd@command+3,c
  8899  004838  EC54  F02F         	call	_cmd	;wreg free
  8900                           
  8901                           ;display.c: 212: cmd(((2UL<<30)|(((380+1)&511UL)<<21)|(((0+65)&511UL)<<12)|(((0)&31UL)<<
      +                          7)|(((0)&127UL)<<0)));
  8902  00483C  0E00               	movlw	0
  8903  00483E  6E1E               	movwf	cmd@command,c
  8904  004840  0E10               	movlw	16
  8905  004842  6E1F               	movwf	cmd@command+1,c
  8906  004844  0EA4               	movlw	164
  8907  004846  6E20               	movwf	cmd@command+2,c
  8908  004848  0EAF               	movlw	175
  8909  00484A  6E21               	movwf	cmd@command+3,c
  8910  00484C  EC54  F02F         	call	_cmd	;wreg free
  8911                           
  8912                           ;display.c: 213: break;
  8913  004850  0012               	return	
  8914  004852                     l3654:
  8915                           
  8916                           ;display.c: 215: cmd(((2UL<<30)|(((380)&511UL)<<21)|(((0+15)&511UL)<<12)|(((0)&31UL)<<7)
      +                          |(((0)&127UL)<<0)));
  8917  004852  0E00               	movlw	0
  8918  004854  6E1E               	movwf	cmd@command,c
  8919  004856  0EF0               	movlw	240
  8920  004858  6E1F               	movwf	cmd@command+1,c
  8921  00485A  0E80               	movlw	128
  8922  00485C  6E20               	movwf	cmd@command+2,c
  8923  00485E  0EAF               	movlw	175
  8924  004860  6E21               	movwf	cmd@command+3,c
  8925  004862  EC54  F02F         	call	_cmd	;wreg free
  8926                           
  8927                           ;display.c: 216: cmd(((2UL<<30)|(((380+79)&511UL)<<21)|(((0+15)&511UL)<<12)|(((0)&31UL)<
      +                          <7)|(((0)&127UL)<<0)));
  8928  004866  0E00               	movlw	0
  8929  004868  6E1E               	movwf	cmd@command,c
  8930  00486A  0EF0               	movlw	240
  8931  00486C  6E1F               	movwf	cmd@command+1,c
  8932  00486E  0E60               	movlw	96
  8933  004870  6E20               	movwf	cmd@command+2,c
  8934  004872  0EB9               	movlw	185
  8935  004874  6E21               	movwf	cmd@command+3,c
  8936  004876  EC54  F02F         	call	_cmd	;wreg free
  8937                           
  8938                           ;display.c: 217: cmd(((2UL<<30)|(((380)&511UL)<<21)|(((0+16)&511UL)<<12)|(((0)&31UL)<<7)
      +                          |(((0)&127UL)<<0)));
  8939  00487A  0E00               	movlw	0
  8940  00487C  6E1E               	movwf	cmd@command,c
  8941  00487E  0E00               	movlw	0
  8942  004880  6E1F               	movwf	cmd@command+1,c
  8943  004882  0E81               	movlw	129
  8944  004884  6E20               	movwf	cmd@command+2,c
  8945  004886  0EAF               	movlw	175
  8946  004888  6E21               	movwf	cmd@command+3,c
  8947  00488A  EC54  F02F         	call	_cmd	;wreg free
  8948                           
  8949                           ;display.c: 218: cmd(((2UL<<30)|(((380)&511UL)<<21)|(((0+64)&511UL)<<12)|(((0)&31UL)<<7)
      +                          |(((0)&127UL)<<0)));
  8950  00488E  0E00               	movlw	0
  8951  004890  6E1E               	movwf	cmd@command,c
  8952  004892  0E00               	movlw	0
  8953  004894  6E1F               	movwf	cmd@command+1,c
  8954  004896  0E84               	movlw	132
  8955  004898  6E20               	movwf	cmd@command+2,c
  8956  00489A  0EAF               	movlw	175
  8957  00489C  6E21               	movwf	cmd@command+3,c
  8958  00489E  EC54  F02F         	call	_cmd	;wreg free
  8959                           
  8960                           ;display.c: 219: cmd(((2UL<<30)|(((380+80)&511UL)<<21)|(((0+65)&511UL)<<12)|(((0)&31UL)<
      +                          <7)|(((0)&127UL)<<0)));
  8961  0048A2  0E00               	movlw	0
  8962  0048A4  6E1E               	movwf	cmd@command,c
  8963  0048A6  0E10               	movlw	16
  8964  0048A8  6E1F               	movwf	cmd@command+1,c
  8965  0048AA  0E84               	movlw	132
  8966  0048AC  6E20               	movwf	cmd@command+2,c
  8967  0048AE  0EB9               	movlw	185
  8968  0048B0  6E21               	movwf	cmd@command+3,c
  8969  0048B2  EC54  F02F         	call	_cmd	;wreg free
  8970                           
  8971                           ;display.c: 220: cmd(((2UL<<30)|(((380+80)&511UL)<<21)|(((0+114)&511UL)<<12)|(((0)&31UL)
      +                          <<7)|(((0)&127UL)<<0)));
  8972  0048B6  0E00               	movlw	0
  8973  0048B8  6E1E               	movwf	cmd@command,c
  8974  0048BA  0E20               	movlw	32
  8975  0048BC  6E1F               	movwf	cmd@command+1,c
  8976  0048BE  0E87               	movlw	135
  8977  0048C0  6E20               	movwf	cmd@command+2,c
  8978  0048C2  0EB9               	movlw	185
  8979  0048C4  6E21               	movwf	cmd@command+3,c
  8980  0048C6  EC54  F02F         	call	_cmd	;wreg free
  8981                           
  8982                           ;display.c: 221: cmd(((2UL<<30)|(((380+77)&511UL)<<21)|(((0+65)&511UL)<<12)|(((0)&31UL)<
      +                          <7)|(((0)&127UL)<<0)));
  8983  0048CA  0E00               	movlw	0
  8984  0048CC  6E1E               	movwf	cmd@command,c
  8985  0048CE  0E10               	movlw	16
  8986  0048D0  6E1F               	movwf	cmd@command+1,c
  8987  0048D2  0E24               	movlw	36
  8988  0048D4  6E20               	movwf	cmd@command+2,c
  8989  0048D6  0EB9               	movlw	185
  8990  0048D8  6E21               	movwf	cmd@command+3,c
  8991  0048DA  EC54  F02F         	call	_cmd	;wreg free
  8992                           
  8993                           ;display.c: 222: cmd(((2UL<<30)|(((380+1)&511UL)<<21)|(((0+65)&511UL)<<12)|(((0)&31UL)<<
      +                          7)|(((0)&127UL)<<0)));
  8994  0048DE  0E00               	movlw	0
  8995  0048E0  6E1E               	movwf	cmd@command,c
  8996  0048E2  0E10               	movlw	16
  8997  0048E4  6E1F               	movwf	cmd@command+1,c
  8998  0048E6  0EA4               	movlw	164
  8999  0048E8  6E20               	movwf	cmd@command+2,c
  9000  0048EA  0EAF               	movlw	175
  9001  0048EC  6E21               	movwf	cmd@command+3,c
  9002  0048EE  EC54  F02F         	call	_cmd	;wreg free
  9003                           
  9004                           ;display.c: 223: cmd(((2UL<<30)|(((380+1)&511UL)<<21)|(((0+115)&511UL)<<12)|(((0)&31UL)<
      +                          <7)|(((0)&127UL)<<0)));
  9005  0048F2  0E00               	movlw	0
  9006  0048F4  6E1E               	movwf	cmd@command,c
  9007  0048F6  0E30               	movlw	48
  9008  0048F8  6E1F               	movwf	cmd@command+1,c
  9009  0048FA  0EA7               	movlw	167
  9010  0048FC  6E20               	movwf	cmd@command+2,c
  9011  0048FE  0EAF               	movlw	175
  9012  004900  6E21               	movwf	cmd@command+3,c
  9013  004902  EC54  F02F         	call	_cmd	;wreg free
  9014                           
  9015                           ;display.c: 224: cmd(((2UL<<30)|(((380+79)&511UL)<<21)|(((0+115)&511UL)<<12)|(((0)&31UL)
      +                          <<7)|(((0)&127UL)<<0)));
  9016  004906  0E00               	movlw	0
  9017  004908  6E1E               	movwf	cmd@command,c
  9018  00490A  0E30               	movlw	48
  9019  00490C  6E1F               	movwf	cmd@command+1,c
  9020  00490E  0E67               	movlw	103
  9021  004910  6E20               	movwf	cmd@command+2,c
  9022  004912  0EB9               	movlw	185
  9023  004914  6E21               	movwf	cmd@command+3,c
  9024  004916  EC54  F02F         	call	_cmd	;wreg free
  9025                           
  9026                           ;display.c: 225: break;
  9027  00491A  0012               	return	
  9028  00491C                     l3656:
  9029                           
  9030                           ;display.c: 227: cmd(((2UL<<30)|(((380)&511UL)<<21)|(((0+15)&511UL)<<12)|(((0)&31UL)<<7)
      +                          |(((0)&127UL)<<0)));
  9031  00491C  0E00               	movlw	0
  9032  00491E  6E1E               	movwf	cmd@command,c
  9033  004920  0EF0               	movlw	240
  9034  004922  6E1F               	movwf	cmd@command+1,c
  9035  004924  0E80               	movlw	128
  9036  004926  6E20               	movwf	cmd@command+2,c
  9037  004928  0EAF               	movlw	175
  9038  00492A  6E21               	movwf	cmd@command+3,c
  9039  00492C  EC54  F02F         	call	_cmd	;wreg free
  9040                           
  9041                           ;display.c: 228: cmd(((2UL<<30)|(((380+79)&511UL)<<21)|(((0+15)&511UL)<<12)|(((0)&31UL)<
      +                          <7)|(((0)&127UL)<<0)));
  9042  004930  0E00               	movlw	0
  9043  004932  6E1E               	movwf	cmd@command,c
  9044  004934  0EF0               	movlw	240
  9045  004936  6E1F               	movwf	cmd@command+1,c
  9046  004938  0E60               	movlw	96
  9047  00493A  6E20               	movwf	cmd@command+2,c
  9048  00493C  0EB9               	movlw	185
  9049  00493E  6E21               	movwf	cmd@command+3,c
  9050  004940  EC54  F02F         	call	_cmd	;wreg free
  9051                           
  9052                           ;display.c: 229: cmd(((2UL<<30)|(((380)&511UL)<<21)|(((0+16)&511UL)<<12)|(((0)&31UL)<<7)
      +                          |(((0)&127UL)<<0)));
  9053  004944  0E00               	movlw	0
  9054  004946  6E1E               	movwf	cmd@command,c
  9055  004948  0E00               	movlw	0
  9056  00494A  6E1F               	movwf	cmd@command+1,c
  9057  00494C  0E81               	movlw	129
  9058  00494E  6E20               	movwf	cmd@command+2,c
  9059  004950  0EAF               	movlw	175
  9060  004952  6E21               	movwf	cmd@command+3,c
  9061  004954  EC54  F02F         	call	_cmd	;wreg free
  9062                           
  9063                           ;display.c: 230: cmd(((2UL<<30)|(((380)&511UL)<<21)|(((0+115)&511UL)<<12)|(((0)&31UL)<<7
      +                          )|(((0)&127UL)<<0)));
  9064  004958  0E00               	movlw	0
  9065  00495A  6E1E               	movwf	cmd@command,c
  9066  00495C  0E30               	movlw	48
  9067  00495E  6E1F               	movwf	cmd@command+1,c
  9068  004960  0E87               	movlw	135
  9069  004962  6E20               	movwf	cmd@command+2,c
  9070  004964  0EAF               	movlw	175
  9071  004966  6E21               	movwf	cmd@command+3,c
  9072  004968  EC54  F02F         	call	_cmd	;wreg free
  9073                           
  9074                           ;display.c: 231: cmd(((2UL<<30)|(((380+80)&511UL)<<21)|(((0+65)&511UL)<<12)|(((0)&31UL)<
      +                          <7)|(((0)&127UL)<<0)));
  9075  00496C  0E00               	movlw	0
  9076  00496E  6E1E               	movwf	cmd@command,c
  9077  004970  0E10               	movlw	16
  9078  004972  6E1F               	movwf	cmd@command+1,c
  9079  004974  0E84               	movlw	132
  9080  004976  6E20               	movwf	cmd@command+2,c
  9081  004978  0EB9               	movlw	185
  9082  00497A  6E21               	movwf	cmd@command+3,c
  9083  00497C  EC54  F02F         	call	_cmd	;wreg free
  9084                           
  9085                           ;display.c: 232: cmd(((2UL<<30)|(((380+80)&511UL)<<21)|(((0+114)&511UL)<<12)|(((0)&31UL)
      +                          <<7)|(((0)&127UL)<<0)));
  9086  004980  0E00               	movlw	0
  9087  004982  6E1E               	movwf	cmd@command,c
  9088  004984  0E20               	movlw	32
  9089  004986  6E1F               	movwf	cmd@command+1,c
  9090  004988  0E87               	movlw	135
  9091  00498A  6E20               	movwf	cmd@command+2,c
  9092  00498C  0EB9               	movlw	185
  9093  00498E  6E21               	movwf	cmd@command+3,c
  9094  004990  EC54  F02F         	call	_cmd	;wreg free
  9095                           
  9096                           ;display.c: 233: cmd(((2UL<<30)|(((380+77)&511UL)<<21)|(((0+65)&511UL)<<12)|(((0)&31UL)<
      +                          <7)|(((0)&127UL)<<0)));
  9097  004994  0E00               	movlw	0
  9098  004996  6E1E               	movwf	cmd@command,c
  9099  004998  0E10               	movlw	16
  9100  00499A  6E1F               	movwf	cmd@command+1,c
  9101  00499C  0E24               	movlw	36
  9102  00499E  6E20               	movwf	cmd@command+2,c
  9103  0049A0  0EB9               	movlw	185
  9104  0049A2  6E21               	movwf	cmd@command+3,c
  9105  0049A4  EC54  F02F         	call	_cmd	;wreg free
  9106                           
  9107                           ;display.c: 234: cmd(((2UL<<30)|(((380+1)&511UL)<<21)|(((0+65)&511UL)<<12)|(((0)&31UL)<<
      +                          7)|(((0)&127UL)<<0)));
  9108  0049A8  0E00               	movlw	0
  9109  0049AA  6E1E               	movwf	cmd@command,c
  9110  0049AC  0E10               	movlw	16
  9111  0049AE  6E1F               	movwf	cmd@command+1,c
  9112  0049B0  0EA4               	movlw	164
  9113  0049B2  6E20               	movwf	cmd@command+2,c
  9114  0049B4  0EAF               	movlw	175
  9115  0049B6  6E21               	movwf	cmd@command+3,c
  9116  0049B8  EC54  F02F         	call	_cmd	;wreg free
  9117                           
  9118                           ;display.c: 235: cmd(((2UL<<30)|(((380+1)&511UL)<<21)|(((0+115)&511UL)<<12)|(((0)&31UL)<
      +                          <7)|(((0)&127UL)<<0)));
  9119  0049BC  0E00               	movlw	0
  9120  0049BE  6E1E               	movwf	cmd@command,c
  9121  0049C0  0E30               	movlw	48
  9122  0049C2  6E1F               	movwf	cmd@command+1,c
  9123  0049C4  0EA7               	movlw	167
  9124  0049C6  6E20               	movwf	cmd@command+2,c
  9125  0049C8  0EAF               	movlw	175
  9126  0049CA  6E21               	movwf	cmd@command+3,c
  9127  0049CC  EC54  F02F         	call	_cmd	;wreg free
  9128                           
  9129                           ;display.c: 236: cmd(((2UL<<30)|(((380+79)&511UL)<<21)|(((0+115)&511UL)<<12)|(((0)&31UL)
      +                          <<7)|(((0)&127UL)<<0)));
  9130  0049D0  0E00               	movlw	0
  9131  0049D2  6E1E               	movwf	cmd@command,c
  9132  0049D4  0E30               	movlw	48
  9133  0049D6  6E1F               	movwf	cmd@command+1,c
  9134  0049D8  0E67               	movlw	103
  9135  0049DA  6E20               	movwf	cmd@command+2,c
  9136  0049DC  0EB9               	movlw	185
  9137  0049DE  6E21               	movwf	cmd@command+3,c
  9138  0049E0  EC54  F02F         	call	_cmd	;wreg free
  9139                           
  9140                           ;display.c: 240: }
  9141                           
  9142                           ;display.c: 239: break;
  9143                           
  9144                           ;display.c: 238: default:
  9145                           
  9146                           ;display.c: 237: break;
  9147  0049E4  0012               	return	
  9148  0049E6                     l3660:
  9149  0049E6  C025  F027         	movff	display_gear@gear,??_display_gear
  9150  0049EA  C026  F028         	movff	display_gear@gear+1,??_display_gear+1
  9151                           
  9152                           ; Switch on 2 bytes has been partitioned into a top level switch of size 1, and 1 sub-sw
      +                          itches
  9153                           ; Switch size 1, requested type "space"
  9154                           ; Number of cases is 1, Range of values is 0 to 0
  9155                           ; switch strategies available:
  9156                           ; Name         Instructions Cycles
  9157                           ; simple_byte            4     3 (average)
  9158                           ;	Chosen strategy is simple_byte
  9159  0049EE  5028               	movf	??_display_gear+1,w,c
  9160  0049F0  0A00               	xorlw	0	; case 0
  9161  0049F2  A4D8               	btfss	status,2,c
  9162  0049F4  0012               	return	
  9163                           
  9164                           ; Switch size 1, requested type "space"
  9165                           ; Number of cases is 6, Range of values is 1 to 6
  9166                           ; switch strategies available:
  9167                           ; Name         Instructions Cycles
  9168                           ; simple_byte           19    10 (average)
  9169                           ;	Chosen strategy is simple_byte
  9170  0049F6  5027               	movf	??_display_gear,w,c
  9171  0049F8  0A01               	xorlw	1	; case 1
  9172  0049FA  B4D8               	btfsc	status,2,c
  9173  0049FC  D5FA               	goto	l3646
  9174  0049FE  0A03               	xorlw	3	; case 2
  9175  004A00  B4D8               	btfsc	status,2,c
  9176  004A02  D634               	goto	l3648
  9177  004A04  0A01               	xorlw	1	; case 3
  9178  004A06  B4D8               	btfsc	status,2,c
  9179  004A08  D696               	goto	l3650
  9180  004A0A  0A07               	xorlw	7	; case 4
  9181  004A0C  B4D8               	btfsc	status,2,c
  9182  004A0E  D6E4               	goto	l3652
  9183  004A10  0A01               	xorlw	1	; case 5
  9184  004A12  B4D8               	btfsc	status,2,c
  9185  004A14  D71E               	goto	l3654
  9186  004A16  0A03               	xorlw	3	; case 6
  9187  004A18  A4D8               	btfss	status,2,c
  9188  004A1A  0012               	return	
  9189  004A1C  D77F               	goto	l3656
  9190  004A1E                     __end_of_display_gear:
  9191                           	opt stack 0
  9192                           tblptru	equ	0xFF8
  9193                           wreg	equ	0xFE8
  9194                           status	equ	0xFD8
  9195                           
  9196 ;; *************** function _display_fuel *****************
  9197 ;; Defined at:
  9198 ;;		line 116 in file "display.c"
  9199 ;; Parameters:    Size  Location     Type
  9200 ;;  level           2   36[COMRAM] int 
  9201 ;; Auto vars:     Size  Location     Type
  9202 ;;		None
  9203 ;; Return value:  Size  Location     Type
  9204 ;;                  1    wreg      void 
  9205 ;; Registers used:
  9206 ;;		wreg, status,2, status,0, tblptrl, tblptrh, tblptru, prodl, prodh, cstack
  9207 ;; Tracked objects:
  9208 ;;		On entry : 0/0
  9209 ;;		On exit  : 0/0
  9210 ;;		Unchanged: 0/0
  9211 ;; Data sizes:     COMRAM   BANK0   BANK1   BANK2   BANK3   BANK4   BANK5   BANK6   BANK7   BANK8   BANK9  BANK10  BANK1
      +1  BANK12  BANK13  BANK14
  9212 ;;      Params:         2       0       0       0       0       0       0       0       0       0       0       0       
      +0       0       0       0
  9213 ;;      Locals:         0       0       0       0       0       0       0       0       0       0       0       0       
      +0       0       0       0
  9214 ;;      Temps:          3       0       0       0       0       0       0       0       0       0       0       0       
      +0       0       0       0
  9215 ;;      Totals:         5       0       0       0       0       0       0       0       0       0       0       0       
      +0       0       0       0
  9216 ;;Total ram usage:        5 bytes
  9217 ;; Hardware stack levels used:    1
  9218 ;; Hardware stack levels required when called:    7
  9219 ;; This function calls:
  9220 ;;		_cmd
  9221 ;;		_cmd_incrementn
  9222 ;;		_wr16
  9223 ;;		_wr8s
  9224 ;; This function is called by:
  9225 ;;		_main
  9226 ;; This function uses a non-reentrant model
  9227 ;;
  9228                           
  9229                           	psect	text16
  9230  004A1E                     __ptext16:
  9231                           	opt stack 0
  9232  004A1E                     _display_fuel:
  9233                           	opt stack 23
  9234                           
  9235                           ;display.c: 117: cmd(4294967086UL);wr16(1081344UL+cmd_offset, 66);cmd_incrementn(2);wr16
      +                          (1081344UL+cmd_offset, 89);cmd_incrementn(2);wr16(1081344UL+cmd_offset, 28);cmd_incremen
      +                          tn(2);wr16(1081344UL+cmd_offset, 0);cmd_incrementn(2);cmd(3);
  9236                           
  9237                           ;incstack = 0
  9238  004A1E  0E2E               	movlw	46
  9239  004A20  6E1E               	movwf	cmd@command,c
  9240  004A22  0EFF               	movlw	255
  9241  004A24  6E1F               	movwf	cmd@command+1,c
  9242  004A26  0EFF               	movlw	255
  9243  004A28  6E20               	movwf	cmd@command+2,c
  9244  004A2A  0EFF               	movlw	255
  9245  004A2C  6E21               	movwf	cmd@command+3,c
  9246  004A2E  EC54  F02F         	call	_cmd	;wreg free
  9247  004A32  C037  F027         	movff	_cmd_offset,??_display_fuel
  9248  004A36  C038  F028         	movff	_cmd_offset+1,??_display_fuel+1
  9249  004A3A  6A29               	clrf	(??_display_fuel+2)& (0+255),c
  9250  004A3C  0E00               	movlw	0
  9251  004A3E  2427               	addwf	??_display_fuel,w,c
  9252  004A40  6E10               	movwf	wr16@addr,c
  9253  004A42  0E80               	movlw	128
  9254  004A44  2028               	addwfc	??_display_fuel+1,w,c
  9255  004A46  6E11               	movwf	wr16@addr+1,c
  9256  004A48  0E10               	movlw	16
  9257  004A4A  2029               	addwfc	??_display_fuel+2,w,c
  9258  004A4C  6E12               	movwf	wr16@addr+2,c
  9259  004A4E  0E00               	movlw	0
  9260  004A50  6E14               	movwf	wr16@value+1,c
  9261  004A52  0E42               	movlw	66
  9262  004A54  6E13               	movwf	wr16@value,c
  9263  004A56  EC36  F02F         	call	_wr16	;wreg free
  9264  004A5A  0E02               	movlw	2
  9265  004A5C  EC9B  F02F         	call	_cmd_incrementn
  9266  004A60  C037  F027         	movff	_cmd_offset,??_display_fuel
  9267  004A64  C038  F028         	movff	_cmd_offset+1,??_display_fuel+1
  9268  004A68  6A29               	clrf	(??_display_fuel+2)& (0+255),c
  9269  004A6A  0E00               	movlw	0
  9270  004A6C  2427               	addwf	??_display_fuel,w,c
  9271  004A6E  6E10               	movwf	wr16@addr,c
  9272  004A70  0E80               	movlw	128
  9273  004A72  2028               	addwfc	??_display_fuel+1,w,c
  9274  004A74  6E11               	movwf	wr16@addr+1,c
  9275  004A76  0E10               	movlw	16
  9276  004A78  2029               	addwfc	??_display_fuel+2,w,c
  9277  004A7A  6E12               	movwf	wr16@addr+2,c
  9278  004A7C  0E00               	movlw	0
  9279  004A7E  6E14               	movwf	wr16@value+1,c
  9280  004A80  0E59               	movlw	89
  9281  004A82  6E13               	movwf	wr16@value,c
  9282  004A84  EC36  F02F         	call	_wr16	;wreg free
  9283  004A88  0E02               	movlw	2
  9284  004A8A  EC9B  F02F         	call	_cmd_incrementn
  9285  004A8E  C037  F027         	movff	_cmd_offset,??_display_fuel
  9286  004A92  C038  F028         	movff	_cmd_offset+1,??_display_fuel+1
  9287  004A96  6A29               	clrf	(??_display_fuel+2)& (0+255),c
  9288  004A98  0E00               	movlw	0
  9289  004A9A  2427               	addwf	??_display_fuel,w,c
  9290  004A9C  6E10               	movwf	wr16@addr,c
  9291  004A9E  0E80               	movlw	128
  9292  004AA0  2028               	addwfc	??_display_fuel+1,w,c
  9293  004AA2  6E11               	movwf	wr16@addr+1,c
  9294  004AA4  0E10               	movlw	16
  9295  004AA6  2029               	addwfc	??_display_fuel+2,w,c
  9296  004AA8  6E12               	movwf	wr16@addr+2,c
  9297  004AAA  0E00               	movlw	0
  9298  004AAC  6E14               	movwf	wr16@value+1,c
  9299  004AAE  0E1C               	movlw	28
  9300  004AB0  6E13               	movwf	wr16@value,c
  9301  004AB2  EC36  F02F         	call	_wr16	;wreg free
  9302  004AB6  0E02               	movlw	2
  9303  004AB8  EC9B  F02F         	call	_cmd_incrementn
  9304  004ABC  C037  F027         	movff	_cmd_offset,??_display_fuel
  9305  004AC0  C038  F028         	movff	_cmd_offset+1,??_display_fuel+1
  9306  004AC4  6A29               	clrf	(??_display_fuel+2)& (0+255),c
  9307  004AC6  0E00               	movlw	0
  9308  004AC8  2427               	addwf	??_display_fuel,w,c
  9309  004ACA  6E10               	movwf	wr16@addr,c
  9310  004ACC  0E80               	movlw	128
  9311  004ACE  2028               	addwfc	??_display_fuel+1,w,c
  9312  004AD0  6E11               	movwf	wr16@addr+1,c
  9313  004AD2  0E10               	movlw	16
  9314  004AD4  2029               	addwfc	??_display_fuel+2,w,c
  9315  004AD6  6E12               	movwf	wr16@addr+2,c
  9316  004AD8  0E00               	movlw	0
  9317  004ADA  6E14               	movwf	wr16@value+1,c
  9318  004ADC  0E00               	movlw	0
  9319  004ADE  6E13               	movwf	wr16@value,c
  9320  004AE0  EC36  F02F         	call	_wr16	;wreg free
  9321  004AE4  0E02               	movlw	2
  9322  004AE6  EC9B  F02F         	call	_cmd_incrementn
  9323  004AEA  0E03               	movlw	3
  9324  004AEC  6E1E               	movwf	cmd@command,c
  9325  004AEE  0E00               	movlw	0
  9326  004AF0  6E1F               	movwf	cmd@command+1,c
  9327  004AF2  0E00               	movlw	0
  9328  004AF4  6E20               	movwf	cmd@command+2,c
  9329  004AF6  0E00               	movlw	0
  9330  004AF8  6E21               	movwf	cmd@command+3,c
  9331  004AFA  EC54  F02F         	call	_cmd	;wreg free
  9332                           
  9333                           ;display.c: 118: cmd(4294967052UL);wr16(1081344UL+cmd_offset, 78);cmd_incrementn(2);wr16
      +                          (1081344UL+cmd_offset, 90);cmd_incrementn(2);wr16(1081344UL+cmd_offset, 28);cmd_incremen
      +                          tn(2);wr16(1081344UL+cmd_offset, 0);cmd_incrementn(2);cmd_incrementn(wr8s(1081344UL+cmd_
      +                          off
  9334  004AFE  0E0C               	movlw	12
  9335  004B00  6E1E               	movwf	cmd@command,c
  9336  004B02  0EFF               	movlw	255
  9337  004B04  6E1F               	movwf	cmd@command+1,c
  9338  004B06  0EFF               	movlw	255
  9339  004B08  6E20               	movwf	cmd@command+2,c
  9340  004B0A  0EFF               	movlw	255
  9341  004B0C  6E21               	movwf	cmd@command+3,c
  9342  004B0E  EC54  F02F         	call	_cmd	;wreg free
  9343  004B12  C037  F027         	movff	_cmd_offset,??_display_fuel
  9344  004B16  C038  F028         	movff	_cmd_offset+1,??_display_fuel+1
  9345  004B1A  6A29               	clrf	(??_display_fuel+2)& (0+255),c
  9346  004B1C  0E00               	movlw	0
  9347  004B1E  2427               	addwf	??_display_fuel,w,c
  9348  004B20  6E10               	movwf	wr16@addr,c
  9349  004B22  0E80               	movlw	128
  9350  004B24  2028               	addwfc	??_display_fuel+1,w,c
  9351  004B26  6E11               	movwf	wr16@addr+1,c
  9352  004B28  0E10               	movlw	16
  9353  004B2A  2029               	addwfc	??_display_fuel+2,w,c
  9354  004B2C  6E12               	movwf	wr16@addr+2,c
  9355  004B2E  0E00               	movlw	0
  9356  004B30  6E14               	movwf	wr16@value+1,c
  9357  004B32  0E4E               	movlw	78
  9358  004B34  6E13               	movwf	wr16@value,c
  9359  004B36  EC36  F02F         	call	_wr16	;wreg free
  9360  004B3A  0E02               	movlw	2
  9361  004B3C  EC9B  F02F         	call	_cmd_incrementn
  9362  004B40  C037  F027         	movff	_cmd_offset,??_display_fuel
  9363  004B44  C038  F028         	movff	_cmd_offset+1,??_display_fuel+1
  9364  004B48  6A29               	clrf	(??_display_fuel+2)& (0+255),c
  9365  004B4A  0E00               	movlw	0
  9366  004B4C  2427               	addwf	??_display_fuel,w,c
  9367  004B4E  6E10               	movwf	wr16@addr,c
  9368  004B50  0E80               	movlw	128
  9369  004B52  2028               	addwfc	??_display_fuel+1,w,c
  9370  004B54  6E11               	movwf	wr16@addr+1,c
  9371  004B56  0E10               	movlw	16
  9372  004B58  2029               	addwfc	??_display_fuel+2,w,c
  9373  004B5A  6E12               	movwf	wr16@addr+2,c
  9374  004B5C  0E00               	movlw	0
  9375  004B5E  6E14               	movwf	wr16@value+1,c
  9376  004B60  0E5A               	movlw	90
  9377  004B62  6E13               	movwf	wr16@value,c
  9378  004B64  EC36  F02F         	call	_wr16	;wreg free
  9379  004B68  0E02               	movlw	2
  9380  004B6A  EC9B  F02F         	call	_cmd_incrementn
  9381  004B6E  C037  F027         	movff	_cmd_offset,??_display_fuel
  9382  004B72  C038  F028         	movff	_cmd_offset+1,??_display_fuel+1
  9383  004B76  6A29               	clrf	(??_display_fuel+2)& (0+255),c
  9384  004B78  0E00               	movlw	0
  9385  004B7A  2427               	addwf	??_display_fuel,w,c
  9386  004B7C  6E10               	movwf	wr16@addr,c
  9387  004B7E  0E80               	movlw	128
  9388  004B80  2028               	addwfc	??_display_fuel+1,w,c
  9389  004B82  6E11               	movwf	wr16@addr+1,c
  9390  004B84  0E10               	movlw	16
  9391  004B86  2029               	addwfc	??_display_fuel+2,w,c
  9392  004B88  6E12               	movwf	wr16@addr+2,c
  9393  004B8A  0E00               	movlw	0
  9394  004B8C  6E14               	movwf	wr16@value+1,c
  9395  004B8E  0E1C               	movlw	28
  9396  004B90  6E13               	movwf	wr16@value,c
  9397  004B92  EC36  F02F         	call	_wr16	;wreg free
  9398  004B96  0E02               	movlw	2
  9399  004B98  EC9B  F02F         	call	_cmd_incrementn
  9400  004B9C  C037  F027         	movff	_cmd_offset,??_display_fuel
  9401  004BA0  C038  F028         	movff	_cmd_offset+1,??_display_fuel+1
  9402  004BA4  6A29               	clrf	(??_display_fuel+2)& (0+255),c
  9403  004BA6  0E00               	movlw	0
  9404  004BA8  2427               	addwf	??_display_fuel,w,c
  9405  004BAA  6E10               	movwf	wr16@addr,c
  9406  004BAC  0E80               	movlw	128
  9407  004BAE  2028               	addwfc	??_display_fuel+1,w,c
  9408  004BB0  6E11               	movwf	wr16@addr+1,c
  9409  004BB2  0E10               	movlw	16
  9410  004BB4  2029               	addwfc	??_display_fuel+2,w,c
  9411  004BB6  6E12               	movwf	wr16@addr+2,c
  9412  004BB8  0E00               	movlw	0
  9413  004BBA  6E14               	movwf	wr16@value+1,c
  9414  004BBC  0E00               	movlw	0
  9415  004BBE  6E13               	movwf	wr16@value,c
  9416  004BC0  EC36  F02F         	call	_wr16	;wreg free
  9417  004BC4  0E02               	movlw	2
  9418  004BC6  EC9B  F02F         	call	_cmd_incrementn
  9419  004BCA  C037  F027         	movff	_cmd_offset,??_display_fuel
  9420  004BCE  C038  F028         	movff	_cmd_offset+1,??_display_fuel+1
  9421  004BD2  6A29               	clrf	(??_display_fuel+2)& (0+255),c
  9422  004BD4  0E00               	movlw	0
  9423  004BD6  2427               	addwf	??_display_fuel,w,c
  9424  004BD8  6E15               	movwf	wr8s@addr,c
  9425  004BDA  0E80               	movlw	128
  9426  004BDC  2028               	addwfc	??_display_fuel+1,w,c
  9427  004BDE  6E16               	movwf	wr8s@addr+1,c
  9428  004BE0  0E10               	movlw	16
  9429  004BE2  2029               	addwfc	??_display_fuel+2,w,c
  9430  004BE4  6E17               	movwf	wr8s@addr+2,c
  9431  004BE6  0E6A               	movlw	low STR_26
  9432  004BE8  6E18               	movwf	wr8s@s,c
  9433  004BEA  0E0F               	movlw	high STR_26
  9434  004BEC  6E19               	movwf	wr8s@s+1,c
  9435  004BEE  EC8D  F02D         	call	_wr8s	;wreg free
  9436  004BF2  EC9B  F02F         	call	_cmd_incrementn
  9437                           
  9438                           ;display.c: 119: cmd(4294967086UL);wr16(1081344UL+cmd_offset, 83);cmd_incrementn(2);wr16
      +                          (1081344UL+cmd_offset, 89);cmd_incrementn(2);wr16(1081344UL+cmd_offset, 28);cmd_incremen
      +                          tn(2);wr16(1081344UL+cmd_offset, 0);cmd_incrementn(2);cmd(3);
  9439  004BF6  0E2E               	movlw	46
  9440  004BF8  6E1E               	movwf	cmd@command,c
  9441  004BFA  0EFF               	movlw	255
  9442  004BFC  6E1F               	movwf	cmd@command+1,c
  9443  004BFE  0EFF               	movlw	255
  9444  004C00  6E20               	movwf	cmd@command+2,c
  9445  004C02  0EFF               	movlw	255
  9446  004C04  6E21               	movwf	cmd@command+3,c
  9447  004C06  EC54  F02F         	call	_cmd	;wreg free
  9448  004C0A  C037  F027         	movff	_cmd_offset,??_display_fuel
  9449  004C0E  C038  F028         	movff	_cmd_offset+1,??_display_fuel+1
  9450  004C12  6A29               	clrf	(??_display_fuel+2)& (0+255),c
  9451  004C14  0E00               	movlw	0
  9452  004C16  2427               	addwf	??_display_fuel,w,c
  9453  004C18  6E10               	movwf	wr16@addr,c
  9454  004C1A  0E80               	movlw	128
  9455  004C1C  2028               	addwfc	??_display_fuel+1,w,c
  9456  004C1E  6E11               	movwf	wr16@addr+1,c
  9457  004C20  0E10               	movlw	16
  9458  004C22  2029               	addwfc	??_display_fuel+2,w,c
  9459  004C24  6E12               	movwf	wr16@addr+2,c
  9460  004C26  0E00               	movlw	0
  9461  004C28  6E14               	movwf	wr16@value+1,c
  9462  004C2A  0E53               	movlw	83
  9463  004C2C  6E13               	movwf	wr16@value,c
  9464  004C2E  EC36  F02F         	call	_wr16	;wreg free
  9465  004C32  0E02               	movlw	2
  9466  004C34  EC9B  F02F         	call	_cmd_incrementn
  9467  004C38  C037  F027         	movff	_cmd_offset,??_display_fuel
  9468  004C3C  C038  F028         	movff	_cmd_offset+1,??_display_fuel+1
  9469  004C40  6A29               	clrf	(??_display_fuel+2)& (0+255),c
  9470  004C42  0E00               	movlw	0
  9471  004C44  2427               	addwf	??_display_fuel,w,c
  9472  004C46  6E10               	movwf	wr16@addr,c
  9473  004C48  0E80               	movlw	128
  9474  004C4A  2028               	addwfc	??_display_fuel+1,w,c
  9475  004C4C  6E11               	movwf	wr16@addr+1,c
  9476  004C4E  0E10               	movlw	16
  9477  004C50  2029               	addwfc	??_display_fuel+2,w,c
  9478  004C52  6E12               	movwf	wr16@addr+2,c
  9479  004C54  0E00               	movlw	0
  9480  004C56  6E14               	movwf	wr16@value+1,c
  9481  004C58  0E59               	movlw	89
  9482  004C5A  6E13               	movwf	wr16@value,c
  9483  004C5C  EC36  F02F         	call	_wr16	;wreg free
  9484  004C60  0E02               	movlw	2
  9485  004C62  EC9B  F02F         	call	_cmd_incrementn
  9486  004C66  C037  F027         	movff	_cmd_offset,??_display_fuel
  9487  004C6A  C038  F028         	movff	_cmd_offset+1,??_display_fuel+1
  9488  004C6E  6A29               	clrf	(??_display_fuel+2)& (0+255),c
  9489  004C70  0E00               	movlw	0
  9490  004C72  2427               	addwf	??_display_fuel,w,c
  9491  004C74  6E10               	movwf	wr16@addr,c
  9492  004C76  0E80               	movlw	128
  9493  004C78  2028               	addwfc	??_display_fuel+1,w,c
  9494  004C7A  6E11               	movwf	wr16@addr+1,c
  9495  004C7C  0E10               	movlw	16
  9496  004C7E  2029               	addwfc	??_display_fuel+2,w,c
  9497  004C80  6E12               	movwf	wr16@addr+2,c
  9498  004C82  0E00               	movlw	0
  9499  004C84  6E14               	movwf	wr16@value+1,c
  9500  004C86  0E1C               	movlw	28
  9501  004C88  6E13               	movwf	wr16@value,c
  9502  004C8A  EC36  F02F         	call	_wr16	;wreg free
  9503  004C8E  0E02               	movlw	2
  9504  004C90  EC9B  F02F         	call	_cmd_incrementn
  9505  004C94  C037  F027         	movff	_cmd_offset,??_display_fuel
  9506  004C98  C038  F028         	movff	_cmd_offset+1,??_display_fuel+1
  9507  004C9C  6A29               	clrf	(??_display_fuel+2)& (0+255),c
  9508  004C9E  0E00               	movlw	0
  9509  004CA0  2427               	addwf	??_display_fuel,w,c
  9510  004CA2  6E10               	movwf	wr16@addr,c
  9511  004CA4  0E80               	movlw	128
  9512  004CA6  2028               	addwfc	??_display_fuel+1,w,c
  9513  004CA8  6E11               	movwf	wr16@addr+1,c
  9514  004CAA  0E10               	movlw	16
  9515  004CAC  2029               	addwfc	??_display_fuel+2,w,c
  9516  004CAE  6E12               	movwf	wr16@addr+2,c
  9517  004CB0  0E00               	movlw	0
  9518  004CB2  6E14               	movwf	wr16@value+1,c
  9519  004CB4  0E00               	movlw	0
  9520  004CB6  6E13               	movwf	wr16@value,c
  9521  004CB8  EC36  F02F         	call	_wr16	;wreg free
  9522  004CBC  0E02               	movlw	2
  9523  004CBE  EC9B  F02F         	call	_cmd_incrementn
  9524  004CC2  0E03               	movlw	3
  9525  004CC4  6E1E               	movwf	cmd@command,c
  9526  004CC6  0E00               	movlw	0
  9527  004CC8  6E1F               	movwf	cmd@command+1,c
  9528  004CCA  0E00               	movlw	0
  9529  004CCC  6E20               	movwf	cmd@command+2,c
  9530  004CCE  0E00               	movlw	0
  9531  004CD0  6E21               	movwf	cmd@command+3,c
  9532  004CD2  EC54  F02F         	call	_cmd	;wreg free
  9533  004CD6  0012               	return		;funcret
  9534  004CD8                     __end_of_display_fuel:
  9535                           	opt stack 0
  9536                           tblptru	equ	0xFF8
  9537                           wreg	equ	0xFE8
  9538                           status	equ	0xFD8
  9539                           
  9540 ;; *************** function _display_end *****************
  9541 ;; Defined at:
  9542 ;;		line 9 in file "display.c"
  9543 ;; Parameters:    Size  Location     Type
  9544 ;;		None
  9545 ;; Auto vars:     Size  Location     Type
  9546 ;;		None
  9547 ;; Return value:  Size  Location     Type
  9548 ;;                  1    wreg      void 
  9549 ;; Registers used:
  9550 ;;		wreg, status,2, status,0, cstack
  9551 ;; Tracked objects:
  9552 ;;		On entry : 0/0
  9553 ;;		On exit  : 0/0
  9554 ;;		Unchanged: 0/0
  9555 ;; Data sizes:     COMRAM   BANK0   BANK1   BANK2   BANK3   BANK4   BANK5   BANK6   BANK7   BANK8   BANK9  BANK10  BANK1
      +1  BANK12  BANK13  BANK14
  9556 ;;      Params:         0       0       0       0       0       0       0       0       0       0       0       0       
      +0       0       0       0
  9557 ;;      Locals:         0       0       0       0       0       0       0       0       0       0       0       0       
      +0       0       0       0
  9558 ;;      Temps:          0       0       0       0       0       0       0       0       0       0       0       0       
      +0       0       0       0
  9559 ;;      Totals:         0       0       0       0       0       0       0       0       0       0       0       0       
      +0       0       0       0
  9560 ;;Total ram usage:        0 bytes
  9561 ;; Hardware stack levels used:    1
  9562 ;; Hardware stack levels required when called:    7
  9563 ;; This function calls:
  9564 ;;		_cmd
  9565 ;;		_wr16
  9566 ;; This function is called by:
  9567 ;;		_main
  9568 ;; This function uses a non-reentrant model
  9569 ;;
  9570                           
  9571                           	psect	text17
  9572  005DAE                     __ptext17:
  9573                           	opt stack 0
  9574  005DAE                     _display_end:
  9575                           	opt stack 23
  9576                           
  9577                           ;display.c: 10: cmd(((0UL<<24)));
  9578                           
  9579                           ;incstack = 0
  9580  005DAE  0E00               	movlw	0
  9581  005DB0  6E1E               	movwf	cmd@command,c
  9582  005DB2  0E00               	movlw	0
  9583  005DB4  6E1F               	movwf	cmd@command+1,c
  9584  005DB6  0E00               	movlw	0
  9585  005DB8  6E20               	movwf	cmd@command+2,c
  9586  005DBA  0E00               	movlw	0
  9587  005DBC  6E21               	movwf	cmd@command+3,c
  9588  005DBE  EC54  F02F         	call	_cmd	;wreg free
  9589                           
  9590                           ;display.c: 11: cmd(4294967041UL);
  9591  005DC2  0E01               	movlw	1
  9592  005DC4  6E1E               	movwf	cmd@command,c
  9593  005DC6  0EFF               	movlw	255
  9594  005DC8  6E1F               	movwf	cmd@command+1,c
  9595  005DCA  0EFF               	movlw	255
  9596  005DCC  6E20               	movwf	cmd@command+2,c
  9597  005DCE  0EFF               	movlw	255
  9598  005DD0  6E21               	movwf	cmd@command+3,c
  9599  005DD2  EC54  F02F         	call	_cmd	;wreg free
  9600                           
  9601                           ;display.c: 12: wr16(1058024UL, cmd_offset);
  9602  005DD6  0EE8               	movlw	232
  9603  005DD8  6E10               	movwf	wr16@addr,c
  9604  005DDA  0E24               	movlw	36
  9605  005DDC  6E11               	movwf	wr16@addr+1,c
  9606  005DDE  0E10               	movlw	16
  9607  005DE0  6E12               	movwf	wr16@addr+2,c
  9608  005DE2  C037  F013         	movff	_cmd_offset,wr16@value
  9609  005DE6  C038  F014         	movff	_cmd_offset+1,wr16@value+1
  9610  005DEA  EC36  F02F         	call	_wr16	;wreg free
  9611  005DEE  0012               	return		;funcret
  9612  005DF0                     __end_of_display_end:
  9613                           	opt stack 0
  9614                           tblptru	equ	0xFF8
  9615                           wreg	equ	0xFE8
  9616                           status	equ	0xFD8
  9617                           
  9618 ;; *************** function _display_battery *****************
  9619 ;; Defined at:
  9620 ;;		line 122 in file "display.c"
  9621 ;; Parameters:    Size  Location     Type
  9622 ;;  volts           3   36[COMRAM] float 
  9623 ;; Auto vars:     Size  Location     Type
  9624 ;;		None
  9625 ;; Return value:  Size  Location     Type
  9626 ;;                  1    wreg      void 
  9627 ;; Registers used:
  9628 ;;		wreg, status,2, status,0, tblptrl, tblptrh, tblptru, prodl, prodh, cstack
  9629 ;; Tracked objects:
  9630 ;;		On entry : 0/0
  9631 ;;		On exit  : 0/0
  9632 ;;		Unchanged: 0/0
  9633 ;; Data sizes:     COMRAM   BANK0   BANK1   BANK2   BANK3   BANK4   BANK5   BANK6   BANK7   BANK8   BANK9  BANK10  BANK1
      +1  BANK12  BANK13  BANK14
  9634 ;;      Params:         3       0       0       0       0       0       0       0       0       0       0       0       
      +0       0       0       0
  9635 ;;      Locals:         0       0       0       0       0       0       0       0       0       0       0       0       
      +0       0       0       0
  9636 ;;      Temps:          3       0       0       0       0       0       0       0       0       0       0       0       
      +0       0       0       0
  9637 ;;      Totals:         6       0       0       0       0       0       0       0       0       0       0       0       
      +0       0       0       0
  9638 ;;Total ram usage:        6 bytes
  9639 ;; Hardware stack levels used:    1
  9640 ;; Hardware stack levels required when called:    7
  9641 ;; This function calls:
  9642 ;;		_cmd
  9643 ;;		_cmd_incrementn
  9644 ;;		_wr16
  9645 ;;		_wr8s
  9646 ;; This function is called by:
  9647 ;;		_main
  9648 ;; This function uses a non-reentrant model
  9649 ;;
  9650                           
  9651                           	psect	text18
  9652  004CD8                     __ptext18:
  9653                           	opt stack 0
  9654  004CD8                     _display_battery:
  9655                           	opt stack 23
  9656                           
  9657                           ;display.c: 123: cmd(4294967086UL);wr16(1081344UL+cmd_offset, 66);cmd_incrementn(2);wr16
      +                          (1081344UL+cmd_offset, 130);cmd_incrementn(2);wr16(1081344UL+cmd_offset, 28);cmd_increme
      +                          ntn(2);wr16(1081344UL+cmd_offset, 0);cmd_incrementn(2);cmd(13);
  9658                           
  9659                           ;incstack = 0
  9660  004CD8  0E2E               	movlw	46
  9661  004CDA  6E1E               	movwf	cmd@command,c
  9662  004CDC  0EFF               	movlw	255
  9663  004CDE  6E1F               	movwf	cmd@command+1,c
  9664  004CE0  0EFF               	movlw	255
  9665  004CE2  6E20               	movwf	cmd@command+2,c
  9666  004CE4  0EFF               	movlw	255
  9667  004CE6  6E21               	movwf	cmd@command+3,c
  9668  004CE8  EC54  F02F         	call	_cmd	;wreg free
  9669  004CEC  C037  F028         	movff	_cmd_offset,??_display_battery
  9670  004CF0  C038  F029         	movff	_cmd_offset+1,??_display_battery+1
  9671  004CF4  6A2A               	clrf	(??_display_battery+2)& (0+255),c
  9672  004CF6  0E00               	movlw	0
  9673  004CF8  2428               	addwf	??_display_battery,w,c
  9674  004CFA  6E10               	movwf	wr16@addr,c
  9675  004CFC  0E80               	movlw	128
  9676  004CFE  2029               	addwfc	??_display_battery+1,w,c
  9677  004D00  6E11               	movwf	wr16@addr+1,c
  9678  004D02  0E10               	movlw	16
  9679  004D04  202A               	addwfc	??_display_battery+2,w,c
  9680  004D06  6E12               	movwf	wr16@addr+2,c
  9681  004D08  0E00               	movlw	0
  9682  004D0A  6E14               	movwf	wr16@value+1,c
  9683  004D0C  0E42               	movlw	66
  9684  004D0E  6E13               	movwf	wr16@value,c
  9685  004D10  EC36  F02F         	call	_wr16	;wreg free
  9686  004D14  0E02               	movlw	2
  9687  004D16  EC9B  F02F         	call	_cmd_incrementn
  9688  004D1A  C037  F028         	movff	_cmd_offset,??_display_battery
  9689  004D1E  C038  F029         	movff	_cmd_offset+1,??_display_battery+1
  9690  004D22  6A2A               	clrf	(??_display_battery+2)& (0+255),c
  9691  004D24  0E00               	movlw	0
  9692  004D26  2428               	addwf	??_display_battery,w,c
  9693  004D28  6E10               	movwf	wr16@addr,c
  9694  004D2A  0E80               	movlw	128
  9695  004D2C  2029               	addwfc	??_display_battery+1,w,c
  9696  004D2E  6E11               	movwf	wr16@addr+1,c
  9697  004D30  0E10               	movlw	16
  9698  004D32  202A               	addwfc	??_display_battery+2,w,c
  9699  004D34  6E12               	movwf	wr16@addr+2,c
  9700  004D36  0E00               	movlw	0
  9701  004D38  6E14               	movwf	wr16@value+1,c
  9702  004D3A  0E82               	movlw	130
  9703  004D3C  6E13               	movwf	wr16@value,c
  9704  004D3E  EC36  F02F         	call	_wr16	;wreg free
  9705  004D42  0E02               	movlw	2
  9706  004D44  EC9B  F02F         	call	_cmd_incrementn
  9707  004D48  C037  F028         	movff	_cmd_offset,??_display_battery
  9708  004D4C  C038  F029         	movff	_cmd_offset+1,??_display_battery+1
  9709  004D50  6A2A               	clrf	(??_display_battery+2)& (0+255),c
  9710  004D52  0E00               	movlw	0
  9711  004D54  2428               	addwf	??_display_battery,w,c
  9712  004D56  6E10               	movwf	wr16@addr,c
  9713  004D58  0E80               	movlw	128
  9714  004D5A  2029               	addwfc	??_display_battery+1,w,c
  9715  004D5C  6E11               	movwf	wr16@addr+1,c
  9716  004D5E  0E10               	movlw	16
  9717  004D60  202A               	addwfc	??_display_battery+2,w,c
  9718  004D62  6E12               	movwf	wr16@addr+2,c
  9719  004D64  0E00               	movlw	0
  9720  004D66  6E14               	movwf	wr16@value+1,c
  9721  004D68  0E1C               	movlw	28
  9722  004D6A  6E13               	movwf	wr16@value,c
  9723  004D6C  EC36  F02F         	call	_wr16	;wreg free
  9724  004D70  0E02               	movlw	2
  9725  004D72  EC9B  F02F         	call	_cmd_incrementn
  9726  004D76  C037  F028         	movff	_cmd_offset,??_display_battery
  9727  004D7A  C038  F029         	movff	_cmd_offset+1,??_display_battery+1
  9728  004D7E  6A2A               	clrf	(??_display_battery+2)& (0+255),c
  9729  004D80  0E00               	movlw	0
  9730  004D82  2428               	addwf	??_display_battery,w,c
  9731  004D84  6E10               	movwf	wr16@addr,c
  9732  004D86  0E80               	movlw	128
  9733  004D88  2029               	addwfc	??_display_battery+1,w,c
  9734  004D8A  6E11               	movwf	wr16@addr+1,c
  9735  004D8C  0E10               	movlw	16
  9736  004D8E  202A               	addwfc	??_display_battery+2,w,c
  9737  004D90  6E12               	movwf	wr16@addr+2,c
  9738  004D92  0E00               	movlw	0
  9739  004D94  6E14               	movwf	wr16@value+1,c
  9740  004D96  0E00               	movlw	0
  9741  004D98  6E13               	movwf	wr16@value,c
  9742  004D9A  EC36  F02F         	call	_wr16	;wreg free
  9743  004D9E  0E02               	movlw	2
  9744  004DA0  EC9B  F02F         	call	_cmd_incrementn
  9745  004DA4  0E0D               	movlw	13
  9746  004DA6  6E1E               	movwf	cmd@command,c
  9747  004DA8  0E00               	movlw	0
  9748  004DAA  6E1F               	movwf	cmd@command+1,c
  9749  004DAC  0E00               	movlw	0
  9750  004DAE  6E20               	movwf	cmd@command+2,c
  9751  004DB0  0E00               	movlw	0
  9752  004DB2  6E21               	movwf	cmd@command+3,c
  9753  004DB4  EC54  F02F         	call	_cmd	;wreg free
  9754                           
  9755                           ;display.c: 124: cmd(4294967052UL);wr16(1081344UL+cmd_offset, 90);cmd_incrementn(2);wr16
      +                          (1081344UL+cmd_offset, 131);cmd_incrementn(2);wr16(1081344UL+cmd_offset, 28);cmd_increme
      +                          ntn(2);wr16(1081344UL+cmd_offset, 0);cmd_incrementn(2);cmd_incrementn(wr8s(1081344UL+cmd
      +                          _of
  9756  004DB8  0E0C               	movlw	12
  9757  004DBA  6E1E               	movwf	cmd@command,c
  9758  004DBC  0EFF               	movlw	255
  9759  004DBE  6E1F               	movwf	cmd@command+1,c
  9760  004DC0  0EFF               	movlw	255
  9761  004DC2  6E20               	movwf	cmd@command+2,c
  9762  004DC4  0EFF               	movlw	255
  9763  004DC6  6E21               	movwf	cmd@command+3,c
  9764  004DC8  EC54  F02F         	call	_cmd	;wreg free
  9765  004DCC  C037  F028         	movff	_cmd_offset,??_display_battery
  9766  004DD0  C038  F029         	movff	_cmd_offset+1,??_display_battery+1
  9767  004DD4  6A2A               	clrf	(??_display_battery+2)& (0+255),c
  9768  004DD6  0E00               	movlw	0
  9769  004DD8  2428               	addwf	??_display_battery,w,c
  9770  004DDA  6E10               	movwf	wr16@addr,c
  9771  004DDC  0E80               	movlw	128
  9772  004DDE  2029               	addwfc	??_display_battery+1,w,c
  9773  004DE0  6E11               	movwf	wr16@addr+1,c
  9774  004DE2  0E10               	movlw	16
  9775  004DE4  202A               	addwfc	??_display_battery+2,w,c
  9776  004DE6  6E12               	movwf	wr16@addr+2,c
  9777  004DE8  0E00               	movlw	0
  9778  004DEA  6E14               	movwf	wr16@value+1,c
  9779  004DEC  0E5A               	movlw	90
  9780  004DEE  6E13               	movwf	wr16@value,c
  9781  004DF0  EC36  F02F         	call	_wr16	;wreg free
  9782  004DF4  0E02               	movlw	2
  9783  004DF6  EC9B  F02F         	call	_cmd_incrementn
  9784  004DFA  C037  F028         	movff	_cmd_offset,??_display_battery
  9785  004DFE  C038  F029         	movff	_cmd_offset+1,??_display_battery+1
  9786  004E02  6A2A               	clrf	(??_display_battery+2)& (0+255),c
  9787  004E04  0E00               	movlw	0
  9788  004E06  2428               	addwf	??_display_battery,w,c
  9789  004E08  6E10               	movwf	wr16@addr,c
  9790  004E0A  0E80               	movlw	128
  9791  004E0C  2029               	addwfc	??_display_battery+1,w,c
  9792  004E0E  6E11               	movwf	wr16@addr+1,c
  9793  004E10  0E10               	movlw	16
  9794  004E12  202A               	addwfc	??_display_battery+2,w,c
  9795  004E14  6E12               	movwf	wr16@addr+2,c
  9796  004E16  0E00               	movlw	0
  9797  004E18  6E14               	movwf	wr16@value+1,c
  9798  004E1A  0E83               	movlw	131
  9799  004E1C  6E13               	movwf	wr16@value,c
  9800  004E1E  EC36  F02F         	call	_wr16	;wreg free
  9801  004E22  0E02               	movlw	2
  9802  004E24  EC9B  F02F         	call	_cmd_incrementn
  9803  004E28  C037  F028         	movff	_cmd_offset,??_display_battery
  9804  004E2C  C038  F029         	movff	_cmd_offset+1,??_display_battery+1
  9805  004E30  6A2A               	clrf	(??_display_battery+2)& (0+255),c
  9806  004E32  0E00               	movlw	0
  9807  004E34  2428               	addwf	??_display_battery,w,c
  9808  004E36  6E10               	movwf	wr16@addr,c
  9809  004E38  0E80               	movlw	128
  9810  004E3A  2029               	addwfc	??_display_battery+1,w,c
  9811  004E3C  6E11               	movwf	wr16@addr+1,c
  9812  004E3E  0E10               	movlw	16
  9813  004E40  202A               	addwfc	??_display_battery+2,w,c
  9814  004E42  6E12               	movwf	wr16@addr+2,c
  9815  004E44  0E00               	movlw	0
  9816  004E46  6E14               	movwf	wr16@value+1,c
  9817  004E48  0E1C               	movlw	28
  9818  004E4A  6E13               	movwf	wr16@value,c
  9819  004E4C  EC36  F02F         	call	_wr16	;wreg free
  9820  004E50  0E02               	movlw	2
  9821  004E52  EC9B  F02F         	call	_cmd_incrementn
  9822  004E56  C037  F028         	movff	_cmd_offset,??_display_battery
  9823  004E5A  C038  F029         	movff	_cmd_offset+1,??_display_battery+1
  9824  004E5E  6A2A               	clrf	(??_display_battery+2)& (0+255),c
  9825  004E60  0E00               	movlw	0
  9826  004E62  2428               	addwf	??_display_battery,w,c
  9827  004E64  6E10               	movwf	wr16@addr,c
  9828  004E66  0E80               	movlw	128
  9829  004E68  2029               	addwfc	??_display_battery+1,w,c
  9830  004E6A  6E11               	movwf	wr16@addr+1,c
  9831  004E6C  0E10               	movlw	16
  9832  004E6E  202A               	addwfc	??_display_battery+2,w,c
  9833  004E70  6E12               	movwf	wr16@addr+2,c
  9834  004E72  0E00               	movlw	0
  9835  004E74  6E14               	movwf	wr16@value+1,c
  9836  004E76  0E00               	movlw	0
  9837  004E78  6E13               	movwf	wr16@value,c
  9838  004E7A  EC36  F02F         	call	_wr16	;wreg free
  9839  004E7E  0E02               	movlw	2
  9840  004E80  EC9B  F02F         	call	_cmd_incrementn
  9841  004E84  C037  F028         	movff	_cmd_offset,??_display_battery
  9842  004E88  C038  F029         	movff	_cmd_offset+1,??_display_battery+1
  9843  004E8C  6A2A               	clrf	(??_display_battery+2)& (0+255),c
  9844  004E8E  0E00               	movlw	0
  9845  004E90  2428               	addwf	??_display_battery,w,c
  9846  004E92  6E15               	movwf	wr8s@addr,c
  9847  004E94  0E80               	movlw	128
  9848  004E96  2029               	addwfc	??_display_battery+1,w,c
  9849  004E98  6E16               	movwf	wr8s@addr+1,c
  9850  004E9A  0E10               	movlw	16
  9851  004E9C  202A               	addwfc	??_display_battery+2,w,c
  9852  004E9E  6E17               	movwf	wr8s@addr+2,c
  9853  004EA0  0E6A               	movlw	low STR_26
  9854  004EA2  6E18               	movwf	wr8s@s,c
  9855  004EA4  0E0F               	movlw	high STR_26
  9856  004EA6  6E19               	movwf	wr8s@s+1,c
  9857  004EA8  EC8D  F02D         	call	_wr8s	;wreg free
  9858  004EAC  EC9B  F02F         	call	_cmd_incrementn
  9859                           
  9860                           ;display.c: 125: cmd(4294967086UL);wr16(1081344UL+cmd_offset, 96);cmd_incrementn(2);wr16
      +                          (1081344UL+cmd_offset, 130);cmd_incrementn(2);wr16(1081344UL+cmd_offset, 28);cmd_increme
      +                          ntn(2);wr16(1081344UL+cmd_offset, 0);cmd_incrementn(2);cmd(2);
  9861  004EB0  0E2E               	movlw	46
  9862  004EB2  6E1E               	movwf	cmd@command,c
  9863  004EB4  0EFF               	movlw	255
  9864  004EB6  6E1F               	movwf	cmd@command+1,c
  9865  004EB8  0EFF               	movlw	255
  9866  004EBA  6E20               	movwf	cmd@command+2,c
  9867  004EBC  0EFF               	movlw	255
  9868  004EBE  6E21               	movwf	cmd@command+3,c
  9869  004EC0  EC54  F02F         	call	_cmd	;wreg free
  9870  004EC4  C037  F028         	movff	_cmd_offset,??_display_battery
  9871  004EC8  C038  F029         	movff	_cmd_offset+1,??_display_battery+1
  9872  004ECC  6A2A               	clrf	(??_display_battery+2)& (0+255),c
  9873  004ECE  0E00               	movlw	0
  9874  004ED0  2428               	addwf	??_display_battery,w,c
  9875  004ED2  6E10               	movwf	wr16@addr,c
  9876  004ED4  0E80               	movlw	128
  9877  004ED6  2029               	addwfc	??_display_battery+1,w,c
  9878  004ED8  6E11               	movwf	wr16@addr+1,c
  9879  004EDA  0E10               	movlw	16
  9880  004EDC  202A               	addwfc	??_display_battery+2,w,c
  9881  004EDE  6E12               	movwf	wr16@addr+2,c
  9882  004EE0  0E00               	movlw	0
  9883  004EE2  6E14               	movwf	wr16@value+1,c
  9884  004EE4  0E60               	movlw	96
  9885  004EE6  6E13               	movwf	wr16@value,c
  9886  004EE8  EC36  F02F         	call	_wr16	;wreg free
  9887  004EEC  0E02               	movlw	2
  9888  004EEE  EC9B  F02F         	call	_cmd_incrementn
  9889  004EF2  C037  F028         	movff	_cmd_offset,??_display_battery
  9890  004EF6  C038  F029         	movff	_cmd_offset+1,??_display_battery+1
  9891  004EFA  6A2A               	clrf	(??_display_battery+2)& (0+255),c
  9892  004EFC  0E00               	movlw	0
  9893  004EFE  2428               	addwf	??_display_battery,w,c
  9894  004F00  6E10               	movwf	wr16@addr,c
  9895  004F02  0E80               	movlw	128
  9896  004F04  2029               	addwfc	??_display_battery+1,w,c
  9897  004F06  6E11               	movwf	wr16@addr+1,c
  9898  004F08  0E10               	movlw	16
  9899  004F0A  202A               	addwfc	??_display_battery+2,w,c
  9900  004F0C  6E12               	movwf	wr16@addr+2,c
  9901  004F0E  0E00               	movlw	0
  9902  004F10  6E14               	movwf	wr16@value+1,c
  9903  004F12  0E82               	movlw	130
  9904  004F14  6E13               	movwf	wr16@value,c
  9905  004F16  EC36  F02F         	call	_wr16	;wreg free
  9906  004F1A  0E02               	movlw	2
  9907  004F1C  EC9B  F02F         	call	_cmd_incrementn
  9908  004F20  C037  F028         	movff	_cmd_offset,??_display_battery
  9909  004F24  C038  F029         	movff	_cmd_offset+1,??_display_battery+1
  9910  004F28  6A2A               	clrf	(??_display_battery+2)& (0+255),c
  9911  004F2A  0E00               	movlw	0
  9912  004F2C  2428               	addwf	??_display_battery,w,c
  9913  004F2E  6E10               	movwf	wr16@addr,c
  9914  004F30  0E80               	movlw	128
  9915  004F32  2029               	addwfc	??_display_battery+1,w,c
  9916  004F34  6E11               	movwf	wr16@addr+1,c
  9917  004F36  0E10               	movlw	16
  9918  004F38  202A               	addwfc	??_display_battery+2,w,c
  9919  004F3A  6E12               	movwf	wr16@addr+2,c
  9920  004F3C  0E00               	movlw	0
  9921  004F3E  6E14               	movwf	wr16@value+1,c
  9922  004F40  0E1C               	movlw	28
  9923  004F42  6E13               	movwf	wr16@value,c
  9924  004F44  EC36  F02F         	call	_wr16	;wreg free
  9925  004F48  0E02               	movlw	2
  9926  004F4A  EC9B  F02F         	call	_cmd_incrementn
  9927  004F4E  C037  F028         	movff	_cmd_offset,??_display_battery
  9928  004F52  C038  F029         	movff	_cmd_offset+1,??_display_battery+1
  9929  004F56  6A2A               	clrf	(??_display_battery+2)& (0+255),c
  9930  004F58  0E00               	movlw	0
  9931  004F5A  2428               	addwf	??_display_battery,w,c
  9932  004F5C  6E10               	movwf	wr16@addr,c
  9933  004F5E  0E80               	movlw	128
  9934  004F60  2029               	addwfc	??_display_battery+1,w,c
  9935  004F62  6E11               	movwf	wr16@addr+1,c
  9936  004F64  0E10               	movlw	16
  9937  004F66  202A               	addwfc	??_display_battery+2,w,c
  9938  004F68  6E12               	movwf	wr16@addr+2,c
  9939  004F6A  0E00               	movlw	0
  9940  004F6C  6E14               	movwf	wr16@value+1,c
  9941  004F6E  0E00               	movlw	0
  9942  004F70  6E13               	movwf	wr16@value,c
  9943  004F72  EC36  F02F         	call	_wr16	;wreg free
  9944  004F76  0E02               	movlw	2
  9945  004F78  EC9B  F02F         	call	_cmd_incrementn
  9946  004F7C  0E02               	movlw	2
  9947  004F7E  6E1E               	movwf	cmd@command,c
  9948  004F80  0E00               	movlw	0
  9949  004F82  6E1F               	movwf	cmd@command+1,c
  9950  004F84  0E00               	movlw	0
  9951  004F86  6E20               	movwf	cmd@command+2,c
  9952  004F88  0E00               	movlw	0
  9953  004F8A  6E21               	movwf	cmd@command+3,c
  9954  004F8C  EC54  F02F         	call	_cmd	;wreg free
  9955  004F90  0012               	return		;funcret
  9956  004F92                     __end_of_display_battery:
  9957                           	opt stack 0
  9958                           tblptru	equ	0xFF8
  9959                           wreg	equ	0xFE8
  9960                           status	equ	0xFD8
  9961                           
  9962 ;; *************** function _wr8s *****************
  9963 ;; Defined at:
  9964 ;;		line 43 in file "Gue/FT800.c"
  9965 ;; Parameters:    Size  Location     Type
  9966 ;;  addr            3   20[COMRAM] unsigned um
  9967 ;;  s               2   23[COMRAM] PTR const unsigned char 
  9968 ;;		 -> STR_41(4), STR_40(2), STR_39(2), STR_38(3), 
  9969 ;;		 -> STR_37(3), STR_36(3), STR_35(2), STR_34(2), 
  9970 ;;		 -> STR_33(2), STR_32(2), STR_31(2), STR_30(2), 
  9971 ;;		 -> STR_29(2), STR_28(2), STR_27(2), STR_26(2), 
  9972 ;;		 -> STR_25(2), STR_24(2), STR_23(2), STR_22(2), 
  9973 ;;		 -> STR_21(2), STR_20(2), STR_19(4), STR_18(5), 
  9974 ;;		 -> STR_17(5), STR_16(15), STR_15(2), STR_14(3), 
  9975 ;;		 -> STR_13(4), STR_12(6), STR_11(6), STR_10(4), 
  9976 ;;		 -> STR_9(6), STR_8(5), STR_7(5), STR_6(5), 
  9977 ;;		 -> STR_5(5), STR_4(4), STR_3(5), STR_2(6), 
  9978 ;; Auto vars:     Size  Location     Type
  9979 ;;  i               1   29[COMRAM] unsigned char 
  9980 ;;  l               1   28[COMRAM] unsigned char 
  9981 ;; Return value:  Size  Location     Type
  9982 ;;                  1    wreg      unsigned char 
  9983 ;; Registers used:
  9984 ;;		wreg, status,2, status,0, tblptrl, tblptrh, tblptru, prodl, prodh, cstack
  9985 ;; Tracked objects:
  9986 ;;		On entry : 0/0
  9987 ;;		On exit  : 0/0
  9988 ;;		Unchanged: 0/0
  9989 ;; Data sizes:     COMRAM   BANK0   BANK1   BANK2   BANK3   BANK4   BANK5   BANK6   BANK7   BANK8   BANK9  BANK10  BANK1
      +1  BANK12  BANK13  BANK14
  9990 ;;      Params:         5       0       0       0       0       0       0       0       0       0       0       0       
      +0       0       0       0
  9991 ;;      Locals:         2       0       0       0       0       0       0       0       0       0       0       0       
      +0       0       0       0
  9992 ;;      Temps:          3       0       0       0       0       0       0       0       0       0       0       0       
      +0       0       0       0
  9993 ;;      Totals:        10       0       0       0       0       0       0       0       0       0       0       0       
      +0       0       0       0
  9994 ;;Total ram usage:       10 bytes
  9995 ;; Hardware stack levels used:    1
  9996 ;; Hardware stack levels required when called:    5
  9997 ;; This function calls:
  9998 ;;		_SPI_Exchange8bit
  9999 ;;		_strlen
 10000 ;; This function is called by:
 10001 ;;		_display_labels
 10002 ;;		_display_message
 10003 ;;		_display_laptime
 10004 ;;		_display_fuel
 10005 ;;		_display_battery
 10006 ;;		_display_rpm
 10007 ;; This function uses a non-reentrant model
 10008 ;;
 10009                           
 10010                           	psect	text19
 10011  005B1A                     __ptext19:
 10012                           	opt stack 0
 10013  005B1A                     _wr8s:
 10014                           	opt stack 24
 10015                           
 10016                           ;FT800.c: 45: LATDbits.LATD0 = 0;
 10017                           
 10018                           ;incstack = 0
 10019  005B1A  908C               	bcf	3980,0,c	;volatile
 10020                           
 10021                           ;FT800.c: 46: SPI_Exchange8bit(0x80 | (addr >> 16));
 10022  005B1C  5017               	movf	wr8s@addr+2,w,c
 10023  005B1E  0980               	iorlw	128
 10024  005B20  ECEB  F02F         	call	_SPI_Exchange8bit
 10025                           
 10026                           ;FT800.c: 47: SPI_Exchange8bit(addr >> 8);
 10027  005B24  C015  F01A         	movff	wr8s@addr,??_wr8s
 10028  005B28  C016  F01B         	movff	wr8s@addr+1,??_wr8s+1
 10029  005B2C  C017  F01C         	movff	wr8s@addr+2,??_wr8s+2
 10030  005B30  C01B  F01A         	movff	??_wr8s+1,??_wr8s
 10031  005B34  C01C  F01B         	movff	??_wr8s+2,??_wr8s+1
 10032  005B38  6A1C               	clrf	??_wr8s+2,c
 10033  005B3A  501A               	movf	??_wr8s,w,c
 10034  005B3C  ECEB  F02F         	call	_SPI_Exchange8bit
 10035                           
 10036                           ;FT800.c: 48: SPI_Exchange8bit(addr);
 10037  005B40  5015               	movf	wr8s@addr,w,c
 10038  005B42  ECEB  F02F         	call	_SPI_Exchange8bit
 10039                           
 10040                           ;FT800.c: 49: ft_uint8_t l = strlen(s);
 10041  005B46  C018  F00F         	movff	wr8s@s,strlen@s
 10042  005B4A  C019  F010         	movff	wr8s@s+1,strlen@s+1
 10043  005B4E  EC17  F02F         	call	_strlen	;wreg free
 10044  005B52  500F               	movf	?_strlen,w,c
 10045  005B54  6E1D               	movwf	wr8s@l,c
 10046                           
 10047                           ;FT800.c: 50: ft_uint8_t i;
 10048                           ;FT800.c: 51: for(i=0;i<=l;i++){
 10049  005B56  0E00               	movlw	0
 10050  005B58  6E1E               	movwf	wr8s@i,c
 10051  005B5A  D013               	goto	l3070
 10052  005B5C                     l3066:
 10053                           
 10054                           ;FT800.c: 52: SPI_Exchange8bit(s[i]);
 10055  005B5C  501E               	movf	wr8s@i,w,c
 10056  005B5E  0D01               	mullw	1
 10057  005B60  C018  F01A         	movff	wr8s@s,??_wr8s
 10058  005B64  C019  F01B         	movff	wr8s@s+1,??_wr8s+1
 10059  005B68  50F3               	movf	prodl,w,c
 10060  005B6A  261A               	addwf	??_wr8s,f,c
 10061  005B6C  50F4               	movf	prodh,w,c
 10062  005B6E  221B               	addwfc	??_wr8s+1,f,c
 10063  005B70  C01A  FFF6         	movff	??_wr8s,tblptrl
 10064  005B74  C01B  FFF7         	movff	??_wr8s+1,tblptrh
 10065  005B78                     	if	0	;tblptru may be non-zero
 10066  005B78                     	endif
 10067  005B78                     	if	0	;tblptru may be non-zero
 10068  005B78                     	endif
 10069  005B78  0008               	tblrd		*
 10070  005B7A  50F5               	movf	tablat,w,c
 10071  005B7C  ECEB  F02F         	call	_SPI_Exchange8bit
 10072  005B80  2A1E               	incf	wr8s@i,f,c
 10073  005B82                     l3070:
 10074  005B82  501E               	movf	wr8s@i,w,c
 10075  005B84  5C1D               	subwf	wr8s@l,w,c
 10076  005B86  A0D8               	btfss	status,0,c
 10077  005B88  D005               	goto	l3076
 10078  005B8A  D7E8               	goto	l3066
 10079  005B8C                     l3072:
 10080                           
 10081                           ;FT800.c: 55: SPI_Exchange8bit(0);
 10082  005B8C  0E00               	movlw	0
 10083  005B8E  ECEB  F02F         	call	_SPI_Exchange8bit
 10084  005B92  2A1E               	incf	wr8s@i,f,c
 10085  005B94                     l3076:
 10086  005B94  C01E  F01A         	movff	wr8s@i,??_wr8s
 10087  005B98  0E03               	movlw	3
 10088  005B9A  161A               	andwf	??_wr8s,f,c
 10089  005B9C  A4D8               	btfss	status,2,c
 10090  005B9E  D7F6               	goto	l3072
 10091                           
 10092                           ;FT800.c: 56: }
 10093                           ;FT800.c: 57: LATDbits.LATD0 = 1;
 10094  005BA0  808C               	bsf	3980,0,c	;volatile
 10095                           
 10096                           ;FT800.c: 58: return i;
 10097  005BA2  501E               	movf	wr8s@i,w,c
 10098  005BA4  0012               	return	
 10099  005BA6                     __end_of_wr8s:
 10100                           	opt stack 0
 10101                           tblptru	equ	0xFF8
 10102                           tblptrh	equ	0xFF7
 10103                           tblptrl	equ	0xFF6
 10104                           tablat	equ	0xFF5
 10105                           prodh	equ	0xFF4
 10106                           prodl	equ	0xFF3
 10107                           wreg	equ	0xFE8
 10108                           status	equ	0xFD8
 10109                           
 10110 ;; *************** function _strlen *****************
 10111 ;; Defined at:
 10112 ;;		line 4 in file "C:\Program Files (x86)\Microchip\xc8\v1.42\sources\common\strlen.c"
 10113 ;; Parameters:    Size  Location     Type
 10114 ;;  s               2   14[COMRAM] PTR const unsigned char 
 10115 ;;		 -> STR_41(4), STR_40(2), STR_39(2), STR_38(3), 
 10116 ;;		 -> STR_37(3), STR_36(3), STR_35(2), STR_34(2), 
 10117 ;;		 -> STR_33(2), STR_32(2), STR_31(2), STR_30(2), 
 10118 ;;		 -> STR_29(2), STR_28(2), STR_27(2), STR_26(2), 
 10119 ;;		 -> STR_25(2), STR_24(2), STR_23(2), STR_22(2), 
 10120 ;;		 -> STR_21(2), STR_20(2), STR_19(4), STR_18(5), 
 10121 ;;		 -> STR_17(5), STR_16(15), STR_15(2), STR_14(3), 
 10122 ;;		 -> STR_13(4), STR_12(6), STR_11(6), STR_10(4), 
 10123 ;;		 -> STR_9(6), STR_8(5), STR_7(5), STR_6(5), 
 10124 ;;		 -> STR_5(5), STR_4(4), STR_3(5), STR_2(6), 
 10125 ;; Auto vars:     Size  Location     Type
 10126 ;;  cp              2   18[COMRAM] PTR const unsigned char 
 10127 ;;		 -> STR_41(4), STR_40(2), STR_39(2), STR_38(3), 
 10128 ;;		 -> STR_37(3), STR_36(3), STR_35(2), STR_34(2), 
 10129 ;;		 -> STR_33(2), STR_32(2), STR_31(2), STR_30(2), 
 10130 ;;		 -> STR_29(2), STR_28(2), STR_27(2), STR_26(2), 
 10131 ;;		 -> STR_25(2), STR_24(2), STR_23(2), STR_22(2), 
 10132 ;;		 -> STR_21(2), STR_20(2), STR_19(4), STR_18(5), 
 10133 ;;		 -> STR_17(5), STR_16(15), STR_15(2), STR_14(3), 
 10134 ;;		 -> STR_13(4), STR_12(6), STR_11(6), STR_10(4), 
 10135 ;;		 -> STR_9(6), STR_8(5), STR_7(5), STR_6(5), 
 10136 ;;		 -> STR_5(5), STR_4(4), STR_3(5), STR_2(6), 
 10137 ;; Return value:  Size  Location     Type
 10138 ;;                  2   14[COMRAM] unsigned int 
 10139 ;; Registers used:
 10140 ;;		wreg, status,2, status,0, tblptrl, tblptrh, tblptru
 10141 ;; Tracked objects:
 10142 ;;		On entry : 0/0
 10143 ;;		On exit  : 0/0
 10144 ;;		Unchanged: 0/0
 10145 ;; Data sizes:     COMRAM   BANK0   BANK1   BANK2   BANK3   BANK4   BANK5   BANK6   BANK7   BANK8   BANK9  BANK10  BANK1
      +1  BANK12  BANK13  BANK14
 10146 ;;      Params:         2       0       0       0       0       0       0       0       0       0       0       0       
      +0       0       0       0
 10147 ;;      Locals:         2       0       0       0       0       0       0       0       0       0       0       0       
      +0       0       0       0
 10148 ;;      Temps:          2       0       0       0       0       0       0       0       0       0       0       0       
      +0       0       0       0
 10149 ;;      Totals:         6       0       0       0       0       0       0       0       0       0       0       0       
      +0       0       0       0
 10150 ;;Total ram usage:        6 bytes
 10151 ;; Hardware stack levels used:    1
 10152 ;; Hardware stack levels required when called:    4
 10153 ;; This function calls:
 10154 ;;		Nothing
 10155 ;; This function is called by:
 10156 ;;		_wr8s
 10157 ;; This function uses a non-reentrant model
 10158 ;;
 10159                           
 10160                           	psect	text20
 10161  005E2E                     __ptext20:
 10162                           	opt stack 0
 10163  005E2E                     _strlen:
 10164                           	opt stack 24
 10165                           
 10166                           ;incstack = 0
 10167  005E2E  C00F  F013         	movff	strlen@s,strlen@cp
 10168  005E32  C010  F014         	movff	strlen@s+1,strlen@cp+1
 10169  005E36  D002               	goto	l3012
 10170  005E38                     l3010:
 10171  005E38  4A13               	infsnz	strlen@cp,f,c
 10172  005E3A  2A14               	incf	strlen@cp+1,f,c
 10173  005E3C                     l3012:
 10174  005E3C  C013  FFF6         	movff	strlen@cp,tblptrl
 10175  005E40  C014  FFF7         	movff	strlen@cp+1,tblptrh
 10176  005E44                     	if	0	;tblptru may be non-zero
 10177  005E44                     	endif
 10178  005E44                     	if	0	;tblptru may be non-zero
 10179  005E44                     	endif
 10180  005E44  0008               	tblrd		*
 10181  005E46  50F5               	movf	tablat,w,c
 10182  005E48  0900               	iorlw	0
 10183  005E4A  A4D8               	btfss	status,2,c
 10184  005E4C  D7F5               	goto	l3010
 10185  005E4E  C00F  F011         	movff	strlen@s,??_strlen
 10186  005E52  C010  F012         	movff	strlen@s+1,??_strlen+1
 10187  005E56  1E11               	comf	??_strlen,f,c
 10188  005E58  1E12               	comf	??_strlen+1,f,c
 10189  005E5A  4A11               	infsnz	??_strlen,f,c
 10190  005E5C  2A12               	incf	??_strlen+1,f,c
 10191  005E5E  5013               	movf	strlen@cp,w,c
 10192  005E60  2411               	addwf	??_strlen,w,c
 10193  005E62  6E0F               	movwf	?_strlen,c
 10194  005E64  5014               	movf	strlen@cp+1,w,c
 10195  005E66  2012               	addwfc	??_strlen+1,w,c
 10196  005E68  6E10               	movwf	?_strlen+1,c
 10197  005E6A  0012               	return	
 10198  005E6C                     __end_of_strlen:
 10199                           	opt stack 0
 10200                           tblptru	equ	0xFF8
 10201                           tblptrh	equ	0xFF7
 10202                           tblptrl	equ	0xFF6
 10203                           tablat	equ	0xFF5
 10204                           prodh	equ	0xFF4
 10205                           prodl	equ	0xFF3
 10206                           wreg	equ	0xFE8
 10207                           status	equ	0xFD8
 10208                           
 10209 ;; *************** function _cmd *****************
 10210 ;; Defined at:
 10211 ;;		line 126 in file "Gue/FT800.c"
 10212 ;; Parameters:    Size  Location     Type
 10213 ;;  command         4   29[COMRAM] unsigned long 
 10214 ;; Auto vars:     Size  Location     Type
 10215 ;;		None
 10216 ;; Return value:  Size  Location     Type
 10217 ;;                  1    wreg      void 
 10218 ;; Registers used:
 10219 ;;		wreg, status,2, status,0, cstack
 10220 ;; Tracked objects:
 10221 ;;		On entry : 0/0
 10222 ;;		On exit  : 0/0
 10223 ;;		Unchanged: 0/0
 10224 ;; Data sizes:     COMRAM   BANK0   BANK1   BANK2   BANK3   BANK4   BANK5   BANK6   BANK7   BANK8   BANK9  BANK10  BANK1
      +1  BANK12  BANK13  BANK14
 10225 ;;      Params:         4       0       0       0       0       0       0       0       0       0       0       0       
      +0       0       0       0
 10226 ;;      Locals:         0       0       0       0       0       0       0       0       0       0       0       0       
      +0       0       0       0
 10227 ;;      Temps:          3       0       0       0       0       0       0       0       0       0       0       0       
      +0       0       0       0
 10228 ;;      Totals:         7       0       0       0       0       0       0       0       0       0       0       0       
      +0       0       0       0
 10229 ;;Total ram usage:        7 bytes
 10230 ;; Hardware stack levels used:    1
 10231 ;; Hardware stack levels required when called:    6
 10232 ;; This function calls:
 10233 ;;		_cmd_incrementn
 10234 ;;		_wr32
 10235 ;; This function is called by:
 10236 ;;		_display_start
 10237 ;;		_display_end
 10238 ;;		_display_labels
 10239 ;;		_display_message
 10240 ;;		_display_laptime
 10241 ;;		_display_waterTemp
 10242 ;;		_display_oilTemp
 10243 ;;		_display_fuel
 10244 ;;		_display_battery
 10245 ;;		_display_oilPress
 10246 ;;		_display_tp
 10247 ;;		_display_speed
 10248 ;;		_display_rpm
 10249 ;;		_display_gear
 10250 ;; This function uses a non-reentrant model
 10251 ;;
 10252                           
 10253                           	psect	text21
 10254  005EA8                     __ptext21:
 10255                           	opt stack 0
 10256  005EA8                     _cmd:
 10257                           	opt stack 23
 10258                           
 10259                           ;FT800.c: 127: wr32(1081344UL + cmd_offset, command);cmd_incrementn(4);
 10260                           
 10261                           ;incstack = 0
 10262  005EA8  C037  F022         	movff	_cmd_offset,??_cmd
 10263  005EAC  C038  F023         	movff	_cmd_offset+1,??_cmd+1
 10264  005EB0  6A24               	clrf	(??_cmd+2)& (0+255),c
 10265  005EB2  0E00               	movlw	0
 10266  005EB4  2422               	addwf	??_cmd,w,c
 10267  005EB6  6E10               	movwf	wr32@addr,c
 10268  005EB8  0E80               	movlw	128
 10269  005EBA  2023               	addwfc	??_cmd+1,w,c
 10270  005EBC  6E11               	movwf	wr32@addr+1,c
 10271  005EBE  0E10               	movlw	16
 10272  005EC0  2024               	addwfc	??_cmd+2,w,c
 10273  005EC2  6E12               	movwf	wr32@addr+2,c
 10274  005EC4  C01E  F013         	movff	cmd@command,wr32@value
 10275  005EC8  C01F  F014         	movff	cmd@command+1,wr32@value+1
 10276  005ECC  C020  F015         	movff	cmd@command+2,wr32@value+2
 10277  005ED0  C021  F016         	movff	cmd@command+3,wr32@value+3
 10278  005ED4  EC15  F02E         	call	_wr32	;wreg free
 10279  005ED8  0E04               	movlw	4
 10280  005EDA  EC9B  F02F         	call	_cmd_incrementn
 10281  005EDE  0012               	return		;funcret
 10282  005EE0                     __end_of_cmd:
 10283                           	opt stack 0
 10284                           tblptru	equ	0xFF8
 10285                           tblptrh	equ	0xFF7
 10286                           tblptrl	equ	0xFF6
 10287                           tablat	equ	0xFF5
 10288                           prodh	equ	0xFF4
 10289                           prodl	equ	0xFF3
 10290                           wreg	equ	0xFE8
 10291                           status	equ	0xFD8
 10292                           
 10293 ;; *************** function _cmd_incrementn *****************
 10294 ;; Defined at:
 10295 ;;		line 122 in file "Gue/FT800.c"
 10296 ;; Parameters:    Size  Location     Type
 10297 ;;  n               1    wreg     unsigned char 
 10298 ;; Auto vars:     Size  Location     Type
 10299 ;;  n               1   16[COMRAM] unsigned char 
 10300 ;; Return value:  Size  Location     Type
 10301 ;;                  1    wreg      void 
 10302 ;; Registers used:
 10303 ;;		wreg, status,2, status,0
 10304 ;; Tracked objects:
 10305 ;;		On entry : 0/0
 10306 ;;		On exit  : 0/0
 10307 ;;		Unchanged: 0/0
 10308 ;; Data sizes:     COMRAM   BANK0   BANK1   BANK2   BANK3   BANK4   BANK5   BANK6   BANK7   BANK8   BANK9  BANK10  BANK1
      +1  BANK12  BANK13  BANK14
 10309 ;;      Params:         0       0       0       0       0       0       0       0       0       0       0       0       
      +0       0       0       0
 10310 ;;      Locals:         1       0       0       0       0       0       0       0       0       0       0       0       
      +0       0       0       0
 10311 ;;      Temps:          2       0       0       0       0       0       0       0       0       0       0       0       
      +0       0       0       0
 10312 ;;      Totals:         3       0       0       0       0       0       0       0       0       0       0       0       
      +0       0       0       0
 10313 ;;Total ram usage:        3 bytes
 10314 ;; Hardware stack levels used:    1
 10315 ;; Hardware stack levels required when called:    4
 10316 ;; This function calls:
 10317 ;;		Nothing
 10318 ;; This function is called by:
 10319 ;;		_cmd
 10320 ;;		_display_labels
 10321 ;;		_display_message
 10322 ;;		_display_laptime
 10323 ;;		_display_waterTemp
 10324 ;;		_display_oilTemp
 10325 ;;		_display_fuel
 10326 ;;		_display_battery
 10327 ;;		_display_oilPress
 10328 ;;		_display_tp
 10329 ;;		_display_speed
 10330 ;;		_display_rpm
 10331 ;; This function uses a non-reentrant model
 10332 ;;
 10333                           
 10334                           	psect	text22
 10335  005F36                     __ptext22:
 10336                           	opt stack 0
 10337  005F36                     _cmd_incrementn:
 10338                           	opt stack 25
 10339                           
 10340                           ;incstack = 0
 10341                           ;cmd_incrementn@n stored from wreg
 10342  005F36  6E11               	movwf	cmd_incrementn@n,c
 10343                           
 10344                           ;FT800.c: 123: cmd_offset=(cmd_offset+n)%4096;
 10345  005F38  5011               	movf	cmd_incrementn@n,w,c
 10346  005F3A  2437               	addwf	_cmd_offset,w,c
 10347  005F3C  6E0F               	movwf	??_cmd_incrementn& (0+255),c
 10348  005F3E  0E00               	movlw	0
 10349  005F40  2038               	addwfc	_cmd_offset+1,w,c
 10350  005F42  6E10               	movwf	(??_cmd_incrementn+1)& (0+255),c
 10351  005F44  0EFF               	movlw	255
 10352  005F46  140F               	andwf	??_cmd_incrementn,w,c
 10353  005F48  6E37               	movwf	_cmd_offset,c
 10354  005F4A  0E0F               	movlw	15
 10355  005F4C  1410               	andwf	??_cmd_incrementn+1,w,c
 10356  005F4E  6E38               	movwf	_cmd_offset+1,c
 10357  005F50  0012               	return		;funcret
 10358  005F52                     __end_of_cmd_incrementn:
 10359                           	opt stack 0
 10360                           tblptru	equ	0xFF8
 10361                           tblptrh	equ	0xFF7
 10362                           tblptrl	equ	0xFF6
 10363                           tablat	equ	0xFF5
 10364                           prodh	equ	0xFF4
 10365                           prodl	equ	0xFF3
 10366                           wreg	equ	0xFE8
 10367                           status	equ	0xFD8
 10368                           
 10369 ;; *************** function _SYSTEM_Initialize *****************
 10370 ;; Defined at:
 10371 ;;		line 111 in file "mcc_generated_files/mcc.c"
 10372 ;; Parameters:    Size  Location     Type
 10373 ;;		None
 10374 ;; Auto vars:     Size  Location     Type
 10375 ;;		None
 10376 ;; Return value:  Size  Location     Type
 10377 ;;                  1    wreg      void 
 10378 ;; Registers used:
 10379 ;;		wreg, status,2, status,0, cstack
 10380 ;; Tracked objects:
 10381 ;;		On entry : 0/0
 10382 ;;		On exit  : 0/0
 10383 ;;		Unchanged: 0/0
 10384 ;; Data sizes:     COMRAM   BANK0   BANK1   BANK2   BANK3   BANK4   BANK5   BANK6   BANK7   BANK8   BANK9  BANK10  BANK1
      +1  BANK12  BANK13  BANK14
 10385 ;;      Params:         0       0       0       0       0       0       0       0       0       0       0       0       
      +0       0       0       0
 10386 ;;      Locals:         0       0       0       0       0       0       0       0       0       0       0       0       
      +0       0       0       0
 10387 ;;      Temps:          0       0       0       0       0       0       0       0       0       0       0       0       
      +0       0       0       0
 10388 ;;      Totals:         0       0       0       0       0       0       0       0       0       0       0       0       
      +0       0       0       0
 10389 ;;Total ram usage:        0 bytes
 10390 ;; Hardware stack levels used:    1
 10391 ;; Hardware stack levels required when called:    6
 10392 ;; This function calls:
 10393 ;;		_ECAN_Initialize
 10394 ;;		_OSCILLATOR_Initialize
 10395 ;;		_PIN_MANAGER_Initialize
 10396 ;;		_SPI_Initialize
 10397 ;; This function is called by:
 10398 ;;		_main
 10399 ;; This function uses a non-reentrant model
 10400 ;;
 10401                           
 10402                           	psect	text23
 10403  005FB2                     __ptext23:
 10404                           	opt stack 0
 10405  005FB2                     _SYSTEM_Initialize:
 10406                           	opt stack 24
 10407                           
 10408                           ;mcc.c: 114: PIN_MANAGER_Initialize();
 10409                           
 10410                           ;incstack = 0
 10411  005FB2  ECB1  F02E         	call	_PIN_MANAGER_Initialize	;wreg free
 10412                           
 10413                           ;mcc.c: 115: OSCILLATOR_Initialize();
 10414  005FB6  ECE2  F02F         	call	_OSCILLATOR_Initialize	;wreg free
 10415                           
 10416                           ;mcc.c: 116: SPI_Initialize();
 10417  005FBA  ECF3  F02F         	call	_SPI_Initialize	;wreg free
 10418                           
 10419                           ;mcc.c: 117: ECAN_Initialize();
 10420  005FBE  ECC4  F02B         	call	_ECAN_Initialize	;wreg free
 10421  005FC2  0012               	return		;funcret
 10422  005FC4                     __end_of_SYSTEM_Initialize:
 10423                           	opt stack 0
 10424                           tblptru	equ	0xFF8
 10425                           tblptrh	equ	0xFF7
 10426                           tblptrl	equ	0xFF6
 10427                           tablat	equ	0xFF5
 10428                           prodh	equ	0xFF4
 10429                           prodl	equ	0xFF3
 10430                           wreg	equ	0xFE8
 10431                           status	equ	0xFD8
 10432                           
 10433 ;; *************** function _SPI_Initialize *****************
 10434 ;; Defined at:
 10435 ;;		line 63 in file "mcc_generated_files/spi.c"
 10436 ;; Parameters:    Size  Location     Type
 10437 ;;		None
 10438 ;; Auto vars:     Size  Location     Type
 10439 ;;		None
 10440 ;; Return value:  Size  Location     Type
 10441 ;;                  1    wreg      void 
 10442 ;; Registers used:
 10443 ;;		wreg, status,2
 10444 ;; Tracked objects:
 10445 ;;		On entry : 0/0
 10446 ;;		On exit  : 0/0
 10447 ;;		Unchanged: 0/0
 10448 ;; Data sizes:     COMRAM   BANK0   BANK1   BANK2   BANK3   BANK4   BANK5   BANK6   BANK7   BANK8   BANK9  BANK10  BANK1
      +1  BANK12  BANK13  BANK14
 10449 ;;      Params:         0       0       0       0       0       0       0       0       0       0       0       0       
      +0       0       0       0
 10450 ;;      Locals:         0       0       0       0       0       0       0       0       0       0       0       0       
      +0       0       0       0
 10451 ;;      Temps:          0       0       0       0       0       0       0       0       0       0       0       0       
      +0       0       0       0
 10452 ;;      Totals:         0       0       0       0       0       0       0       0       0       0       0       0       
      +0       0       0       0
 10453 ;;Total ram usage:        0 bytes
 10454 ;; Hardware stack levels used:    1
 10455 ;; Hardware stack levels required when called:    4
 10456 ;; This function calls:
 10457 ;;		Nothing
 10458 ;; This function is called by:
 10459 ;;		_SYSTEM_Initialize
 10460 ;; This function uses a non-reentrant model
 10461 ;;
 10462                           
 10463                           	psect	text24
 10464  005FE6                     __ptext24:
 10465                           	opt stack 0
 10466  005FE6                     _SPI_Initialize:
 10467                           	opt stack 25
 10468                           
 10469                           ;spi.c: 68: SSPSTAT = 0x00;
 10470                           
 10471                           ;incstack = 0
 10472  005FE6  0E00               	movlw	0
 10473  005FE8  6EC7               	movwf	4039,c	;volatile
 10474                           
 10475                           ;spi.c: 71: SSPCON1 = 0x20;
 10476  005FEA  0E20               	movlw	32
 10477  005FEC  6EC6               	movwf	4038,c	;volatile
 10478                           
 10479                           ;spi.c: 74: SSPADD = 0x00;
 10480  005FEE  0E00               	movlw	0
 10481  005FF0  6EC8               	movwf	4040,c	;volatile
 10482  005FF2  0012               	return		;funcret
 10483  005FF4                     __end_of_SPI_Initialize:
 10484                           	opt stack 0
 10485                           tblptru	equ	0xFF8
 10486                           tblptrh	equ	0xFF7
 10487                           tblptrl	equ	0xFF6
 10488                           tablat	equ	0xFF5
 10489                           prodh	equ	0xFF4
 10490                           prodl	equ	0xFF3
 10491                           wreg	equ	0xFE8
 10492                           status	equ	0xFD8
 10493                           
 10494 ;; *************** function _PIN_MANAGER_Initialize *****************
 10495 ;; Defined at:
 10496 ;;		line 53 in file "mcc_generated_files/pin_manager.c"
 10497 ;; Parameters:    Size  Location     Type
 10498 ;;		None
 10499 ;; Auto vars:     Size  Location     Type
 10500 ;;		None
 10501 ;; Return value:  Size  Location     Type
 10502 ;;                  1    wreg      void 
 10503 ;; Registers used:
 10504 ;;		wreg, status,2, status,0, cstack
 10505 ;; Tracked objects:
 10506 ;;		On entry : 0/0
 10507 ;;		On exit  : 0/0
 10508 ;;		Unchanged: 0/0
 10509 ;; Data sizes:     COMRAM   BANK0   BANK1   BANK2   BANK3   BANK4   BANK5   BANK6   BANK7   BANK8   BANK9  BANK10  BANK1
      +1  BANK12  BANK13  BANK14
 10510 ;;      Params:         0       0       0       0       0       0       0       0       0       0       0       0       
      +0       0       0       0
 10511 ;;      Locals:         0       0       0       0       0       0       0       0       0       0       0       0       
      +0       0       0       0
 10512 ;;      Temps:          0       0       0       0       0       0       0       0       0       0       0       0       
      +0       0       0       0
 10513 ;;      Totals:         0       0       0       0       0       0       0       0       0       0       0       0       
      +0       0       0       0
 10514 ;;Total ram usage:        0 bytes
 10515 ;; Hardware stack levels used:    1
 10516 ;; Hardware stack levels required when called:    5
 10517 ;; This function calls:
 10518 ;;		_IOCB4_SetInterruptHandler
 10519 ;; This function is called by:
 10520 ;;		_SYSTEM_Initialize
 10521 ;; This function uses a non-reentrant model
 10522 ;;
 10523                           
 10524                           	psect	text25
 10525  005D62                     __ptext25:
 10526                           	opt stack 0
 10527  005D62                     _PIN_MANAGER_Initialize:
 10528                           	opt stack 24
 10529                           
 10530                           ;pin_manager.c: 58: LATE = 0x00;
 10531                           
 10532                           ;incstack = 0
 10533  005D62  0E00               	movlw	0
 10534  005D64  6E8D               	movwf	3981,c	;volatile
 10535                           
 10536                           ;pin_manager.c: 59: LATD = 0x00;
 10537  005D66  0E00               	movlw	0
 10538  005D68  6E8C               	movwf	3980,c	;volatile
 10539                           
 10540                           ;pin_manager.c: 60: LATA = 0x07;
 10541  005D6A  0E07               	movlw	7
 10542  005D6C  6E89               	movwf	3977,c	;volatile
 10543                           
 10544                           ;pin_manager.c: 61: LATB = 0x00;
 10545  005D6E  0E00               	movlw	0
 10546  005D70  6E8A               	movwf	3978,c	;volatile
 10547                           
 10548                           ;pin_manager.c: 62: LATC = 0x00;
 10549  005D72  0E00               	movlw	0
 10550  005D74  6E8B               	movwf	3979,c	;volatile
 10551                           
 10552                           ;pin_manager.c: 67: TRISE = 0x07;
 10553  005D76  0E07               	movlw	7
 10554  005D78  6E96               	movwf	3990,c	;volatile
 10555                           
 10556                           ;pin_manager.c: 68: TRISA = 0xED;
 10557  005D7A  0EED               	movlw	237
 10558  005D7C  6E92               	movwf	3986,c	;volatile
 10559                           
 10560                           ;pin_manager.c: 69: TRISB = 0xFB;
 10561  005D7E  0EFB               	movlw	251
 10562  005D80  6E93               	movwf	3987,c	;volatile
 10563                           
 10564                           ;pin_manager.c: 70: TRISC = 0x95;
 10565  005D82  0E95               	movlw	149
 10566  005D84  6E94               	movwf	3988,c	;volatile
 10567                           
 10568                           ;pin_manager.c: 71: TRISD = 0xBC;
 10569  005D86  0EBC               	movlw	188
 10570  005D88  6E95               	movwf	3989,c	;volatile
 10571                           
 10572                           ;pin_manager.c: 76: ANCON0 = 0xF8;
 10573  005D8A  0EF8               	movlw	248
 10574  005D8C  010F               	movlb	15	; () banked
 10575  005D8E  6F5D               	movwf	93,b	;volatile
 10576                           
 10577                           ;pin_manager.c: 77: ANCON1 = 0x65;
 10578  005D90  0E65               	movlw	101
 10579  005D92  010F               	movlb	15	; () banked
 10580  005D94  6F5C               	movwf	92,b	;volatile
 10581                           
 10582                           ; BSR set to: 15
 10583                           ;pin_manager.c: 82: WPUB = 0xFF;
 10584  005D96  010F               	movlb	15	; () banked
 10585  005D98  695B               	setf	91,b	;volatile
 10586                           
 10587                           ; BSR set to: 15
 10588                           ;pin_manager.c: 90: IOCBbits.IOCB4 = 1;
 10589  005D9A  010F               	movlb	15	; () banked
 10590  005D9C  895A               	bsf	90,4,b	;volatile
 10591                           
 10592                           ; BSR set to: 15
 10593                           ;pin_manager.c: 93: IOCB4_SetInterruptHandler(IOCB4_DefaultInterruptHandler);
 10594  005D9E  0E16               	movlw	low _IOCB4_DefaultInterruptHandler
 10595  005DA0  6E0F               	movwf	IOCB4_SetInterruptHandler@InterruptHandler,c
 10596  005DA2  0E60               	movlw	high _IOCB4_DefaultInterruptHandler
 10597  005DA4  6E10               	movwf	IOCB4_SetInterruptHandler@InterruptHandler+1,c
 10598  005DA6  EC06  F030         	call	_IOCB4_SetInterruptHandler	;wreg free
 10599                           
 10600                           ;pin_manager.c: 96: INTCONbits.RBIE = 1;
 10601  005DAA  86F2               	bsf	intcon,3,c	;volatile
 10602  005DAC  0012               	return		;funcret
 10603  005DAE                     __end_of_PIN_MANAGER_Initialize:
 10604                           	opt stack 0
 10605                           tblptru	equ	0xFF8
 10606                           tblptrh	equ	0xFF7
 10607                           tblptrl	equ	0xFF6
 10608                           tablat	equ	0xFF5
 10609                           prodh	equ	0xFF4
 10610                           prodl	equ	0xFF3
 10611                           intcon	equ	0xFF2
 10612                           wreg	equ	0xFE8
 10613                           status	equ	0xFD8
 10614                           
 10615 ;; *************** function _IOCB4_SetInterruptHandler *****************
 10616 ;; Defined at:
 10617 ;;		line 130 in file "mcc_generated_files/pin_manager.c"
 10618 ;; Parameters:    Size  Location     Type
 10619 ;;  InterruptHan    2   14[COMRAM] PTR void 
 10620 ;;		 -> IOCB4_DefaultInterruptHandler(1), 
 10621 ;; Auto vars:     Size  Location     Type
 10622 ;;		None
 10623 ;; Return value:  Size  Location     Type
 10624 ;;                  1    wreg      void 
 10625 ;; Registers used:
 10626 ;;		wreg, status,2, status,0
 10627 ;; Tracked objects:
 10628 ;;		On entry : 0/0
 10629 ;;		On exit  : 0/0
 10630 ;;		Unchanged: 0/0
 10631 ;; Data sizes:     COMRAM   BANK0   BANK1   BANK2   BANK3   BANK4   BANK5   BANK6   BANK7   BANK8   BANK9  BANK10  BANK1
      +1  BANK12  BANK13  BANK14
 10632 ;;      Params:         2       0       0       0       0       0       0       0       0       0       0       0       
      +0       0       0       0
 10633 ;;      Locals:         0       0       0       0       0       0       0       0       0       0       0       0       
      +0       0       0       0
 10634 ;;      Temps:          0       0       0       0       0       0       0       0       0       0       0       0       
      +0       0       0       0
 10635 ;;      Totals:         2       0       0       0       0       0       0       0       0       0       0       0       
      +0       0       0       0
 10636 ;;Total ram usage:        2 bytes
 10637 ;; Hardware stack levels used:    1
 10638 ;; Hardware stack levels required when called:    4
 10639 ;; This function calls:
 10640 ;;		Nothing
 10641 ;; This function is called by:
 10642 ;;		_PIN_MANAGER_Initialize
 10643 ;; This function uses a non-reentrant model
 10644 ;;
 10645                           
 10646                           	psect	text26
 10647  00600C                     __ptext26:
 10648                           	opt stack 0
 10649  00600C                     _IOCB4_SetInterruptHandler:
 10650                           	opt stack 24
 10651                           
 10652                           ;pin_manager.c: 131: IOCB4_InterruptHandler = InterruptHandler;
 10653                           
 10654                           ;incstack = 0
 10655  00600C  C00F  F03B         	movff	IOCB4_SetInterruptHandler@InterruptHandler,_IOCB4_InterruptHandler
 10656  006010  C010  F03C         	movff	IOCB4_SetInterruptHandler@InterruptHandler+1,_IOCB4_InterruptHandler+1
 10657  006014  0012               	return		;funcret
 10658  006016                     __end_of_IOCB4_SetInterruptHandler:
 10659                           	opt stack 0
 10660                           tblptru	equ	0xFF8
 10661                           tblptrh	equ	0xFF7
 10662                           tblptrl	equ	0xFF6
 10663                           tablat	equ	0xFF5
 10664                           prodh	equ	0xFF4
 10665                           prodl	equ	0xFF3
 10666                           intcon	equ	0xFF2
 10667                           wreg	equ	0xFE8
 10668                           status	equ	0xFD8
 10669                           
 10670 ;; *************** function _OSCILLATOR_Initialize *****************
 10671 ;; Defined at:
 10672 ;;		line 120 in file "mcc_generated_files/mcc.c"
 10673 ;; Parameters:    Size  Location     Type
 10674 ;;		None
 10675 ;; Auto vars:     Size  Location     Type
 10676 ;;		None
 10677 ;; Return value:  Size  Location     Type
 10678 ;;                  1    wreg      void 
 10679 ;; Registers used:
 10680 ;;		wreg, status,2
 10681 ;; Tracked objects:
 10682 ;;		On entry : 0/0
 10683 ;;		On exit  : 0/0
 10684 ;;		Unchanged: 0/0
 10685 ;; Data sizes:     COMRAM   BANK0   BANK1   BANK2   BANK3   BANK4   BANK5   BANK6   BANK7   BANK8   BANK9  BANK10  BANK1
      +1  BANK12  BANK13  BANK14
 10686 ;;      Params:         0       0       0       0       0       0       0       0       0       0       0       0       
      +0       0       0       0
 10687 ;;      Locals:         0       0       0       0       0       0       0       0       0       0       0       0       
      +0       0       0       0
 10688 ;;      Temps:          0       0       0       0       0       0       0       0       0       0       0       0       
      +0       0       0       0
 10689 ;;      Totals:         0       0       0       0       0       0       0       0       0       0       0       0       
      +0       0       0       0
 10690 ;;Total ram usage:        0 bytes
 10691 ;; Hardware stack levels used:    1
 10692 ;; Hardware stack levels required when called:    4
 10693 ;; This function calls:
 10694 ;;		Nothing
 10695 ;; This function is called by:
 10696 ;;		_SYSTEM_Initialize
 10697 ;; This function uses a non-reentrant model
 10698 ;;
 10699                           
 10700                           	psect	text27
 10701  005FC4                     __ptext27:
 10702                           	opt stack 0
 10703  005FC4                     _OSCILLATOR_Initialize:
 10704                           	opt stack 25
 10705                           
 10706                           ;mcc.c: 123: OSCCON = 0x60;
 10707                           
 10708                           ;incstack = 0
 10709  005FC4  0E60               	movlw	96
 10710  005FC6  6ED3               	movwf	4051,c	;volatile
 10711                           
 10712                           ;mcc.c: 125: OSCCON2 = 0x00;
 10713  005FC8  0E00               	movlw	0
 10714  005FCA  6ED2               	movwf	4050,c	;volatile
 10715                           
 10716                           ;mcc.c: 127: OSCTUNE = 0x00;
 10717  005FCC  0E00               	movlw	0
 10718  005FCE  6E9B               	movwf	3995,c	;volatile
 10719                           
 10720                           ;mcc.c: 129: REFOCON = 0x00;
 10721  005FD0  0E00               	movlw	0
 10722  005FD2  6E9A               	movwf	3994,c	;volatile
 10723  005FD4  0012               	return		;funcret
 10724  005FD6                     __end_of_OSCILLATOR_Initialize:
 10725                           	opt stack 0
 10726                           tblptru	equ	0xFF8
 10727                           tblptrh	equ	0xFF7
 10728                           tblptrl	equ	0xFF6
 10729                           tablat	equ	0xFF5
 10730                           prodh	equ	0xFF4
 10731                           prodl	equ	0xFF3
 10732                           intcon	equ	0xFF2
 10733                           wreg	equ	0xFE8
 10734                           status	equ	0xFD8
 10735                           
 10736 ;; *************** function _ECAN_Initialize *****************
 10737 ;; Defined at:
 10738 ;;		line 63 in file "mcc_generated_files/ecan.c"
 10739 ;; Parameters:    Size  Location     Type
 10740 ;;		None
 10741 ;; Auto vars:     Size  Location     Type
 10742 ;;		None
 10743 ;; Return value:  Size  Location     Type
 10744 ;;                  1    wreg      void 
 10745 ;; Registers used:
 10746 ;;		wreg, status,2, status,0
 10747 ;; Tracked objects:
 10748 ;;		On entry : 0/0
 10749 ;;		On exit  : 0/0
 10750 ;;		Unchanged: 0/0
 10751 ;; Data sizes:     COMRAM   BANK0   BANK1   BANK2   BANK3   BANK4   BANK5   BANK6   BANK7   BANK8   BANK9  BANK10  BANK1
      +1  BANK12  BANK13  BANK14
 10752 ;;      Params:         0       0       0       0       0       0       0       0       0       0       0       0       
      +0       0       0       0
 10753 ;;      Locals:         0       0       0       0       0       0       0       0       0       0       0       0       
      +0       0       0       0
 10754 ;;      Temps:          1       0       0       0       0       0       0       0       0       0       0       0       
      +0       0       0       0
 10755 ;;      Totals:         1       0       0       0       0       0       0       0       0       0       0       0       
      +0       0       0       0
 10756 ;;Total ram usage:        1 bytes
 10757 ;; Hardware stack levels used:    1
 10758 ;; Hardware stack levels required when called:    4
 10759 ;; This function calls:
 10760 ;;		Nothing
 10761 ;; This function is called by:
 10762 ;;		_SYSTEM_Initialize
 10763 ;; This function uses a non-reentrant model
 10764 ;;
 10765                           
 10766                           	psect	text28
 10767  005788                     __ptext28:
 10768                           	opt stack 0
 10769  005788                     _ECAN_Initialize:
 10770                           	opt stack 25
 10771                           
 10772                           ;ecan.c: 65: CANCON = 0x80;
 10773                           
 10774                           ;incstack = 0
 10775  005788  0E80               	movlw	128
 10776  00578A  6E6F               	movwf	3951,c	;volatile
 10777  00578C                     l1362:
 10778  00578C  506E               	movf	3950,w,c	;volatile
 10779  00578E  0BE0               	andlw	224
 10780  005790  0A80               	xorlw	128
 10781  005792  A4D8               	btfss	status,2,c
 10782  005794  D7FB               	goto	l1362
 10783                           
 10784                           ;ecan.c: 71: ECANCON = 0x00;
 10785  005796  0E00               	movlw	0
 10786  005798  6E72               	movwf	3954,c	;volatile
 10787                           
 10788                           ;ecan.c: 86: RXM0EIDH = 0xFF;
 10789  00579A  010E               	movlb	14	; () banked
 10790  00579C  69FA               	setf	250,b	;volatile
 10791                           
 10792                           ; BSR set to: 14
 10793                           ;ecan.c: 87: RXM0EIDL = 0xFF;
 10794  00579E  010E               	movlb	14	; () banked
 10795  0057A0  69FB               	setf	251,b	;volatile
 10796                           
 10797                           ; BSR set to: 14
 10798                           ;ecan.c: 88: RXM0SIDH = 0xFF;
 10799  0057A2  010E               	movlb	14	; () banked
 10800  0057A4  69F8               	setf	248,b	;volatile
 10801                           
 10802                           ; BSR set to: 14
 10803                           ;ecan.c: 89: RXM0SIDL = 0xFF;
 10804  0057A6  010E               	movlb	14	; () banked
 10805  0057A8  69F9               	setf	249,b	;volatile
 10806                           
 10807                           ; BSR set to: 14
 10808                           ;ecan.c: 91: RXM1EIDH = 0xFF;
 10809  0057AA  010E               	movlb	14	; () banked
 10810  0057AC  69FE               	setf	254,b	;volatile
 10811                           
 10812                           ; BSR set to: 14
 10813                           ;ecan.c: 92: RXM1EIDL = 0xFF;
 10814  0057AE  010E               	movlb	14	; () banked
 10815  0057B0  69FF               	setf	255,b	;volatile
 10816                           
 10817                           ; BSR set to: 14
 10818                           ;ecan.c: 93: RXM1SIDH = 0xFF;
 10819  0057B2  010E               	movlb	14	; () banked
 10820  0057B4  69FC               	setf	252,b	;volatile
 10821                           
 10822                           ; BSR set to: 14
 10823                           ;ecan.c: 94: RXM1SIDL = 0xFF;
 10824  0057B6  010E               	movlb	14	; () banked
 10825  0057B8  69FD               	setf	253,b	;volatile
 10826                           
 10827                           ;ecan.c: 100: RXF0EIDH = 0x00;
 10828  0057BA  0E00               	movlw	0
 10829  0057BC  010E               	movlb	14	; () banked
 10830  0057BE  6FE2               	movwf	226,b	;volatile
 10831                           
 10832                           ;ecan.c: 101: RXF0EIDL = 0x00;
 10833  0057C0  0E00               	movlw	0
 10834  0057C2  010E               	movlb	14	; () banked
 10835  0057C4  6FE3               	movwf	227,b	;volatile
 10836                           
 10837                           ;ecan.c: 102: RXF0SIDH = 0xC8;
 10838  0057C6  0EC8               	movlw	200
 10839  0057C8  010E               	movlb	14	; () banked
 10840  0057CA  6FE0               	movwf	224,b	;volatile
 10841                           
 10842                           ;ecan.c: 103: RXF0SIDL = 0x00;
 10843  0057CC  0E00               	movlw	0
 10844  0057CE  010E               	movlb	14	; () banked
 10845  0057D0  6FE1               	movwf	225,b	;volatile
 10846                           
 10847                           ;ecan.c: 105: RXF1EIDH = 0x00;
 10848  0057D2  0E00               	movlw	0
 10849  0057D4  010E               	movlb	14	; () banked
 10850  0057D6  6FE6               	movwf	230,b	;volatile
 10851                           
 10852                           ;ecan.c: 106: RXF1EIDL = 0x00;
 10853  0057D8  0E00               	movlw	0
 10854  0057DA  010E               	movlb	14	; () banked
 10855  0057DC  6FE7               	movwf	231,b	;volatile
 10856                           
 10857                           ;ecan.c: 107: RXF1SIDH = 0x00;
 10858  0057DE  0E00               	movlw	0
 10859  0057E0  010E               	movlb	14	; () banked
 10860  0057E2  6FE4               	movwf	228,b	;volatile
 10861                           
 10862                           ;ecan.c: 108: RXF1SIDL = 0x00;
 10863  0057E4  0E00               	movlw	0
 10864  0057E6  010E               	movlb	14	; () banked
 10865  0057E8  6FE5               	movwf	229,b	;volatile
 10866                           
 10867                           ;ecan.c: 110: RXF2EIDH = 0x00;
 10868  0057EA  0E00               	movlw	0
 10869  0057EC  010E               	movlb	14	; () banked
 10870  0057EE  6FEA               	movwf	234,b	;volatile
 10871                           
 10872                           ;ecan.c: 111: RXF2EIDL = 0x00;
 10873  0057F0  0E00               	movlw	0
 10874  0057F2  010E               	movlb	14	; () banked
 10875  0057F4  6FEB               	movwf	235,b	;volatile
 10876                           
 10877                           ;ecan.c: 112: RXF2SIDH = 0x00;
 10878  0057F6  0E00               	movlw	0
 10879  0057F8  010E               	movlb	14	; () banked
 10880  0057FA  6FE8               	movwf	232,b	;volatile
 10881                           
 10882                           ;ecan.c: 113: RXF2SIDL = 0x00;
 10883  0057FC  0E00               	movlw	0
 10884  0057FE  010E               	movlb	14	; () banked
 10885  005800  6FE9               	movwf	233,b	;volatile
 10886                           
 10887                           ;ecan.c: 115: RXF3EIDH = 0x00;
 10888  005802  0E00               	movlw	0
 10889  005804  010E               	movlb	14	; () banked
 10890  005806  6FEE               	movwf	238,b	;volatile
 10891                           
 10892                           ;ecan.c: 116: RXF3EIDL = 0x00;
 10893  005808  0E00               	movlw	0
 10894  00580A  010E               	movlb	14	; () banked
 10895  00580C  6FEF               	movwf	239,b	;volatile
 10896                           
 10897                           ;ecan.c: 117: RXF3SIDH = 0x00;
 10898  00580E  0E00               	movlw	0
 10899  005810  010E               	movlb	14	; () banked
 10900  005812  6FEC               	movwf	236,b	;volatile
 10901                           
 10902                           ;ecan.c: 118: RXF3SIDL = 0x00;
 10903  005814  0E00               	movlw	0
 10904  005816  010E               	movlb	14	; () banked
 10905  005818  6FED               	movwf	237,b	;volatile
 10906                           
 10907                           ;ecan.c: 120: RXF4EIDH = 0x00;
 10908  00581A  0E00               	movlw	0
 10909  00581C  010E               	movlb	14	; () banked
 10910  00581E  6FF2               	movwf	242,b	;volatile
 10911                           
 10912                           ;ecan.c: 121: RXF4EIDL = 0x00;
 10913  005820  0E00               	movlw	0
 10914  005822  010E               	movlb	14	; () banked
 10915  005824  6FF3               	movwf	243,b	;volatile
 10916                           
 10917                           ;ecan.c: 122: RXF4SIDH = 0x00;
 10918  005826  0E00               	movlw	0
 10919  005828  010E               	movlb	14	; () banked
 10920  00582A  6FF0               	movwf	240,b	;volatile
 10921                           
 10922                           ;ecan.c: 123: RXF4SIDL = 0x00;
 10923  00582C  0E00               	movlw	0
 10924  00582E  010E               	movlb	14	; () banked
 10925  005830  6FF1               	movwf	241,b	;volatile
 10926                           
 10927                           ;ecan.c: 125: RXF5EIDH = 0x00;
 10928  005832  0E00               	movlw	0
 10929  005834  010E               	movlb	14	; () banked
 10930  005836  6FF6               	movwf	246,b	;volatile
 10931                           
 10932                           ;ecan.c: 126: RXF5EIDL = 0x00;
 10933  005838  0E00               	movlw	0
 10934  00583A  010E               	movlb	14	; () banked
 10935  00583C  6FF7               	movwf	247,b	;volatile
 10936                           
 10937                           ;ecan.c: 127: RXF5SIDH = 0x00;
 10938  00583E  0E00               	movlw	0
 10939  005840  010E               	movlb	14	; () banked
 10940  005842  6FF4               	movwf	244,b	;volatile
 10941                           
 10942                           ;ecan.c: 128: RXF5SIDL = 0x00;
 10943  005844  0E00               	movlw	0
 10944  005846  010E               	movlb	14	; () banked
 10945  005848  6FF5               	movwf	245,b	;volatile
 10946                           
 10947                           ;ecan.c: 143: BRGCON1 = 0x00;
 10948  00584A  0E00               	movlw	0
 10949  00584C  010E               	movlb	14	; () banked
 10950  00584E  6F43               	movwf	67,b	;volatile
 10951                           
 10952                           ;ecan.c: 144: BRGCON2 = 0x98;
 10953  005850  0E98               	movlw	152
 10954  005852  010E               	movlb	14	; () banked
 10955  005854  6F44               	movwf	68,b	;volatile
 10956                           
 10957                           ;ecan.c: 145: BRGCON3 = 0x01;
 10958  005856  0E01               	movlw	1
 10959  005858  010E               	movlb	14	; () banked
 10960  00585A  6F45               	movwf	69,b	;volatile
 10961                           
 10962                           ;ecan.c: 147: CANCON = 0x00;
 10963  00585C  0E00               	movlw	0
 10964  00585E  6E6F               	movwf	3951,c	;volatile
 10965  005860                     l1382:
 10966  005860  CF6E F00F          	movff	3950,??_ECAN_Initialize	;volatile
 10967  005864  0EE0               	movlw	224
 10968  005866  160F               	andwf	??_ECAN_Initialize,f,c
 10969  005868  B4D8               	btfsc	status,2,c
 10970  00586A  0012               	return	
 10971  00586C  D7F9               	goto	l1382
 10972  00586E                     __end_of_ECAN_Initialize:
 10973                           	opt stack 0
 10974                           tblptru	equ	0xFF8
 10975                           tblptrh	equ	0xFF7
 10976                           tblptrl	equ	0xFF6
 10977                           tablat	equ	0xFF5
 10978                           prodh	equ	0xFF4
 10979                           prodl	equ	0xFF3
 10980                           intcon	equ	0xFF2
 10981                           wreg	equ	0xFE8
 10982                           status	equ	0xFD8
 10983                           
 10984 ;; *************** function _FT800_Init *****************
 10985 ;; Defined at:
 10986 ;;		line 143 in file "Gue/FT800.c"
 10987 ;; Parameters:    Size  Location     Type
 10988 ;;		None
 10989 ;; Auto vars:     Size  Location     Type
 10990 ;;		None
 10991 ;; Return value:  Size  Location     Type
 10992 ;;                  1    wreg      void 
 10993 ;; Registers used:
 10994 ;;		wreg, status,2, status,0, cstack
 10995 ;; Tracked objects:
 10996 ;;		On entry : 0/0
 10997 ;;		On exit  : 0/0
 10998 ;;		Unchanged: 0/0
 10999 ;; Data sizes:     COMRAM   BANK0   BANK1   BANK2   BANK3   BANK4   BANK5   BANK6   BANK7   BANK8   BANK9  BANK10  BANK1
      +1  BANK12  BANK13  BANK14
 11000 ;;      Params:         0       0       0       0       0       0       0       0       0       0       0       0       
      +0       0       0       0
 11001 ;;      Locals:         0       0       0       0       0       0       0       0       0       0       0       0       
      +0       0       0       0
 11002 ;;      Temps:          1       0       0       0       0       0       0       0       0       0       0       0       
      +0       0       0       0
 11003 ;;      Totals:         1       0       0       0       0       0       0       0       0       0       0       0       
      +0       0       0       0
 11004 ;;Total ram usage:        1 bytes
 11005 ;; Hardware stack levels used:    1
 11006 ;; Hardware stack levels required when called:    6
 11007 ;; This function calls:
 11008 ;;		_host_command
 11009 ;;		_rd16
 11010 ;;		_wr16
 11011 ;;		_wr32
 11012 ;;		_wr8
 11013 ;; This function is called by:
 11014 ;;		_main
 11015 ;; This function uses a non-reentrant model
 11016 ;;
 11017                           
 11018                           	psect	text29
 11019  004F92                     __ptext29:
 11020                           	opt stack 0
 11021  004F92                     _FT800_Init:
 11022                           	opt stack 24
 11023                           
 11024                           ;FT800.c: 145: LATCbits.LATC1 = 0;
 11025                           
 11026                           ;incstack = 0
 11027  004F92  928B               	bcf	3979,1,c	;volatile
 11028                           
 11029                           ;FT800.c: 146: _delay((unsigned long)((20)*(16000000/4000.0)));
 11030  004F94  0E68               	movlw	104
 11031  004F96  6E1B               	movwf	??_FT800_Init& (0+255),c
 11032  004F98  0EE4               	movlw	228
 11033  004F9A                     u927:
 11034  004F9A  2EE8               	decfsz	wreg,f,c
 11035  004F9C  D7FE               	bra	u927
 11036  004F9E  2E1B               	decfsz	??_FT800_Init& (0+255),f,c
 11037  004FA0  D7FC               	bra	u927
 11038  004FA2  D000               	nop2	
 11039                           
 11040                           ;FT800.c: 147: LATCbits.LATC1 = 1;
 11041  004FA4  828B               	bsf	3979,1,c	;volatile
 11042                           
 11043                           ;FT800.c: 148: _delay((unsigned long)((20)*(16000000/4000.0)));
 11044  004FA6  0E68               	movlw	104
 11045  004FA8  6E1B               	movwf	??_FT800_Init& (0+255),c
 11046  004FAA  0EE4               	movlw	228
 11047  004FAC                     u937:
 11048  004FAC  2EE8               	decfsz	wreg,f,c
 11049  004FAE  D7FE               	bra	u937
 11050  004FB0  2E1B               	decfsz	??_FT800_Init& (0+255),f,c
 11051  004FB2  D7FC               	bra	u937
 11052  004FB4  D000               	nop2	
 11053                           
 11054                           ;FT800.c: 150: host_command(0x00);
 11055  004FB6  0E00               	movlw	0
 11056  004FB8  ECB6  F02F         	call	_host_command
 11057                           
 11058                           ;FT800.c: 152: host_command(0x44);
 11059  004FBC  0E44               	movlw	68
 11060  004FBE  ECB6  F02F         	call	_host_command
 11061                           
 11062                           ;FT800.c: 154: host_command(0x62);
 11063  004FC2  0E62               	movlw	98
 11064  004FC4  ECB6  F02F         	call	_host_command
 11065                           
 11066                           ;FT800.c: 157: wr16(1057840UL, 480);
 11067  004FC8  0E30               	movlw	48
 11068  004FCA  6E10               	movwf	wr16@addr,c
 11069  004FCC  0E24               	movlw	36
 11070  004FCE  6E11               	movwf	wr16@addr+1,c
 11071  004FD0  0E10               	movlw	16
 11072  004FD2  6E12               	movwf	wr16@addr+2,c
 11073  004FD4  0E01               	movlw	1
 11074  004FD6  6E14               	movwf	wr16@value+1,c
 11075  004FD8  0EE0               	movlw	224
 11076  004FDA  6E13               	movwf	wr16@value,c
 11077  004FDC  EC36  F02F         	call	_wr16	;wreg free
 11078                           
 11079                           ;FT800.c: 158: wr16(1057860UL, 272);
 11080  004FE0  0E44               	movlw	68
 11081  004FE2  6E10               	movwf	wr16@addr,c
 11082  004FE4  0E24               	movlw	36
 11083  004FE6  6E11               	movwf	wr16@addr+1,c
 11084  004FE8  0E10               	movlw	16
 11085  004FEA  6E12               	movwf	wr16@addr+2,c
 11086  004FEC  0E01               	movlw	1
 11087  004FEE  6E14               	movwf	wr16@value+1,c
 11088  004FF0  0E10               	movlw	16
 11089  004FF2  6E13               	movwf	wr16@value,c
 11090  004FF4  EC36  F02F         	call	_wr16	;wreg free
 11091                           
 11092                           ;FT800.c: 159: wr16(1057832UL, 525);
 11093  004FF8  0E28               	movlw	40
 11094  004FFA  6E10               	movwf	wr16@addr,c
 11095  004FFC  0E24               	movlw	36
 11096  004FFE  6E11               	movwf	wr16@addr+1,c
 11097  005000  0E10               	movlw	16
 11098  005002  6E12               	movwf	wr16@addr+2,c
 11099  005004  0E02               	movlw	2
 11100  005006  6E14               	movwf	wr16@value+1,c
 11101  005008  0E0D               	movlw	13
 11102  00500A  6E13               	movwf	wr16@value,c
 11103  00500C  EC36  F02F         	call	_wr16	;wreg free
 11104                           
 11105                           ;FT800.c: 160: wr16(1057844UL, 0);
 11106  005010  0E34               	movlw	52
 11107  005012  6E10               	movwf	wr16@addr,c
 11108  005014  0E24               	movlw	36
 11109  005016  6E11               	movwf	wr16@addr+1,c
 11110  005018  0E10               	movlw	16
 11111  00501A  6E12               	movwf	wr16@addr+2,c
 11112  00501C  0E00               	movlw	0
 11113  00501E  6E14               	movwf	wr16@value+1,c
 11114  005020  0E00               	movlw	0
 11115  005022  6E13               	movwf	wr16@value,c
 11116  005024  EC36  F02F         	call	_wr16	;wreg free
 11117                           
 11118                           ;FT800.c: 161: wr16(1057848UL, 41);
 11119  005028  0E38               	movlw	56
 11120  00502A  6E10               	movwf	wr16@addr,c
 11121  00502C  0E24               	movlw	36
 11122  00502E  6E11               	movwf	wr16@addr+1,c
 11123  005030  0E10               	movlw	16
 11124  005032  6E12               	movwf	wr16@addr+2,c
 11125  005034  0E00               	movlw	0
 11126  005036  6E14               	movwf	wr16@value+1,c
 11127  005038  0E29               	movlw	41
 11128  00503A  6E13               	movwf	wr16@value,c
 11129  00503C  EC36  F02F         	call	_wr16	;wreg free
 11130                           
 11131                           ;FT800.c: 162: wr16(1057836UL, 43);
 11132  005040  0E2C               	movlw	44
 11133  005042  6E10               	movwf	wr16@addr,c
 11134  005044  0E24               	movlw	36
 11135  005046  6E11               	movwf	wr16@addr+1,c
 11136  005048  0E10               	movlw	16
 11137  00504A  6E12               	movwf	wr16@addr+2,c
 11138  00504C  0E00               	movlw	0
 11139  00504E  6E14               	movwf	wr16@value+1,c
 11140  005050  0E2B               	movlw	43
 11141  005052  6E13               	movwf	wr16@value,c
 11142  005054  EC36  F02F         	call	_wr16	;wreg free
 11143                           
 11144                           ;FT800.c: 163: wr16(1057852UL, 286);
 11145  005058  0E3C               	movlw	60
 11146  00505A  6E10               	movwf	wr16@addr,c
 11147  00505C  0E24               	movlw	36
 11148  00505E  6E11               	movwf	wr16@addr+1,c
 11149  005060  0E10               	movlw	16
 11150  005062  6E12               	movwf	wr16@addr+2,c
 11151  005064  0E01               	movlw	1
 11152  005066  6E14               	movwf	wr16@value+1,c
 11153  005068  0E1E               	movlw	30
 11154  00506A  6E13               	movwf	wr16@value,c
 11155  00506C  EC36  F02F         	call	_wr16	;wreg free
 11156                           
 11157                           ;FT800.c: 164: wr16(1057864UL, 0);
 11158  005070  0E48               	movlw	72
 11159  005072  6E10               	movwf	wr16@addr,c
 11160  005074  0E24               	movlw	36
 11161  005076  6E11               	movwf	wr16@addr+1,c
 11162  005078  0E10               	movlw	16
 11163  00507A  6E12               	movwf	wr16@addr+2,c
 11164  00507C  0E00               	movlw	0
 11165  00507E  6E14               	movwf	wr16@value+1,c
 11166  005080  0E00               	movlw	0
 11167  005082  6E13               	movwf	wr16@value,c
 11168  005084  EC36  F02F         	call	_wr16	;wreg free
 11169                           
 11170                           ;FT800.c: 165: wr16(1057868UL, 10);
 11171  005088  0E4C               	movlw	76
 11172  00508A  6E10               	movwf	wr16@addr,c
 11173  00508C  0E24               	movlw	36
 11174  00508E  6E11               	movwf	wr16@addr+1,c
 11175  005090  0E10               	movlw	16
 11176  005092  6E12               	movwf	wr16@addr+2,c
 11177  005094  0E00               	movlw	0
 11178  005096  6E14               	movwf	wr16@value+1,c
 11179  005098  0E0A               	movlw	10
 11180  00509A  6E13               	movwf	wr16@value,c
 11181  00509C  EC36  F02F         	call	_wr16	;wreg free
 11182                           
 11183                           ;FT800.c: 166: wr16(1057856UL, 12);
 11184  0050A0  0E40               	movlw	64
 11185  0050A2  6E10               	movwf	wr16@addr,c
 11186  0050A4  0E24               	movlw	36
 11187  0050A6  6E11               	movwf	wr16@addr+1,c
 11188  0050A8  0E10               	movlw	16
 11189  0050AA  6E12               	movwf	wr16@addr+2,c
 11190  0050AC  0E00               	movlw	0
 11191  0050AE  6E14               	movwf	wr16@value+1,c
 11192  0050B0  0E0C               	movlw	12
 11193  0050B2  6E13               	movwf	wr16@value,c
 11194  0050B4  EC36  F02F         	call	_wr16	;wreg free
 11195                           
 11196                           ;FT800.c: 167: wr8(1057892UL, 0);
 11197  0050B8  0E64               	movlw	100
 11198  0050BA  6E10               	movwf	wr8@addr,c
 11199  0050BC  0E24               	movlw	36
 11200  0050BE  6E11               	movwf	wr8@addr+1,c
 11201  0050C0  0E10               	movlw	16
 11202  0050C2  6E12               	movwf	wr8@addr+2,c
 11203  0050C4  0E00               	movlw	0
 11204  0050C6  6E13               	movwf	wr8@value,c
 11205  0050C8  EC70  F02F         	call	_wr8	;wreg free
 11206                           
 11207                           ;FT800.c: 168: wr8(1057884UL, 0);
 11208  0050CC  0E5C               	movlw	92
 11209  0050CE  6E10               	movwf	wr8@addr,c
 11210  0050D0  0E24               	movlw	36
 11211  0050D2  6E11               	movwf	wr8@addr+1,c
 11212  0050D4  0E10               	movlw	16
 11213  0050D6  6E12               	movwf	wr8@addr+2,c
 11214  0050D8  0E00               	movlw	0
 11215  0050DA  6E13               	movwf	wr8@value,c
 11216  0050DC  EC70  F02F         	call	_wr8	;wreg free
 11217                           
 11218                           ;FT800.c: 169: wr16(1057880UL, 0x01B6);
 11219  0050E0  0E58               	movlw	88
 11220  0050E2  6E10               	movwf	wr16@addr,c
 11221  0050E4  0E24               	movlw	36
 11222  0050E6  6E11               	movwf	wr16@addr+1,c
 11223  0050E8  0E10               	movlw	16
 11224  0050EA  6E12               	movwf	wr16@addr+2,c
 11225  0050EC  0E01               	movlw	1
 11226  0050EE  6E14               	movwf	wr16@value+1,c
 11227  0050F0  0EB6               	movlw	182
 11228  0050F2  6E13               	movwf	wr16@value,c
 11229  0050F4  EC36  F02F         	call	_wr16	;wreg free
 11230                           
 11231                           ;FT800.c: 170: wr8(1057888UL, 0x0000);
 11232  0050F8  0E60               	movlw	96
 11233  0050FA  6E10               	movwf	wr8@addr,c
 11234  0050FC  0E24               	movlw	36
 11235  0050FE  6E11               	movwf	wr8@addr+1,c
 11236  005100  0E10               	movlw	16
 11237  005102  6E12               	movwf	wr8@addr+2,c
 11238  005104  0E00               	movlw	0
 11239  005106  6E13               	movwf	wr8@value,c
 11240  005108  EC70  F02F         	call	_wr8	;wreg free
 11241                           
 11242                           ;FT800.c: 173: wr8(1057896UL, 0);
 11243  00510C  0E68               	movlw	104
 11244  00510E  6E10               	movwf	wr8@addr,c
 11245  005110  0E24               	movlw	36
 11246  005112  6E11               	movwf	wr8@addr+1,c
 11247  005114  0E10               	movlw	16
 11248  005116  6E12               	movwf	wr8@addr+2,c
 11249  005118  0E00               	movlw	0
 11250  00511A  6E13               	movwf	wr8@value,c
 11251  00511C  EC70  F02F         	call	_wr8	;wreg free
 11252                           
 11253                           ;FT800.c: 175: wr8(1057876UL, 0);
 11254  005120  0E54               	movlw	84
 11255  005122  6E10               	movwf	wr8@addr,c
 11256  005124  0E24               	movlw	36
 11257  005126  6E11               	movwf	wr8@addr+1,c
 11258  005128  0E10               	movlw	16
 11259  00512A  6E12               	movwf	wr8@addr+2,c
 11260  00512C  0E00               	movlw	0
 11261  00512E  6E13               	movwf	wr8@value,c
 11262  005130  EC70  F02F         	call	_wr8	;wreg free
 11263                           
 11264                           ;FT800.c: 182: wr32(1048576UL+0,((2UL<<24)|(((0)&255UL)<<16)|(((26)&255UL)<<8)|(((0)&255
      +                          UL)<<0)));
 11265  005134  0E00               	movlw	0
 11266  005136  6E10               	movwf	wr32@addr,c
 11267  005138  0E00               	movlw	0
 11268  00513A  6E11               	movwf	wr32@addr+1,c
 11269  00513C  0E10               	movlw	16
 11270  00513E  6E12               	movwf	wr32@addr+2,c
 11271  005140  0E00               	movlw	0
 11272  005142  6E13               	movwf	wr32@value,c
 11273  005144  0E1A               	movlw	26
 11274  005146  6E14               	movwf	wr32@value+1,c
 11275  005148  0E00               	movlw	0
 11276  00514A  6E15               	movwf	wr32@value+2,c
 11277  00514C  0E02               	movlw	2
 11278  00514E  6E16               	movwf	wr32@value+3,c
 11279  005150  EC15  F02E         	call	_wr32	;wreg free
 11280                           
 11281                           ;FT800.c: 183: wr32(1048576UL+4,((38UL<<24)|(((1)&1UL)<<2)|(((1)&1UL)<<1)|(((1)&1UL)<<0)
      +                          ));
 11282  005154  0E04               	movlw	4
 11283  005156  6E10               	movwf	wr32@addr,c
 11284  005158  0E00               	movlw	0
 11285  00515A  6E11               	movwf	wr32@addr+1,c
 11286  00515C  0E10               	movlw	16
 11287  00515E  6E12               	movwf	wr32@addr+2,c
 11288  005160  0E07               	movlw	7
 11289  005162  6E13               	movwf	wr32@value,c
 11290  005164  0E00               	movlw	0
 11291  005166  6E14               	movwf	wr32@value+1,c
 11292  005168  0E00               	movlw	0
 11293  00516A  6E15               	movwf	wr32@value+2,c
 11294  00516C  0E26               	movlw	38
 11295  00516E  6E16               	movwf	wr32@value+3,c
 11296  005170  EC15  F02E         	call	_wr32	;wreg free
 11297                           
 11298                           ;FT800.c: 184: wr32(1048576UL+8,((0UL<<24)));
 11299  005174  0E08               	movlw	8
 11300  005176  6E10               	movwf	wr32@addr,c
 11301  005178  0E00               	movlw	0
 11302  00517A  6E11               	movwf	wr32@addr+1,c
 11303  00517C  0E10               	movlw	16
 11304  00517E  6E12               	movwf	wr32@addr+2,c
 11305  005180  0E00               	movlw	0
 11306  005182  6E13               	movwf	wr32@value,c
 11307  005184  0E00               	movlw	0
 11308  005186  6E14               	movwf	wr32@value+1,c
 11309  005188  0E00               	movlw	0
 11310  00518A  6E15               	movwf	wr32@value+2,c
 11311  00518C  0E00               	movlw	0
 11312  00518E  6E16               	movwf	wr32@value+3,c
 11313  005190  EC15  F02E         	call	_wr32	;wreg free
 11314                           
 11315                           ;FT800.c: 186: wr8(1057872UL,2UL);
 11316  005194  0E50               	movlw	80
 11317  005196  6E10               	movwf	wr8@addr,c
 11318  005198  0E24               	movlw	36
 11319  00519A  6E11               	movwf	wr8@addr+1,c
 11320  00519C  0E10               	movlw	16
 11321  00519E  6E12               	movwf	wr8@addr+2,c
 11322  0051A0  0E02               	movlw	2
 11323  0051A2  6E13               	movwf	wr8@value,c
 11324  0051A4  EC70  F02F         	call	_wr8	;wreg free
 11325                           
 11326                           ;FT800.c: 191: wr8(1057932UL, 0xfc);
 11327  0051A8  0E8C               	movlw	140
 11328  0051AA  6E10               	movwf	wr8@addr,c
 11329  0051AC  0E24               	movlw	36
 11330  0051AE  6E11               	movwf	wr8@addr+1,c
 11331  0051B0  0E10               	movlw	16
 11332  0051B2  6E12               	movwf	wr8@addr+2,c
 11333  0051B4  0EFC               	movlw	252
 11334  0051B6  6E13               	movwf	wr8@value,c
 11335  0051B8  EC70  F02F         	call	_wr8	;wreg free
 11336                           
 11337                           ;FT800.c: 192: wr8(1057936UL, 0xff);
 11338  0051BC  0E90               	movlw	144
 11339  0051BE  6E10               	movwf	wr8@addr,c
 11340  0051C0  0E24               	movlw	36
 11341  0051C2  6E11               	movwf	wr8@addr+1,c
 11342  0051C4  0E10               	movlw	16
 11343  0051C6  6E12               	movwf	wr8@addr+2,c
 11344  0051C8  0EFF               	movlw	255
 11345  0051CA  6E13               	movwf	wr8@value,c
 11346  0051CC  EC70  F02F         	call	_wr8	;wreg free
 11347                           
 11348                           ;FT800.c: 194: wr8(1057900UL,5);
 11349  0051D0  0E6C               	movlw	108
 11350  0051D2  6E10               	movwf	wr8@addr,c
 11351  0051D4  0E24               	movlw	36
 11352  0051D6  6E11               	movwf	wr8@addr+1,c
 11353  0051D8  0E10               	movlw	16
 11354  0051DA  6E12               	movwf	wr8@addr+2,c
 11355  0051DC  0E05               	movlw	5
 11356  0051DE  6E13               	movwf	wr8@value,c
 11357  0051E0  EC70  F02F         	call	_wr8	;wreg free
 11358                           
 11359                           ;FT800.c: 196: cmd_offset=rd16(1058024UL);while(rd16(1058020UL) != cmd_offset);
 11360  0051E4  0EE8               	movlw	232
 11361  0051E6  6E10               	movwf	rd16@addr,c
 11362  0051E8  0E24               	movlw	36
 11363  0051EA  6E11               	movwf	rd16@addr+1,c
 11364  0051EC  0E10               	movlw	16
 11365  0051EE  6E12               	movwf	rd16@addr+2,c
 11366  0051F0  EC89  F02E         	call	_rd16	;wreg free
 11367  0051F4  C010  F037         	movff	?_rd16,_cmd_offset
 11368  0051F8  C011  F038         	movff	?_rd16+1,_cmd_offset+1
 11369  0051FC                     l3288:
 11370  0051FC  0EE4               	movlw	228
 11371  0051FE  6E10               	movwf	rd16@addr,c
 11372  005200  0E24               	movlw	36
 11373  005202  6E11               	movwf	rd16@addr+1,c
 11374  005204  0E10               	movlw	16
 11375  005206  6E12               	movwf	rd16@addr+2,c
 11376  005208  EC89  F02E         	call	_rd16	;wreg free
 11377  00520C  5037               	movf	_cmd_offset,w,c
 11378  00520E  1810               	xorwf	?_rd16,w,c
 11379  005210  E1F5               	bnz	l3288
 11380  005212  5038               	movf	_cmd_offset+1,w,c
 11381  005214  1811               	xorwf	?_rd16+1,w,c
 11382  005216  B4D8               	btfsc	status,2,c
 11383  005218  0012               	return	
 11384  00521A  D7F0               	goto	l3288
 11385  00521C                     __end_of_FT800_Init:
 11386                           	opt stack 0
 11387                           tblptru	equ	0xFF8
 11388                           tblptrh	equ	0xFF7
 11389                           tblptrl	equ	0xFF6
 11390                           tablat	equ	0xFF5
 11391                           prodh	equ	0xFF4
 11392                           prodl	equ	0xFF3
 11393                           intcon	equ	0xFF2
 11394                           wreg	equ	0xFE8
 11395                           status	equ	0xFD8
 11396                           
 11397 ;; *************** function _wr8 *****************
 11398 ;; Defined at:
 11399 ;;		line 16 in file "Gue/FT800.c"
 11400 ;; Parameters:    Size  Location     Type
 11401 ;;  addr            3   15[COMRAM] unsigned um
 11402 ;;  value           1   18[COMRAM] unsigned char 
 11403 ;; Auto vars:     Size  Location     Type
 11404 ;;		None
 11405 ;; Return value:  Size  Location     Type
 11406 ;;                  1    wreg      void 
 11407 ;; Registers used:
 11408 ;;		wreg, status,2, status,0, cstack
 11409 ;; Tracked objects:
 11410 ;;		On entry : 0/0
 11411 ;;		On exit  : 0/0
 11412 ;;		Unchanged: 0/0
 11413 ;; Data sizes:     COMRAM   BANK0   BANK1   BANK2   BANK3   BANK4   BANK5   BANK6   BANK7   BANK8   BANK9  BANK10  BANK1
      +1  BANK12  BANK13  BANK14
 11414 ;;      Params:         4       0       0       0       0       0       0       0       0       0       0       0       
      +0       0       0       0
 11415 ;;      Locals:         0       0       0       0       0       0       0       0       0       0       0       0       
      +0       0       0       0
 11416 ;;      Temps:          3       0       0       0       0       0       0       0       0       0       0       0       
      +0       0       0       0
 11417 ;;      Totals:         7       0       0       0       0       0       0       0       0       0       0       0       
      +0       0       0       0
 11418 ;;Total ram usage:        7 bytes
 11419 ;; Hardware stack levels used:    1
 11420 ;; Hardware stack levels required when called:    5
 11421 ;; This function calls:
 11422 ;;		_SPI_Exchange8bit
 11423 ;; This function is called by:
 11424 ;;		_FT800_Init
 11425 ;; This function uses a non-reentrant model
 11426 ;;
 11427                           
 11428                           	psect	text30
 11429  005EE0                     __ptext30:
 11430                           	opt stack 0
 11431  005EE0                     _wr8:
 11432                           	opt stack 24
 11433                           
 11434                           ;FT800.c: 17: LATDbits.LATD0 = 0;
 11435                           
 11436                           ;incstack = 0
 11437  005EE0  908C               	bcf	3980,0,c	;volatile
 11438                           
 11439                           ;FT800.c: 18: SPI_Exchange8bit(0x80 | (addr >> 16));
 11440  005EE2  5012               	movf	wr8@addr+2,w,c
 11441  005EE4  0980               	iorlw	128
 11442  005EE6  ECEB  F02F         	call	_SPI_Exchange8bit
 11443                           
 11444                           ;FT800.c: 19: SPI_Exchange8bit(addr >> 8);
 11445  005EEA  C010  F014         	movff	wr8@addr,??_wr8
 11446  005EEE  C011  F015         	movff	wr8@addr+1,??_wr8+1
 11447  005EF2  C012  F016         	movff	wr8@addr+2,??_wr8+2
 11448  005EF6  C015  F014         	movff	??_wr8+1,??_wr8
 11449  005EFA  C016  F015         	movff	??_wr8+2,??_wr8+1
 11450  005EFE  6A16               	clrf	??_wr8+2,c
 11451  005F00  5014               	movf	??_wr8,w,c
 11452  005F02  ECEB  F02F         	call	_SPI_Exchange8bit
 11453                           
 11454                           ;FT800.c: 20: SPI_Exchange8bit(addr);
 11455  005F06  5010               	movf	wr8@addr,w,c
 11456  005F08  ECEB  F02F         	call	_SPI_Exchange8bit
 11457                           
 11458                           ;FT800.c: 21: SPI_Exchange8bit(value);
 11459  005F0C  5013               	movf	wr8@value,w,c
 11460  005F0E  ECEB  F02F         	call	_SPI_Exchange8bit
 11461                           
 11462                           ;FT800.c: 22: LATDbits.LATD0 = 1;
 11463  005F12  808C               	bsf	3980,0,c	;volatile
 11464  005F14  0012               	return		;funcret
 11465  005F16                     __end_of_wr8:
 11466                           	opt stack 0
 11467                           tblptru	equ	0xFF8
 11468                           tblptrh	equ	0xFF7
 11469                           tblptrl	equ	0xFF6
 11470                           tablat	equ	0xFF5
 11471                           prodh	equ	0xFF4
 11472                           prodl	equ	0xFF3
 11473                           intcon	equ	0xFF2
 11474                           wreg	equ	0xFE8
 11475                           status	equ	0xFD8
 11476                           
 11477 ;; *************** function _wr32 *****************
 11478 ;; Defined at:
 11479 ;;		line 34 in file "Gue/FT800.c"
 11480 ;; Parameters:    Size  Location     Type
 11481 ;;  addr            3   15[COMRAM] unsigned um
 11482 ;;  value           4   18[COMRAM] unsigned long 
 11483 ;; Auto vars:     Size  Location     Type
 11484 ;;		None
 11485 ;; Return value:  Size  Location     Type
 11486 ;;                  1    wreg      void 
 11487 ;; Registers used:
 11488 ;;		wreg, status,2, status,0, cstack
 11489 ;; Tracked objects:
 11490 ;;		On entry : 0/0
 11491 ;;		On exit  : 0/0
 11492 ;;		Unchanged: 0/0
 11493 ;; Data sizes:     COMRAM   BANK0   BANK1   BANK2   BANK3   BANK4   BANK5   BANK6   BANK7   BANK8   BANK9  BANK10  BANK1
      +1  BANK12  BANK13  BANK14
 11494 ;;      Params:         7       0       0       0       0       0       0       0       0       0       0       0       
      +0       0       0       0
 11495 ;;      Locals:         0       0       0       0       0       0       0       0       0       0       0       0       
      +0       0       0       0
 11496 ;;      Temps:          4       0       0       0       0       0       0       0       0       0       0       0       
      +0       0       0       0
 11497 ;;      Totals:        11       0       0       0       0       0       0       0       0       0       0       0       
      +0       0       0       0
 11498 ;;Total ram usage:       11 bytes
 11499 ;; Hardware stack levels used:    1
 11500 ;; Hardware stack levels required when called:    5
 11501 ;; This function calls:
 11502 ;;		_SPI_Exchange8bit
 11503 ;; This function is called by:
 11504 ;;		_cmd
 11505 ;;		_FT800_Init
 11506 ;; This function uses a non-reentrant model
 11507 ;;
 11508                           
 11509                           	psect	text31
 11510  005C2A                     __ptext31:
 11511                           	opt stack 0
 11512  005C2A                     _wr32:
 11513                           	opt stack 23
 11514                           
 11515                           ;FT800.c: 35: LATDbits.LATD0 = 0;
 11516                           
 11517                           ;incstack = 0
 11518  005C2A  908C               	bcf	3980,0,c	;volatile
 11519                           
 11520                           ;FT800.c: 36: SPI_Exchange8bit(0x80 | (addr >> 16));
 11521  005C2C  5012               	movf	wr32@addr+2,w,c
 11522  005C2E  0980               	iorlw	128
 11523  005C30  ECEB  F02F         	call	_SPI_Exchange8bit
 11524                           
 11525                           ;FT800.c: 37: SPI_Exchange8bit(addr >> 8);
 11526  005C34  C010  F017         	movff	wr32@addr,??_wr32
 11527  005C38  C011  F018         	movff	wr32@addr+1,??_wr32+1
 11528  005C3C  C012  F019         	movff	wr32@addr+2,??_wr32+2
 11529  005C40  C018  F017         	movff	??_wr32+1,??_wr32
 11530  005C44  C019  F018         	movff	??_wr32+2,??_wr32+1
 11531  005C48  6A19               	clrf	??_wr32+2,c
 11532  005C4A  5017               	movf	??_wr32,w,c
 11533  005C4C  ECEB  F02F         	call	_SPI_Exchange8bit
 11534                           
 11535                           ;FT800.c: 38: SPI_Exchange8bit(addr);
 11536  005C50  5010               	movf	wr32@addr,w,c
 11537  005C52  ECEB  F02F         	call	_SPI_Exchange8bit
 11538                           
 11539                           ;FT800.c: 39: SPI_Exchange8bit(((value) & 0xFFFF) & 0xFF);SPI_Exchange8bit((((value) & 0
      +                          xFFFF) >> 8) & 0xFF);SPI_Exchange8bit((((value) >> 16) & 0xFFFF) & 0xFF);SPI_Exchange8bi
      +                          t(((((value) >> 16) & 0xFFFF) >> 8) & 0xFF);
 11540  005C56  5013               	movf	wr32@value,w,c
 11541  005C58  ECEB  F02F         	call	_SPI_Exchange8bit
 11542  005C5C  5014               	movf	wr32@value+1,w,c
 11543  005C5E  ECEB  F02F         	call	_SPI_Exchange8bit
 11544  005C62  5015               	movf	wr32@value+2,w,c
 11545  005C64  ECEB  F02F         	call	_SPI_Exchange8bit
 11546  005C68  C013  F017         	movff	wr32@value,??_wr32
 11547  005C6C  C014  F018         	movff	wr32@value+1,??_wr32+1
 11548  005C70  C015  F019         	movff	wr32@value+2,??_wr32+2
 11549  005C74  C016  F01A         	movff	wr32@value+3,??_wr32+3
 11550  005C78  0E11               	movlw	17
 11551  005C7A  D005               	goto	u640
 11552  005C7C                     u645:
 11553  005C7C  90D8               	bcf	status,0,c
 11554  005C7E  321A               	rrcf	??_wr32+3,f,c
 11555  005C80  3219               	rrcf	??_wr32+2,f,c
 11556  005C82  3218               	rrcf	??_wr32+1,f,c
 11557  005C84  3217               	rrcf	??_wr32,f,c
 11558  005C86                     u640:
 11559  005C86  2EE8               	decfsz	wreg,f,c
 11560  005C88  D7F9               	goto	u645
 11561  005C8A  C018  F017         	movff	??_wr32+1,??_wr32
 11562  005C8E  C019  F018         	movff	??_wr32+2,??_wr32+1
 11563  005C92  C01A  F019         	movff	??_wr32+3,??_wr32+2
 11564  005C96  6A1A               	clrf	??_wr32+3,c
 11565  005C98  5017               	movf	??_wr32,w,c
 11566  005C9A  ECEB  F02F         	call	_SPI_Exchange8bit
 11567                           
 11568                           ;FT800.c: 40: LATDbits.LATD0 = 1;
 11569  005C9E  808C               	bsf	3980,0,c	;volatile
 11570  005CA0  0012               	return		;funcret
 11571  005CA2                     __end_of_wr32:
 11572                           	opt stack 0
 11573                           tblptru	equ	0xFF8
 11574                           tblptrh	equ	0xFF7
 11575                           tblptrl	equ	0xFF6
 11576                           tablat	equ	0xFF5
 11577                           prodh	equ	0xFF4
 11578                           prodl	equ	0xFF3
 11579                           intcon	equ	0xFF2
 11580                           wreg	equ	0xFE8
 11581                           status	equ	0xFD8
 11582                           
 11583 ;; *************** function _wr16 *****************
 11584 ;; Defined at:
 11585 ;;		line 25 in file "Gue/FT800.c"
 11586 ;; Parameters:    Size  Location     Type
 11587 ;;  addr            3   15[COMRAM] unsigned um
 11588 ;;  value           2   18[COMRAM] unsigned int 
 11589 ;; Auto vars:     Size  Location     Type
 11590 ;;		None
 11591 ;; Return value:  Size  Location     Type
 11592 ;;                  1    wreg      void 
 11593 ;; Registers used:
 11594 ;;		wreg, status,2, status,0, cstack
 11595 ;; Tracked objects:
 11596 ;;		On entry : 0/0
 11597 ;;		On exit  : 0/0
 11598 ;;		Unchanged: 0/0
 11599 ;; Data sizes:     COMRAM   BANK0   BANK1   BANK2   BANK3   BANK4   BANK5   BANK6   BANK7   BANK8   BANK9  BANK10  BANK1
      +1  BANK12  BANK13  BANK14
 11600 ;;      Params:         5       0       0       0       0       0       0       0       0       0       0       0       
      +0       0       0       0
 11601 ;;      Locals:         0       0       0       0       0       0       0       0       0       0       0       0       
      +0       0       0       0
 11602 ;;      Temps:          3       0       0       0       0       0       0       0       0       0       0       0       
      +0       0       0       0
 11603 ;;      Totals:         8       0       0       0       0       0       0       0       0       0       0       0       
      +0       0       0       0
 11604 ;;Total ram usage:        8 bytes
 11605 ;; Hardware stack levels used:    1
 11606 ;; Hardware stack levels required when called:    5
 11607 ;; This function calls:
 11608 ;;		_SPI_Exchange8bit
 11609 ;; This function is called by:
 11610 ;;		_FT800_Init
 11611 ;;		_display_end
 11612 ;;		_display_labels
 11613 ;;		_display_message
 11614 ;;		_display_laptime
 11615 ;;		_display_waterTemp
 11616 ;;		_display_oilTemp
 11617 ;;		_display_fuel
 11618 ;;		_display_battery
 11619 ;;		_display_oilPress
 11620 ;;		_display_tp
 11621 ;;		_display_speed
 11622 ;;		_display_rpm
 11623 ;; This function uses a non-reentrant model
 11624 ;;
 11625                           
 11626                           	psect	text32
 11627  005E6C                     __ptext32:
 11628                           	opt stack 0
 11629  005E6C                     _wr16:
 11630                           	opt stack 24
 11631                           
 11632                           ;FT800.c: 26: LATDbits.LATD0 = 0;
 11633                           
 11634                           ;incstack = 0
 11635  005E6C  908C               	bcf	3980,0,c	;volatile
 11636                           
 11637                           ;FT800.c: 27: SPI_Exchange8bit(0x80 | (addr >> 16));
 11638  005E6E  5012               	movf	wr16@addr+2,w,c
 11639  005E70  0980               	iorlw	128
 11640  005E72  ECEB  F02F         	call	_SPI_Exchange8bit
 11641                           
 11642                           ;FT800.c: 28: SPI_Exchange8bit(addr >> 8);
 11643  005E76  C010  F015         	movff	wr16@addr,??_wr16
 11644  005E7A  C011  F016         	movff	wr16@addr+1,??_wr16+1
 11645  005E7E  C012  F017         	movff	wr16@addr+2,??_wr16+2
 11646  005E82  C016  F015         	movff	??_wr16+1,??_wr16
 11647  005E86  C017  F016         	movff	??_wr16+2,??_wr16+1
 11648  005E8A  6A17               	clrf	??_wr16+2,c
 11649  005E8C  5015               	movf	??_wr16,w,c
 11650  005E8E  ECEB  F02F         	call	_SPI_Exchange8bit
 11651                           
 11652                           ;FT800.c: 29: SPI_Exchange8bit(addr);
 11653  005E92  5010               	movf	wr16@addr,w,c
 11654  005E94  ECEB  F02F         	call	_SPI_Exchange8bit
 11655                           
 11656                           ;FT800.c: 30: SPI_Exchange8bit((value) & 0xFF);SPI_Exchange8bit(((value) >> 8) & 0xFF);
 11657  005E98  5013               	movf	wr16@value,w,c
 11658  005E9A  ECEB  F02F         	call	_SPI_Exchange8bit
 11659  005E9E  5014               	movf	wr16@value+1,w,c
 11660  005EA0  ECEB  F02F         	call	_SPI_Exchange8bit
 11661                           
 11662                           ;FT800.c: 31: LATDbits.LATD0 = 1;
 11663  005EA4  808C               	bsf	3980,0,c	;volatile
 11664  005EA6  0012               	return		;funcret
 11665  005EA8                     __end_of_wr16:
 11666                           	opt stack 0
 11667                           tblptru	equ	0xFF8
 11668                           tblptrh	equ	0xFF7
 11669                           tblptrl	equ	0xFF6
 11670                           tablat	equ	0xFF5
 11671                           prodh	equ	0xFF4
 11672                           prodl	equ	0xFF3
 11673                           intcon	equ	0xFF2
 11674                           wreg	equ	0xFE8
 11675                           status	equ	0xFD8
 11676                           
 11677 ;; *************** function _rd16 *****************
 11678 ;; Defined at:
 11679 ;;		line 72 in file "Gue/FT800.c"
 11680 ;; Parameters:    Size  Location     Type
 11681 ;;  addr            3   15[COMRAM] unsigned um
 11682 ;; Auto vars:     Size  Location     Type
 11683 ;;  temp            1   21[COMRAM] unsigned char 
 11684 ;; Return value:  Size  Location     Type
 11685 ;;                  2   15[COMRAM] unsigned int 
 11686 ;; Registers used:
 11687 ;;		wreg, status,2, cstack
 11688 ;; Tracked objects:
 11689 ;;		On entry : 0/0
 11690 ;;		On exit  : 0/0
 11691 ;;		Unchanged: 0/0
 11692 ;; Data sizes:     COMRAM   BANK0   BANK1   BANK2   BANK3   BANK4   BANK5   BANK6   BANK7   BANK8   BANK9  BANK10  BANK1
      +1  BANK12  BANK13  BANK14
 11693 ;;      Params:         3       0       0       0       0       0       0       0       0       0       0       0       
      +0       0       0       0
 11694 ;;      Locals:         1       0       0       0       0       0       0       0       0       0       0       0       
      +0       0       0       0
 11695 ;;      Temps:          3       0       0       0       0       0       0       0       0       0       0       0       
      +0       0       0       0
 11696 ;;      Totals:         7       0       0       0       0       0       0       0       0       0       0       0       
      +0       0       0       0
 11697 ;;Total ram usage:        7 bytes
 11698 ;; Hardware stack levels used:    1
 11699 ;; Hardware stack levels required when called:    5
 11700 ;; This function calls:
 11701 ;;		_SPI_Exchange8bit
 11702 ;; This function is called by:
 11703 ;;		_FT800_Init
 11704 ;; This function uses a non-reentrant model
 11705 ;;
 11706                           
 11707                           	psect	text33
 11708  005D12                     __ptext33:
 11709                           	opt stack 0
 11710  005D12                     _rd16:
 11711                           	opt stack 24
 11712                           
 11713                           ;FT800.c: 73: LATDbits.LATD0 = 0;
 11714                           
 11715                           ;incstack = 0
 11716  005D12  908C               	bcf	3980,0,c	;volatile
 11717                           
 11718                           ;FT800.c: 74: SPI_Exchange8bit(addr >> 16);
 11719  005D14  5012               	movf	rd16@addr+2,w,c
 11720  005D16  ECEB  F02F         	call	_SPI_Exchange8bit
 11721                           
 11722                           ;FT800.c: 75: SPI_Exchange8bit(addr >> 8);
 11723  005D1A  C010  F013         	movff	rd16@addr,??_rd16
 11724  005D1E  C011  F014         	movff	rd16@addr+1,??_rd16+1
 11725  005D22  C012  F015         	movff	rd16@addr+2,??_rd16+2
 11726  005D26  C014  F013         	movff	??_rd16+1,??_rd16
 11727  005D2A  C015  F014         	movff	??_rd16+2,??_rd16+1
 11728  005D2E  6A15               	clrf	??_rd16+2,c
 11729  005D30  5013               	movf	??_rd16,w,c
 11730  005D32  ECEB  F02F         	call	_SPI_Exchange8bit
 11731                           
 11732                           ;FT800.c: 76: SPI_Exchange8bit(addr);
 11733  005D36  5010               	movf	rd16@addr,w,c
 11734  005D38  ECEB  F02F         	call	_SPI_Exchange8bit
 11735                           
 11736                           ;FT800.c: 77: SPI_Exchange8bit(0);
 11737  005D3C  0E00               	movlw	0
 11738  005D3E  ECEB  F02F         	call	_SPI_Exchange8bit
 11739                           
 11740                           ;FT800.c: 78: SPI_Exchange8bit(0);
 11741  005D42  0E00               	movlw	0
 11742  005D44  ECEB  F02F         	call	_SPI_Exchange8bit
 11743                           
 11744                           ;FT800.c: 79: ft_uint8_t temp = SSPBUF;
 11745  005D48  CFC9 F016          	movff	4041,rd16@temp	;volatile
 11746                           
 11747                           ;FT800.c: 80: SPI_Exchange8bit(0);
 11748  005D4C  0E00               	movlw	0
 11749  005D4E  ECEB  F02F         	call	_SPI_Exchange8bit
 11750                           
 11751                           ;FT800.c: 81: LATDbits.LATD0 = 1;
 11752  005D52  808C               	bsf	3980,0,c	;volatile
 11753                           
 11754                           ;FT800.c: 82: return ((ft_uint16_t)SSPBUF << 8) | temp;
 11755  005D54  50C9               	movf	4041,w,c	;volatile
 11756  005D56  6E13               	movwf	??_rd16& (0+255),c
 11757  005D58  5016               	movf	rd16@temp,w,c
 11758  005D5A  6E10               	movwf	?_rd16,c
 11759  005D5C  C013  F011         	movff	??_rd16,?_rd16+1
 11760  005D60  0012               	return	
 11761  005D62                     __end_of_rd16:
 11762                           	opt stack 0
 11763                           tblptru	equ	0xFF8
 11764                           tblptrh	equ	0xFF7
 11765                           tblptrl	equ	0xFF6
 11766                           tablat	equ	0xFF5
 11767                           prodh	equ	0xFF4
 11768                           prodl	equ	0xFF3
 11769                           intcon	equ	0xFF2
 11770                           wreg	equ	0xFE8
 11771                           status	equ	0xFD8
 11772                           
 11773 ;; *************** function _host_command *****************
 11774 ;; Defined at:
 11775 ;;		line 8 in file "Gue/FT800.c"
 11776 ;; Parameters:    Size  Location     Type
 11777 ;;  command         1    wreg     unsigned char 
 11778 ;; Auto vars:     Size  Location     Type
 11779 ;;  command         1   15[COMRAM] unsigned char 
 11780 ;; Return value:  Size  Location     Type
 11781 ;;                  1    wreg      void 
 11782 ;; Registers used:
 11783 ;;		wreg, status,2, cstack
 11784 ;; Tracked objects:
 11785 ;;		On entry : 0/0
 11786 ;;		On exit  : 0/0
 11787 ;;		Unchanged: 0/0
 11788 ;; Data sizes:     COMRAM   BANK0   BANK1   BANK2   BANK3   BANK4   BANK5   BANK6   BANK7   BANK8   BANK9  BANK10  BANK1
      +1  BANK12  BANK13  BANK14
 11789 ;;      Params:         0       0       0       0       0       0       0       0       0       0       0       0       
      +0       0       0       0
 11790 ;;      Locals:         1       0       0       0       0       0       0       0       0       0       0       0       
      +0       0       0       0
 11791 ;;      Temps:          0       0       0       0       0       0       0       0       0       0       0       0       
      +0       0       0       0
 11792 ;;      Totals:         1       0       0       0       0       0       0       0       0       0       0       0       
      +0       0       0       0
 11793 ;;Total ram usage:        1 bytes
 11794 ;; Hardware stack levels used:    1
 11795 ;; Hardware stack levels required when called:    5
 11796 ;; This function calls:
 11797 ;;		_SPI_Exchange8bit
 11798 ;; This function is called by:
 11799 ;;		_FT800_Init
 11800 ;; This function uses a non-reentrant model
 11801 ;;
 11802                           
 11803                           	psect	text34
 11804  005F6C                     __ptext34:
 11805                           	opt stack 0
 11806  005F6C                     _host_command:
 11807                           	opt stack 24
 11808                           
 11809                           ;incstack = 0
 11810                           ;host_command@command stored from wreg
 11811  005F6C  6E10               	movwf	host_command@command,c
 11812                           
 11813                           ;FT800.c: 9: LATDbits.LATD0 = 0;
 11814  005F6E  908C               	bcf	3980,0,c	;volatile
 11815                           
 11816                           ;FT800.c: 10: SPI_Exchange8bit(command);
 11817  005F70  5010               	movf	host_command@command,w,c
 11818  005F72  ECEB  F02F         	call	_SPI_Exchange8bit
 11819                           
 11820                           ;FT800.c: 11: SPI_Exchange8bit(0);
 11821  005F76  0E00               	movlw	0
 11822  005F78  ECEB  F02F         	call	_SPI_Exchange8bit
 11823                           
 11824                           ;FT800.c: 12: SPI_Exchange8bit(0);
 11825  005F7C  0E00               	movlw	0
 11826  005F7E  ECEB  F02F         	call	_SPI_Exchange8bit
 11827                           
 11828                           ;FT800.c: 13: LATDbits.LATD0 = 1;
 11829  005F82  808C               	bsf	3980,0,c	;volatile
 11830  005F84  0012               	return		;funcret
 11831  005F86                     __end_of_host_command:
 11832                           	opt stack 0
 11833                           tblptru	equ	0xFF8
 11834                           tblptrh	equ	0xFF7
 11835                           tblptrl	equ	0xFF6
 11836                           tablat	equ	0xFF5
 11837                           prodh	equ	0xFF4
 11838                           prodl	equ	0xFF3
 11839                           intcon	equ	0xFF2
 11840                           wreg	equ	0xFE8
 11841                           status	equ	0xFD8
 11842                           
 11843 ;; *************** function _SPI_Exchange8bit *****************
 11844 ;; Defined at:
 11845 ;;		line 77 in file "mcc_generated_files/spi.c"
 11846 ;; Parameters:    Size  Location     Type
 11847 ;;  data            1    wreg     unsigned char 
 11848 ;; Auto vars:     Size  Location     Type
 11849 ;;  data            1   14[COMRAM] unsigned char 
 11850 ;; Return value:  Size  Location     Type
 11851 ;;                  1    wreg      unsigned char 
 11852 ;; Registers used:
 11853 ;;		wreg, status,2
 11854 ;; Tracked objects:
 11855 ;;		On entry : 0/0
 11856 ;;		On exit  : 0/0
 11857 ;;		Unchanged: 0/0
 11858 ;; Data sizes:     COMRAM   BANK0   BANK1   BANK2   BANK3   BANK4   BANK5   BANK6   BANK7   BANK8   BANK9  BANK10  BANK1
      +1  BANK12  BANK13  BANK14
 11859 ;;      Params:         0       0       0       0       0       0       0       0       0       0       0       0       
      +0       0       0       0
 11860 ;;      Locals:         1       0       0       0       0       0       0       0       0       0       0       0       
      +0       0       0       0
 11861 ;;      Temps:          0       0       0       0       0       0       0       0       0       0       0       0       
      +0       0       0       0
 11862 ;;      Totals:         1       0       0       0       0       0       0       0       0       0       0       0       
      +0       0       0       0
 11863 ;;Total ram usage:        1 bytes
 11864 ;; Hardware stack levels used:    1
 11865 ;; Hardware stack levels required when called:    4
 11866 ;; This function calls:
 11867 ;;		Nothing
 11868 ;; This function is called by:
 11869 ;;		_host_command
 11870 ;;		_wr8
 11871 ;;		_wr16
 11872 ;;		_wr32
 11873 ;;		_wr8s
 11874 ;;		_rd16
 11875 ;;		_SPI_Exchange8bitBuffer
 11876 ;;		_rd8
 11877 ;;		_rd32
 11878 ;; This function uses a non-reentrant model
 11879 ;;
 11880                           
 11881                           	psect	text35
 11882  005FD6                     __ptext35:
 11883                           	opt stack 0
 11884  005FD6                     _SPI_Exchange8bit:
 11885                           	opt stack 24
 11886                           
 11887                           ;incstack = 0
 11888                           ;SPI_Exchange8bit@data stored from wreg
 11889  005FD6  6E0F               	movwf	SPI_Exchange8bit@data,c
 11890                           
 11891                           ;spi.c: 80: SSPCON1bits.WCOL = 0;
 11892  005FD8  9EC6               	bcf	4038,7,c	;volatile
 11893                           
 11894                           ;spi.c: 82: SSPBUF = data;
 11895  005FDA  C00F  FFC9         	movff	SPI_Exchange8bit@data,4041	;volatile
 11896  005FDE                     l384:
 11897  005FDE  A0C7               	btfss	4039,0,c	;volatile
 11898  005FE0  D7FE               	goto	l384
 11899                           
 11900                           ;spi.c: 86: }
 11901                           ;spi.c: 88: return (SSPBUF);
 11902  005FE2  50C9               	movf	4041,w,c	;volatile
 11903  005FE4  0012               	return		;funcret
 11904  005FE6                     __end_of_SPI_Exchange8bit:
 11905                           	opt stack 0
 11906                           tblptru	equ	0xFF8
 11907                           tblptrh	equ	0xFF7
 11908                           tblptrl	equ	0xFF6
 11909                           tablat	equ	0xFF5
 11910                           prodh	equ	0xFF4
 11911                           prodl	equ	0xFF3
 11912                           intcon	equ	0xFF2
 11913                           wreg	equ	0xFE8
 11914                           status	equ	0xFD8
 11915                           
 11916 ;; *************** function _EUSART1_Write *****************
 11917 ;; Defined at:
 11918 ;;		line 96 in file "mcc_generated_files/eusart1.c"
 11919 ;; Parameters:    Size  Location     Type
 11920 ;;  txData          1    wreg     unsigned char 
 11921 ;; Auto vars:     Size  Location     Type
 11922 ;;  txData          1   14[COMRAM] unsigned char 
 11923 ;; Return value:  Size  Location     Type
 11924 ;;                  1    wreg      void 
 11925 ;; Registers used:
 11926 ;;		wreg
 11927 ;; Tracked objects:
 11928 ;;		On entry : 0/0
 11929 ;;		On exit  : 0/0
 11930 ;;		Unchanged: 0/0
 11931 ;; Data sizes:     COMRAM   BANK0   BANK1   BANK2   BANK3   BANK4   BANK5   BANK6   BANK7   BANK8   BANK9  BANK10  BANK1
      +1  BANK12  BANK13  BANK14
 11932 ;;      Params:         0       0       0       0       0       0       0       0       0       0       0       0       
      +0       0       0       0
 11933 ;;      Locals:         1       0       0       0       0       0       0       0       0       0       0       0       
      +0       0       0       0
 11934 ;;      Temps:          0       0       0       0       0       0       0       0       0       0       0       0       
      +0       0       0       0
 11935 ;;      Totals:         1       0       0       0       0       0       0       0       0       0       0       0       
      +0       0       0       0
 11936 ;;Total ram usage:        1 bytes
 11937 ;; Hardware stack levels used:    1
 11938 ;; Hardware stack levels required when called:    4
 11939 ;; This function calls:
 11940 ;;		Nothing
 11941 ;; This function is called by:
 11942 ;;		_main
 11943 ;; This function uses a non-reentrant model
 11944 ;;
 11945                           
 11946                           	psect	text36
 11947  005FF4                     __ptext36:
 11948                           	opt stack 0
 11949  005FF4                     _EUSART1_Write:
 11950                           	opt stack 26
 11951                           
 11952                           ;incstack = 0
 11953                           ;EUSART1_Write@txData stored from wreg
 11954  005FF4  6E0F               	movwf	EUSART1_Write@txData,c
 11955  005FF6                     l442:
 11956  005FF6  A89E               	btfss	3998,4,c	;volatile
 11957  005FF8  D7FE               	goto	l442
 11958                           
 11959                           ;eusart1.c: 100: }
 11960                           ;eusart1.c: 102: TXREG1 = txData;
 11961  005FFA  C00F  FFAD         	movff	EUSART1_Write@txData,4013	;volatile
 11962  005FFE  0012               	return		;funcret
 11963  006000                     __end_of_EUSART1_Write:
 11964                           	opt stack 0
 11965                           tblptru	equ	0xFF8
 11966                           tblptrh	equ	0xFF7
 11967                           tblptrl	equ	0xFF6
 11968                           tablat	equ	0xFF5
 11969                           prodh	equ	0xFF4
 11970                           prodl	equ	0xFF3
 11971                           intcon	equ	0xFF2
 11972                           wreg	equ	0xFE8
 11973                           status	equ	0xFD8
 11974                           
 11975 ;; *************** function _EUSART1_Initialize *****************
 11976 ;; Defined at:
 11977 ;;		line 55 in file "mcc_generated_files/eusart1.c"
 11978 ;; Parameters:    Size  Location     Type
 11979 ;;		None
 11980 ;; Auto vars:     Size  Location     Type
 11981 ;;		None
 11982 ;; Return value:  Size  Location     Type
 11983 ;;                  1    wreg      void 
 11984 ;; Registers used:
 11985 ;;		wreg, status,2
 11986 ;; Tracked objects:
 11987 ;;		On entry : 0/0
 11988 ;;		On exit  : 0/0
 11989 ;;		Unchanged: 0/0
 11990 ;; Data sizes:     COMRAM   BANK0   BANK1   BANK2   BANK3   BANK4   BANK5   BANK6   BANK7   BANK8   BANK9  BANK10  BANK1
      +1  BANK12  BANK13  BANK14
 11991 ;;      Params:         0       0       0       0       0       0       0       0       0       0       0       0       
      +0       0       0       0
 11992 ;;      Locals:         0       0       0       0       0       0       0       0       0       0       0       0       
      +0       0       0       0
 11993 ;;      Temps:          0       0       0       0       0       0       0       0       0       0       0       0       
      +0       0       0       0
 11994 ;;      Totals:         0       0       0       0       0       0       0       0       0       0       0       0       
      +0       0       0       0
 11995 ;;Total ram usage:        0 bytes
 11996 ;; Hardware stack levels used:    1
 11997 ;; Hardware stack levels required when called:    4
 11998 ;; This function calls:
 11999 ;;		Nothing
 12000 ;; This function is called by:
 12001 ;;		_main
 12002 ;; This function uses a non-reentrant model
 12003 ;;
 12004                           
 12005                           	psect	text37
 12006  005F9C                     __ptext37:
 12007                           	opt stack 0
 12008  005F9C                     _EUSART1_Initialize:
 12009                           	opt stack 26
 12010                           
 12011                           ;eusart1.c: 60: BAUDCON1 = 0x08;
 12012                           
 12013                           ;incstack = 0
 12014  005F9C  0E08               	movlw	8
 12015  005F9E  6EA7               	movwf	4007,c	;volatile
 12016                           
 12017                           ;eusart1.c: 63: RCSTA1 = 0x90;
 12018  005FA0  0E90               	movlw	144
 12019  005FA2  6EAB               	movwf	4011,c	;volatile
 12020                           
 12021                           ;eusart1.c: 66: TXSTA1 = 0x24;
 12022  005FA4  0E24               	movlw	36
 12023  005FA6  6EAC               	movwf	4012,c	;volatile
 12024                           
 12025                           ;eusart1.c: 69: SPBRG1 = 0x22;
 12026  005FA8  0E22               	movlw	34
 12027  005FAA  6EAF               	movwf	4015,c	;volatile
 12028                           
 12029                           ;eusart1.c: 72: SPBRGH1 = 0x00;
 12030  005FAC  0E00               	movlw	0
 12031  005FAE  6E7D               	movwf	3965,c	;volatile
 12032  005FB0  0012               	return		;funcret
 12033  005FB2                     __end_of_EUSART1_Initialize:
 12034                           	opt stack 0
 12035                           tblptru	equ	0xFF8
 12036                           tblptrh	equ	0xFF7
 12037                           tblptrl	equ	0xFF6
 12038                           tablat	equ	0xFF5
 12039                           prodh	equ	0xFF4
 12040                           prodl	equ	0xFF3
 12041                           intcon	equ	0xFF2
 12042                           wreg	equ	0xFE8
 12043                           status	equ	0xFD8
 12044                           
 12045 ;; *************** function _INTERRUPT_InterruptManager *****************
 12046 ;; Defined at:
 12047 ;;		line 57 in file "mcc_generated_files/interrupt_manager.c"
 12048 ;; Parameters:    Size  Location     Type
 12049 ;;		None
 12050 ;; Auto vars:     Size  Location     Type
 12051 ;;		None
 12052 ;; Return value:  Size  Location     Type
 12053 ;;                  1    wreg      void 
 12054 ;; Registers used:
 12055 ;;		wreg, status,2, status,0, pclath, tosl, cstack
 12056 ;; Tracked objects:
 12057 ;;		On entry : 0/0
 12058 ;;		On exit  : 0/0
 12059 ;;		Unchanged: 0/0
 12060 ;; Data sizes:     COMRAM   BANK0   BANK1   BANK2   BANK3   BANK4   BANK5   BANK6   BANK7   BANK8   BANK9  BANK10  BANK1
      +1  BANK12  BANK13  BANK14
 12061 ;;      Params:         0       0       0       0       0       0       0       0       0       0       0       0       
      +0       0       0       0
 12062 ;;      Locals:         0       0       0       0       0       0       0       0       0       0       0       0       
      +0       0       0       0
 12063 ;;      Temps:         14       0       0       0       0       0       0       0       0       0       0       0       
      +0       0       0       0
 12064 ;;      Totals:        14       0       0       0       0       0       0       0       0       0       0       0       
      +0       0       0       0
 12065 ;;Total ram usage:       14 bytes
 12066 ;; Hardware stack levels used:    1
 12067 ;; Hardware stack levels required when called:    3
 12068 ;; This function calls:
 12069 ;;		_PIN_MANAGER_IOC
 12070 ;; This function is called by:
 12071 ;;		Interrupt level 2
 12072 ;; This function uses a non-reentrant model
 12073 ;;
 12074                           
 12075                           	psect	intcode
 12076  000008                     __pintcode:
 12077                           	opt stack 0
 12078  000008                     _INTERRUPT_InterruptManager:
 12079                           	opt stack 23
 12080                           
 12081                           ;incstack = 0
 12082  000008  823D               	bsf	btemp,1,c	;set compiler interrupt flag (level 2)
 12083  00000A  CFFA F001          	movff	pclath,??_INTERRUPT_InterruptManager
 12084  00000E  CFFB F002          	movff	pclatu,??_INTERRUPT_InterruptManager+1
 12085  000012  CFE9 F003          	movff	fsr0l,??_INTERRUPT_InterruptManager+2
 12086  000016  CFEA F004          	movff	fsr0h,??_INTERRUPT_InterruptManager+3
 12087  00001A  CFE1 F005          	movff	fsr1l,??_INTERRUPT_InterruptManager+4
 12088  00001E  CFE2 F006          	movff	fsr1h,??_INTERRUPT_InterruptManager+5
 12089  000022  CFD9 F007          	movff	fsr2l,??_INTERRUPT_InterruptManager+6
 12090  000026  CFDA F008          	movff	fsr2h,??_INTERRUPT_InterruptManager+7
 12091  00002A  CFF3 F009          	movff	prodl,??_INTERRUPT_InterruptManager+8
 12092  00002E  CFF4 F00A          	movff	prodh,??_INTERRUPT_InterruptManager+9
 12093  000032  CFF6 F00B          	movff	tblptrl,??_INTERRUPT_InterruptManager+10
 12094  000036  CFF7 F00C          	movff	tblptrh,??_INTERRUPT_InterruptManager+11
 12095  00003A  CFF8 F00D          	movff	tblptru,??_INTERRUPT_InterruptManager+12
 12096  00003E  CFF5 F00E          	movff	tablat,??_INTERRUPT_InterruptManager+13
 12097                           
 12098                           ;interrupt_manager.c: 60: if(INTCONbits.RBIE == 1 && INTCONbits.RBIF == 1)
 12099  000042  B6F2               	btfsc	intcon,3,c	;volatile
 12100  000044  A0F2               	btfss	intcon,0,c	;volatile
 12101  000046  D002               	goto	i2l495
 12102                           
 12103                           ;interrupt_manager.c: 61: {
 12104                           ;interrupt_manager.c: 62: PIN_MANAGER_IOC();
 12105  000048  EC00  F030         	call	_PIN_MANAGER_IOC	;wreg free
 12106  00004C                     i2l495:
 12107  00004C  C00E  FFF5         	movff	??_INTERRUPT_InterruptManager+13,tablat
 12108  000050  C00D  FFF8         	movff	??_INTERRUPT_InterruptManager+12,tblptru
 12109  000054  C00C  FFF7         	movff	??_INTERRUPT_InterruptManager+11,tblptrh
 12110  000058  C00B  FFF6         	movff	??_INTERRUPT_InterruptManager+10,tblptrl
 12111  00005C  C00A  FFF4         	movff	??_INTERRUPT_InterruptManager+9,prodh
 12112  000060  C009  FFF3         	movff	??_INTERRUPT_InterruptManager+8,prodl
 12113  000064  C008  FFDA         	movff	??_INTERRUPT_InterruptManager+7,fsr2h
 12114  000068  C007  FFD9         	movff	??_INTERRUPT_InterruptManager+6,fsr2l
 12115  00006C  C006  FFE2         	movff	??_INTERRUPT_InterruptManager+5,fsr1h
 12116  000070  C005  FFE1         	movff	??_INTERRUPT_InterruptManager+4,fsr1l
 12117  000074  C004  FFEA         	movff	??_INTERRUPT_InterruptManager+3,fsr0h
 12118  000078  C003  FFE9         	movff	??_INTERRUPT_InterruptManager+2,fsr0l
 12119  00007C  C002  FFFB         	movff	??_INTERRUPT_InterruptManager+1,pclatu
 12120  000080  C001  FFFA         	movff	??_INTERRUPT_InterruptManager,pclath
 12121  000084  923D               	bcf	btemp,1,c	;clear compiler interrupt flag (level 2)
 12122  000086  0011               	retfie		f
 12123  000088                     __end_of_INTERRUPT_InterruptManager:
 12124                           	opt stack 0
 12125                           pclatu	equ	0xFFB
 12126                           pclath	equ	0xFFA
 12127                           tblptru	equ	0xFF8
 12128                           tblptrh	equ	0xFF7
 12129                           tblptrl	equ	0xFF6
 12130                           tablat	equ	0xFF5
 12131                           prodh	equ	0xFF4
 12132                           prodl	equ	0xFF3
 12133                           intcon	equ	0xFF2
 12134                           fsr0h	equ	0xFEA
 12135                           fsr0l	equ	0xFE9
 12136                           wreg	equ	0xFE8
 12137                           fsr1h	equ	0xFE2
 12138                           fsr1l	equ	0xFE1
 12139                           fsr2h	equ	0xFDA
 12140                           fsr2l	equ	0xFD9
 12141                           status	equ	0xFD8
 12142                           
 12143 ;; *************** function _PIN_MANAGER_IOC *****************
 12144 ;; Defined at:
 12145 ;;		line 100 in file "mcc_generated_files/pin_manager.c"
 12146 ;; Parameters:    Size  Location     Type
 12147 ;;		None
 12148 ;; Auto vars:     Size  Location     Type
 12149 ;;		None
 12150 ;; Return value:  Size  Location     Type
 12151 ;;                  1    wreg      void 
 12152 ;; Registers used:
 12153 ;;		wreg, status,2, status,0, pclath, tosl, cstack
 12154 ;; Tracked objects:
 12155 ;;		On entry : 0/0
 12156 ;;		On exit  : 0/0
 12157 ;;		Unchanged: 0/0
 12158 ;; Data sizes:     COMRAM   BANK0   BANK1   BANK2   BANK3   BANK4   BANK5   BANK6   BANK7   BANK8   BANK9  BANK10  BANK1
      +1  BANK12  BANK13  BANK14
 12159 ;;      Params:         0       0       0       0       0       0       0       0       0       0       0       0       
      +0       0       0       0
 12160 ;;      Locals:         0       0       0       0       0       0       0       0       0       0       0       0       
      +0       0       0       0
 12161 ;;      Temps:          0       0       0       0       0       0       0       0       0       0       0       0       
      +0       0       0       0
 12162 ;;      Totals:         0       0       0       0       0       0       0       0       0       0       0       0       
      +0       0       0       0
 12163 ;;Total ram usage:        0 bytes
 12164 ;; Hardware stack levels used:    1
 12165 ;; Hardware stack levels required when called:    2
 12166 ;; This function calls:
 12167 ;;		_IOCB4_ISR
 12168 ;; This function is called by:
 12169 ;;		_INTERRUPT_InterruptManager
 12170 ;; This function uses a non-reentrant model
 12171 ;;
 12172                           
 12173                           	psect	text39
 12174  006000                     __ptext39:
 12175                           	opt stack 0
 12176  006000                     _PIN_MANAGER_IOC:
 12177                           	opt stack 23
 12178                           
 12179                           ;pin_manager.c: 103: if(IOCBbits.IOCB4 == 1)
 12180                           
 12181                           ;incstack = 0
 12182  006000  010F               	movlb	15	; () banked
 12183  006002  B95A               	btfsc	90,4,b	;volatile
 12184                           
 12185                           ; BSR set to: 15
 12186                           ;pin_manager.c: 104: {
 12187                           ;pin_manager.c: 105: IOCB4_ISR();
 12188  006004  EC8B  F02F         	call	_IOCB4_ISR	;wreg free
 12189                           
 12190                           ;pin_manager.c: 106: }
 12191                           ;pin_manager.c: 109: INTCONbits.RBIF = 0;
 12192  006008  90F2               	bcf	intcon,0,c	;volatile
 12193  00600A  0012               	return		;funcret
 12194  00600C                     __end_of_PIN_MANAGER_IOC:
 12195                           	opt stack 0
 12196                           pclatu	equ	0xFFB
 12197                           pclath	equ	0xFFA
 12198                           tblptru	equ	0xFF8
 12199                           tblptrh	equ	0xFF7
 12200                           tblptrl	equ	0xFF6
 12201                           tablat	equ	0xFF5
 12202                           prodh	equ	0xFF4
 12203                           prodl	equ	0xFF3
 12204                           intcon	equ	0xFF2
 12205                           fsr0h	equ	0xFEA
 12206                           fsr0l	equ	0xFE9
 12207                           wreg	equ	0xFE8
 12208                           fsr1h	equ	0xFE2
 12209                           fsr1l	equ	0xFE1
 12210                           fsr2h	equ	0xFDA
 12211                           fsr2l	equ	0xFD9
 12212                           status	equ	0xFD8
 12213                           
 12214 ;; *************** function _IOCB4_ISR *****************
 12215 ;; Defined at:
 12216 ;;		line 116 in file "mcc_generated_files/pin_manager.c"
 12217 ;; Parameters:    Size  Location     Type
 12218 ;;		None
 12219 ;; Auto vars:     Size  Location     Type
 12220 ;;		None
 12221 ;; Return value:  Size  Location     Type
 12222 ;;                  1    wreg      void 
 12223 ;; Registers used:
 12224 ;;		wreg, status,2, status,0, pclath, tosl, cstack
 12225 ;; Tracked objects:
 12226 ;;		On entry : 0/0
 12227 ;;		On exit  : 0/0
 12228 ;;		Unchanged: 0/0
 12229 ;; Data sizes:     COMRAM   BANK0   BANK1   BANK2   BANK3   BANK4   BANK5   BANK6   BANK7   BANK8   BANK9  BANK10  BANK1
      +1  BANK12  BANK13  BANK14
 12230 ;;      Params:         0       0       0       0       0       0       0       0       0       0       0       0       
      +0       0       0       0
 12231 ;;      Locals:         0       0       0       0       0       0       0       0       0       0       0       0       
      +0       0       0       0
 12232 ;;      Temps:          0       0       0       0       0       0       0       0       0       0       0       0       
      +0       0       0       0
 12233 ;;      Totals:         0       0       0       0       0       0       0       0       0       0       0       0       
      +0       0       0       0
 12234 ;;Total ram usage:        0 bytes
 12235 ;; Hardware stack levels used:    1
 12236 ;; Hardware stack levels required when called:    1
 12237 ;; This function calls:
 12238 ;;		Absolute function
 12239 ;;		_IOCB4_DefaultInterruptHandler
 12240 ;; This function is called by:
 12241 ;;		_PIN_MANAGER_IOC
 12242 ;; This function uses a non-reentrant model
 12243 ;;
 12244                           
 12245                           	psect	text40
 12246  005F16                     __ptext40:
 12247                           	opt stack 0
 12248  005F16                     _IOCB4_ISR:
 12249                           	opt stack 23
 12250                           
 12251                           ;pin_manager.c: 121: if(IOCB4_InterruptHandler)
 12252                           
 12253                           ;incstack = 0
 12254  005F16  503B               	movf	_IOCB4_InterruptHandler,w,c
 12255  005F18  103C               	iorwf	_IOCB4_InterruptHandler+1,w,c
 12256  005F1A  B4D8               	btfsc	status,2,c
 12257  005F1C  0012               	return	
 12258                           
 12259                           ;pin_manager.c: 122: {
 12260                           ;pin_manager.c: 123: IOCB4_InterruptHandler();
 12261  005F1E  D801               	call	i2u7_48
 12262  005F20  0012               	return	
 12263  005F22                     i2u7_48:
 12264  005F22  0005               	push	
 12265  005F24  6EFA               	movwf	pclath,c
 12266  005F26  503B               	movf	_IOCB4_InterruptHandler,w,c
 12267  005F28  6EFD               	movwf	tosl,c
 12268  005F2A  503C               	movf	_IOCB4_InterruptHandler+1,w,c
 12269  005F2C  6EFE               	movwf	tosh,c
 12270  005F2E  50F8               	movf	tblptru,w,c
 12271  005F30  6EFF               	movwf	tosu,c
 12272  005F32  50FA               	movf	pclath,w,c
 12273  005F34  0012               	return		;indir
 12274  005F36                     __end_of_IOCB4_ISR:
 12275                           	opt stack 0
 12276                           tosu	equ	0xFFF
 12277                           tosh	equ	0xFFE
 12278                           tosl	equ	0xFFD
 12279                           pclatu	equ	0xFFB
 12280                           pclath	equ	0xFFA
 12281                           tblptru	equ	0xFF8
 12282                           tblptrh	equ	0xFF7
 12283                           tblptrl	equ	0xFF6
 12284                           tablat	equ	0xFF5
 12285                           prodh	equ	0xFF4
 12286                           prodl	equ	0xFF3
 12287                           intcon	equ	0xFF2
 12288                           fsr0h	equ	0xFEA
 12289                           fsr0l	equ	0xFE9
 12290                           wreg	equ	0xFE8
 12291                           fsr1h	equ	0xFE2
 12292                           fsr1l	equ	0xFE1
 12293                           fsr2h	equ	0xFDA
 12294                           fsr2l	equ	0xFD9
 12295                           status	equ	0xFD8
 12296                           
 12297 ;; *************** function _IOCB4_DefaultInterruptHandler *****************
 12298 ;; Defined at:
 12299 ;;		line 137 in file "mcc_generated_files/pin_manager.c"
 12300 ;; Parameters:    Size  Location     Type
 12301 ;;		None
 12302 ;; Auto vars:     Size  Location     Type
 12303 ;;		None
 12304 ;; Return value:  Size  Location     Type
 12305 ;;                  1    wreg      void 
 12306 ;; Registers used:
 12307 ;;		None
 12308 ;; Tracked objects:
 12309 ;;		On entry : 0/0
 12310 ;;		On exit  : 0/0
 12311 ;;		Unchanged: 0/0
 12312 ;; Data sizes:     COMRAM   BANK0   BANK1   BANK2   BANK3   BANK4   BANK5   BANK6   BANK7   BANK8   BANK9  BANK10  BANK1
      +1  BANK12  BANK13  BANK14
 12313 ;;      Params:         0       0       0       0       0       0       0       0       0       0       0       0       
      +0       0       0       0
 12314 ;;      Locals:         0       0       0       0       0       0       0       0       0       0       0       0       
      +0       0       0       0
 12315 ;;      Temps:          0       0       0       0       0       0       0       0       0       0       0       0       
      +0       0       0       0
 12316 ;;      Totals:         0       0       0       0       0       0       0       0       0       0       0       0       
      +0       0       0       0
 12317 ;;Total ram usage:        0 bytes
 12318 ;; Hardware stack levels used:    1
 12319 ;; This function calls:
 12320 ;;		Nothing
 12321 ;; This function is called by:
 12322 ;;		_PIN_MANAGER_Initialize
 12323 ;;		_IOCB4_ISR
 12324 ;; This function uses a non-reentrant model
 12325 ;;
 12326                           
 12327                           	psect	text41
 12328  006016                     __ptext41:
 12329                           	opt stack 0
 12330  006016                     _IOCB4_DefaultInterruptHandler:
 12331                           	opt stack 23
 12332                           
 12333                           ;incstack = 0
 12334  006016  0012               	return		;funcret
 12335  006018                     __end_of_IOCB4_DefaultInterruptHandler:
 12336                           	opt stack 0
 12337                           tosu	equ	0xFFF
 12338                           tosh	equ	0xFFE
 12339                           tosl	equ	0xFFD
 12340                           pclatu	equ	0xFFB
 12341                           pclath	equ	0xFFA
 12342                           tblptru	equ	0xFF8
 12343                           tblptrh	equ	0xFF7
 12344                           tblptrl	equ	0xFF6
 12345                           tablat	equ	0xFF5
 12346                           prodh	equ	0xFF4
 12347                           prodl	equ	0xFF3
 12348                           intcon	equ	0xFF2
 12349                           fsr0h	equ	0xFEA
 12350                           fsr0l	equ	0xFE9
 12351                           wreg	equ	0xFE8
 12352                           fsr1h	equ	0xFE2
 12353                           fsr1l	equ	0xFE1
 12354                           fsr2h	equ	0xFDA
 12355                           fsr2l	equ	0xFD9
 12356                           status	equ	0xFD8
 12357                           tosu	equ	0xFFF
 12358                           tosh	equ	0xFFE
 12359                           tosl	equ	0xFFD
 12360                           pclatu	equ	0xFFB
 12361                           pclath	equ	0xFFA
 12362                           tblptru	equ	0xFF8
 12363                           tblptrh	equ	0xFF7
 12364                           tblptrl	equ	0xFF6
 12365                           tablat	equ	0xFF5
 12366                           prodh	equ	0xFF4
 12367                           prodl	equ	0xFF3
 12368                           intcon	equ	0xFF2
 12369                           fsr0h	equ	0xFEA
 12370                           fsr0l	equ	0xFE9
 12371                           wreg	equ	0xFE8
 12372                           fsr1h	equ	0xFE2
 12373                           fsr1l	equ	0xFE1
 12374                           fsr2h	equ	0xFDA
 12375                           fsr2l	equ	0xFD9
 12376                           status	equ	0xFD8
 12377                           
 12378                           	psect	text42
 12379  000000                     __ptext42:
 12380                           	opt stack 0
 12381                           tosu	equ	0xFFF
 12382                           tosh	equ	0xFFE
 12383                           tosl	equ	0xFFD
 12384                           pclatu	equ	0xFFB
 12385                           pclath	equ	0xFFA
 12386                           tblptru	equ	0xFF8
 12387                           tblptrh	equ	0xFF7
 12388                           tblptrl	equ	0xFF6
 12389                           tablat	equ	0xFF5
 12390                           prodh	equ	0xFF4
 12391                           prodl	equ	0xFF3
 12392                           intcon	equ	0xFF2
 12393                           fsr0h	equ	0xFEA
 12394                           fsr0l	equ	0xFE9
 12395                           wreg	equ	0xFE8
 12396                           fsr1h	equ	0xFE2
 12397                           fsr1l	equ	0xFE1
 12398                           fsr2h	equ	0xFDA
 12399                           fsr2l	equ	0xFD9
 12400                           status	equ	0xFD8
 12401                           
 12402                           	psect	rparam
 12403  0000                     tosu	equ	0xFFF
 12404                           tosh	equ	0xFFE
 12405                           tosl	equ	0xFFD
 12406                           pclatu	equ	0xFFB
 12407                           pclath	equ	0xFFA
 12408                           tblptru	equ	0xFF8
 12409                           tblptrh	equ	0xFF7
 12410                           tblptrl	equ	0xFF6
 12411                           tablat	equ	0xFF5
 12412                           prodh	equ	0xFF4
 12413                           prodl	equ	0xFF3
 12414                           intcon	equ	0xFF2
 12415                           fsr0h	equ	0xFEA
 12416                           fsr0l	equ	0xFE9
 12417                           wreg	equ	0xFE8
 12418                           fsr1h	equ	0xFE2
 12419                           fsr1l	equ	0xFE1
 12420                           fsr2h	equ	0xFDA
 12421                           fsr2l	equ	0xFD9
 12422                           status	equ	0xFD8
 12423                           
 12424                           	psect	temp
 12425  00003D                     btemp:
 12426                           	opt stack 0
 12427  00003D                     	ds	1
 12428  0000                     int$flags	set	btemp
 12429                           tosu	equ	0xFFF
 12430                           tosh	equ	0xFFE
 12431                           tosl	equ	0xFFD
 12432                           pclatu	equ	0xFFB
 12433                           pclath	equ	0xFFA
 12434                           tblptru	equ	0xFF8
 12435                           tblptrh	equ	0xFF7
 12436                           tblptrl	equ	0xFF6
 12437                           tablat	equ	0xFF5
 12438                           prodh	equ	0xFF4
 12439                           prodl	equ	0xFF3
 12440                           intcon	equ	0xFF2
 12441                           fsr0h	equ	0xFEA
 12442                           fsr0l	equ	0xFE9
 12443                           wreg	equ	0xFE8
 12444                           fsr1h	equ	0xFE2
 12445                           fsr1l	equ	0xFE1
 12446                           fsr2h	equ	0xFDA
 12447                           fsr2l	equ	0xFD9
 12448                           status	equ	0xFD8


Data Sizes:
    Strings     125
    Constant    0
    Data        0
    BSS         4
    Persistent  2
    Stack       0

Auto Spaces:
    Space          Size  Autos    Used
    COMRAM           94     54      60
    BANK0           160      0       0
    BANK1           256      0       0
    BANK2           256      0       0
    BANK3           256      0       0
    BANK4           256      0       0
    BANK5           256      0       0
    BANK6           256      0       0
    BANK7           256      0       0
    BANK8           256      0       0
    BANK9           256      0       0
    BANK10          256      0       0
    BANK11          256      0       0
    BANK12          256      0       0
    BANK13          256      0       0
    BANK14           65      0       0

Pointer List with Targets:

    display_message@message	PTR unsigned char  size(2) Largest target is 6
		 -> STR_1(CODE[6]), 

    strlen@s	PTR const unsigned char  size(2) Largest target is 15
		 -> STR_41(CODE[4]), STR_40(CODE[2]), STR_39(CODE[2]), STR_38(CODE[3]), 
		 -> STR_37(CODE[3]), STR_36(CODE[3]), STR_35(CODE[2]), STR_34(CODE[2]), 
		 -> STR_33(CODE[2]), STR_32(CODE[2]), STR_31(CODE[2]), STR_30(CODE[2]), 
		 -> STR_29(CODE[2]), STR_28(CODE[2]), STR_27(CODE[2]), STR_26(CODE[2]), 
		 -> STR_25(CODE[2]), STR_24(CODE[2]), STR_23(CODE[2]), STR_22(CODE[2]), 
		 -> STR_21(CODE[2]), STR_20(CODE[2]), STR_19(CODE[4]), STR_18(CODE[5]), 
		 -> STR_17(CODE[5]), STR_16(CODE[15]), STR_15(CODE[2]), STR_14(CODE[3]), 
		 -> STR_13(CODE[4]), STR_12(CODE[6]), STR_11(CODE[6]), STR_10(CODE[4]), 
		 -> STR_9(CODE[6]), STR_8(CODE[5]), STR_7(CODE[5]), STR_6(CODE[5]), 
		 -> STR_5(CODE[5]), STR_4(CODE[4]), STR_3(CODE[5]), STR_2(CODE[6]), 

    strlen@cp	PTR const unsigned char  size(2) Largest target is 15
		 -> STR_41(CODE[4]), STR_40(CODE[2]), STR_39(CODE[2]), STR_38(CODE[3]), 
		 -> STR_37(CODE[3]), STR_36(CODE[3]), STR_35(CODE[2]), STR_34(CODE[2]), 
		 -> STR_33(CODE[2]), STR_32(CODE[2]), STR_31(CODE[2]), STR_30(CODE[2]), 
		 -> STR_29(CODE[2]), STR_28(CODE[2]), STR_27(CODE[2]), STR_26(CODE[2]), 
		 -> STR_25(CODE[2]), STR_24(CODE[2]), STR_23(CODE[2]), STR_22(CODE[2]), 
		 -> STR_21(CODE[2]), STR_20(CODE[2]), STR_19(CODE[4]), STR_18(CODE[5]), 
		 -> STR_17(CODE[5]), STR_16(CODE[15]), STR_15(CODE[2]), STR_14(CODE[3]), 
		 -> STR_13(CODE[4]), STR_12(CODE[6]), STR_11(CODE[6]), STR_10(CODE[4]), 
		 -> STR_9(CODE[6]), STR_8(CODE[5]), STR_7(CODE[5]), STR_6(CODE[5]), 
		 -> STR_5(CODE[5]), STR_4(CODE[4]), STR_3(CODE[5]), STR_2(CODE[6]), 

    wr8s@s	PTR const unsigned char  size(2) Largest target is 15
		 -> STR_41(CODE[4]), STR_40(CODE[2]), STR_39(CODE[2]), STR_38(CODE[3]), 
		 -> STR_37(CODE[3]), STR_36(CODE[3]), STR_35(CODE[2]), STR_34(CODE[2]), 
		 -> STR_33(CODE[2]), STR_32(CODE[2]), STR_31(CODE[2]), STR_30(CODE[2]), 
		 -> STR_29(CODE[2]), STR_28(CODE[2]), STR_27(CODE[2]), STR_26(CODE[2]), 
		 -> STR_25(CODE[2]), STR_24(CODE[2]), STR_23(CODE[2]), STR_22(CODE[2]), 
		 -> STR_21(CODE[2]), STR_20(CODE[2]), STR_19(CODE[4]), STR_18(CODE[5]), 
		 -> STR_17(CODE[5]), STR_16(CODE[15]), STR_15(CODE[2]), STR_14(CODE[3]), 
		 -> STR_13(CODE[4]), STR_12(CODE[6]), STR_11(CODE[6]), STR_10(CODE[4]), 
		 -> STR_9(CODE[6]), STR_8(CODE[5]), STR_7(CODE[5]), STR_6(CODE[5]), 
		 -> STR_5(CODE[5]), STR_4(CODE[4]), STR_3(CODE[5]), STR_2(CODE[6]), 

    IOCB4_SetInterruptHandler@InterruptHandler	PTR void  size(2) Largest target is 1
		 -> IOCB4_DefaultInterruptHandler(), 

    IOCB4_InterruptHandler	PTR FTN()void  size(2) Largest target is 1
		 -> Absolute function(), IOCB4_DefaultInterruptHandler(), 


Critical Paths under _main in COMRAM

    _main->_display_laptime
    _display_waterTemp->_cmd
    _display_tp->_cmd
    _display_start->_cmd
    _display_speed->_cmd
    _display_rpm->_cmd
    ___awmod->___awdiv
    _display_oilTemp->_cmd
    _display_oilPress->_cmd
    _display_message->_cmd
    _display_laptime->_cmd
    _display_labels->_cmd
    _display_gear->_cmd
    _display_fuel->_cmd
    _display_end->_cmd
    _display_battery->_cmd
    _wr8s->_strlen
    _cmd->___fttol
    _PIN_MANAGER_Initialize->_IOCB4_SetInterruptHandler
    _FT800_Init->_wr32
    _wr8->_SPI_Exchange8bit
    _wr32->_SPI_Exchange8bit
    _wr16->_SPI_Exchange8bit
    _rd16->_SPI_Exchange8bit
    _host_command->_SPI_Exchange8bit

Critical Paths under _INTERRUPT_InterruptManager in COMRAM

    None.

Critical Paths under _main in BANK0

    None.

Critical Paths under _INTERRUPT_InterruptManager in BANK0

    None.

Critical Paths under _main in BANK1

    None.

Critical Paths under _INTERRUPT_InterruptManager in BANK1

    None.

Critical Paths under _main in BANK2

    None.

Critical Paths under _INTERRUPT_InterruptManager in BANK2

    None.

Critical Paths under _main in BANK3

    None.

Critical Paths under _INTERRUPT_InterruptManager in BANK3

    None.

Critical Paths under _main in BANK4

    None.

Critical Paths under _INTERRUPT_InterruptManager in BANK4

    None.

Critical Paths under _main in BANK5

    None.

Critical Paths under _INTERRUPT_InterruptManager in BANK5

    None.

Critical Paths under _main in BANK6

    None.

Critical Paths under _INTERRUPT_InterruptManager in BANK6

    None.

Critical Paths under _main in BANK7

    None.

Critical Paths under _INTERRUPT_InterruptManager in BANK7

    None.

Critical Paths under _main in BANK8

    None.

Critical Paths under _INTERRUPT_InterruptManager in BANK8

    None.

Critical Paths under _main in BANK9

    None.

Critical Paths under _INTERRUPT_InterruptManager in BANK9

    None.

Critical Paths under _main in BANK10

    None.

Critical Paths under _INTERRUPT_InterruptManager in BANK10

    None.

Critical Paths under _main in BANK11

    None.

Critical Paths under _INTERRUPT_InterruptManager in BANK11

    None.

Critical Paths under _main in BANK12

    None.

Critical Paths under _INTERRUPT_InterruptManager in BANK12

    None.

Critical Paths under _main in BANK13

    None.

Critical Paths under _INTERRUPT_InterruptManager in BANK13

    None.

Critical Paths under _main in BANK14

    None.

Critical Paths under _INTERRUPT_InterruptManager in BANK14

    None.

Call Graph Tables:

 ---------------------------------------------------------------------------------
 (Depth) Function   	        Calls       Base Space   Used Autos Params    Refs
 ---------------------------------------------------------------------------------
 (0) _main                                                18    18      0  805645
                                             50 COMRAM     4     4      0
                 _EUSART1_Initialize
                      _EUSART1_Write
                         _FT800_Init
                  _SYSTEM_Initialize
                    _display_battery
                        _display_end
                       _display_fuel
                       _display_gear
                     _display_labels
                    _display_laptime
                    _display_message
                   _display_oilPress
                    _display_oilTemp
                        _display_rpm
                      _display_speed
                      _display_start
                         _display_tp
                  _display_waterTemp
                          _wait2secs
 ---------------------------------------------------------------------------------
 (1) _wait2secs                                            2     2      0       0
                                             14 COMRAM     2     2      0
 ---------------------------------------------------------------------------------
 (1) _display_waterTemp                                    5     3      2   57520
                                             36 COMRAM     5     3      2
                                _cmd
                     _cmd_incrementn
                               _wr16
 ---------------------------------------------------------------------------------
 (1) _display_tp                                           5     3      2   57520
                                             36 COMRAM     5     3      2
                                _cmd
                     _cmd_incrementn
                               _wr16
 ---------------------------------------------------------------------------------
 (1) _display_start                                        0     0      0   14722
                                _cmd
 ---------------------------------------------------------------------------------
 (1) _display_speed                                        5     3      2   57520
                                             36 COMRAM     5     3      2
                                _cmd
                     _cmd_incrementn
                               _wr16
 ---------------------------------------------------------------------------------
 (1) _display_rpm                                          9     7      2   65147
                                             36 COMRAM     9     7      2
                            ___awdiv
                            ___awmod
                                _cmd
                     _cmd_incrementn
                               _wr16
                               _wr8s
 ---------------------------------------------------------------------------------
 (2) ___awmod                                              6     2      4     448
                                             22 COMRAM     6     2      4
                            ___awdiv (ARG)
 ---------------------------------------------------------------------------------
 (2) ___awdiv                                              8     4      4     604
                                             14 COMRAM     8     4      4
 ---------------------------------------------------------------------------------
 (1) _display_oilTemp                                      5     3      2   57520
                                             36 COMRAM     5     3      2
                                _cmd
                     _cmd_incrementn
                               _wr16
 ---------------------------------------------------------------------------------
 (1) _display_oilPress                                     6     3      3   57848
                                             36 COMRAM     6     3      3
                            ___fttol
                                _cmd
                     _cmd_incrementn
                               _wr16
 ---------------------------------------------------------------------------------
 (2) ___fttol                                             15    11      4     328
                                             14 COMRAM    15    11      4
 ---------------------------------------------------------------------------------
 (1) _display_message                                      5     3      2   63983
                                             36 COMRAM     5     3      2
                                _cmd
                     _cmd_incrementn
                               _wr16
                               _wr8s
 ---------------------------------------------------------------------------------
 (1) _display_laptime                                     14     3     11   64211
                                             36 COMRAM    14     3     11
                                _cmd
                     _cmd_incrementn
                               _wr16
                               _wr8s
 ---------------------------------------------------------------------------------
 (1) _display_labels                                       5     5      0   64128
                                             36 COMRAM     5     5      0
                                _cmd
                     _cmd_incrementn
                               _wr16
                               _wr8s
 ---------------------------------------------------------------------------------
 (1) _display_gear                                         4     2      2   14820
                                             36 COMRAM     4     2      2
                                _cmd
 ---------------------------------------------------------------------------------
 (1) _display_fuel                                         5     3      2   63983
                                             36 COMRAM     5     3      2
                                _cmd
                     _cmd_incrementn
                               _wr16
                               _wr8s
 ---------------------------------------------------------------------------------
 (1) _display_end                                          0     0      0   57407
                                _cmd
                               _wr16
 ---------------------------------------------------------------------------------
 (1) _display_battery                                      6     3      3   63983
                                             36 COMRAM     6     3      3
                                _cmd
                     _cmd_incrementn
                               _wr16
                               _wr8s
 ---------------------------------------------------------------------------------
 (2) _wr8s                                                10     5      5    6485
                                             20 COMRAM    10     5      5
                   _SPI_Exchange8bit
                             _strlen
 ---------------------------------------------------------------------------------
 (3) _strlen                                               6     4      2     166
                                             14 COMRAM     6     4      2
 ---------------------------------------------------------------------------------
 (2) _cmd                                                  7     3      4   14722
                                             29 COMRAM     7     3      4
                            ___fttol (ARG)
                     _cmd_incrementn
                               _wr32
 ---------------------------------------------------------------------------------
 (2) _cmd_incrementn                                       3     3      0      15
                                             14 COMRAM     3     3      0
 ---------------------------------------------------------------------------------
 (1) _SYSTEM_Initialize                                    0     0      0      98
                    _ECAN_Initialize
              _OSCILLATOR_Initialize
             _PIN_MANAGER_Initialize
                     _SPI_Initialize
 ---------------------------------------------------------------------------------
 (2) _SPI_Initialize                                       0     0      0       0
 ---------------------------------------------------------------------------------
 (2) _PIN_MANAGER_Initialize                               0     0      0      98
          _IOCB4_SetInterruptHandler
 ---------------------------------------------------------------------------------
 (3) _IOCB4_SetInterruptHandler                            2     0      2      98
                                             14 COMRAM     2     0      2
 ---------------------------------------------------------------------------------
 (2) _OSCILLATOR_Initialize                                0     0      0       0
 ---------------------------------------------------------------------------------
 (2) _ECAN_Initialize                                      1     1      0       0
                                             14 COMRAM     1     1      0
 ---------------------------------------------------------------------------------
 (1) _FT800_Init                                           1     1      0   45219
                                             26 COMRAM     1     1      0
                       _host_command
                               _rd16
                               _wr16
                               _wr32
                                _wr8
 ---------------------------------------------------------------------------------
 (2) _wr8                                                  7     3      4    1471
                                             15 COMRAM     7     3      4
                   _SPI_Exchange8bit
 ---------------------------------------------------------------------------------
 (3) _wr32                                                11     4      7     777
                                             15 COMRAM    11     4      7
                   _SPI_Exchange8bit
 ---------------------------------------------------------------------------------
 (2) _wr16                                                 8     3      5   42685
                                             15 COMRAM     8     3      5
                   _SPI_Exchange8bit
 ---------------------------------------------------------------------------------
 (2) _rd16                                                 7     4      3     256
                                             15 COMRAM     7     4      3
                   _SPI_Exchange8bit
 ---------------------------------------------------------------------------------
 (2) _host_command                                         1     1      0      30
                                             15 COMRAM     1     1      0
                   _SPI_Exchange8bit
 ---------------------------------------------------------------------------------
 (3) _SPI_Exchange8bit                                     1     1      0      15
                                             14 COMRAM     1     1      0
 ---------------------------------------------------------------------------------
 (1) _EUSART1_Write                                        1     1      0      15
                                             14 COMRAM     1     1      0
 ---------------------------------------------------------------------------------
 (1) _EUSART1_Initialize                                   0     0      0       0
 ---------------------------------------------------------------------------------
 Estimated maximum stack depth 3
 ---------------------------------------------------------------------------------
 (Depth) Function   	        Calls       Base Space   Used Autos Params    Refs
 ---------------------------------------------------------------------------------
 (5) _INTERRUPT_InterruptManager                          14    14      0       0
                                              0 COMRAM    14    14      0
                    _PIN_MANAGER_IOC
 ---------------------------------------------------------------------------------
 (6) _PIN_MANAGER_IOC                                      0     0      0       0
                          _IOCB4_ISR
 ---------------------------------------------------------------------------------
 (7) _IOCB4_ISR                                            0     0      0       0
                   Absolute function *
      _IOCB4_DefaultInterruptHandler *
 ---------------------------------------------------------------------------------
 (8) _IOCB4_DefaultInterruptHandler                        0     0      0       0
 ---------------------------------------------------------------------------------
 (8) Absolute function(Fake)                               0     0      0       0
 ---------------------------------------------------------------------------------
 Estimated maximum stack depth 8
 ---------------------------------------------------------------------------------

 Call Graph Graphs:

 _main (ROOT)
   _EUSART1_Initialize
   _EUSART1_Write
   _FT800_Init
     _host_command
       _SPI_Exchange8bit
     _rd16
       _SPI_Exchange8bit
     _wr16
       _SPI_Exchange8bit
     _wr32
       _SPI_Exchange8bit
     _wr8
       _SPI_Exchange8bit
   _SYSTEM_Initialize
     _ECAN_Initialize
     _OSCILLATOR_Initialize
     _PIN_MANAGER_Initialize
       _IOCB4_SetInterruptHandler
     _SPI_Initialize
   _display_battery
     _cmd
       ___fttol (ARG)
       _cmd_incrementn (ARG)
       _wr32 (ARG)
         _SPI_Exchange8bit
     _cmd_incrementn
     _wr16
       _SPI_Exchange8bit
     _wr8s
       _SPI_Exchange8bit
       _strlen
   _display_end
     _cmd
       ___fttol (ARG)
       _cmd_incrementn (ARG)
       _wr32 (ARG)
         _SPI_Exchange8bit
     _wr16
       _SPI_Exchange8bit
   _display_fuel
     _cmd
       ___fttol (ARG)
       _cmd_incrementn (ARG)
       _wr32 (ARG)
         _SPI_Exchange8bit
     _cmd_incrementn
     _wr16
       _SPI_Exchange8bit
     _wr8s
       _SPI_Exchange8bit
       _strlen
   _display_gear
     _cmd
       ___fttol (ARG)
       _cmd_incrementn (ARG)
       _wr32 (ARG)
         _SPI_Exchange8bit
   _display_labels
     _cmd
       ___fttol (ARG)
       _cmd_incrementn (ARG)
       _wr32 (ARG)
         _SPI_Exchange8bit
     _cmd_incrementn
     _wr16
       _SPI_Exchange8bit
     _wr8s
       _SPI_Exchange8bit
       _strlen
   _display_laptime
     _cmd
       ___fttol (ARG)
       _cmd_incrementn (ARG)
       _wr32 (ARG)
         _SPI_Exchange8bit
     _cmd_incrementn
     _wr16
       _SPI_Exchange8bit
     _wr8s
       _SPI_Exchange8bit
       _strlen
   _display_message
     _cmd
       ___fttol (ARG)
       _cmd_incrementn (ARG)
       _wr32 (ARG)
         _SPI_Exchange8bit
     _cmd_incrementn
     _wr16
       _SPI_Exchange8bit
     _wr8s
       _SPI_Exchange8bit
       _strlen
   _display_oilPress
     ___fttol
     _cmd
       ___fttol (ARG)
       _cmd_incrementn (ARG)
       _wr32 (ARG)
         _SPI_Exchange8bit
     _cmd_incrementn
     _wr16
       _SPI_Exchange8bit
   _display_oilTemp
     _cmd
       ___fttol (ARG)
       _cmd_incrementn (ARG)
       _wr32 (ARG)
         _SPI_Exchange8bit
     _cmd_incrementn
     _wr16
       _SPI_Exchange8bit
   _display_rpm
     ___awdiv
     ___awmod
       ___awdiv (ARG)
     _cmd
       ___fttol (ARG)
       _cmd_incrementn (ARG)
       _wr32 (ARG)
         _SPI_Exchange8bit
     _cmd_incrementn
     _wr16
       _SPI_Exchange8bit
     _wr8s
       _SPI_Exchange8bit
       _strlen
   _display_speed
     _cmd
       ___fttol (ARG)
       _cmd_incrementn (ARG)
       _wr32 (ARG)
         _SPI_Exchange8bit
     _cmd_incrementn
     _wr16
       _SPI_Exchange8bit
   _display_start
     _cmd
       ___fttol (ARG)
       _cmd_incrementn (ARG)
       _wr32 (ARG)
         _SPI_Exchange8bit
   _display_tp
     _cmd
       ___fttol (ARG)
       _cmd_incrementn (ARG)
       _wr32 (ARG)
         _SPI_Exchange8bit
     _cmd_incrementn
     _wr16
       _SPI_Exchange8bit
   _display_waterTemp
     _cmd
       ___fttol (ARG)
       _cmd_incrementn (ARG)
       _wr32 (ARG)
         _SPI_Exchange8bit
     _cmd_incrementn
     _wr16
       _SPI_Exchange8bit
   _wait2secs

 _INTERRUPT_InterruptManager (ROOT)
   _PIN_MANAGER_IOC
     _IOCB4_ISR
       Absolute function(Fake) *
       _IOCB4_DefaultInterruptHandler *

 Address spaces:
Name               Size   Autos  Total    Cost      Usage
BIGRAM             E40      0       0      35        0.0%
EEDATA             400      0       0       0        0.0%
BITBANK13          100      0       0      31        0.0%
BANK13             100      0       0      32        0.0%
BITBANK12          100      0       0      29        0.0%
BANK12             100      0       0      30        0.0%
BITBANK11          100      0       0      27        0.0%
BANK11             100      0       0      28        0.0%
BITBANK10          100      0       0      25        0.0%
BANK10             100      0       0      26        0.0%
BITBANK9           100      0       0      23        0.0%
BANK9              100      0       0      24        0.0%
BITBANK8           100      0       0      21        0.0%
BANK8              100      0       0      22        0.0%
BITBANK7           100      0       0      19        0.0%
BANK7              100      0       0      20        0.0%
BITBANK6           100      0       0      17        0.0%
BANK6              100      0       0      18        0.0%
BITBANK5           100      0       0      15        0.0%
BANK5              100      0       0      16        0.0%
BITBANK4           100      0       0      13        0.0%
BANK4              100      0       0      14        0.0%
BITBANK3           100      0       0      11        0.0%
BANK3              100      0       0      12        0.0%
BITBANK2           100      0       0       9        0.0%
BANK2              100      0       0      10        0.0%
BITBANK1           100      0       0       7        0.0%
BANK1              100      0       0       8        0.0%
BITBANK0            A0      0       0       4        0.0%
BANK0               A0      0       0       5        0.0%
BITCOMRAM           5E      0       0       0        0.0%
COMRAM              5E     36      3C       1       63.8%
BITBANK14           41      0       0      33        0.0%
BANK14              41      0       0      34        0.0%
BITSFR_2             0      0       0     200        0.0%
SFR_2                0      0       0     200        0.0%
BITSFR_1             0      0       0     200        0.0%
SFR_1                0      0       0     200        0.0%
BITSFR               0      0       0     200        0.0%
SFR                  0      0       0     200        0.0%
STACK                0      0       0       2        0.0%
NULL                 0      0       0       0        0.0%
ABS                  0      0      3C       6        0.0%
DATA                 0      0      3C       3        0.0%
CODE                 0      0       0       0        0.0%


Microchip Technology PIC18 Macro Assembler V1.42 build -159332390 
Symbol Table                                                                                   Wed Oct 04 22:56:34 2017

                           _SPI_Initialize 5FE6                                _SSPSTATbits 000FC7  
                             ?_display_end 0001                               ?_display_rpm 0025  
                             ___awdiv@sign 0014                   __size_of_ECAN_Initialize 00E6  
       __size_of_IOCB4_SetInterruptHandler 000A                                __CFG_BORV$3 000000  
               ?_IOCB4_SetInterruptHandler 000F                               __CFG_CP0$OFF 000000  
                             __CFG_CP1$OFF 000000                               __CFG_CP2$OFF 000000  
                             __CFG_CP3$OFF 000000                     __end_of_display_labels 45B4  
                            ?_display_gear 0025                                        l442 5FF6  
                                      l384 5FDE                              ?_display_fuel 0025  
                             __CFG_CPB$OFF 000000                               __CFG_CPD$OFF 000000  
                                      u640 5C86                                        u801 55B2  
                                      u820 55EC                                        u645 5C7C  
                                      u825 55E4                                        u907 549A  
                                      u917 5F5C                                        u927 4F9A  
                                      u937 4FAC                                        u897 547A  
                                      _cmd 5EA8                                        _dli 0039  
                                      _wr8 5EE0                               ___awmod@sign 001C  
                                      tosl 000FFD                                        wreg 000FE8  
                  __end_of_display_battery 4F92                        __size_of_FT800_Init 028A  
                       __size_of_IOCB4_ISR 0020                                       l3010 5E38  
                                     l3012 5E3C                                       l3110 5BCA  
                                     l3200 5634                                       l3120 5BEC  
                                     l3104 5BBA                                       l1362 578C  
                                     l3210 565C                                       ?_cmd 001E  
                                     l3212 5668                                       l3204 5644  
                                     l3116 5BE0                                       l3132 5C12  
                                     l1382 5860                                       l3070 5B82  
                                     l3214 566E                                       l3118 5BE8  
                                     l3072 5B8C                                       l3136 5C20  
                                     l3128 5C08                                       l3160 5CDC  
                                     l3152 5CC2                                       l3066 5B5C  
                                     l3218 5684                                       l3076 5B94  
                                     l3172 5D08                                       l3164 5CF0  
                                     l3156 5CD0                                       l3148 5CB6  
                                     l4204 546E                                       l3182 55CE  
                                     l3158 5CD8                                       l3168 5CFA  
                                     l3288 51FC                                       l3650 4736  
                                     l3652 47D8                                       l3660 49E6  
                                     l3654 4852                                       l3646 45F2  
                                     l3656 491C                                       l3648 466C  
                                     ?_wr8 0010                                       STR_1 0F28  
                                     STR_2 0F16                                       STR_3 0F38  
                                     STR_4 0F50                                       STR_5 0F38  
                                     STR_6 0F33                                       STR_7 0F2E  
                                     STR_8 0F47                                       STR_9 0F22  
                                     _LATA 000F89                                       _LATB 000F8A  
                                     _LATC 000F8B                                       _LATD 000F8C  
                                     _LATE 000F8D                    __end_of_display_laptime 2420  
                      display_oilTemp@temp 0025                    __end_of_display_oilTemp 5B1A  
                                     _WPUB 000F5B                             ?_display_speed 0025  
                  __end_of_display_message 537A                             ?_display_start 0001  
                            _EUSART1_Write 5FF4                                       _rd16 5D12  
                                     _wr32 5C2A                                       _wr16 5E6C  
                                     _main 537A                                       _wr8s 5B1A  
                                     fsr0h 000FEA                                       fsr1h 000FE2  
                                     fsr2h 000FDA                                       fsr0l 000FE9  
                                     fsr1l 000FE1                                       fsr2l 000FD9  
                                     btemp 003D                                       prodh 000FF4  
                                     prodl 000FF3                                       start 0088  
                              main@y_start 0035                              __CFG_IESO$OFF 000000  
                            __CFG_FOSC$HS1 000000                     __end_of_SPI_Initialize 5FF4  
                            __CFG_MCLRE$ON 000000                               ___param_bank 000000  
                             ___fttol@exp1 001D                                      ??_cmd 0022  
                             ___fttol@lval 0019                                      ??_wr8 0014  
           __size_of_OSCILLATOR_Initialize 0012              __end_of_OSCILLATOR_Initialize 5FD6  
                                    ?_rd16 0010                             ??_display_gear 0027  
                           ??_display_fuel 0027                                      ?_wr32 0010  
                                    ?_wr16 0010                                      ?_main 0001  
                          __end_of___awdiv 5C2A                                      ?_wr8s 0015  
                                    STR_10 0F50                                      STR_11 0F1C  
                                    STR_20 0F7A                                      STR_12 0F10  
                                    STR_21 0F7A                                      STR_13 0F4C  
                                    STR_22 0F7A                                      STR_30 0F6E  
                                    STR_14 0F65                                      STR_23 0F7A  
                                    STR_31 0F70                                      STR_15 0F68  
                                    STR_24 0F7A                                      STR_40 0F7C  
                                    STR_32 0F72                                      STR_16 0F01  
                                    STR_25 0F7A                                      STR_33 0F74  
                                    STR_41 0F54                                      STR_17 0F3D  
                                    STR_34 0F76                                      STR_26 0F6A  
                                    STR_18 0F42                            ?_display_labels 0001  
                                    STR_27 0F6A                                      STR_35 0F78  
                                    STR_19 0F58                                      STR_28 0F63  
                                    STR_36 0F5C                            __end_of___awmod 5D12  
                                    STR_29 0F6C                                      STR_37 0F5F  
                                    STR_38 0F62                                      STR_39 0F6A  
        __end_of_IOCB4_SetInterruptHandler 6016                            ___awdiv@divisor 0011  
                          __end_of___fttol 5696                                      i2l495 004C  
                          ___awdiv@counter 0013                                      _TRISA 000F92  
                                    _TRISB 000F93                                      _TRISC 000F94  
                                    _TRISD 000F95                                      _TRISE 000F96  
                 __end_of_display_oilPress 5788                              __CFG_WRT0$OFF 000000  
                            __CFG_WRT1$OFF 000000                              __CFG_WRT2$OFF 000000  
                            __CFG_WRT3$OFF 000000                             __CFG_EBTR0$OFF 000000  
                           __CFG_FCMEN$OFF 000000                             __CFG_EBTR1$OFF 000000  
                           __CFG_EBTR2$OFF 000000                             __CFG_EBTR3$OFF 000000  
                            __CFG_WRTB$OFF 000000                              __CFG_WRTC$OFF 000000  
                            __CFG_WRTD$OFF 000000                             __CFG_EBTRB$OFF 000000  
                  __end_of_PIN_MANAGER_IOC 600C                    __size_of_cmd_incrementn 001C  
                           ?_EUSART1_Write 0001                                      pclath 000FFA  
                                    wr8s@i 001E                                      wr8s@l 001D  
                                    wr8s@s 0018                                      tablat 000FF5  
                             display_tp@tp 0025                                      status 000FD8  
                          ?_SPI_Initialize 0001            ??_IOCB4_DefaultInterruptHandler 0001  
                          __initialization 5F86                               __end_of_rd16 5D62  
                             __end_of_wr16 5EA8                               __end_of_wr32 5CA2  
               __end_of_EUSART1_Initialize 5FB2                               __end_of_main 54AA  
                             __end_of_wr8s 5BA6                          __end_of_IOCB4_ISR 5F36  
              ?_INTERRUPT_InterruptManager 0001                                     ??_rd16 0013  
                                   ??_wr32 0017                                     ??_wr16 0015  
                                   ??_main 0033                              ___fttol@sign1 0018  
                                   ??_wr8s 001A                              __activetblptr 000002  
                           __CFG_RETEN$OFF 000000                          ??_ECAN_Initialize 000F  
                 __end_of_SPI_Exchange8bit 5FE6                           ?_display_battery 0025  
                                   _CANCON 000F6F                            ??_display_speed 0027  
                          ??_display_start 0025                                     _ANCON0 000F5D  
                                   _ANCON1 000F5C                           ___awdiv@dividend 000F  
                          __CFG_BBSIZ$BB2K 000000                           ?_display_laptime 0025  
                           __CFG_WDTEN$OFF 000000                                     _RCREG1 000FAE  
                                   _RCREG2 000F7A                           ?_display_oilTemp 0025  
                                   _RCSTA1 000FAB                                     _RCSTA2 000FA6  
                                   _OSCCON 000FD3                           ?_display_message 0025  
                                   _RXB0D0 000F66                                     _RXB0D1 000F67  
                                   _RXB0D2 000F68                                     _RXB0D3 000F69  
                                   _RXB0D4 000F6A                                     _RXB1D0 000F36  
                                   _RXB0D5 000F6B                                     _RXB1D1 000F37  
                                   _RXB0D6 000F6C                                     _RXB1D2 000F38  
                                   _RXB0D7 000F6D                                     _RXB1D3 000F39  
                                   _RXB1D4 000F3A                                     _RXB1D5 000F3B  
                                   _RXB1D6 000F3C                                     _RXB1D7 000F3D  
                                   _SPBRG1 000FAF                                     _SPBRG2 000F7B  
                                   _TXB0D0 000F26                                     _TXB0D1 000F27  
                                   _TXB0D2 000F28                                     _TXB0D3 000F29  
                                   _TXB0D4 000F2A                                     _TXB1D0 000F16  
                                   _TXB0D5 000F2B                                     _TXB1D1 000F17  
                                   _TXB0D6 000F2C                                     _TXB1D2 000F18  
                                   _TXB0D7 000F2D                                     _TXB1D3 000F19  
                                   _TXB1D4 000F1A                                     _TXB2D0 000F06  
                                   _TXB1D5 000F1B                                     _TXB2D1 000F07  
                                   _TXB1D6 000F1C                                     _TXB2D2 000F08  
                                   _TXB1D7 000F1D                                     _TXB2D3 000F09  
                                   _TXB2D4 000F0A                                     _TXB2D5 000F0B  
                                   _TXB2D6 000F0C                                     _TXB2D7 000F0D  
                                   _SSPADD 000FC8                                     i2u7_48 5F22  
                                   _SSPBUF 000FC9                                     _TXREG1 000FAD  
                                   _TXREG2 000F79                                     _TXSTA1 000FAC  
                                   _TXSTA2 000FBA                             __CFG_XINST$OFF 000000  
                             ??_FT800_Init 001B                                  ??___awdiv 0013  
                           __CFG_STVREN$ON 000000                                  ??___awmod 001B  
                                ??___fttol 0013                           ___awdiv@quotient 0015  
                          ___awmod@divisor 0019                            ___awmod@counter 001B  
                     __size_of_display_end 0042                                     _strlen 5E2E  
                     __size_of_display_rpm 1312                      display_labels@y_start 0028  
                             __mediumconst 0000                                     tblptrh 000FF7  
                                   tblptrl 000FF6                                     tblptru 000FF8  
                          ??_EUSART1_Write 000F  IOCB4_SetInterruptHandler@InterruptHandler 000F  
                         ?_PIN_MANAGER_IOC 0001                         __end_of_FT800_Init 521C  
                        _SYSTEM_Initialize 5FB2                              ?_host_command 0001  
                               __accesstop 0060                    __end_of__initialization 5F8E  
                     __end_of_display_gear 4A1E                       __end_of_display_fuel 4CD8  
                       ?_SYSTEM_Initialize 0001                              ___rparam_used 000001  
                               ___fttol@f1 000F                             __pcstackCOMRAM 0001  
                      ??_SYSTEM_Initialize 0011      __end_of_IOCB4_DefaultInterruptHandler 6018  
   __size_of_IOCB4_DefaultInterruptHandler 0002              _IOCB4_DefaultInterruptHandler 6016  
              ??_IOCB4_SetInterruptHandler 0011                            cmd_incrementn@n 0011  
                           _cmd_incrementn 5F36                      display_waterTemp@temp 0025  
                __end_of_SYSTEM_Initialize 5FC4                             ??_host_command 0010  
                          __CFG_PLLCFG$OFF 000000                                 __pnvCOMRAM 003B  
                               _cmd_offset 0037                           ??_display_labels 0025  
                       __size_of_wait2secs 001A                                    _ECANCON 000F72  
                                  _CANSTAT 000F6E                                    _BRGCON1 000E43  
                                  _BRGCON2 000E44                                    _BRGCON3 000E45  
                                  ?_strlen 000F                           __CFG_CANMX$PORTB 000000  
                                  _REFOCON 000F9A                     __end_of_cmd_incrementn 5F52  
                        ?_display_oilPress 0025                                    _OSCCON2 000FD2  
                                  _RXB0DLC 000F65                                    _RXB1DLC 000F35  
                                  _OSCTUNE 000F9B                                    _SPBRGH1 000F7D  
                                  _SPBRGH2 000F7C                                    _TXB0DLC 000F25  
                                  _TXB1DLC 000F15                                    _TXB2DLC 000F05  
                     display_battery@volts 0025                         ??_display_oilPress 0028  
                                  _SSPCON1 000FC6                                 _display_tp 586E  
                                  _SSPSTAT 000FC7                                 cmd@command 001E  
                         ??_SPI_Initialize 000F                  _IOCB4_SetInterruptHandler 600C  
                          __CFG_PWRTEN$OFF 000000                                    __Hparam 0000  
                                  __Lparam 0000                                    ___awdiv 5BA6  
                                  ___awmod 5CA2                                    ___fttol 55A2  
                          _ECAN_Initialize 5788                               __psmallconst 0F00  
                                  __pcinit 5F86                                    __ramtop 0F00  
                                  __ptext0 537A                                    __ptext1 5F52  
                                  __ptext2 54AA                                    __ptext3 586E  
                                  __ptext4 5DF0                                    __ptext5 5952  
                                  __ptext6 2420                                    __ptext7 5CA2  
                                  __ptext8 5BA6                                    __ptext9 5A36  
                                _IOCB4_ISR 5F16                            __size_of_strlen 003E  
                    _OSCILLATOR_Initialize 5FC4                               __size_of_cmd 0038  
                             __size_of_wr8 0036                           ___awmod@dividend 0017  
                       _EUSART1_Initialize 5F9C                   ??_PIN_MANAGER_Initialize 0011  
                          ?_cmd_incrementn 0001                          __CFG_MSSPMSK$MSK7 000000  
                        ?_SPI_Exchange8bit 0001                 __size_of_SYSTEM_Initialize 0012  
                    __size_of_display_gear 046A                      __size_of_display_fuel 02BA  
                     end_of_initialization 5F8E                                    wr8@addr 0010  
                       ??_SPI_Exchange8bit 000F                       SPI_Exchange8bit@data 000F  
                      ?_EUSART1_Initialize 0001                          __end_of_wait2secs 5F6C  
                            __Lmediumconst 0000                    display_rpm@second_digit 002A  
                           display_rpm@rpm 0025                       ??_EUSART1_Initialize 000F  
                                  strlen@s 000F                       __end_of_host_command 5F86  
                               ?_IOCB4_ISR 0001                               _display_gear 45B4  
                       display_laptime@lap 002E                               _display_fuel 4A1E  
                              ?_display_tp 0025                        EUSART1_Write@txData 000F  
                    __end_of_display_speed 5A36                      __end_of_display_start 5E2E  
                 __size_of_display_battery 02BA                    __end_of_ECAN_Initialize 586E  
                 __size_of_display_laptime 14A0                   __size_of_display_oilTemp 00E4  
                 __size_of_display_message 015E                              ??_display_end 0025  
                            ??_display_rpm 0027                     ?_OSCILLATOR_Initialize 0001  
                           __end_of_strlen 5E6C                        start_initialization 5F86  
          __size_of_PIN_MANAGER_Initialize 004C                                __end_of_cmd 5EE0  
                              __end_of_wr8 5F16                      __end_of_EUSART1_Write 6000  
                 __size_of_PIN_MANAGER_IOC 000C                        __size_of_display_tp 00E4  
                                 ??_strlen 0011                     display_rpm@first_digit 002C  
                              ??_IOCB4_ISR 0001                        __end_of_display_end 5DF0  
                      __end_of_display_rpm 3732                                __pbssCOMRAM 0037  
                       display_speed@speed 0025                     display_message@message 0025  
                         ?_ECAN_Initialize 0001                  __size_of_display_oilPress 00F2  
                   _PIN_MANAGER_Initialize 5D62                      __size_of_host_command 001A  
                                __pintcode 0008                                   ?___awdiv 000F  
                                 ?___awmod 0017                          ??_display_battery 0028  
                                 ?___fttol 000F                           ??_cmd_incrementn 000F  
             ??_INTERRUPT_InterruptManager 0001                          ??_display_laptime 0030  
                        ??_display_oilTemp 0027                          ??_display_message 0027  
                              __smallconst 0F00                                   _BAUDCON1 000FA7  
                                 _BAUDCON2 000FB9                                _COMSTATbits 000F71  
                             _host_command 5F6C                                   _IOCBbits 000F5A  
                                 _LATAbits 000F89                                   _LATCbits 000F8B  
                                 _LATDbits 000F8C                                   _PIE5bits 000F76  
                                _wait2secs 5F52                          display_fuel@level 0025  
      __size_of_INTERRUPT_InterruptManager 0080                                   _PIR1bits 000F9E  
                                 _PIR3bits 000FA4                                   _PIR5bits 000F77  
                __size_of_SPI_Exchange8bit 0010                                   _RXB0EIDH 000F63  
                                 _RXB0EIDL 000F64                                   _RXB1EIDH 000F33  
                                 _RXB1EIDL 000F34                                   _RCONbits 000FD0  
                                 _RXB0SIDH 000F61                                   _RXB0SIDL 000F62  
                                 _RXB1SIDH 000F31                                   _RXF0EIDH 000EE2  
                                 _RXB1SIDL 000F32                                   _RXF0EIDL 000EE3  
                                 _RXF1EIDH 000EE6                                   _RXF1EIDL 000EE7  
                                 _RXF2EIDH 000EEA                                   _RXF2EIDL 000EEB  
                                 _RXF3EIDH 000EEE                                   _RXF3EIDL 000EEF  
                                 _RXF4EIDH 000EF2                                   _RXF4EIDL 000EF3  
                                 _RXF5EIDH 000EF6                                   _RXF5EIDL 000EF7  
                                 _RXF0SIDH 000EE0                                   _RXF0SIDL 000EE1  
                                 _TXB0EIDH 000F23                                   _RXF1SIDH 000EE4  
                                 _TXB0EIDL 000F24                                   _RXF1SIDL 000EE5  
                                 _TXB1EIDH 000F13                                   _RXF2SIDH 000EE8  
                                 _TXB1EIDL 000F14                                   _RXF2SIDL 000EE9  
                                 _TXB2EIDH 000F03                                   _RXF3SIDH 000EEC  
                                 _TXB2EIDL 000F04                                   _RXF3SIDL 000EED  
                                 _RXF4SIDH 000EF0                                   _RXF4SIDL 000EF1  
                                 _RXF5SIDH 000EF4                                   _RXF5SIDL 000EF5  
                                 _RXM0EIDH 000EFA                                   _RXM0EIDL 000EFB  
                                 _TXB0SIDH 000F21                                   _RXM1EIDH 000EFE  
                                 _TXB0SIDL 000F22                                   _RXM1EIDL 000EFF  
                                 _TXB1SIDH 000F11                                   _TXB1SIDL 000F12  
                                 _TXB2SIDH 000F01                                   _TXB2SIDL 000F02  
                                wr32@value 0013                                  wr16@value 0013  
                                 _RXM0SIDH 000EF8                                   _RXM0SIDL 000EF9  
                                 _RXM1SIDH 000EFC                                   _RXM1SIDL 000EFD  
                        ??_PIN_MANAGER_IOC 0001                                _display_end 5DAE  
                              _display_rpm 2420                           __CFG_SOSCSEL$DIG 000000  
                        _display_waterTemp 54AA                         ?_display_waterTemp 0025  
                  __size_of_display_labels 0E82                               ??_display_tp 0027  
                      ??_display_waterTemp 0027                                 ?_wait2secs 0001  
                                 __Hrparam 0000                                 _FT800_Init 4F92  
                                 __Lrparam 0000                         __CFG_BOREN$SBORDIS 000000  
                  __size_of_SPI_Initialize 000E                    ??_OSCILLATOR_Initialize 000F  
                         __size_of___awdiv 0084                                 _CIOCONbits 000F70  
                         __size_of___awmod 0070                           __size_of___fttol 00F4  
                __end_of_display_waterTemp 55A2                __size_of_EUSART1_Initialize 0016  
                       __end_of_display_tp 5952                                   rd16@addr 0010  
                                 rd16@temp 0016                     _IOCB4_InterruptHandler 003B  
                         display_gear@gear 0025             ?_IOCB4_DefaultInterruptHandler 0001  
                                 __ptext10 5696                                   __ptext11 55A2  
                                 __ptext20 5E2E                                   __ptext12 521C  
                                 __ptext21 5EA8                                   __ptext13 0F80  
                                 __ptext30 5EE0                                   __ptext22 5F36  
                                 __ptext14 3732                                   __ptext31 5C2A  
                                 __ptext23 5FB2                                   __ptext15 45B4  
                                 __ptext40 5F16                                   __ptext32 5E6C  
                                 __ptext24 5FE6                                   __ptext16 4A1E  
                                 __ptext41 6016                                   __ptext33 5D12  
                                 __ptext25 5D62                                   __ptext17 5DAE  
                                 __ptext42 0000                                   __ptext34 5F6C  
                                 __ptext26 600C                                   __ptext18 4CD8  
                                 __ptext35 5FD6                                   __ptext27 5FC4  
                                 __ptext19 5B1A                                   __ptext36 5FF4  
                                 __ptext28 5788                                   __ptext37 5F9C  
                                 __ptext29 4F92                                   __ptext39 6000  
                   display_laptime@current 0025                              __size_of_rd16 0050  
                            __size_of_wr16 003C                              __size_of_wr32 0078  
                            __size_of_main 0130                              __size_of_wr8s 008C  
                         _display_oilPress 5696                   display_oilPress@pressure 0025  
                                 wr32@addr 0010                                   wr16@addr 0010  
                                 int$flags 003D         __end_of_INTERRUPT_InterruptManager 0088  
               _INTERRUPT_InterruptManager 0008                        __CFG_INTOSCSEL$HIGH 000000  
                   __size_of_display_speed 00E4                     __size_of_display_start 003E  
                              _RXB0CONbits 000F60                                _RXB1CONbits 000F30  
                               _INTCONbits 000FF2                                   wr8@value 0013  
                                 wr8s@addr 0015                                   intlevel2 0000  
                          _display_battery 4CD8                    ?_PIN_MANAGER_Initialize 0001  
                              _TXB0CONbits 000F20                                 _RCSTA1bits 000FAB  
                               _RCSTA2bits 000FA6                                _TXB1CONbits 000F10  
                              ??_wait2secs 000F                            _display_laptime 0F80  
                              _TXB2CONbits 000F00                            _display_oilTemp 5A36  
                          _display_message 521C                                ?_FT800_Init 0001  
                         _SPI_Exchange8bit 5FD6                         __CFG_WDTPS$1048576 000000  
                      host_command@command 0010                 __size_of_display_waterTemp 00F8  
                   __size_of_EUSART1_Write 000C                             _display_labels 3732  
                                 strlen@cp 0013                                _SSPCON1bits 000FC6  
                      display_laptime@best 0028             __end_of_PIN_MANAGER_Initialize 5DAE  
                      display_laptime@last 002B                              _display_speed 5952  
                      __CFG_BORPWR$ZPBORMV 000000                              _display_start 5DF0  
                          _PIN_MANAGER_IOC 6000  
