

Microchip Technology PIC18 LITE Macro Assembler V1.42 build -159332390 
                                                                                               Fri Dec 08 20:39:53 2017

Microchip Technology Omniscient Code Generator v1.42 (Free mode) build 201704130522
     1                           	processor	18F45K80
     2                           	fnconf	rparam,??,?,0
     3                           	opt	pw 120
     4                           	opt	lm
     5                           	psect	smallconst,global,reloc=2,class=SMALLCONST,delta=1,noexec
     6                           	psect	cinit,global,reloc=2,class=CODE,delta=1
     7                           	psect	bssCOMRAM,global,class=COMRAM,space=1,delta=1,noexec
     8                           	psect	cstackBANK0,global,class=BANK0,space=1,delta=1,noexec
     9                           	psect	cstackCOMRAM,global,class=COMRAM,space=1,delta=1,noexec
    10                           	psect	text0,global,reloc=2,class=CODE,delta=1
    11                           	psect	text1,global,reloc=2,class=CODE,delta=1
    12                           	psect	text2,global,reloc=2,class=CODE,delta=1
    13                           	psect	text3,global,reloc=2,class=CODE,delta=1
    14                           	psect	text4,global,reloc=2,class=CODE,delta=1
    15                           	psect	text5,global,reloc=2,class=CODE,delta=1
    16                           	psect	text6,global,reloc=2,class=CODE,delta=1
    17                           	psect	text7,global,reloc=2,class=CODE,delta=1
    18                           	psect	text8,global,reloc=2,class=CODE,delta=1
    19                           	psect	text9,global,reloc=2,class=CODE,delta=1
    20                           	psect	text10,global,reloc=2,class=CODE,delta=1,group=1
    21                           	psect	text11,global,reloc=2,class=CODE,delta=1
    22                           	psect	text12,global,reloc=2,class=CODE,delta=1
    23                           	psect	text13,global,reloc=2,class=CODE,delta=1
    24                           	psect	text14,global,reloc=2,class=CODE,delta=1
    25                           	psect	text15,global,reloc=2,class=CODE,delta=1
    26                           	psect	text16,global,reloc=2,class=CODE,delta=1
    27                           	psect	text17,global,reloc=2,class=CODE,delta=1
    28                           	psect	text18,global,reloc=2,class=CODE,delta=1
    29                           	psect	text19,global,reloc=2,class=CODE,delta=1,group=1
    30                           	psect	text20,global,reloc=2,class=CODE,delta=1
    31                           	psect	text21,global,reloc=2,class=CODE,delta=1
    32                           	psect	text22,global,reloc=2,class=CODE,delta=1,group=1
    33                           	psect	text23,global,reloc=2,class=CODE,delta=1,group=1
    34                           	psect	text24,global,reloc=2,class=CODE,delta=1,group=1
    35                           	psect	text25,global,reloc=2,class=CODE,delta=1,group=1
    36                           	psect	text26,global,reloc=2,class=CODE,delta=1
    37                           	psect	text27,global,reloc=2,class=CODE,delta=1
    38                           	psect	text28,global,reloc=2,class=CODE,delta=1
    39                           	psect	text29,global,reloc=2,class=CODE,delta=1
    40                           	psect	text30,global,reloc=2,class=CODE,delta=1
    41                           	psect	text31,global,reloc=2,class=CODE,delta=1
    42                           	psect	text32,global,reloc=2,class=CODE,delta=1
    43                           	psect	text33,global,reloc=2,class=CODE,delta=1,inline
    44                           	psect	text34,global,reloc=2,class=CODE,delta=1
    45                           	psect	text35,global,reloc=2,class=CODE,delta=1
    46                           	psect	text36,global,reloc=2,class=CODE,delta=1
    47                           	psect	text37,global,reloc=2,class=CODE,delta=1
    48                           	psect	text38,global,reloc=2,class=CODE,delta=1
    49                           	psect	text39,global,reloc=2,class=CODE,delta=1
    50                           	psect	text40,global,reloc=2,class=CODE,delta=1
    51                           	psect	text41,global,reloc=2,class=CODE,delta=1
    52                           	psect	text42,global,reloc=2,class=CODE,delta=1
    53                           	psect	intcode,global,reloc=2,class=CODE,delta=1
    54                           	psect	text44,global,reloc=2,class=CODE,delta=1
    55                           	psect	intsave_regs,global,class=BIGRAM,space=1,delta=1,noexec
    56                           	psect	rparam,global,class=COMRAM,space=1,delta=1,noexec
    57                           	psect	temp,global,ovrld,common,class=COMRAM,space=1,delta=1
    58  0000                     
    59                           ; Version 1.42
    60                           ; Generated 13/04/2017 GMT
    61                           ; 
    62                           ; Copyright © 2017, Microchip Technology Inc. and its subsidiaries ("Microchip")
    63                           ; All rights reserved.
    64                           ; 
    65                           ; This software is developed by Microchip Technology Inc. and its subsidiaries ("Microch
      +                          ip").
    66                           ; 
    67                           ; Redistribution and use in source and binary forms, with or without modification, are
    68                           ; permitted provided that the following conditions are met:
    69                           ; 
    70                           ;     1. Redistributions of source code must retain the above copyright notice, this lis
      +                          t of
    71                           ;        conditions and the following disclaimer.
    72                           ; 
    73                           ;     2. Redistributions in binary form must reproduce the above copyright notice, this 
      +                          list
    74                           ;        of conditions and the following disclaimer in the documentation and/or other
    75                           ;        materials provided with the distribution.
    76                           ; 
    77                           ;     3. Microchip's name may not be used to endorse or promote products derived from th
      +                          is
    78                           ;        software without specific prior written permission.
    79                           ; 
    80                           ; THIS SOFTWARE IS PROVIDED BY MICROCHIP "AS IS" AND ANY EXPRESS OR IMPLIED WARRANTIES,
    81                           ; INCLUDING, BUT NOT LIMITED TO, THE IMPLIED WARRANTIES OF MERCHANTABILITY AND FITNESS F
      +                          OR
    82                           ; PURPOSE ARE DISCLAIMED.  IN NO EVENT SHALL MICROCHIP BE LIABLE FOR ANY DIRECT, INDIREC
      +                          T,
    83                           ; INCIDENTAL, SPECIAL, EXEMPLARY, OR CONSEQUENTIAL DAMAGES (INCLUDING BUT NOT LIMITED TO
    84                           ; PROCUREMENT OF SUBSTITUTE GOODS OR SERVICES; LOSS OF USE, DATA OR PROFITS; OR BUSINESS
    85                           ; INTERRUPTION) HOWSOEVER CAUSED AND ON ANY THEORY OF LIABILITY, WHETHER IN CONTRACT, ST
      +                          RICT
    86                           ; LIABILITY, OR TORT (INCLUDING NEGLIGENCE OR OTHERWISE) ARISING IN ANY WAY OUT OF THE U
      +                          SE OF
    87                           ; THIS SOFTWARE, EVEN IF ADVISED OF THE POSSIBILITY OF SUCH DAMAGE.
    88                           ; 
    89                           ; 
    90                           ; Code-generator required, PIC18F45K80 Definitions
    91                           ; 
    92                           ; SFR Addresses
    93  0000                     _BRGCON3	set	3653
    94  0000                     _BRGCON2	set	3652
    95  0000                     _BRGCON1	set	3651
    96  0000                     _RXF5SIDL	set	3829
    97  0000                     _RXF5SIDH	set	3828
    98  0000                     _RXF5EIDL	set	3831
    99  0000                     _RXF5EIDH	set	3830
   100  0000                     _RXF4SIDL	set	3825
   101  0000                     _RXF4SIDH	set	3824
   102  0000                     _RXF4EIDL	set	3827
   103  0000                     _RXF4EIDH	set	3826
   104  0000                     _RXF3SIDL	set	3821
   105  0000                     _RXF3SIDH	set	3820
   106  0000                     _RXF3EIDL	set	3823
   107  0000                     _RXF3EIDH	set	3822
   108  0000                     _RXF2SIDL	set	3817
   109  0000                     _RXF2SIDH	set	3816
   110  0000                     _RXF2EIDL	set	3819
   111  0000                     _RXF2EIDH	set	3818
   112  0000                     _RXF1SIDL	set	3813
   113  0000                     _RXF1SIDH	set	3812
   114  0000                     _RXF1EIDL	set	3815
   115  0000                     _RXF1EIDH	set	3814
   116  0000                     _RXF0SIDL	set	3809
   117  0000                     _RXF0SIDH	set	3808
   118  0000                     _RXF0EIDL	set	3811
   119  0000                     _RXF0EIDH	set	3810
   120  0000                     _RXM1SIDL	set	3837
   121  0000                     _RXM1SIDH	set	3836
   122  0000                     _RXM1EIDL	set	3839
   123  0000                     _RXM1EIDH	set	3838
   124  0000                     _RXM0SIDL	set	3833
   125  0000                     _RXM0SIDH	set	3832
   126  0000                     _RXM0EIDL	set	3835
   127  0000                     _RXM0EIDH	set	3834
   128  0000                     _IOCBbits	set	3930
   129  0000                     _WPUB	set	3931
   130  0000                     _ANCON1	set	3932
   131  0000                     _ANCON0	set	3933
   132  0000                     _RXB1D7	set	3901
   133  0000                     _RXB1D6	set	3900
   134  0000                     _RXB1D5	set	3899
   135  0000                     _RXB1D4	set	3898
   136  0000                     _RXB1D3	set	3897
   137  0000                     _RXB1D2	set	3896
   138  0000                     _RXB1D1	set	3895
   139  0000                     _RXB1D0	set	3894
   140  0000                     _RXB1DLC	set	3893
   141  0000                     _RXB1SIDH	set	3889
   142  0000                     _RXB1EIDL	set	3892
   143  0000                     _RXB1EIDH	set	3891
   144  0000                     _RXB1SIDL	set	3890
   145  0000                     _RXB1CONbits	set	3888
   146  0000                     _TXB2D7	set	3853
   147  0000                     _TXB2D6	set	3852
   148  0000                     _TXB2D5	set	3851
   149  0000                     _TXB2D4	set	3850
   150  0000                     _TXB2D3	set	3849
   151  0000                     _TXB2D2	set	3848
   152  0000                     _TXB2D1	set	3847
   153  0000                     _TXB2D0	set	3846
   154  0000                     _TXB2DLC	set	3845
   155  0000                     _TXB2SIDL	set	3842
   156  0000                     _TXB2SIDH	set	3841
   157  0000                     _TXB2EIDL	set	3844
   158  0000                     _TXB2EIDH	set	3843
   159  0000                     _TXB2CONbits	set	3840
   160  0000                     _TXB1D7	set	3869
   161  0000                     _TXB1D6	set	3868
   162  0000                     _TXB1D5	set	3867
   163  0000                     _TXB1D4	set	3866
   164  0000                     _TXB1D3	set	3865
   165  0000                     _TXB1D2	set	3864
   166  0000                     _TXB1D1	set	3863
   167  0000                     _TXB1D0	set	3862
   168  0000                     _TXB1DLC	set	3861
   169  0000                     _TXB1SIDL	set	3858
   170  0000                     _TXB1SIDH	set	3857
   171  0000                     _TXB1EIDL	set	3860
   172  0000                     _TXB1EIDH	set	3859
   173  0000                     _TXB1CONbits	set	3856
   174  0000                     _TXB0D7	set	3885
   175  0000                     _TXB0D6	set	3884
   176  0000                     _TXB0D5	set	3883
   177  0000                     _TXB0D4	set	3882
   178  0000                     _TXB0D3	set	3881
   179  0000                     _TXB0D2	set	3880
   180  0000                     _TXB0D1	set	3879
   181  0000                     _TXB0D0	set	3878
   182  0000                     _TXB0DLC	set	3877
   183  0000                     _TXB0SIDL	set	3874
   184  0000                     _TXB0SIDH	set	3873
   185  0000                     _TXB0EIDL	set	3876
   186  0000                     _TXB0EIDH	set	3875
   187  0000                     _TXB0CONbits	set	3872
   188  0000                     _LATCbits	set	3979
   189  0000                     _LATBbits	set	3978
   190  0000                     _LATDbits	set	3980
   191  0000                     _LATAbits	set	3977
   192  0000                     _CIOCONbits	set	3952
   193  0000                     _TXREG2	set	3961
   194  0000                     _RCREG2	set	3962
   195  0000                     _RCSTA2bits	set	4006
   196  0000                     _PIR3bits	set	4004
   197  0000                     _SPBRGH2	set	3964
   198  0000                     _SPBRG2	set	3963
   199  0000                     _TXSTA2	set	4026
   200  0000                     _RCSTA2	set	4006
   201  0000                     _BAUDCON2	set	4025
   202  0000                     _TXREG1	set	4013
   203  0000                     _RCREG1	set	4014
   204  0000                     _RCSTA1bits	set	4011
   205  0000                     _PIR1bits	set	3998
   206  0000                     _SPBRGH1	set	3965
   207  0000                     _SPBRG1	set	4015
   208  0000                     _TXSTA1	set	4012
   209  0000                     _RCSTA1	set	4011
   210  0000                     _BAUDCON1	set	4007
   211  0000                     _SSPSTATbits	set	4039
   212  0000                     _SSPBUF	set	4041
   213  0000                     _SSPCON1bits	set	4038
   214  0000                     _SSPADD	set	4040
   215  0000                     _SSPCON1	set	4038
   216  0000                     _SSPSTAT	set	4039
   217  0000                     _TRISD	set	3989
   218  0000                     _TRISC	set	3988
   219  0000                     _TRISB	set	3987
   220  0000                     _TRISA	set	3986
   221  0000                     _TRISE	set	3990
   222  0000                     _LATC	set	3979
   223  0000                     _LATB	set	3978
   224  0000                     _LATA	set	3977
   225  0000                     _LATD	set	3980
   226  0000                     _LATE	set	3981
   227  0000                     _COMSTATbits	set	3953
   228  0000                     _RXB0D7	set	3949
   229  0000                     _RXB0D6	set	3948
   230  0000                     _RXB0D5	set	3947
   231  0000                     _RXB0D4	set	3946
   232  0000                     _RXB0D3	set	3945
   233  0000                     _RXB0D2	set	3944
   234  0000                     _RXB0D1	set	3943
   235  0000                     _RXB0D0	set	3942
   236  0000                     _RXB0DLC	set	3941
   237  0000                     _RXB0SIDH	set	3937
   238  0000                     _RXB0EIDL	set	3940
   239  0000                     _RXB0EIDH	set	3939
   240  0000                     _RXB0SIDL	set	3938
   241  0000                     _RXB0CONbits	set	3936
   242  0000                     _PIE5bits	set	3958
   243  0000                     _PIR5bits	set	3959
   244  0000                     _ECANCON	set	3954
   245  0000                     _CANSTAT	set	3950
   246  0000                     _CANCON	set	3951
   247  0000                     _REFOCON	set	3994
   248  0000                     _OSCTUNE	set	3995
   249  0000                     _OSCCON2	set	4050
   250  0000                     _OSCCON	set	4051
   251                           
   252                           	psect	smallconst
   253  000F00                     __psmallconst:
   254                           	opt stack 0
   255  000F00  00                 	db	0
   256  000F01                     STR_16:
   257  000F01  47                 	db	71	;'G'
   258  000F02  61                 	db	97	;'a'
   259  000F03  73                 	db	115	;'s'
   260  000F04  20                 	db	32
   261  000F05  50                 	db	80	;'P'
   262  000F06  72                 	db	114	;'r'
   263  000F07  65                 	db	101	;'e'
   264  000F08  73                 	db	115	;'s'
   265  000F09  73                 	db	115	;'s'
   266  000F0A  20                 	db	32
   267  000F0B  4C                 	db	76	;'L'
   268  000F0C  6F                 	db	111	;'o'
   269  000F0D  77                 	db	119	;'w'
   270  000F0E  20                 	db	32
   271  000F0F  00                 	db	0
   272  000F10                     STR_12:
   273  000F10  53                 	db	83	;'S'
   274  000F11  50                 	db	80	;'P'
   275  000F12  45                 	db	69	;'E'
   276  000F13  45                 	db	69	;'E'
   277  000F14  44                 	db	68	;'D'
   278  000F15  00                 	db	0
   279  000F16                     STR_2:
   280  000F16  57                 	db	87	;'W'
   281  000F17  41                 	db	65	;'A'
   282  000F18  54                 	db	84	;'T'
   283  000F19  45                 	db	69	;'E'
   284  000F1A  52                 	db	82	;'R'
   285  000F1B  00                 	db	0
   286  000F1C                     STR_11:
   287  000F1C  50                 	db	80	;'P'
   288  000F1D  52                 	db	82	;'R'
   289  000F1E  45                 	db	69	;'E'
   290  000F1F  53                 	db	83	;'S'
   291  000F20  53                 	db	83	;'S'
   292  000F21  00                 	db	0
   293  000F22                     STR_9:
   294  000F22  56                 	db	86	;'V'
   295  000F23  4F                 	db	79	;'O'
   296  000F24  4C                 	db	76	;'L'
   297  000F25  54                 	db	84	;'T'
   298  000F26  53                 	db	83	;'S'
   299  000F27  00                 	db	0
   300  000F28                     STR_1:
   301  000F28  68                 	db	104	;'h'
   302  000F29  65                 	db	101	;'e'
   303  000F2A  6C                 	db	108	;'l'
   304  000F2B  6C                 	db	108	;'l'
   305  000F2C  6F                 	db	111	;'o'
   306  000F2D  00                 	db	0
   307  000F2E                     STR_7:
   308  000F2E  55                 	db	85	;'U'
   309  000F2F  53                 	db	83	;'S'
   310  000F30  45                 	db	69	;'E'
   311  000F31  44                 	db	68	;'D'
   312  000F32  00                 	db	0
   313  000F33                     STR_6:
   314  000F33  46                 	db	70	;'F'
   315  000F34  55                 	db	85	;'U'
   316  000F35  45                 	db	69	;'E'
   317  000F36  4C                 	db	76	;'L'
   318  000F37  00                 	db	0
   319  000F38                     STR_3:
   320  000F38  54                 	db	84	;'T'
   321  000F39  45                 	db	69	;'E'
   322  000F3A  4D                 	db	77	;'M'
   323  000F3B  50                 	db	80	;'P'
   324  000F3C  00                 	db	0
   325  000F3D                     STR_17:
   326  000F3D  4C                 	db	76	;'L'
   327  000F3E  41                 	db	65	;'A'
   328  000F3F  53                 	db	83	;'S'
   329  000F40  54                 	db	84	;'T'
   330  000F41  00                 	db	0
   331  000F42                     STR_18:
   332  000F42  42                 	db	66	;'B'
   333  000F43  45                 	db	69	;'E'
   334  000F44  53                 	db	83	;'S'
   335  000F45  54                 	db	84	;'T'
   336  000F46  00                 	db	0
   337  000F47                     STR_8:
   338  000F47  42                 	db	66	;'B'
   339  000F48  41                 	db	65	;'A'
   340  000F49  54                 	db	84	;'T'
   341  000F4A  54                 	db	84	;'T'
   342  000F4B  00                 	db	0
   343  000F4C                     STR_13:
   344  000F4C  4B                 	db	75	;'K'
   345  000F4D  50                 	db	80	;'P'
   346  000F4E  48                 	db	72	;'H'
   347  000F4F  00                 	db	0
   348  000F50                     STR_4:
   349  000F50  4F                 	db	79	;'O'
   350  000F51  49                 	db	73	;'I'
   351  000F52  4C                 	db	76	;'L'
   352  000F53  00                 	db	0
   353  000F54                     STR_41:
   354  000F54  52                 	db	82	;'R'
   355  000F55  50                 	db	80	;'P'
   356  000F56  4D                 	db	77	;'M'
   357  000F57  00                 	db	0
   358  000F58                     STR_19:
   359  000F58  4C                 	db	76	;'L'
   360  000F59  41                 	db	65	;'A'
   361  000F5A  50                 	db	80	;'P'
   362  000F5B  00                 	db	0
   363  000F5C                     STR_36:
   364  000F5C  31                 	db	49	;'1'
   365  000F5D  30                 	db	48	;'0'
   366  000F5E  00                 	db	0
   367  000F5F                     STR_37:
   368  000F5F  31                 	db	49	;'1'
   369  000F60  31                 	db	49	;'1'
   370  000F61  00                 	db	0
   371  000F62                     STR_38:
   372  000F62  31                 	db	49	;'1'
   373  000F63  32                 	db	50	;'2'
   374  000F64  00                 	db	0
   375  000F65                     STR_14:
   376  000F65  54                 	db	84	;'T'
   377  000F66  50                 	db	80	;'P'
   378  000F67  00                 	db	0
   379  000F68                     STR_15:
   380  000F68  25                 	db	37
   381  000F69  00                 	db	0
   382  000F6A                     STR_26:
   383  000F6A  2E                 	db	46
   384  000F6B  00                 	db	0
   385  000F6C                     STR_29:
   386  000F6C  33                 	db	51	;'3'
   387  000F6D  00                 	db	0
   388  000F6E                     STR_30:
   389  000F6E  34                 	db	52	;'4'
   390  000F6F  00                 	db	0
   391  000F70                     STR_31:
   392  000F70  35                 	db	53	;'5'
   393  000F71  00                 	db	0
   394  000F72                     STR_32:
   395  000F72  36                 	db	54	;'6'
   396  000F73  00                 	db	0
   397  000F74                     STR_33:
   398  000F74  37                 	db	55	;'7'
   399  000F75  00                 	db	0
   400  000F76                     STR_34:
   401  000F76  38                 	db	56	;'8'
   402  000F77  00                 	db	0
   403  000F78                     STR_35:
   404  000F78  39                 	db	57	;'9'
   405  000F79  00                 	db	0
   406  000F7A                     STR_20:
   407  000F7A  3A                 	db	58	;':'
   408  000F7B  00                 	db	0
   409  000F7C                     STR_40:
   410  000F7C  6B                 	db	107	;'k'
   411  000F7D  00                 	db	0
   412  0000                     
   413                           ; #config settings
   414  000F7E  00                 	db	0	; dummy byte at the end
   415  0000                     
   416                           	psect	cinit
   417  007560                     __pcinit:
   418                           	opt stack 0
   419  007560                     start_initialization:
   420                           	opt stack 0
   421  007560                     __initialization:
   422                           	opt stack 0
   423                           
   424                           ; Clear objects allocated to COMRAM (18 bytes)
   425  007560  EE00  F030         	lfsr	0,__pbssCOMRAM
   426  007564  0E12               	movlw	18
   427  007566                     clear_0:
   428  007566  6AEE               	clrf	postinc0,c
   429  007568  06E8               	decf	wreg,f,c
   430  00756A  E1FD               	bnz	clear_0
   431  00756C                     end_of_initialization:
   432                           	opt stack 0
   433  00756C                     __end_of__initialization:
   434                           	opt stack 0
   435  00756C  9042               	bcf	int$flags,0,c	;clear compiler interrupt flag (level 1)
   436  00756E  9242               	bcf	int$flags,1,c	;clear compiler interrupt flag (level 2)
   437  007570  0E00               	movlw	low (__Lmediumconst shr (0+16))
   438  007572  6EF8               	movwf	tblptru,c
   439  007574  0100               	movlb	0
   440  007576  EF2F  F02E         	goto	_main	;jump to C main() function
   441                           tblptru	equ	0xFF8
   442                           postinc0	equ	0xFEE
   443                           wreg	equ	0xFE8
   444                           
   445                           	psect	bssCOMRAM
   446  000030                     __pbssCOMRAM:
   447                           	opt stack 0
   448  000030                     _tempCanMsg:
   449                           	opt stack 0
   450  000030                     	ds	14
   451  00003E                     _cmd_offset:
   452                           	opt stack 0
   453  00003E                     	ds	2
   454  000040                     _dli:
   455                           	opt stack 0
   456  000040                     	ds	2
   457                           tblptru	equ	0xFF8
   458                           postinc0	equ	0xFEE
   459                           wreg	equ	0xFE8
   460                           
   461                           	psect	cstackBANK0
   462  000060                     __pcstackBANK0:
   463                           	opt stack 0
   464  000060                     convertReg2ExtendedCANid@tempRXBn_EIDH:
   465                           	opt stack 0
   466  000060                     cmd@command:
   467                           	opt stack 0
   468                           
   469                           ; 4 bytes @ 0x0
   470  000060                     	ds	1
   471  000061                     convertReg2ExtendedCANid@returnValue:
   472                           	opt stack 0
   473                           
   474                           ; 4 bytes @ 0x1
   475  000061                     	ds	3
   476  000064                     ??_display_labels:
   477  000064                     display_message@message:
   478                           	opt stack 0
   479  000064                     display_waterTemp@temp:
   480                           	opt stack 0
   481  000064                     display_oilTemp@temp:
   482                           	opt stack 0
   483  000064                     display_fuel@level:
   484                           	opt stack 0
   485  000064                     display_battery@volts:
   486                           	opt stack 0
   487  000064                     display_tp@tp:
   488                           	opt stack 0
   489  000064                     display_speed@speed:
   490                           	opt stack 0
   491  000064                     display_rpm@rpm:
   492                           	opt stack 0
   493  000064                     display_gear@gear:
   494                           	opt stack 0
   495  000064                     display_laptime@current:
   496                           	opt stack 0
   497  000064                     display_oilPress@pressure:
   498                           	opt stack 0
   499                           
   500                           ; 3 bytes @ 0x4
   501  000064                     	ds	1
   502  000065                     convertReg2ExtendedCANid@CAN_standardLo_ID_lo2bits:
   503                           	opt stack 0
   504                           
   505                           ; 1 bytes @ 0x5
   506  000065                     	ds	1
   507  000066                     ??_display_waterTemp:
   508  000066                     ??_display_oilTemp:
   509  000066                     ??_display_fuel:
   510  000066                     ??_display_battery:
   511  000066                     ??_display_gear:
   512  000066                     ??_display_rpm:
   513  000066                     ??_display_speed:
   514  000066                     ??_display_tp:
   515  000066                     ??_display_message:
   516  000066                     convertReg2ExtendedCANid@CAN_standardLo_ID_hi3bits:
   517                           	opt stack 0
   518                           
   519                           ; 1 bytes @ 0x6
   520  000066                     	ds	1
   521  000067                     ??_display_oilPress:
   522  000067                     display_labels@y_start:
   523                           	opt stack 0
   524  000067                     display_laptime@best:
   525                           	opt stack 0
   526  000067                     convertReg2ExtendedCANid@ConvertedID:
   527                           	opt stack 0
   528                           
   529                           ; 4 bytes @ 0x7
   530  000067                     	ds	2
   531  000069                     display_rpm@second_digit:
   532                           	opt stack 0
   533                           
   534                           ; 2 bytes @ 0x9
   535  000069                     	ds	1
   536  00006A                     display_laptime@last:
   537                           	opt stack 0
   538                           
   539                           ; 3 bytes @ 0xA
   540  00006A                     	ds	1
   541  00006B                     display_rpm@first_digit:
   542                           	opt stack 0
   543                           
   544                           ; 2 bytes @ 0xB
   545  00006B                     	ds	2
   546  00006D                     display_laptime@lap:
   547                           	opt stack 0
   548                           
   549                           ; 2 bytes @ 0xD
   550  00006D                     	ds	2
   551  00006F                     ??_display_laptime:
   552                           
   553                           ; 1 bytes @ 0xF
   554  00006F                     	ds	3
   555  000072                     display@rpm:
   556                           	opt stack 0
   557                           
   558                           ; 2 bytes @ 0x12
   559  000072                     	ds	2
   560  000074                     display@oilP:
   561                           	opt stack 0
   562                           
   563                           ; 2 bytes @ 0x14
   564  000074                     	ds	2
   565  000076                     display@fuelP:
   566                           	opt stack 0
   567                           
   568                           ; 2 bytes @ 0x16
   569  000076                     	ds	2
   570  000078                     display@tp:
   571                           	opt stack 0
   572                           
   573                           ; 2 bytes @ 0x18
   574  000078                     	ds	2
   575  00007A                     display@speed:
   576                           	opt stack 0
   577                           
   578                           ; 2 bytes @ 0x1A
   579  00007A                     	ds	2
   580  00007C                     display@gear:
   581                           	opt stack 0
   582                           
   583                           ; 2 bytes @ 0x1C
   584  00007C                     	ds	2
   585  00007E                     display@engTemp:
   586                           	opt stack 0
   587                           
   588                           ; 2 bytes @ 0x1E
   589  00007E                     	ds	2
   590  000080                     display@oilTemp:
   591                           	opt stack 0
   592                           
   593                           ; 2 bytes @ 0x20
   594  000080                     	ds	2
   595  000082                     display@battVolts:
   596                           	opt stack 0
   597                           
   598                           ; 2 bytes @ 0x22
   599  000082                     	ds	2
   600  000084                     ??_main:
   601                           
   602                           ; 1 bytes @ 0x24
   603  000084                     	ds	2
   604  000086                     main@y_start:
   605                           	opt stack 0
   606                           
   607                           ; 2 bytes @ 0x26
   608  000086                     	ds	2
   609  000088                     main@rpm:
   610                           	opt stack 0
   611                           
   612                           ; 2 bytes @ 0x28
   613  000088                     	ds	2
   614  00008A                     main@oilP:
   615                           	opt stack 0
   616                           
   617                           ; 2 bytes @ 0x2A
   618  00008A                     	ds	2
   619  00008C                     main@fuelP:
   620                           	opt stack 0
   621                           
   622                           ; 2 bytes @ 0x2C
   623  00008C                     	ds	2
   624  00008E                     main@tp:
   625                           	opt stack 0
   626                           
   627                           ; 2 bytes @ 0x2E
   628  00008E                     	ds	2
   629  000090                     main@speed:
   630                           	opt stack 0
   631                           
   632                           ; 2 bytes @ 0x30
   633  000090                     	ds	2
   634  000092                     main@gear:
   635                           	opt stack 0
   636                           
   637                           ; 2 bytes @ 0x32
   638  000092                     	ds	2
   639  000094                     main@engTemp:
   640                           	opt stack 0
   641                           
   642                           ; 2 bytes @ 0x34
   643  000094                     	ds	2
   644  000096                     main@oilTemp:
   645                           	opt stack 0
   646                           
   647                           ; 2 bytes @ 0x36
   648  000096                     	ds	2
   649  000098                     main@battVolts:
   650                           	opt stack 0
   651                           
   652                           ; 2 bytes @ 0x38
   653  000098                     	ds	2
   654  00009A                     main@canMessage:
   655                           	opt stack 0
   656                           
   657                           ; 14 bytes @ 0x3A
   658  00009A                     	ds	14
   659                           tblptru	equ	0xFF8
   660                           postinc0	equ	0xFEE
   661                           wreg	equ	0xFE8
   662                           
   663                           	psect	cstackCOMRAM
   664  000001                     __pcstackCOMRAM:
   665                           	opt stack 0
   666  000001                     ?_convertStandardCANid:
   667                           	opt stack 0
   668  000001                     convertStandardCANid@tempRXBn_SIDL:
   669                           	opt stack 0
   670                           
   671                           ; 1 bytes @ 0x0
   672  000001                     	ds	4
   673  000005                     ??_convertStandardCANid:
   674                           
   675                           ; 1 bytes @ 0x4
   676  000005                     	ds	2
   677  000007                     convertStandardCANid@tempRXBn_SIDH:
   678                           	opt stack 0
   679                           
   680                           ; 1 bytes @ 0x6
   681  000007                     	ds	1
   682  000008                     convertStandardCANid@returnValue:
   683                           	opt stack 0
   684                           
   685                           ; 4 bytes @ 0x7
   686  000008                     	ds	4
   687  00000C                     convertStandardCANid@ConvertedID:
   688                           	opt stack 0
   689                           
   690                           ; 4 bytes @ 0xB
   691  00000C                     	ds	4
   692  000010                     ??_can_bus:
   693                           
   694                           ; 1 bytes @ 0xF
   695  000010                     	ds	14
   696  00001E                     ??_ECAN_Initialize:
   697  00001E                     ??_wait2secs:
   698  00001E                     ??_cmd_incrementn:
   699  00001E                     ?_strlen:
   700                           	opt stack 0
   701  00001E                     ?___awdiv:
   702                           	opt stack 0
   703  00001E                     ?___ftpack:
   704                           	opt stack 0
   705  00001E                     ?_convertReg2ExtendedCANid:
   706                           	opt stack 0
   707  00001E                     ?_convertReg2StandardCANid:
   708                           	opt stack 0
   709  00001E                     ?___fttol:
   710                           	opt stack 0
   711  00001E                     convertReg2ExtendedCANid@tempRXBn_EIDL:
   712                           	opt stack 0
   713  00001E                     convertReg2StandardCANid@tempRXBn_SIDL:
   714                           	opt stack 0
   715  00001E                     SPI_Exchange8bit@data:
   716                           	opt stack 0
   717  00001E                     ___awdiv@dividend:
   718                           	opt stack 0
   719  00001E                     strlen@s:
   720                           	opt stack 0
   721  00001E                     ___ftpack@arg:
   722                           	opt stack 0
   723  00001E                     ___fttol@f1:
   724                           	opt stack 0
   725                           
   726                           ; 3 bytes @ 0x1D
   727  00001E                     	ds	1
   728  00001F                     ?_rd16:
   729                           	opt stack 0
   730  00001F                     convertReg2ExtendedCANid@tempRXBn_SIDH:
   731                           	opt stack 0
   732  00001F                     host_command@command:
   733                           	opt stack 0
   734  00001F                     wr8@addr:
   735                           	opt stack 0
   736  00001F                     wr16@addr:
   737                           	opt stack 0
   738  00001F                     wr32@addr:
   739                           	opt stack 0
   740  00001F                     rd16@addr:
   741                           	opt stack 0
   742                           
   743                           ; 3 bytes @ 0x1E
   744  00001F                     	ds	1
   745  000020                     ??_strlen:
   746  000020                     convertReg2ExtendedCANid@tempRXBn_SIDL:
   747                           	opt stack 0
   748  000020                     cmd_incrementn@n:
   749                           	opt stack 0
   750  000020                     ___awdiv@divisor:
   751                           	opt stack 0
   752                           
   753                           ; 2 bytes @ 0x1F
   754  000020                     	ds	1
   755  000021                     ___ftpack@exp:
   756                           	opt stack 0
   757                           
   758                           ; 1 bytes @ 0x20
   759  000021                     	ds	1
   760  000022                     ??_convertReg2ExtendedCANid:
   761  000022                     ??_convertReg2StandardCANid:
   762  000022                     ??_rd16:
   763  000022                     ??___fttol:
   764  000022                     wr8@value:
   765                           	opt stack 0
   766  000022                     ___awdiv@counter:
   767                           	opt stack 0
   768  000022                     ___ftpack@sign:
   769                           	opt stack 0
   770  000022                     wr16@value:
   771                           	opt stack 0
   772  000022                     strlen@cp:
   773                           	opt stack 0
   774  000022                     wr32@value:
   775                           	opt stack 0
   776                           
   777                           ; 4 bytes @ 0x21
   778  000022                     	ds	1
   779  000023                     ??___ftpack:
   780  000023                     ??_wr8:
   781  000023                     ___awdiv@sign:
   782                           	opt stack 0
   783                           
   784                           ; 1 bytes @ 0x22
   785  000023                     	ds	1
   786  000024                     ??_wr16:
   787  000024                     convertReg2StandardCANid@tempRXBn_SIDH:
   788                           	opt stack 0
   789  000024                     ___awdiv@quotient:
   790                           	opt stack 0
   791  000024                     wr8s@addr:
   792                           	opt stack 0
   793                           
   794                           ; 3 bytes @ 0x23
   795  000024                     	ds	1
   796  000025                     rd16@temp:
   797                           	opt stack 0
   798  000025                     convertReg2StandardCANid@returnValue:
   799                           	opt stack 0
   800                           
   801                           ; 4 bytes @ 0x24
   802  000025                     	ds	1
   803  000026                     ??_wr32:
   804  000026                     ?___awmod:
   805                           	opt stack 0
   806  000026                     ?___awtoft:
   807                           	opt stack 0
   808  000026                     ___awmod@dividend:
   809                           	opt stack 0
   810  000026                     ___awtoft@c:
   811                           	opt stack 0
   812                           
   813                           ; 2 bytes @ 0x25
   814  000026                     	ds	1
   815  000027                     ___fttol@sign1:
   816                           	opt stack 0
   817  000027                     wr8s@s:
   818                           	opt stack 0
   819                           
   820                           ; 2 bytes @ 0x26
   821  000027                     	ds	1
   822  000028                     ___awmod@divisor:
   823                           	opt stack 0
   824  000028                     ___fttol@lval:
   825                           	opt stack 0
   826                           
   827                           ; 4 bytes @ 0x27
   828  000028                     	ds	1
   829  000029                     ??_wr8s:
   830  000029                     ___awtoft@sign:
   831                           	opt stack 0
   832  000029                     convertReg2StandardCANid@ConvertedID:
   833                           	opt stack 0
   834                           
   835                           ; 4 bytes @ 0x28
   836  000029                     	ds	1
   837  00002A                     ??_FT800_Init:
   838  00002A                     ___awmod@counter:
   839                           	opt stack 0
   840                           
   841                           ; 1 bytes @ 0x29
   842  00002A                     	ds	1
   843  00002B                     ___awmod@sign:
   844                           	opt stack 0
   845                           
   846                           ; 1 bytes @ 0x2A
   847  00002B                     	ds	1
   848  00002C                     wr8s@l:
   849                           	opt stack 0
   850  00002C                     ___fttol@exp1:
   851                           	opt stack 0
   852                           
   853                           ; 1 bytes @ 0x2B
   854  00002C                     	ds	1
   855  00002D                     ??_cmd:
   856  00002D                     wr8s@i:
   857                           	opt stack 0
   858  00002D                     CAN_receive@tempCanMsg:
   859                           	opt stack 0
   860                           
   861                           ; 2 bytes @ 0x2C
   862  00002D                     	ds	2
   863  00002F                     CAN_receive@returnValue:
   864                           	opt stack 0
   865                           
   866                           ; 1 bytes @ 0x2E
   867  00002F                     	ds	1
   868  000030                     tblptru	equ	0xFF8
   869                           postinc0	equ	0xFEE
   870                           wreg	equ	0xFE8
   871                           
   872                           ; 1 bytes @ 0x2F
   873 ;;
   874 ;;Main: autosize = 0, tempsize = 2, incstack = 0, save=0
   875 ;;
   876 ;; *************** function _main *****************
   877 ;; Defined at:
   878 ;;		line 64 in file "main.c"
   879 ;; Parameters:    Size  Location     Type
   880 ;;		None
   881 ;; Auto vars:     Size  Location     Type
   882 ;;  canMessage     14   58[BANK0 ] struct .
   883 ;;  battVolts       2   56[BANK0 ] int 
   884 ;;  oilTemp         2   54[BANK0 ] int 
   885 ;;  engTemp         2   52[BANK0 ] int 
   886 ;;  gear            2   50[BANK0 ] int 
   887 ;;  speed           2   48[BANK0 ] int 
   888 ;;  tp              2   46[BANK0 ] int 
   889 ;;  fuelP           2   44[BANK0 ] int 
   890 ;;  oilP            2   42[BANK0 ] int 
   891 ;;  rpm             2   40[BANK0 ] int 
   892 ;;  y_start         2   38[BANK0 ] int 
   893 ;; Return value:  Size  Location     Type
   894 ;;                  1    wreg      void 
   895 ;; Registers used:
   896 ;;		wreg, fsr2l, fsr2h, status,2, status,0, tblptrl, tblptrh, tblptru, prodl, prodh, cstack
   897 ;; Tracked objects:
   898 ;;		On entry : 0/0
   899 ;;		On exit  : 0/0
   900 ;;		Unchanged: 0/0
   901 ;; Data sizes:     COMRAM   BANK0   BANK1   BANK2   BANK3   BANK4   BANK5   BANK6   BANK7   BANK8   BANK9  BANK10  BANK1
      +1  BANK12  BANK13  BANK14
   902 ;;      Params:         0       0       0       0       0       0       0       0       0       0       0       0       
      +0       0       0       0
   903 ;;      Locals:         0      34       0       0       0       0       0       0       0       0       0       0       
      +0       0       0       0
   904 ;;      Temps:          0       2       0       0       0       0       0       0       0       0       0       0       
      +0       0       0       0
   905 ;;      Totals:         0      36       0       0       0       0       0       0       0       0       0       0       
      +0       0       0       0
   906 ;;Total ram usage:       36 bytes
   907 ;; Hardware stack levels required when called:    7
   908 ;; This function calls:
   909 ;;		_CAN_receive
   910 ;;		_EUSART1_Initialize
   911 ;;		_FT800_Init
   912 ;;		_SYSTEM_Initialize
   913 ;;		___awdiv
   914 ;;		_cmd
   915 ;;		_display
   916 ;;		_display_end
   917 ;;		_wait2secs
   918 ;; This function is called by:
   919 ;;		Startup code after reset
   920 ;; This function uses a non-reentrant model
   921 ;;
   922                           
   923                           	psect	text0
   924  005C5E                     __ptext0:
   925                           	opt stack 0
   926  005C5E                     _main:
   927                           	opt stack 24
   928                           
   929                           ;main.c: 66: uCAN_MSG canMessage;
   930                           ;main.c: 67: int rpm = 0, oilP = 0, fuelP = 0, tp = 0, speed = 0, gear = 0, engTemp = 0,
      +                           oilTemp = 0, battVolts = 0;
   931                           
   932                           ;incstack = 0
   933  005C5E  0E00               	movlw	0
   934  005C60  0100               	movlb	0	; () banked
   935  005C62  6F89               	movwf	(main@rpm+1)& (0+255),b
   936  005C64  0E00               	movlw	0
   937  005C66  6F88               	movwf	main@rpm& (0+255),b
   938  005C68  0E00               	movlw	0
   939  005C6A  0100               	movlb	0	; () banked
   940  005C6C  6F8B               	movwf	(main@oilP+1)& (0+255),b
   941  005C6E  0E00               	movlw	0
   942  005C70  6F8A               	movwf	main@oilP& (0+255),b
   943  005C72  0E00               	movlw	0
   944  005C74  0100               	movlb	0	; () banked
   945  005C76  6F8D               	movwf	(main@fuelP+1)& (0+255),b
   946  005C78  0E00               	movlw	0
   947  005C7A  6F8C               	movwf	main@fuelP& (0+255),b
   948  005C7C  0E00               	movlw	0
   949  005C7E  0100               	movlb	0	; () banked
   950  005C80  6F8F               	movwf	(main@tp+1)& (0+255),b
   951  005C82  0E00               	movlw	0
   952  005C84  6F8E               	movwf	main@tp& (0+255),b
   953  005C86  0E00               	movlw	0
   954  005C88  0100               	movlb	0	; () banked
   955  005C8A  6F91               	movwf	(main@speed+1)& (0+255),b
   956  005C8C  0E00               	movlw	0
   957  005C8E  6F90               	movwf	main@speed& (0+255),b
   958  005C90  0E00               	movlw	0
   959  005C92  0100               	movlb	0	; () banked
   960  005C94  6F93               	movwf	(main@gear+1)& (0+255),b
   961  005C96  0E00               	movlw	0
   962  005C98  6F92               	movwf	main@gear& (0+255),b
   963  005C9A  0E00               	movlw	0
   964  005C9C  0100               	movlb	0	; () banked
   965  005C9E  6F95               	movwf	(main@engTemp+1)& (0+255),b
   966  005CA0  0E00               	movlw	0
   967  005CA2  6F94               	movwf	main@engTemp& (0+255),b
   968  005CA4  0E00               	movlw	0
   969  005CA6  0100               	movlb	0	; () banked
   970  005CA8  6F97               	movwf	(main@oilTemp+1)& (0+255),b
   971  005CAA  0E00               	movlw	0
   972  005CAC  6F96               	movwf	main@oilTemp& (0+255),b
   973  005CAE  0E00               	movlw	0
   974  005CB0  0100               	movlb	0	; () banked
   975  005CB2  6F99               	movwf	(main@battVolts+1)& (0+255),b
   976  005CB4  0E00               	movlw	0
   977  005CB6  6F98               	movwf	main@battVolts& (0+255),b
   978                           
   979                           ; BSR set to: 0
   980                           ;main.c: 68: wait2secs();
   981  005CB8  ECBD  F03A         	call	_wait2secs	;wreg free
   982                           
   983                           ;main.c: 70: int y_start = 0;
   984  005CBC  0E00               	movlw	0
   985  005CBE  0100               	movlb	0	; () banked
   986  005CC0  6F87               	movwf	(main@y_start+1)& (0+255),b
   987  005CC2  0E00               	movlw	0
   988  005CC4  6F86               	movwf	main@y_start& (0+255),b
   989                           
   990                           ; BSR set to: 0
   991                           ;main.c: 73: SYSTEM_Initialize();
   992  005CC6  ECCA  F03A         	call	_SYSTEM_Initialize	;wreg free
   993                           
   994                           ;main.c: 76: CIOCONbits.CLKSEL = 1;
   995  005CCA  8070               	bsf	3952,0,c	;volatile
   996                           
   997                           ;main.c: 77: CIOCONbits.ENDRHI = 1;
   998  005CCC  8A70               	bsf	3952,5,c	;volatile
   999                           
  1000                           ;main.c: 78: CIOCONbits.TX2SRC = 0;
  1001  005CCE  9E70               	bcf	3952,7,c	;volatile
  1002                           
  1003                           ;main.c: 79: CIOCONbits.TX2EN = 1;
  1004  005CD0  8C70               	bsf	3952,6,c	;volatile
  1005                           
  1006                           ;main.c: 80: RXB0CONbits.RXM0 = 1;
  1007  005CD2  8A60               	bsf	3936,5,c	;volatile
  1008                           
  1009                           ;main.c: 81: RXB0CONbits.RXM1 = 0;
  1010  005CD4  9C60               	bcf	3936,6,c	;volatile
  1011                           
  1012                           ;main.c: 82: RXB0CONbits.RB0DBEN = 0;
  1013  005CD6  9460               	bcf	3936,2,c	;volatile
  1014                           
  1015                           ;main.c: 83: RXB0CONbits.FILHIT0 = 0;
  1016  005CD8  9060               	bcf	3936,0,c	;volatile
  1017                           
  1018                           ;main.c: 84: PIE5bits.RXB0IE = 1;
  1019  005CDA  8076               	bsf	3958,0,c	;volatile
  1020                           
  1021                           ;main.c: 87: RXF5SIDH = 0xC8;
  1022  005CDC  0EC8               	movlw	200
  1023  005CDE  010E               	movlb	14	; () banked
  1024  005CE0  6FF4               	movwf	244,b	;volatile
  1025                           
  1026                           ; BSR set to: 14
  1027                           ;main.c: 88: RXF5SIDL = 0x00;
  1028  005CE2  0E00               	movlw	0
  1029  005CE4  010E               	movlb	14	; () banked
  1030  005CE6  6FF5               	movwf	245,b	;volatile
  1031                           
  1032                           ; BSR set to: 14
  1033                           ;main.c: 89: RXF4SIDH = 0xC8;
  1034  005CE8  0EC8               	movlw	200
  1035  005CEA  010E               	movlb	14	; () banked
  1036  005CEC  6FF0               	movwf	240,b	;volatile
  1037                           
  1038                           ; BSR set to: 14
  1039                           ;main.c: 90: RXF4SIDL = 0x20;
  1040  005CEE  0E20               	movlw	32
  1041  005CF0  010E               	movlb	14	; () banked
  1042  005CF2  6FF1               	movwf	241,b	;volatile
  1043                           
  1044                           ; BSR set to: 14
  1045                           ;main.c: 91: RXF3SIDH = 0xC8;
  1046  005CF4  0EC8               	movlw	200
  1047  005CF6  010E               	movlb	14	; () banked
  1048  005CF8  6FEC               	movwf	236,b	;volatile
  1049                           
  1050                           ; BSR set to: 14
  1051                           ;main.c: 92: RXF3SIDL = 0x40;
  1052  005CFA  0E40               	movlw	64
  1053  005CFC  010E               	movlb	14	; () banked
  1054  005CFE  6FED               	movwf	237,b	;volatile
  1055                           
  1056                           ; BSR set to: 14
  1057                           ;main.c: 95: SSPSTATbits.SMP = 0;
  1058  005D00  9EC7               	bcf	4039,7,c	;volatile
  1059                           
  1060                           ; BSR set to: 14
  1061                           ;main.c: 96: SSPSTATbits.CKE = 1;
  1062  005D02  8CC7               	bsf	4039,6,c	;volatile
  1063                           
  1064                           ; BSR set to: 14
  1065                           ;main.c: 97: SSPCON1bits.SSPEN = 1;
  1066  005D04  8AC6               	bsf	4038,5,c	;volatile
  1067                           
  1068                           ; BSR set to: 14
  1069                           ;main.c: 98: SSPCON1bits.CKP = 1;
  1070  005D06  88C6               	bsf	4038,4,c	;volatile
  1071                           
  1072                           ; BSR set to: 14
  1073                           ;main.c: 99: SSPCON1bits.SSPM = 0b0000;
  1074  005D08  90C6               	bcf	4038,0,c	;volatile
  1075  005D0A  92C6               	bcf	4038,1,c	;volatile
  1076  005D0C  94C6               	bcf	4038,2,c	;volatile
  1077  005D0E  96C6               	bcf	4038,3,c	;volatile
  1078                           
  1079                           ; BSR set to: 14
  1080                           ;main.c: 100: FT800_Init();
  1081  005D10  ECBB  F02F         	call	_FT800_Init	;wreg free
  1082                           
  1083                           ;main.c: 102: EUSART1_Initialize();
  1084  005D14  ECEF  F03A         	call	_EUSART1_Initialize	;wreg free
  1085                           
  1086                           ;main.c: 104: wait2secs();
  1087  005D18  ECBD  F03A         	call	_wait2secs	;wreg free
  1088                           
  1089                           ;main.c: 106: do { LATAbits.LATA1 = 0; } while(0);
  1090  005D1C  9289               	bcf	3977,1,c	;volatile
  1091                           
  1092                           ;main.c: 107: do { LATDbits.LATD4 = 0; } while(0);
  1093  005D1E  988C               	bcf	3980,4,c	;volatile
  1094                           
  1095                           ;main.c: 108: do { LATAbits.LATA0 = 0; } while(0);
  1096  005D20  9089               	bcf	3977,0,c	;volatile
  1097                           
  1098                           ;main.c: 109: do { LATBbits.LATB5 = 1; } while(0);
  1099  005D22  8A8A               	bsf	3978,5,c	;volatile
  1100                           
  1101                           ;main.c: 110: do { LATDbits.LATD5 = 0; } while(0);
  1102  005D24  9A8C               	bcf	3980,5,c	;volatile
  1103                           
  1104                           ;main.c: 111: do { LATDbits.LATD3 = 1; } while(0);
  1105  005D26  868C               	bsf	3980,3,c	;volatile
  1106                           
  1107                           ;main.c: 112: do { LATCbits.LATC2 = 1; } while(0);
  1108  005D28  848B               	bsf	3979,2,c	;volatile
  1109                           
  1110                           ;main.c: 115: cmd(4294967041UL);
  1111  005D2A  0E01               	movlw	1
  1112  005D2C  0100               	movlb	0	; () banked
  1113  005D2E  6F60               	movwf	cmd@command& (0+255),b
  1114  005D30  0EFF               	movlw	255
  1115  005D32  6F61               	movwf	(cmd@command+1)& (0+255),b
  1116  005D34  0EFF               	movlw	255
  1117  005D36  6F62               	movwf	(cmd@command+2)& (0+255),b
  1118  005D38  0EFF               	movlw	255
  1119  005D3A  6F63               	movwf	(cmd@command+3)& (0+255),b
  1120  005D3C  EC4F  F03A         	call	_cmd	;wreg free
  1121                           
  1122                           ;main.c: 116: cmd(4294967040UL);
  1123  005D40  0E00               	movlw	0
  1124  005D42  0100               	movlb	0	; () banked
  1125  005D44  6F60               	movwf	cmd@command& (0+255),b
  1126  005D46  0EFF               	movlw	255
  1127  005D48  6F61               	movwf	(cmd@command+1)& (0+255),b
  1128  005D4A  0EFF               	movlw	255
  1129  005D4C  6F62               	movwf	(cmd@command+2)& (0+255),b
  1130  005D4E  0EFF               	movlw	255
  1131  005D50  6F63               	movwf	(cmd@command+3)& (0+255),b
  1132  005D52  EC4F  F03A         	call	_cmd	;wreg free
  1133                           
  1134                           ;main.c: 117: cmd(4294967066UL);cmd(1057988UL);cmd(4);
  1135  005D56  0E1A               	movlw	26
  1136  005D58  0100               	movlb	0	; () banked
  1137  005D5A  6F60               	movwf	cmd@command& (0+255),b
  1138  005D5C  0EFF               	movlw	255
  1139  005D5E  6F61               	movwf	(cmd@command+1)& (0+255),b
  1140  005D60  0EFF               	movlw	255
  1141  005D62  6F62               	movwf	(cmd@command+2)& (0+255),b
  1142  005D64  0EFF               	movlw	255
  1143  005D66  6F63               	movwf	(cmd@command+3)& (0+255),b
  1144  005D68  EC4F  F03A         	call	_cmd	;wreg free
  1145  005D6C  0EC4               	movlw	196
  1146  005D6E  0100               	movlb	0	; () banked
  1147  005D70  6F60               	movwf	cmd@command& (0+255),b
  1148  005D72  0E24               	movlw	36
  1149  005D74  6F61               	movwf	(cmd@command+1)& (0+255),b
  1150  005D76  0E10               	movlw	16
  1151  005D78  6F62               	movwf	(cmd@command+2)& (0+255),b
  1152  005D7A  0E00               	movlw	0
  1153  005D7C  6F63               	movwf	(cmd@command+3)& (0+255),b
  1154  005D7E  EC4F  F03A         	call	_cmd	;wreg free
  1155  005D82  0E04               	movlw	4
  1156  005D84  0100               	movlb	0	; () banked
  1157  005D86  6F60               	movwf	cmd@command& (0+255),b
  1158  005D88  0E00               	movlw	0
  1159  005D8A  6F61               	movwf	(cmd@command+1)& (0+255),b
  1160  005D8C  0E00               	movlw	0
  1161  005D8E  6F62               	movwf	(cmd@command+2)& (0+255),b
  1162  005D90  0E00               	movlw	0
  1163  005D92  6F63               	movwf	(cmd@command+3)& (0+255),b
  1164  005D94  EC4F  F03A         	call	_cmd	;wreg free
  1165                           
  1166                           ;main.c: 118: cmd(128);
  1167  005D98  0E80               	movlw	128
  1168  005D9A  0100               	movlb	0	; () banked
  1169  005D9C  6F60               	movwf	cmd@command& (0+255),b
  1170  005D9E  0E00               	movlw	0
  1171  005DA0  6F61               	movwf	(cmd@command+1)& (0+255),b
  1172  005DA2  0E00               	movlw	0
  1173  005DA4  6F62               	movwf	(cmd@command+2)& (0+255),b
  1174  005DA6  0E00               	movlw	0
  1175  005DA8  6F63               	movwf	(cmd@command+3)& (0+255),b
  1176  005DAA  EC4F  F03A         	call	_cmd	;wreg free
  1177                           
  1178                           ;main.c: 119: display_end();
  1179  005DAE  ECAE  F039         	call	_display_end	;wreg free
  1180                           
  1181                           ;main.c: 121: display(rpm, oilP, fuelP, tp, speed, gear, engTemp, oilTemp, battVolts);
  1182  005DB2  C088  F072         	movff	main@rpm,display@rpm
  1183  005DB6  C089  F073         	movff	main@rpm+1,display@rpm+1
  1184  005DBA  C08A  F074         	movff	main@oilP,display@oilP
  1185  005DBE  C08B  F075         	movff	main@oilP+1,display@oilP+1
  1186  005DC2  C08C  F076         	movff	main@fuelP,display@fuelP
  1187  005DC6  C08D  F077         	movff	main@fuelP+1,display@fuelP+1
  1188  005DCA  C08E  F078         	movff	main@tp,display@tp
  1189  005DCE  C08F  F079         	movff	main@tp+1,display@tp+1
  1190  005DD2  C090  F07A         	movff	main@speed,display@speed
  1191  005DD6  C091  F07B         	movff	main@speed+1,display@speed+1
  1192  005DDA  C092  F07C         	movff	main@gear,display@gear
  1193  005DDE  C093  F07D         	movff	main@gear+1,display@gear+1
  1194  005DE2  C094  F07E         	movff	main@engTemp,display@engTemp
  1195  005DE6  C095  F07F         	movff	main@engTemp+1,display@engTemp+1
  1196  005DEA  C096  F080         	movff	main@oilTemp,display@oilTemp
  1197  005DEE  C097  F081         	movff	main@oilTemp+1,display@oilTemp+1
  1198  005DF2  C098  F082         	movff	main@battVolts,display@battVolts
  1199  005DF6  C099  F083         	movff	main@battVolts+1,display@battVolts+1
  1200  005DFA  EC3D  F037         	call	_display	;wreg free
  1201  005DFE                     l6160:
  1202                           
  1203                           ;main.c: 124: if(CAN_receive(&canMessage)) {
  1204  005DFE  0E9A               	movlw	low main@canMessage
  1205  005E00  6E2D               	movwf	CAN_receive@tempCanMsg,c
  1206  005E02  0E00               	movlw	high main@canMessage
  1207  005E04  6E2E               	movwf	CAN_receive@tempCanMsg+1,c
  1208  005E06  EC00  F031         	call	_CAN_receive	;wreg free
  1209  005E0A  0900               	iorlw	0
  1210  005E0C  B4D8               	btfsc	status,2,c
  1211  005E0E  D7F7               	goto	l6160
  1212                           
  1213                           ;main.c: 125: if(canMessage.frame.id == 0x640) {
  1214  005E10  0E40               	movlw	64
  1215  005E12  0100               	movlb	0	; () banked
  1216  005E14  199B               	xorwf	(main@canMessage+1)& (0+255),w,b
  1217  005E16  E157               	bnz	l6174
  1218  005E18  0E06               	movlw	6
  1219  005E1A  0100               	movlb	0	; () banked
  1220  005E1C  199C               	xorwf	(main@canMessage+2)& (0+255),w,b
  1221  005E1E  0100               	movlb	0	; () banked
  1222  005E20  119D               	iorwf	(main@canMessage+3)& (0+255),w,b
  1223  005E22  0100               	movlb	0	; () banked
  1224  005E24  119E               	iorwf	(main@canMessage+4)& (0+255),w,b
  1225  005E26  A4D8               	btfss	status,2,c
  1226  005E28  D04E               	goto	l6174
  1227                           
  1228                           ; BSR set to: 0
  1229                           ;main.c: 126: rpm = ((canMessage.frame.data0 << 8) | canMessage.frame.data1);
  1230  005E2A  0100               	movlb	0	; () banked
  1231  005E2C  51A1               	movf	(main@canMessage+7)& (0+255),w,b
  1232  005E2E  C0A0  F084         	movff	main@canMessage+6,??_main
  1233  005E32  0100               	movlb	0	; () banked
  1234  005E34  6B85               	clrf	(??_main+1)& (0+255),b
  1235  005E36  C084  F085         	movff	??_main,??_main+1
  1236  005E3A  0100               	movlb	0	; () banked
  1237  005E3C  6B84               	clrf	??_main& (0+255),b
  1238  005E3E  0100               	movlb	0	; () banked
  1239  005E40  1184               	iorwf	??_main& (0+255),w,b
  1240  005E42  0100               	movlb	0	; () banked
  1241  005E44  6F88               	movwf	main@rpm& (0+255),b
  1242  005E46  0100               	movlb	0	; () banked
  1243  005E48  5185               	movf	(??_main+1)& (0+255),w,b
  1244  005E4A  0100               	movlb	0	; () banked
  1245  005E4C  6F89               	movwf	(main@rpm+1)& (0+255),b
  1246                           
  1247                           ; BSR set to: 0
  1248                           ;main.c: 127: oilP = ((canMessage.frame.data2 << 8) | canMessage.frame.data3)/10;
  1249  005E4E  0100               	movlb	0	; () banked
  1250  005E50  51A3               	movf	(main@canMessage+9)& (0+255),w,b
  1251  005E52  C0A2  F084         	movff	main@canMessage+8,??_main
  1252  005E56  0100               	movlb	0	; () banked
  1253  005E58  6B85               	clrf	(??_main+1)& (0+255),b
  1254  005E5A  C084  F085         	movff	??_main,??_main+1
  1255  005E5E  0100               	movlb	0	; () banked
  1256  005E60  6B84               	clrf	??_main& (0+255),b
  1257  005E62  0100               	movlb	0	; () banked
  1258  005E64  1184               	iorwf	??_main& (0+255),w,b
  1259  005E66  6E1E               	movwf	___awdiv@dividend,c
  1260  005E68  0100               	movlb	0	; () banked
  1261  005E6A  5185               	movf	(??_main+1)& (0+255),w,b
  1262  005E6C  6E1F               	movwf	___awdiv@dividend+1,c
  1263  005E6E  0E00               	movlw	0
  1264  005E70  6E21               	movwf	___awdiv@divisor+1,c
  1265  005E72  0E0A               	movlw	10
  1266  005E74  6E20               	movwf	___awdiv@divisor,c
  1267  005E76  ECD0  F038         	call	___awdiv	;wreg free
  1268  005E7A  C01E  F08A         	movff	?___awdiv,main@oilP
  1269  005E7E  C01F  F08B         	movff	?___awdiv+1,main@oilP+1
  1270                           
  1271                           ;main.c: 128: fuelP = ((canMessage.frame.data0 << 4) | canMessage.frame.data5);
  1272  005E82  0100               	movlb	0	; () banked
  1273  005E84  51A0               	movf	(main@canMessage+6)& (0+255),w,b
  1274  005E86  0100               	movlb	0	; () banked
  1275  005E88  6F84               	movwf	??_main& (0+255),b
  1276  005E8A  6B85               	clrf	(??_main+1)& (0+255),b
  1277  005E8C  0100               	movlb	0	; () banked
  1278  005E8E  3B84               	swapf	??_main& (0+255),f,b
  1279  005E90  3B85               	swapf	(??_main+1)& (0+255),f,b
  1280  005E92  0EF0               	movlw	240
  1281  005E94  1785               	andwf	(??_main+1)& (0+255),f,b
  1282  005E96  5184               	movf	??_main& (0+255),w,b
  1283  005E98  0B0F               	andlw	15
  1284  005E9A  1385               	iorwf	(??_main+1)& (0+255),f,b
  1285  005E9C  0EF0               	movlw	240
  1286  005E9E  1784               	andwf	??_main& (0+255),f,b
  1287  005EA0  0100               	movlb	0	; () banked
  1288  005EA2  51A5               	movf	(main@canMessage+11)& (0+255),w,b
  1289  005EA4  0100               	movlb	0	; () banked
  1290  005EA6  1184               	iorwf	??_main& (0+255),w,b
  1291  005EA8  0100               	movlb	0	; () banked
  1292  005EAA  6F8C               	movwf	main@fuelP& (0+255),b
  1293  005EAC  0100               	movlb	0	; () banked
  1294  005EAE  5185               	movf	(??_main+1)& (0+255),w,b
  1295  005EB0  0100               	movlb	0	; () banked
  1296  005EB2  6F8D               	movwf	(main@fuelP+1)& (0+255),b
  1297                           
  1298                           ; BSR set to: 0
  1299                           ;main.c: 129: tp = canMessage.frame.data6;
  1300  005EB4  C0A6  F08E         	movff	main@canMessage+12,main@tp
  1301  005EB8  0100               	movlb	0	; () banked
  1302  005EBA  6B8F               	clrf	(main@tp+1)& (0+255),b
  1303                           
  1304                           ; BSR set to: 0
  1305                           ;main.c: 130: speed = canMessage.frame.data7;
  1306  005EBC  C0A7  F090         	movff	main@canMessage+13,main@speed
  1307  005EC0  0100               	movlb	0	; () banked
  1308  005EC2  6B91               	clrf	(main@speed+1)& (0+255),b
  1309                           
  1310                           ;main.c: 131: } else if(canMessage.frame.id == 0x641) {
  1311  005EC4  D02B               	goto	l6182
  1312  005EC6                     l6174:
  1313                           
  1314                           ; BSR set to: 0
  1315  005EC6  0E41               	movlw	65
  1316  005EC8  0100               	movlb	0	; () banked
  1317  005ECA  199B               	xorwf	(main@canMessage+1)& (0+255),w,b
  1318  005ECC  E10E               	bnz	l6178
  1319  005ECE  0E06               	movlw	6
  1320  005ED0  0100               	movlb	0	; () banked
  1321  005ED2  199C               	xorwf	(main@canMessage+2)& (0+255),w,b
  1322  005ED4  0100               	movlb	0	; () banked
  1323  005ED6  119D               	iorwf	(main@canMessage+3)& (0+255),w,b
  1324  005ED8  0100               	movlb	0	; () banked
  1325  005EDA  119E               	iorwf	(main@canMessage+4)& (0+255),w,b
  1326  005EDC  A4D8               	btfss	status,2,c
  1327  005EDE  D005               	goto	l6178
  1328                           
  1329                           ; BSR set to: 0
  1330                           ;main.c: 132: gear = canMessage.frame.data6;
  1331  005EE0  C0A6  F092         	movff	main@canMessage+12,main@gear
  1332  005EE4  0100               	movlb	0	; () banked
  1333  005EE6  6B93               	clrf	(main@gear+1)& (0+255),b
  1334                           
  1335                           ;main.c: 133: } else if(canMessage.frame.id == 0x642) {
  1336  005EE8  D019               	goto	l6182
  1337  005EEA                     l6178:
  1338                           
  1339                           ; BSR set to: 0
  1340  005EEA  0E42               	movlw	66
  1341  005EEC  0100               	movlb	0	; () banked
  1342  005EEE  199B               	xorwf	(main@canMessage+1)& (0+255),w,b
  1343  005EF0  E115               	bnz	l6182
  1344  005EF2  0E06               	movlw	6
  1345  005EF4  0100               	movlb	0	; () banked
  1346  005EF6  199C               	xorwf	(main@canMessage+2)& (0+255),w,b
  1347  005EF8  0100               	movlb	0	; () banked
  1348  005EFA  119D               	iorwf	(main@canMessage+3)& (0+255),w,b
  1349  005EFC  0100               	movlb	0	; () banked
  1350  005EFE  119E               	iorwf	(main@canMessage+4)& (0+255),w,b
  1351  005F00  A4D8               	btfss	status,2,c
  1352  005F02  D00C               	goto	l6182
  1353                           
  1354                           ; BSR set to: 0
  1355                           ;main.c: 134: engTemp = canMessage.frame.data0;
  1356  005F04  C0A0  F094         	movff	main@canMessage+6,main@engTemp
  1357  005F08  0100               	movlb	0	; () banked
  1358  005F0A  6B95               	clrf	(main@engTemp+1)& (0+255),b
  1359                           
  1360                           ;main.c: 135: oilTemp = canMessage.frame.data1;
  1361  005F0C  C0A1  F096         	movff	main@canMessage+7,main@oilTemp
  1362  005F10  0100               	movlb	0	; () banked
  1363  005F12  6B97               	clrf	(main@oilTemp+1)& (0+255),b
  1364                           
  1365                           ;main.c: 136: battVolts = canMessage.frame.data2;
  1366  005F14  C0A2  F098         	movff	main@canMessage+8,main@battVolts
  1367  005F18  0100               	movlb	0	; () banked
  1368  005F1A  6B99               	clrf	(main@battVolts+1)& (0+255),b
  1369  005F1C                     l6182:
  1370                           
  1371                           ; BSR set to: 0
  1372                           ;main.c: 137: }
  1373                           ;main.c: 138: display(rpm, oilP, fuelP, tp, speed, gear, engTemp, oilTemp, battVolts);
  1374  005F1C  C088  F072         	movff	main@rpm,display@rpm
  1375  005F20  C089  F073         	movff	main@rpm+1,display@rpm+1
  1376  005F24  C08A  F074         	movff	main@oilP,display@oilP
  1377  005F28  C08B  F075         	movff	main@oilP+1,display@oilP+1
  1378  005F2C  C08C  F076         	movff	main@fuelP,display@fuelP
  1379  005F30  C08D  F077         	movff	main@fuelP+1,display@fuelP+1
  1380  005F34  C08E  F078         	movff	main@tp,display@tp
  1381  005F38  C08F  F079         	movff	main@tp+1,display@tp+1
  1382  005F3C  C090  F07A         	movff	main@speed,display@speed
  1383  005F40  C091  F07B         	movff	main@speed+1,display@speed+1
  1384  005F44  C092  F07C         	movff	main@gear,display@gear
  1385  005F48  C093  F07D         	movff	main@gear+1,display@gear+1
  1386  005F4C  C094  F07E         	movff	main@engTemp,display@engTemp
  1387  005F50  C095  F07F         	movff	main@engTemp+1,display@engTemp+1
  1388  005F54  C096  F080         	movff	main@oilTemp,display@oilTemp
  1389  005F58  C097  F081         	movff	main@oilTemp+1,display@oilTemp+1
  1390  005F5C  C098  F082         	movff	main@battVolts,display@battVolts
  1391  005F60  C099  F083         	movff	main@battVolts+1,display@battVolts+1
  1392  005F64  EC3D  F037         	call	_display	;wreg free
  1393                           
  1394                           ;main.c: 139: do { LATAbits.LATA1 = 1; } while(0);
  1395  005F68  8289               	bsf	3977,1,c	;volatile
  1396                           
  1397                           ;main.c: 140: do { LATDbits.LATD4 = 1; } while(0);
  1398  005F6A  888C               	bsf	3980,4,c	;volatile
  1399                           
  1400                           ;main.c: 141: do { LATAbits.LATA0 = 1; } while(0);
  1401  005F6C  8089               	bsf	3977,0,c	;volatile
  1402                           
  1403                           ;main.c: 142: do { LATBbits.LATB5 = 1; } while(0);
  1404  005F6E  8A8A               	bsf	3978,5,c	;volatile
  1405                           
  1406                           ;main.c: 143: do { LATDbits.LATD5 = 1; } while(0);
  1407  005F70  8A8C               	bsf	3980,5,c	;volatile
  1408                           
  1409                           ;main.c: 144: do { LATDbits.LATD3 = 1; } while(0);
  1410  005F72  868C               	bsf	3980,3,c	;volatile
  1411  005F74  D744               	goto	l6160
  1412  005F76                     __end_of_main:
  1413                           	opt stack 0
  1414                           tblptru	equ	0xFF8
  1415                           postinc0	equ	0xFEE
  1416                           wreg	equ	0xFE8
  1417                           status	equ	0xFD8
  1418                           
  1419 ;; *************** function _wait2secs *****************
  1420 ;; Defined at:
  1421 ;;		line 60 in file "main.c"
  1422 ;; Parameters:    Size  Location     Type
  1423 ;;		None
  1424 ;; Auto vars:     Size  Location     Type
  1425 ;;		None
  1426 ;; Return value:  Size  Location     Type
  1427 ;;                  1    wreg      void 
  1428 ;; Registers used:
  1429 ;;		wreg
  1430 ;; Tracked objects:
  1431 ;;		On entry : 0/0
  1432 ;;		On exit  : 0/0
  1433 ;;		Unchanged: 0/0
  1434 ;; Data sizes:     COMRAM   BANK0   BANK1   BANK2   BANK3   BANK4   BANK5   BANK6   BANK7   BANK8   BANK9  BANK10  BANK1
      +1  BANK12  BANK13  BANK14
  1435 ;;      Params:         0       0       0       0       0       0       0       0       0       0       0       0       
      +0       0       0       0
  1436 ;;      Locals:         0       0       0       0       0       0       0       0       0       0       0       0       
      +0       0       0       0
  1437 ;;      Temps:          2       0       0       0       0       0       0       0       0       0       0       0       
      +0       0       0       0
  1438 ;;      Totals:         2       0       0       0       0       0       0       0       0       0       0       0       
      +0       0       0       0
  1439 ;;Total ram usage:        2 bytes
  1440 ;; Hardware stack levels used:    1
  1441 ;; Hardware stack levels required when called:    2
  1442 ;; This function calls:
  1443 ;;		Nothing
  1444 ;; This function is called by:
  1445 ;;		_main
  1446 ;; This function uses a non-reentrant model
  1447 ;;
  1448                           
  1449                           	psect	text1
  1450  00757A                     __ptext1:
  1451                           	opt stack 0
  1452  00757A                     _wait2secs:
  1453                           	opt stack 28
  1454                           
  1455                           ;main.c: 61: _delay((unsigned long)((2000)*(16000000/4000.0)));
  1456                           
  1457                           ;incstack = 0
  1458  00757A  0E29               	movlw	41
  1459  00757C  6E1F               	movwf	(??_wait2secs+1)& (0+255),c
  1460  00757E  0E96               	movlw	150
  1461  007580  6E1E               	movwf	??_wait2secs& (0+255),c
  1462  007582  0E7F               	movlw	127
  1463  007584                     u1657:
  1464  007584  2EE8               	decfsz	wreg,f,c
  1465  007586  D7FE               	bra	u1657
  1466  007588  2E1E               	decfsz	??_wait2secs& (0+255),f,c
  1467  00758A  D7FC               	bra	u1657
  1468  00758C  2E1F               	decfsz	(??_wait2secs+1)& (0+255),f,c
  1469  00758E  D7FA               	bra	u1657
  1470  007590  F000               	nop	
  1471  007592  0012               	return		;funcret
  1472  007594                     __end_of_wait2secs:
  1473                           	opt stack 0
  1474                           tblptru	equ	0xFF8
  1475                           postinc0	equ	0xFEE
  1476                           wreg	equ	0xFE8
  1477                           status	equ	0xFD8
  1478                           
  1479 ;; *************** function _display *****************
  1480 ;; Defined at:
  1481 ;;		line 3 in file "display.c"
  1482 ;; Parameters:    Size  Location     Type
  1483 ;;  rpm             2   18[BANK0 ] int 
  1484 ;;  oilP            2   20[BANK0 ] int 
  1485 ;;  fuelP           2   22[BANK0 ] int 
  1486 ;;  tp              2   24[BANK0 ] int 
  1487 ;;  speed           2   26[BANK0 ] int 
  1488 ;;  gear            2   28[BANK0 ] int 
  1489 ;;  engTemp         2   30[BANK0 ] int 
  1490 ;;  oilTemp         2   32[BANK0 ] int 
  1491 ;;  battVolts       2   34[BANK0 ] int 
  1492 ;; Auto vars:     Size  Location     Type
  1493 ;;		None
  1494 ;; Return value:  Size  Location     Type
  1495 ;;                  1    wreg      void 
  1496 ;; Registers used:
  1497 ;;		wreg, status,2, status,0, tblptrl, tblptrh, tblptru, prodl, prodh, cstack
  1498 ;; Tracked objects:
  1499 ;;		On entry : 0/0
  1500 ;;		On exit  : 0/0
  1501 ;;		Unchanged: 0/0
  1502 ;; Data sizes:     COMRAM   BANK0   BANK1   BANK2   BANK3   BANK4   BANK5   BANK6   BANK7   BANK8   BANK9  BANK10  BANK1
      +1  BANK12  BANK13  BANK14
  1503 ;;      Params:         0      18       0       0       0       0       0       0       0       0       0       0       
      +0       0       0       0
  1504 ;;      Locals:         0       0       0       0       0       0       0       0       0       0       0       0       
      +0       0       0       0
  1505 ;;      Temps:          0       0       0       0       0       0       0       0       0       0       0       0       
      +0       0       0       0
  1506 ;;      Totals:         0      18       0       0       0       0       0       0       0       0       0       0       
      +0       0       0       0
  1507 ;;Total ram usage:       18 bytes
  1508 ;; Hardware stack levels used:    1
  1509 ;; Hardware stack levels required when called:    6
  1510 ;; This function calls:
  1511 ;;		___awtoft
  1512 ;;		_display_battery
  1513 ;;		_display_end
  1514 ;;		_display_fuel
  1515 ;;		_display_gear
  1516 ;;		_display_labels
  1517 ;;		_display_laptime
  1518 ;;		_display_message
  1519 ;;		_display_oilPress
  1520 ;;		_display_oilTemp
  1521 ;;		_display_rpm
  1522 ;;		_display_speed
  1523 ;;		_display_start
  1524 ;;		_display_tp
  1525 ;;		_display_waterTemp
  1526 ;; This function is called by:
  1527 ;;		_main
  1528 ;; This function uses a non-reentrant model
  1529 ;;
  1530                           
  1531                           	psect	text2
  1532  006E7A                     __ptext2:
  1533                           	opt stack 0
  1534  006E7A                     _display:
  1535                           	opt stack 24
  1536                           
  1537                           ;display.c: 4: display_start();
  1538                           
  1539                           ;incstack = 0
  1540  006E7A  ECD1  F039         	call	_display_start	;wreg free
  1541                           
  1542                           ;display.c: 5: display_labels();
  1543  006E7E  ECC2  F01F         	call	_display_labels	;wreg free
  1544                           
  1545                           ;display.c: 6: display_waterTemp(engTemp);
  1546  006E82  C07E  F064         	movff	display@engTemp,display_waterTemp@temp
  1547  006E86  C07F  F065         	movff	display@engTemp+1,display_waterTemp@temp+1
  1548  006E8A  ECAB  F033         	call	_display_waterTemp	;wreg free
  1549                           
  1550                           ;display.c: 7: display_oilTemp(oilTemp);
  1551  006E8E  C080  F064         	movff	display@oilTemp,display_oilTemp@temp
  1552  006E92  C081  F065         	movff	display@oilTemp+1,display_oilTemp@temp+1
  1553  006E96  ECCC  F035         	call	_display_oilTemp	;wreg free
  1554                           
  1555                           ;display.c: 8: display_fuel(4.3);
  1556  006E9A  0E00               	movlw	0
  1557  006E9C  0100               	movlb	0	; () banked
  1558  006E9E  6F65               	movwf	(display_fuel@level+1)& (0+255),b
  1559  006EA0  0E04               	movlw	4
  1560  006EA2  6F64               	movwf	display_fuel@level& (0+255),b
  1561  006EA4  EC99  F02C         	call	_display_fuel	;wreg free
  1562                           
  1563                           ;display.c: 9: display_battery(battVolts);
  1564  006EA8  C082  F064         	movff	display@battVolts,display_battery@volts
  1565  006EAC  C083  F065         	movff	display@battVolts+1,display_battery@volts+1
  1566  006EB0  ECED  F02A         	call	_display_battery	;wreg free
  1567                           
  1568                           ;display.c: 10: display_oilPress(oilP);
  1569  006EB4  C074  F026         	movff	display@oilP,___awtoft@c
  1570  006EB8  C075  F027         	movff	display@oilP+1,___awtoft@c+1
  1571  006EBC  EC6B  F03A         	call	___awtoft	;wreg free
  1572  006EC0  C026  F064         	movff	?___awtoft,display_oilPress@pressure
  1573  006EC4  C027  F065         	movff	?___awtoft+1,display_oilPress@pressure+1
  1574  006EC8  C028  F066         	movff	?___awtoft+2,display_oilPress@pressure+2
  1575  006ECC  EC3A  F034         	call	_display_oilPress	;wreg free
  1576                           
  1577                           ;display.c: 11: display_gear(gear);
  1578  006ED0  C07C  F064         	movff	display@gear,display_gear@gear
  1579  006ED4  C07D  F065         	movff	display@gear+1,display_gear@gear+1
  1580  006ED8  EC3B  F028         	call	_display_gear	;wreg free
  1581                           
  1582                           ;display.c: 12: display_rpm(rpm);
  1583  006EDC  C072  F064         	movff	display@rpm,display_rpm@rpm
  1584  006EE0  C073  F065         	movff	display@rpm+1,display_rpm@rpm+1
  1585  006EE4  ECC0  F007         	call	_display_rpm	;wreg free
  1586                           
  1587                           ;display.c: 13: display_speed(speed);
  1588  006EE8  C07A  F064         	movff	display@speed,display_speed@speed
  1589  006EEC  C07B  F065         	movff	display@speed+1,display_speed@speed+1
  1590  006EF0  EC48  F035         	call	_display_speed	;wreg free
  1591                           
  1592                           ;display.c: 14: display_tp(tp);
  1593  006EF4  C078  F064         	movff	display@tp,display_tp@tp
  1594  006EF8  C079  F065         	movff	display@tp+1,display_tp@tp+1
  1595  006EFC  ECC4  F034         	call	_display_tp	;wreg free
  1596                           
  1597                           ;display.c: 15: display_laptime(0, 0, 0, 0);
  1598  006F00  0E00               	movlw	0
  1599  006F02  0100               	movlb	0	; () banked
  1600  006F04  6F64               	movwf	display_laptime@current& (0+255),b
  1601  006F06  0E00               	movlw	0
  1602  006F08  0100               	movlb	0	; () banked
  1603  006F0A  6F65               	movwf	(display_laptime@current+1)& (0+255),b
  1604  006F0C  0E00               	movlw	0
  1605  006F0E  0100               	movlb	0	; () banked
  1606  006F10  6F66               	movwf	(display_laptime@current+2)& (0+255),b
  1607  006F12  0E00               	movlw	0
  1608  006F14  0100               	movlb	0	; () banked
  1609  006F16  6F67               	movwf	display_laptime@best& (0+255),b
  1610  006F18  0E00               	movlw	0
  1611  006F1A  0100               	movlb	0	; () banked
  1612  006F1C  6F68               	movwf	(display_laptime@best+1)& (0+255),b
  1613  006F1E  0E00               	movlw	0
  1614  006F20  0100               	movlb	0	; () banked
  1615  006F22  6F69               	movwf	(display_laptime@best+2)& (0+255),b
  1616  006F24  0E00               	movlw	0
  1617  006F26  0100               	movlb	0	; () banked
  1618  006F28  6F6A               	movwf	display_laptime@last& (0+255),b
  1619  006F2A  0E00               	movlw	0
  1620  006F2C  0100               	movlb	0	; () banked
  1621  006F2E  6F6B               	movwf	(display_laptime@last+1)& (0+255),b
  1622  006F30  0E00               	movlw	0
  1623  006F32  0100               	movlb	0	; () banked
  1624  006F34  6F6C               	movwf	(display_laptime@last+2)& (0+255),b
  1625  006F36  0E00               	movlw	0
  1626  006F38  0100               	movlb	0	; () banked
  1627  006F3A  6F6E               	movwf	(display_laptime@lap+1)& (0+255),b
  1628  006F3C  0E00               	movlw	0
  1629  006F3E  6F6D               	movwf	display_laptime@lap& (0+255),b
  1630  006F40  ECCB  F013         	call	_display_laptime	;wreg free
  1631                           
  1632                           ;display.c: 16: display_message("hello");
  1633  006F44  0E28               	movlw	low STR_1
  1634  006F46  0100               	movlb	0	; () banked
  1635  006F48  6F64               	movwf	display_message@message& (0+255),b
  1636  006F4A  0E0F               	movlw	high STR_1
  1637  006F4C  0100               	movlb	0	; () banked
  1638  006F4E  6F65               	movwf	(display_message@message+1)& (0+255),b
  1639  006F50  ECE2  F032         	call	_display_message	;wreg free
  1640                           
  1641                           ;display.c: 17: display_end();
  1642  006F54  ECAE  F039         	call	_display_end	;wreg free
  1643  006F58  0012               	return		;funcret
  1644  006F5A                     __end_of_display:
  1645                           	opt stack 0
  1646                           tblptru	equ	0xFF8
  1647                           postinc0	equ	0xFEE
  1648                           wreg	equ	0xFE8
  1649                           status	equ	0xFD8
  1650                           
  1651 ;; *************** function _display_waterTemp *****************
  1652 ;; Defined at:
  1653 ;;		line 124 in file "display.c"
  1654 ;; Parameters:    Size  Location     Type
  1655 ;;  temp            2    4[BANK0 ] int 
  1656 ;; Auto vars:     Size  Location     Type
  1657 ;;		None
  1658 ;; Return value:  Size  Location     Type
  1659 ;;                  1    wreg      void 
  1660 ;; Registers used:
  1661 ;;		wreg, status,2, status,0, cstack
  1662 ;; Tracked objects:
  1663 ;;		On entry : 0/0
  1664 ;;		On exit  : 0/0
  1665 ;;		Unchanged: 0/0
  1666 ;; Data sizes:     COMRAM   BANK0   BANK1   BANK2   BANK3   BANK4   BANK5   BANK6   BANK7   BANK8   BANK9  BANK10  BANK1
      +1  BANK12  BANK13  BANK14
  1667 ;;      Params:         0       2       0       0       0       0       0       0       0       0       0       0       
      +0       0       0       0
  1668 ;;      Locals:         0       0       0       0       0       0       0       0       0       0       0       0       
      +0       0       0       0
  1669 ;;      Temps:          0       3       0       0       0       0       0       0       0       0       0       0       
      +0       0       0       0
  1670 ;;      Totals:         0       5       0       0       0       0       0       0       0       0       0       0       
      +0       0       0       0
  1671 ;;Total ram usage:        5 bytes
  1672 ;; Hardware stack levels used:    1
  1673 ;; Hardware stack levels required when called:    5
  1674 ;; This function calls:
  1675 ;;		_cmd
  1676 ;;		_cmd_incrementn
  1677 ;;		_wr16
  1678 ;; This function is called by:
  1679 ;;		_display
  1680 ;; This function uses a non-reentrant model
  1681 ;;
  1682                           
  1683                           	psect	text3
  1684  006756                     __ptext3:
  1685                           	opt stack 0
  1686  006756                     _display_waterTemp:
  1687                           	opt stack 24
  1688                           
  1689                           ;display.c: 125: cmd(((4UL<<24)|(((255)&255UL)<<16)|(((255)&255UL)<<8)|(((255)&255UL)<<0
      +                          )));
  1690                           
  1691                           ;incstack = 0
  1692  006756  0EFF               	movlw	255
  1693  006758  0100               	movlb	0	; () banked
  1694  00675A  6F60               	movwf	cmd@command& (0+255),b
  1695  00675C  0EFF               	movlw	255
  1696  00675E  6F61               	movwf	(cmd@command+1)& (0+255),b
  1697  006760  0EFF               	movlw	255
  1698  006762  6F62               	movwf	(cmd@command+2)& (0+255),b
  1699  006764  0E04               	movlw	4
  1700  006766  6F63               	movwf	(cmd@command+3)& (0+255),b
  1701  006768  EC4F  F03A         	call	_cmd	;wreg free
  1702                           
  1703                           ;display.c: 126: cmd(4294967086UL);wr16(1081344UL+cmd_offset, 64);cmd_incrementn(2);wr16
      +                          (1081344UL+cmd_offset, 7);cmd_incrementn(2);wr16(1081344UL+cmd_offset, 28);cmd_increment
      +                          n(2);wr16(1081344UL+cmd_offset, 0);cmd_incrementn(2);cmd(temp);
  1704  00676C  0E2E               	movlw	46
  1705  00676E  0100               	movlb	0	; () banked
  1706  006770  6F60               	movwf	cmd@command& (0+255),b
  1707  006772  0EFF               	movlw	255
  1708  006774  6F61               	movwf	(cmd@command+1)& (0+255),b
  1709  006776  0EFF               	movlw	255
  1710  006778  6F62               	movwf	(cmd@command+2)& (0+255),b
  1711  00677A  0EFF               	movlw	255
  1712  00677C  6F63               	movwf	(cmd@command+3)& (0+255),b
  1713  00677E  EC4F  F03A         	call	_cmd	;wreg free
  1714  006782  C03E  F066         	movff	_cmd_offset,??_display_waterTemp
  1715  006786  C03F  F067         	movff	_cmd_offset+1,??_display_waterTemp+1
  1716  00678A  0100               	movlb	0	; () banked
  1717  00678C  6B68               	clrf	(??_display_waterTemp+2)& (0+255),b
  1718  00678E  0E00               	movlw	0
  1719  006790  0100               	movlb	0	; () banked
  1720  006792  2566               	addwf	??_display_waterTemp& (0+255),w,b
  1721  006794  6E1F               	movwf	wr16@addr,c
  1722  006796  0E80               	movlw	128
  1723  006798  0100               	movlb	0	; () banked
  1724  00679A  2167               	addwfc	(??_display_waterTemp+1)& (0+255),w,b
  1725  00679C  6E20               	movwf	wr16@addr+1,c
  1726  00679E  0E10               	movlw	16
  1727  0067A0  0100               	movlb	0	; () banked
  1728  0067A2  2168               	addwfc	(??_display_waterTemp+2)& (0+255),w,b
  1729  0067A4  6E21               	movwf	wr16@addr+2,c
  1730  0067A6  0E00               	movlw	0
  1731  0067A8  6E23               	movwf	wr16@value+1,c
  1732  0067AA  0E40               	movlw	64
  1733  0067AC  6E22               	movwf	wr16@value,c
  1734  0067AE  EC31  F03A         	call	_wr16	;wreg free
  1735  0067B2  0E02               	movlw	2
  1736  0067B4  ECA2  F03A         	call	_cmd_incrementn
  1737  0067B8  C03E  F066         	movff	_cmd_offset,??_display_waterTemp
  1738  0067BC  C03F  F067         	movff	_cmd_offset+1,??_display_waterTemp+1
  1739  0067C0  0100               	movlb	0	; () banked
  1740  0067C2  6B68               	clrf	(??_display_waterTemp+2)& (0+255),b
  1741  0067C4  0E00               	movlw	0
  1742  0067C6  0100               	movlb	0	; () banked
  1743  0067C8  2566               	addwf	??_display_waterTemp& (0+255),w,b
  1744  0067CA  6E1F               	movwf	wr16@addr,c
  1745  0067CC  0E80               	movlw	128
  1746  0067CE  0100               	movlb	0	; () banked
  1747  0067D0  2167               	addwfc	(??_display_waterTemp+1)& (0+255),w,b
  1748  0067D2  6E20               	movwf	wr16@addr+1,c
  1749  0067D4  0E10               	movlw	16
  1750  0067D6  0100               	movlb	0	; () banked
  1751  0067D8  2168               	addwfc	(??_display_waterTemp+2)& (0+255),w,b
  1752  0067DA  6E21               	movwf	wr16@addr+2,c
  1753  0067DC  0E00               	movlw	0
  1754  0067DE  6E23               	movwf	wr16@value+1,c
  1755  0067E0  0E07               	movlw	7
  1756  0067E2  6E22               	movwf	wr16@value,c
  1757  0067E4  EC31  F03A         	call	_wr16	;wreg free
  1758  0067E8  0E02               	movlw	2
  1759  0067EA  ECA2  F03A         	call	_cmd_incrementn
  1760  0067EE  C03E  F066         	movff	_cmd_offset,??_display_waterTemp
  1761  0067F2  C03F  F067         	movff	_cmd_offset+1,??_display_waterTemp+1
  1762  0067F6  0100               	movlb	0	; () banked
  1763  0067F8  6B68               	clrf	(??_display_waterTemp+2)& (0+255),b
  1764  0067FA  0E00               	movlw	0
  1765  0067FC  0100               	movlb	0	; () banked
  1766  0067FE  2566               	addwf	??_display_waterTemp& (0+255),w,b
  1767  006800  6E1F               	movwf	wr16@addr,c
  1768  006802  0E80               	movlw	128
  1769  006804  0100               	movlb	0	; () banked
  1770  006806  2167               	addwfc	(??_display_waterTemp+1)& (0+255),w,b
  1771  006808  6E20               	movwf	wr16@addr+1,c
  1772  00680A  0E10               	movlw	16
  1773  00680C  0100               	movlb	0	; () banked
  1774  00680E  2168               	addwfc	(??_display_waterTemp+2)& (0+255),w,b
  1775  006810  6E21               	movwf	wr16@addr+2,c
  1776  006812  0E00               	movlw	0
  1777  006814  6E23               	movwf	wr16@value+1,c
  1778  006816  0E1C               	movlw	28
  1779  006818  6E22               	movwf	wr16@value,c
  1780  00681A  EC31  F03A         	call	_wr16	;wreg free
  1781  00681E  0E02               	movlw	2
  1782  006820  ECA2  F03A         	call	_cmd_incrementn
  1783  006824  C03E  F066         	movff	_cmd_offset,??_display_waterTemp
  1784  006828  C03F  F067         	movff	_cmd_offset+1,??_display_waterTemp+1
  1785  00682C  0100               	movlb	0	; () banked
  1786  00682E  6B68               	clrf	(??_display_waterTemp+2)& (0+255),b
  1787  006830  0E00               	movlw	0
  1788  006832  0100               	movlb	0	; () banked
  1789  006834  2566               	addwf	??_display_waterTemp& (0+255),w,b
  1790  006836  6E1F               	movwf	wr16@addr,c
  1791  006838  0E80               	movlw	128
  1792  00683A  0100               	movlb	0	; () banked
  1793  00683C  2167               	addwfc	(??_display_waterTemp+1)& (0+255),w,b
  1794  00683E  6E20               	movwf	wr16@addr+1,c
  1795  006840  0E10               	movlw	16
  1796  006842  0100               	movlb	0	; () banked
  1797  006844  2168               	addwfc	(??_display_waterTemp+2)& (0+255),w,b
  1798  006846  6E21               	movwf	wr16@addr+2,c
  1799  006848  0E00               	movlw	0
  1800  00684A  6E23               	movwf	wr16@value+1,c
  1801  00684C  0E00               	movlw	0
  1802  00684E  6E22               	movwf	wr16@value,c
  1803  006850  EC31  F03A         	call	_wr16	;wreg free
  1804  006854  0E02               	movlw	2
  1805  006856  ECA2  F03A         	call	_cmd_incrementn
  1806  00685A  C064  F060         	movff	display_waterTemp@temp,cmd@command
  1807  00685E  C065  F061         	movff	display_waterTemp@temp+1,cmd@command+1
  1808  006862  0100               	movlb	0	; () banked
  1809  006864  0E00               	movlw	0
  1810  006866  BF61               	btfsc	(cmd@command+1)& (0+255),7,b
  1811  006868  0EFF               	movlw	-1
  1812  00686A  6F62               	movwf	(cmd@command+2)& (0+255),b
  1813  00686C  6F63               	movwf	(cmd@command+3)& (0+255),b
  1814  00686E  EC4F  F03A         	call	_cmd	;wreg free
  1815  006872  0012               	return		;funcret
  1816  006874                     __end_of_display_waterTemp:
  1817                           	opt stack 0
  1818                           tblptru	equ	0xFF8
  1819                           postinc0	equ	0xFEE
  1820                           wreg	equ	0xFE8
  1821                           status	equ	0xFD8
  1822                           
  1823 ;; *************** function _display_tp *****************
  1824 ;; Defined at:
  1825 ;;		line 149 in file "display.c"
  1826 ;; Parameters:    Size  Location     Type
  1827 ;;  tp              2    4[BANK0 ] int 
  1828 ;; Auto vars:     Size  Location     Type
  1829 ;;		None
  1830 ;; Return value:  Size  Location     Type
  1831 ;;                  1    wreg      void 
  1832 ;; Registers used:
  1833 ;;		wreg, status,2, status,0, cstack
  1834 ;; Tracked objects:
  1835 ;;		On entry : 0/0
  1836 ;;		On exit  : 0/0
  1837 ;;		Unchanged: 0/0
  1838 ;; Data sizes:     COMRAM   BANK0   BANK1   BANK2   BANK3   BANK4   BANK5   BANK6   BANK7   BANK8   BANK9  BANK10  BANK1
      +1  BANK12  BANK13  BANK14
  1839 ;;      Params:         0       2       0       0       0       0       0       0       0       0       0       0       
      +0       0       0       0
  1840 ;;      Locals:         0       0       0       0       0       0       0       0       0       0       0       0       
      +0       0       0       0
  1841 ;;      Temps:          0       3       0       0       0       0       0       0       0       0       0       0       
      +0       0       0       0
  1842 ;;      Totals:         0       5       0       0       0       0       0       0       0       0       0       0       
      +0       0       0       0
  1843 ;;Total ram usage:        5 bytes
  1844 ;; Hardware stack levels used:    1
  1845 ;; Hardware stack levels required when called:    5
  1846 ;; This function calls:
  1847 ;;		_cmd
  1848 ;;		_cmd_incrementn
  1849 ;;		_wr16
  1850 ;; This function is called by:
  1851 ;;		_display
  1852 ;; This function uses a non-reentrant model
  1853 ;;
  1854                           
  1855                           	psect	text4
  1856  006988                     __ptext4:
  1857                           	opt stack 0
  1858  006988                     _display_tp:
  1859                           	opt stack 24
  1860                           
  1861                           ;display.c: 150: cmd(4294967086UL);wr16(1081344UL+cmd_offset, 455);cmd_incrementn(2);wr1
      +                          6(1081344UL+cmd_offset, 166);cmd_incrementn(2);wr16(1081344UL+cmd_offset, 30);cmd_increm
      +                          entn(2);wr16(1081344UL+cmd_offset, 2048UL);cmd_incrementn(2);cmd(tp);
  1862                           
  1863                           ;incstack = 0
  1864  006988  0E2E               	movlw	46
  1865  00698A  0100               	movlb	0	; () banked
  1866  00698C  6F60               	movwf	cmd@command& (0+255),b
  1867  00698E  0EFF               	movlw	255
  1868  006990  6F61               	movwf	(cmd@command+1)& (0+255),b
  1869  006992  0EFF               	movlw	255
  1870  006994  6F62               	movwf	(cmd@command+2)& (0+255),b
  1871  006996  0EFF               	movlw	255
  1872  006998  6F63               	movwf	(cmd@command+3)& (0+255),b
  1873  00699A  EC4F  F03A         	call	_cmd	;wreg free
  1874  00699E  C03E  F066         	movff	_cmd_offset,??_display_tp
  1875  0069A2  C03F  F067         	movff	_cmd_offset+1,??_display_tp+1
  1876  0069A6  0100               	movlb	0	; () banked
  1877  0069A8  6B68               	clrf	(??_display_tp+2)& (0+255),b
  1878  0069AA  0E00               	movlw	0
  1879  0069AC  0100               	movlb	0	; () banked
  1880  0069AE  2566               	addwf	??_display_tp& (0+255),w,b
  1881  0069B0  6E1F               	movwf	wr16@addr,c
  1882  0069B2  0E80               	movlw	128
  1883  0069B4  0100               	movlb	0	; () banked
  1884  0069B6  2167               	addwfc	(??_display_tp+1)& (0+255),w,b
  1885  0069B8  6E20               	movwf	wr16@addr+1,c
  1886  0069BA  0E10               	movlw	16
  1887  0069BC  0100               	movlb	0	; () banked
  1888  0069BE  2168               	addwfc	(??_display_tp+2)& (0+255),w,b
  1889  0069C0  6E21               	movwf	wr16@addr+2,c
  1890  0069C2  0E01               	movlw	1
  1891  0069C4  6E23               	movwf	wr16@value+1,c
  1892  0069C6  0EC7               	movlw	199
  1893  0069C8  6E22               	movwf	wr16@value,c
  1894  0069CA  EC31  F03A         	call	_wr16	;wreg free
  1895  0069CE  0E02               	movlw	2
  1896  0069D0  ECA2  F03A         	call	_cmd_incrementn
  1897  0069D4  C03E  F066         	movff	_cmd_offset,??_display_tp
  1898  0069D8  C03F  F067         	movff	_cmd_offset+1,??_display_tp+1
  1899  0069DC  0100               	movlb	0	; () banked
  1900  0069DE  6B68               	clrf	(??_display_tp+2)& (0+255),b
  1901  0069E0  0E00               	movlw	0
  1902  0069E2  0100               	movlb	0	; () banked
  1903  0069E4  2566               	addwf	??_display_tp& (0+255),w,b
  1904  0069E6  6E1F               	movwf	wr16@addr,c
  1905  0069E8  0E80               	movlw	128
  1906  0069EA  0100               	movlb	0	; () banked
  1907  0069EC  2167               	addwfc	(??_display_tp+1)& (0+255),w,b
  1908  0069EE  6E20               	movwf	wr16@addr+1,c
  1909  0069F0  0E10               	movlw	16
  1910  0069F2  0100               	movlb	0	; () banked
  1911  0069F4  2168               	addwfc	(??_display_tp+2)& (0+255),w,b
  1912  0069F6  6E21               	movwf	wr16@addr+2,c
  1913  0069F8  0E00               	movlw	0
  1914  0069FA  6E23               	movwf	wr16@value+1,c
  1915  0069FC  0EA6               	movlw	166
  1916  0069FE  6E22               	movwf	wr16@value,c
  1917  006A00  EC31  F03A         	call	_wr16	;wreg free
  1918  006A04  0E02               	movlw	2
  1919  006A06  ECA2  F03A         	call	_cmd_incrementn
  1920  006A0A  C03E  F066         	movff	_cmd_offset,??_display_tp
  1921  006A0E  C03F  F067         	movff	_cmd_offset+1,??_display_tp+1
  1922  006A12  0100               	movlb	0	; () banked
  1923  006A14  6B68               	clrf	(??_display_tp+2)& (0+255),b
  1924  006A16  0E00               	movlw	0
  1925  006A18  0100               	movlb	0	; () banked
  1926  006A1A  2566               	addwf	??_display_tp& (0+255),w,b
  1927  006A1C  6E1F               	movwf	wr16@addr,c
  1928  006A1E  0E80               	movlw	128
  1929  006A20  0100               	movlb	0	; () banked
  1930  006A22  2167               	addwfc	(??_display_tp+1)& (0+255),w,b
  1931  006A24  6E20               	movwf	wr16@addr+1,c
  1932  006A26  0E10               	movlw	16
  1933  006A28  0100               	movlb	0	; () banked
  1934  006A2A  2168               	addwfc	(??_display_tp+2)& (0+255),w,b
  1935  006A2C  6E21               	movwf	wr16@addr+2,c
  1936  006A2E  0E00               	movlw	0
  1937  006A30  6E23               	movwf	wr16@value+1,c
  1938  006A32  0E1E               	movlw	30
  1939  006A34  6E22               	movwf	wr16@value,c
  1940  006A36  EC31  F03A         	call	_wr16	;wreg free
  1941  006A3A  0E02               	movlw	2
  1942  006A3C  ECA2  F03A         	call	_cmd_incrementn
  1943  006A40  C03E  F066         	movff	_cmd_offset,??_display_tp
  1944  006A44  C03F  F067         	movff	_cmd_offset+1,??_display_tp+1
  1945  006A48  0100               	movlb	0	; () banked
  1946  006A4A  6B68               	clrf	(??_display_tp+2)& (0+255),b
  1947  006A4C  0E00               	movlw	0
  1948  006A4E  0100               	movlb	0	; () banked
  1949  006A50  2566               	addwf	??_display_tp& (0+255),w,b
  1950  006A52  6E1F               	movwf	wr16@addr,c
  1951  006A54  0E80               	movlw	128
  1952  006A56  0100               	movlb	0	; () banked
  1953  006A58  2167               	addwfc	(??_display_tp+1)& (0+255),w,b
  1954  006A5A  6E20               	movwf	wr16@addr+1,c
  1955  006A5C  0E10               	movlw	16
  1956  006A5E  0100               	movlb	0	; () banked
  1957  006A60  2168               	addwfc	(??_display_tp+2)& (0+255),w,b
  1958  006A62  6E21               	movwf	wr16@addr+2,c
  1959  006A64  0E08               	movlw	8
  1960  006A66  6E23               	movwf	wr16@value+1,c
  1961  006A68  0E00               	movlw	0
  1962  006A6A  6E22               	movwf	wr16@value,c
  1963  006A6C  EC31  F03A         	call	_wr16	;wreg free
  1964  006A70  0E02               	movlw	2
  1965  006A72  ECA2  F03A         	call	_cmd_incrementn
  1966  006A76  C064  F060         	movff	display_tp@tp,cmd@command
  1967  006A7A  C065  F061         	movff	display_tp@tp+1,cmd@command+1
  1968  006A7E  0100               	movlb	0	; () banked
  1969  006A80  0E00               	movlw	0
  1970  006A82  BF61               	btfsc	(cmd@command+1)& (0+255),7,b
  1971  006A84  0EFF               	movlw	-1
  1972  006A86  6F62               	movwf	(cmd@command+2)& (0+255),b
  1973  006A88  6F63               	movwf	(cmd@command+3)& (0+255),b
  1974  006A8A  EC4F  F03A         	call	_cmd	;wreg free
  1975  006A8E  0012               	return		;funcret
  1976  006A90                     __end_of_display_tp:
  1977                           	opt stack 0
  1978                           tblptru	equ	0xFF8
  1979                           postinc0	equ	0xFEE
  1980                           wreg	equ	0xFE8
  1981                           status	equ	0xFD8
  1982                           
  1983 ;; *************** function _display_start *****************
  1984 ;; Defined at:
  1985 ;;		line 20 in file "display.c"
  1986 ;; Parameters:    Size  Location     Type
  1987 ;;		None
  1988 ;; Auto vars:     Size  Location     Type
  1989 ;;		None
  1990 ;; Return value:  Size  Location     Type
  1991 ;;                  1    wreg      void 
  1992 ;; Registers used:
  1993 ;;		wreg, status,2, status,0, cstack
  1994 ;; Tracked objects:
  1995 ;;		On entry : 0/0
  1996 ;;		On exit  : 0/0
  1997 ;;		Unchanged: 0/0
  1998 ;; Data sizes:     COMRAM   BANK0   BANK1   BANK2   BANK3   BANK4   BANK5   BANK6   BANK7   BANK8   BANK9  BANK10  BANK1
      +1  BANK12  BANK13  BANK14
  1999 ;;      Params:         0       0       0       0       0       0       0       0       0       0       0       0       
      +0       0       0       0
  2000 ;;      Locals:         0       0       0       0       0       0       0       0       0       0       0       0       
      +0       0       0       0
  2001 ;;      Temps:          0       0       0       0       0       0       0       0       0       0       0       0       
      +0       0       0       0
  2002 ;;      Totals:         0       0       0       0       0       0       0       0       0       0       0       0       
      +0       0       0       0
  2003 ;;Total ram usage:        0 bytes
  2004 ;; Hardware stack levels used:    1
  2005 ;; Hardware stack levels required when called:    5
  2006 ;; This function calls:
  2007 ;;		_cmd
  2008 ;; This function is called by:
  2009 ;;		_display
  2010 ;; This function uses a non-reentrant model
  2011 ;;
  2012                           
  2013                           	psect	text5
  2014  0073A2                     __ptext5:
  2015                           	opt stack 0
  2016  0073A2                     _display_start:
  2017                           	opt stack 24
  2018                           
  2019                           ;display.c: 21: cmd(4294967040UL);
  2020                           
  2021                           ;incstack = 0
  2022  0073A2  0E00               	movlw	0
  2023  0073A4  0100               	movlb	0	; () banked
  2024  0073A6  6F60               	movwf	cmd@command& (0+255),b
  2025  0073A8  0EFF               	movlw	255
  2026  0073AA  6F61               	movwf	(cmd@command+1)& (0+255),b
  2027  0073AC  0EFF               	movlw	255
  2028  0073AE  6F62               	movwf	(cmd@command+2)& (0+255),b
  2029  0073B0  0EFF               	movlw	255
  2030  0073B2  6F63               	movwf	(cmd@command+3)& (0+255),b
  2031  0073B4  EC4F  F03A         	call	_cmd	;wreg free
  2032                           
  2033                           ;display.c: 22: cmd(((2UL<<24)|(((20)&255UL)<<16)|(((20)&255UL)<<8)|(((20)&255UL)<<0)));
  2034  0073B8  0E14               	movlw	20
  2035  0073BA  0100               	movlb	0	; () banked
  2036  0073BC  6F60               	movwf	cmd@command& (0+255),b
  2037  0073BE  0E14               	movlw	20
  2038  0073C0  6F61               	movwf	(cmd@command+1)& (0+255),b
  2039  0073C2  0E14               	movlw	20
  2040  0073C4  6F62               	movwf	(cmd@command+2)& (0+255),b
  2041  0073C6  0E02               	movlw	2
  2042  0073C8  6F63               	movwf	(cmd@command+3)& (0+255),b
  2043  0073CA  EC4F  F03A         	call	_cmd	;wreg free
  2044                           
  2045                           ;display.c: 23: cmd(((38UL<<24)|(((1)&1UL)<<2)|(((1)&1UL)<<1)|(((1)&1UL)<<0)));
  2046  0073CE  0E07               	movlw	7
  2047  0073D0  0100               	movlb	0	; () banked
  2048  0073D2  6F60               	movwf	cmd@command& (0+255),b
  2049  0073D4  0E00               	movlw	0
  2050  0073D6  6F61               	movwf	(cmd@command+1)& (0+255),b
  2051  0073D8  0E00               	movlw	0
  2052  0073DA  6F62               	movwf	(cmd@command+2)& (0+255),b
  2053  0073DC  0E26               	movlw	38
  2054  0073DE  6F63               	movwf	(cmd@command+3)& (0+255),b
  2055  0073E0  EC4F  F03A         	call	_cmd	;wreg free
  2056  0073E4  0012               	return		;funcret
  2057  0073E6                     __end_of_display_start:
  2058                           	opt stack 0
  2059                           tblptru	equ	0xFF8
  2060                           postinc0	equ	0xFEE
  2061                           wreg	equ	0xFE8
  2062                           status	equ	0xFD8
  2063                           
  2064 ;; *************** function _display_speed *****************
  2065 ;; Defined at:
  2066 ;;		line 153 in file "display.c"
  2067 ;; Parameters:    Size  Location     Type
  2068 ;;  speed           2    4[BANK0 ] int 
  2069 ;; Auto vars:     Size  Location     Type
  2070 ;;		None
  2071 ;; Return value:  Size  Location     Type
  2072 ;;                  1    wreg      void 
  2073 ;; Registers used:
  2074 ;;		wreg, status,2, status,0, cstack
  2075 ;; Tracked objects:
  2076 ;;		On entry : 0/0
  2077 ;;		On exit  : 0/0
  2078 ;;		Unchanged: 0/0
  2079 ;; Data sizes:     COMRAM   BANK0   BANK1   BANK2   BANK3   BANK4   BANK5   BANK6   BANK7   BANK8   BANK9  BANK10  BANK1
      +1  BANK12  BANK13  BANK14
  2080 ;;      Params:         0       2       0       0       0       0       0       0       0       0       0       0       
      +0       0       0       0
  2081 ;;      Locals:         0       0       0       0       0       0       0       0       0       0       0       0       
      +0       0       0       0
  2082 ;;      Temps:          0       3       0       0       0       0       0       0       0       0       0       0       
      +0       0       0       0
  2083 ;;      Totals:         0       5       0       0       0       0       0       0       0       0       0       0       
      +0       0       0       0
  2084 ;;Total ram usage:        5 bytes
  2085 ;; Hardware stack levels used:    1
  2086 ;; Hardware stack levels required when called:    5
  2087 ;; This function calls:
  2088 ;;		_cmd
  2089 ;;		_cmd_incrementn
  2090 ;;		_wr16
  2091 ;; This function is called by:
  2092 ;;		_display
  2093 ;; This function uses a non-reentrant model
  2094 ;;
  2095                           
  2096                           	psect	text6
  2097  006A90                     __ptext6:
  2098                           	opt stack 0
  2099  006A90                     _display_speed:
  2100                           	opt stack 24
  2101                           
  2102                           ;display.c: 154: cmd(4294967086UL);wr16(1081344UL+cmd_offset, 360 + 115);cmd_incrementn(
      +                          2);wr16(1081344UL+cmd_offset, 130 - 10);cmd_incrementn(2);wr16(1081344UL+cmd_offset, 31)
      +                          ;cmd_incrementn(2);wr16(1081344UL+cmd_offset, 2048UL);cmd_incrementn(2);cmd(speed);
  2103                           
  2104                           ;incstack = 0
  2105  006A90  0E2E               	movlw	46
  2106  006A92  0100               	movlb	0	; () banked
  2107  006A94  6F60               	movwf	cmd@command& (0+255),b
  2108  006A96  0EFF               	movlw	255
  2109  006A98  6F61               	movwf	(cmd@command+1)& (0+255),b
  2110  006A9A  0EFF               	movlw	255
  2111  006A9C  6F62               	movwf	(cmd@command+2)& (0+255),b
  2112  006A9E  0EFF               	movlw	255
  2113  006AA0  6F63               	movwf	(cmd@command+3)& (0+255),b
  2114  006AA2  EC4F  F03A         	call	_cmd	;wreg free
  2115  006AA6  C03E  F066         	movff	_cmd_offset,??_display_speed
  2116  006AAA  C03F  F067         	movff	_cmd_offset+1,??_display_speed+1
  2117  006AAE  0100               	movlb	0	; () banked
  2118  006AB0  6B68               	clrf	(??_display_speed+2)& (0+255),b
  2119  006AB2  0E00               	movlw	0
  2120  006AB4  0100               	movlb	0	; () banked
  2121  006AB6  2566               	addwf	??_display_speed& (0+255),w,b
  2122  006AB8  6E1F               	movwf	wr16@addr,c
  2123  006ABA  0E80               	movlw	128
  2124  006ABC  0100               	movlb	0	; () banked
  2125  006ABE  2167               	addwfc	(??_display_speed+1)& (0+255),w,b
  2126  006AC0  6E20               	movwf	wr16@addr+1,c
  2127  006AC2  0E10               	movlw	16
  2128  006AC4  0100               	movlb	0	; () banked
  2129  006AC6  2168               	addwfc	(??_display_speed+2)& (0+255),w,b
  2130  006AC8  6E21               	movwf	wr16@addr+2,c
  2131  006ACA  0E01               	movlw	1
  2132  006ACC  6E23               	movwf	wr16@value+1,c
  2133  006ACE  0EDB               	movlw	219
  2134  006AD0  6E22               	movwf	wr16@value,c
  2135  006AD2  EC31  F03A         	call	_wr16	;wreg free
  2136  006AD6  0E02               	movlw	2
  2137  006AD8  ECA2  F03A         	call	_cmd_incrementn
  2138  006ADC  C03E  F066         	movff	_cmd_offset,??_display_speed
  2139  006AE0  C03F  F067         	movff	_cmd_offset+1,??_display_speed+1
  2140  006AE4  0100               	movlb	0	; () banked
  2141  006AE6  6B68               	clrf	(??_display_speed+2)& (0+255),b
  2142  006AE8  0E00               	movlw	0
  2143  006AEA  0100               	movlb	0	; () banked
  2144  006AEC  2566               	addwf	??_display_speed& (0+255),w,b
  2145  006AEE  6E1F               	movwf	wr16@addr,c
  2146  006AF0  0E80               	movlw	128
  2147  006AF2  0100               	movlb	0	; () banked
  2148  006AF4  2167               	addwfc	(??_display_speed+1)& (0+255),w,b
  2149  006AF6  6E20               	movwf	wr16@addr+1,c
  2150  006AF8  0E10               	movlw	16
  2151  006AFA  0100               	movlb	0	; () banked
  2152  006AFC  2168               	addwfc	(??_display_speed+2)& (0+255),w,b
  2153  006AFE  6E21               	movwf	wr16@addr+2,c
  2154  006B00  0E00               	movlw	0
  2155  006B02  6E23               	movwf	wr16@value+1,c
  2156  006B04  0E78               	movlw	120
  2157  006B06  6E22               	movwf	wr16@value,c
  2158  006B08  EC31  F03A         	call	_wr16	;wreg free
  2159  006B0C  0E02               	movlw	2
  2160  006B0E  ECA2  F03A         	call	_cmd_incrementn
  2161  006B12  C03E  F066         	movff	_cmd_offset,??_display_speed
  2162  006B16  C03F  F067         	movff	_cmd_offset+1,??_display_speed+1
  2163  006B1A  0100               	movlb	0	; () banked
  2164  006B1C  6B68               	clrf	(??_display_speed+2)& (0+255),b
  2165  006B1E  0E00               	movlw	0
  2166  006B20  0100               	movlb	0	; () banked
  2167  006B22  2566               	addwf	??_display_speed& (0+255),w,b
  2168  006B24  6E1F               	movwf	wr16@addr,c
  2169  006B26  0E80               	movlw	128
  2170  006B28  0100               	movlb	0	; () banked
  2171  006B2A  2167               	addwfc	(??_display_speed+1)& (0+255),w,b
  2172  006B2C  6E20               	movwf	wr16@addr+1,c
  2173  006B2E  0E10               	movlw	16
  2174  006B30  0100               	movlb	0	; () banked
  2175  006B32  2168               	addwfc	(??_display_speed+2)& (0+255),w,b
  2176  006B34  6E21               	movwf	wr16@addr+2,c
  2177  006B36  0E00               	movlw	0
  2178  006B38  6E23               	movwf	wr16@value+1,c
  2179  006B3A  0E1F               	movlw	31
  2180  006B3C  6E22               	movwf	wr16@value,c
  2181  006B3E  EC31  F03A         	call	_wr16	;wreg free
  2182  006B42  0E02               	movlw	2
  2183  006B44  ECA2  F03A         	call	_cmd_incrementn
  2184  006B48  C03E  F066         	movff	_cmd_offset,??_display_speed
  2185  006B4C  C03F  F067         	movff	_cmd_offset+1,??_display_speed+1
  2186  006B50  0100               	movlb	0	; () banked
  2187  006B52  6B68               	clrf	(??_display_speed+2)& (0+255),b
  2188  006B54  0E00               	movlw	0
  2189  006B56  0100               	movlb	0	; () banked
  2190  006B58  2566               	addwf	??_display_speed& (0+255),w,b
  2191  006B5A  6E1F               	movwf	wr16@addr,c
  2192  006B5C  0E80               	movlw	128
  2193  006B5E  0100               	movlb	0	; () banked
  2194  006B60  2167               	addwfc	(??_display_speed+1)& (0+255),w,b
  2195  006B62  6E20               	movwf	wr16@addr+1,c
  2196  006B64  0E10               	movlw	16
  2197  006B66  0100               	movlb	0	; () banked
  2198  006B68  2168               	addwfc	(??_display_speed+2)& (0+255),w,b
  2199  006B6A  6E21               	movwf	wr16@addr+2,c
  2200  006B6C  0E08               	movlw	8
  2201  006B6E  6E23               	movwf	wr16@value+1,c
  2202  006B70  0E00               	movlw	0
  2203  006B72  6E22               	movwf	wr16@value,c
  2204  006B74  EC31  F03A         	call	_wr16	;wreg free
  2205  006B78  0E02               	movlw	2
  2206  006B7A  ECA2  F03A         	call	_cmd_incrementn
  2207  006B7E  C064  F060         	movff	display_speed@speed,cmd@command
  2208  006B82  C065  F061         	movff	display_speed@speed+1,cmd@command+1
  2209  006B86  0100               	movlb	0	; () banked
  2210  006B88  0E00               	movlw	0
  2211  006B8A  BF61               	btfsc	(cmd@command+1)& (0+255),7,b
  2212  006B8C  0EFF               	movlw	-1
  2213  006B8E  6F62               	movwf	(cmd@command+2)& (0+255),b
  2214  006B90  6F63               	movwf	(cmd@command+3)& (0+255),b
  2215  006B92  EC4F  F03A         	call	_cmd	;wreg free
  2216  006B96  0012               	return		;funcret
  2217  006B98                     __end_of_display_speed:
  2218                           	opt stack 0
  2219                           tblptru	equ	0xFF8
  2220                           postinc0	equ	0xFEE
  2221                           wreg	equ	0xFE8
  2222                           status	equ	0xFD8
  2223                           
  2224 ;; *************** function _display_rpm *****************
  2225 ;; Defined at:
  2226 ;;		line 157 in file "display.c"
  2227 ;; Parameters:    Size  Location     Type
  2228 ;;  rpm             2    4[BANK0 ] int 
  2229 ;; Auto vars:     Size  Location     Type
  2230 ;;  first_digit     2   11[BANK0 ] int 
  2231 ;;  second_digit    2    9[BANK0 ] int 
  2232 ;; Return value:  Size  Location     Type
  2233 ;;                  1    wreg      void 
  2234 ;; Registers used:
  2235 ;;		wreg, status,2, status,0, tblptrl, tblptrh, tblptru, prodl, prodh, cstack
  2236 ;; Tracked objects:
  2237 ;;		On entry : 0/0
  2238 ;;		On exit  : 0/0
  2239 ;;		Unchanged: 0/0
  2240 ;; Data sizes:     COMRAM   BANK0   BANK1   BANK2   BANK3   BANK4   BANK5   BANK6   BANK7   BANK8   BANK9  BANK10  BANK1
      +1  BANK12  BANK13  BANK14
  2241 ;;      Params:         0       2       0       0       0       0       0       0       0       0       0       0       
      +0       0       0       0
  2242 ;;      Locals:         0       4       0       0       0       0       0       0       0       0       0       0       
      +0       0       0       0
  2243 ;;      Temps:          0       3       0       0       0       0       0       0       0       0       0       0       
      +0       0       0       0
  2244 ;;      Totals:         0       9       0       0       0       0       0       0       0       0       0       0       
      +0       0       0       0
  2245 ;;Total ram usage:        9 bytes
  2246 ;; Hardware stack levels used:    1
  2247 ;; Hardware stack levels required when called:    5
  2248 ;; This function calls:
  2249 ;;		___awdiv
  2250 ;;		___awmod
  2251 ;;		_cmd
  2252 ;;		_cmd_incrementn
  2253 ;;		_wr16
  2254 ;;		_wr8s
  2255 ;; This function is called by:
  2256 ;;		_display
  2257 ;; This function uses a non-reentrant model
  2258 ;;
  2259                           
  2260                           	psect	text7
  2261  000F80                     __ptext7:
  2262                           	opt stack 0
  2263  000F80                     _display_rpm:
  2264                           	opt stack 24
  2265                           
  2266                           ;display.c: 158: int first_digit = rpm/1000;
  2267                           
  2268                           ;incstack = 0
  2269  000F80  C064  F01E         	movff	display_rpm@rpm,___awdiv@dividend
  2270  000F84  C065  F01F         	movff	display_rpm@rpm+1,___awdiv@dividend+1
  2271  000F88  0E03               	movlw	3
  2272  000F8A  6E21               	movwf	___awdiv@divisor+1,c
  2273  000F8C  0EE8               	movlw	232
  2274  000F8E  6E20               	movwf	___awdiv@divisor,c
  2275  000F90  ECD0  F038         	call	___awdiv	;wreg free
  2276  000F94  C01E  F06B         	movff	?___awdiv,display_rpm@first_digit
  2277  000F98  C01F  F06C         	movff	?___awdiv+1,display_rpm@first_digit+1
  2278                           
  2279                           ;display.c: 159: int second_digit = (rpm/100)%10;
  2280  000F9C  0E00               	movlw	0
  2281  000F9E  6E21               	movwf	___awdiv@divisor+1,c
  2282  000FA0  0E64               	movlw	100
  2283  000FA2  6E20               	movwf	___awdiv@divisor,c
  2284  000FA4  C064  F01E         	movff	display_rpm@rpm,___awdiv@dividend
  2285  000FA8  C065  F01F         	movff	display_rpm@rpm+1,___awdiv@dividend+1
  2286  000FAC  ECD0  F038         	call	___awdiv	;wreg free
  2287  000FB0  C01E  F026         	movff	?___awdiv,___awmod@dividend
  2288  000FB4  C01F  F027         	movff	?___awdiv+1,___awmod@dividend+1
  2289  000FB8  0E00               	movlw	0
  2290  000FBA  6E29               	movwf	___awmod@divisor+1,c
  2291  000FBC  0E0A               	movlw	10
  2292  000FBE  6E28               	movwf	___awmod@divisor,c
  2293  000FC0  EC4E  F039         	call	___awmod	;wreg free
  2294  000FC4  C026  F069         	movff	?___awmod,display_rpm@second_digit
  2295  000FC8  C027  F06A         	movff	?___awmod+1,display_rpm@second_digit+1
  2296                           
  2297                           ;display.c: 160: cmd(((4UL<<24)|(((255)&255UL)<<16)|(((255)&255UL)<<8)|(((255)&255UL)<<0
      +                          )));
  2298  000FCC  0EFF               	movlw	255
  2299  000FCE  0100               	movlb	0	; () banked
  2300  000FD0  6F60               	movwf	cmd@command& (0+255),b
  2301  000FD2  0EFF               	movlw	255
  2302  000FD4  6F61               	movwf	(cmd@command+1)& (0+255),b
  2303  000FD6  0EFF               	movlw	255
  2304  000FD8  6F62               	movwf	(cmd@command+2)& (0+255),b
  2305  000FDA  0E04               	movlw	4
  2306  000FDC  6F63               	movwf	(cmd@command+3)& (0+255),b
  2307  000FDE  EC4F  F03A         	call	_cmd	;wreg free
  2308                           
  2309                           ;display.c: 162: cmd(4294967049UL);cmd(0x323232);
  2310  000FE2  0E09               	movlw	9
  2311  000FE4  0100               	movlb	0	; () banked
  2312  000FE6  6F60               	movwf	cmd@command& (0+255),b
  2313  000FE8  0EFF               	movlw	255
  2314  000FEA  6F61               	movwf	(cmd@command+1)& (0+255),b
  2315  000FEC  0EFF               	movlw	255
  2316  000FEE  6F62               	movwf	(cmd@command+2)& (0+255),b
  2317  000FF0  0EFF               	movlw	255
  2318  000FF2  6F63               	movwf	(cmd@command+3)& (0+255),b
  2319  000FF4  EC4F  F03A         	call	_cmd	;wreg free
  2320  000FF8  0E32               	movlw	50
  2321  000FFA  0100               	movlb	0	; () banked
  2322  000FFC  6F60               	movwf	cmd@command& (0+255),b
  2323  000FFE  0E32               	movlw	50
  2324  001000  6F61               	movwf	(cmd@command+1)& (0+255),b
  2325  001002  0E32               	movlw	50
  2326  001004  6F62               	movwf	(cmd@command+2)& (0+255),b
  2327  001006  0E00               	movlw	0
  2328  001008  6F63               	movwf	(cmd@command+3)& (0+255),b
  2329  00100A  EC4F  F03A         	call	_cmd	;wreg free
  2330                           
  2331                           ;display.c: 163: cmd(4294967059UL);wr16(1081344UL+cmd_offset, 240);cmd_incrementn(2);wr1
      +                          6(1081344UL+cmd_offset, 115);cmd_incrementn(2);wr16(1081344UL+cmd_offset, 130);cmd_incre
      +                          mentn(2);wr16(1081344UL+cmd_offset, 16384UL | 4096UL | 256UL);cmd_incrementn(2);wr16(108
      +                          134
  2332  00100E  0E13               	movlw	19
  2333  001010  0100               	movlb	0	; () banked
  2334  001012  6F60               	movwf	cmd@command& (0+255),b
  2335  001014  0EFF               	movlw	255
  2336  001016  6F61               	movwf	(cmd@command+1)& (0+255),b
  2337  001018  0EFF               	movlw	255
  2338  00101A  6F62               	movwf	(cmd@command+2)& (0+255),b
  2339  00101C  0EFF               	movlw	255
  2340  00101E  6F63               	movwf	(cmd@command+3)& (0+255),b
  2341  001020  EC4F  F03A         	call	_cmd	;wreg free
  2342  001024  C03E  F066         	movff	_cmd_offset,??_display_rpm
  2343  001028  C03F  F067         	movff	_cmd_offset+1,??_display_rpm+1
  2344  00102C  0100               	movlb	0	; () banked
  2345  00102E  6B68               	clrf	(??_display_rpm+2)& (0+255),b
  2346  001030  0E00               	movlw	0
  2347  001032  0100               	movlb	0	; () banked
  2348  001034  2566               	addwf	??_display_rpm& (0+255),w,b
  2349  001036  6E1F               	movwf	wr16@addr,c
  2350  001038  0E80               	movlw	128
  2351  00103A  0100               	movlb	0	; () banked
  2352  00103C  2167               	addwfc	(??_display_rpm+1)& (0+255),w,b
  2353  00103E  6E20               	movwf	wr16@addr+1,c
  2354  001040  0E10               	movlw	16
  2355  001042  0100               	movlb	0	; () banked
  2356  001044  2168               	addwfc	(??_display_rpm+2)& (0+255),w,b
  2357  001046  6E21               	movwf	wr16@addr+2,c
  2358  001048  0E00               	movlw	0
  2359  00104A  6E23               	movwf	wr16@value+1,c
  2360  00104C  0EF0               	movlw	240
  2361  00104E  6E22               	movwf	wr16@value,c
  2362  001050  EC31  F03A         	call	_wr16	;wreg free
  2363  001054  0E02               	movlw	2
  2364  001056  ECA2  F03A         	call	_cmd_incrementn
  2365  00105A  C03E  F066         	movff	_cmd_offset,??_display_rpm
  2366  00105E  C03F  F067         	movff	_cmd_offset+1,??_display_rpm+1
  2367  001062  0100               	movlb	0	; () banked
  2368  001064  6B68               	clrf	(??_display_rpm+2)& (0+255),b
  2369  001066  0E00               	movlw	0
  2370  001068  0100               	movlb	0	; () banked
  2371  00106A  2566               	addwf	??_display_rpm& (0+255),w,b
  2372  00106C  6E1F               	movwf	wr16@addr,c
  2373  00106E  0E80               	movlw	128
  2374  001070  0100               	movlb	0	; () banked
  2375  001072  2167               	addwfc	(??_display_rpm+1)& (0+255),w,b
  2376  001074  6E20               	movwf	wr16@addr+1,c
  2377  001076  0E10               	movlw	16
  2378  001078  0100               	movlb	0	; () banked
  2379  00107A  2168               	addwfc	(??_display_rpm+2)& (0+255),w,b
  2380  00107C  6E21               	movwf	wr16@addr+2,c
  2381  00107E  0E00               	movlw	0
  2382  001080  6E23               	movwf	wr16@value+1,c
  2383  001082  0E73               	movlw	115
  2384  001084  6E22               	movwf	wr16@value,c
  2385  001086  EC31  F03A         	call	_wr16	;wreg free
  2386  00108A  0E02               	movlw	2
  2387  00108C  ECA2  F03A         	call	_cmd_incrementn
  2388  001090  C03E  F066         	movff	_cmd_offset,??_display_rpm
  2389  001094  C03F  F067         	movff	_cmd_offset+1,??_display_rpm+1
  2390  001098  0100               	movlb	0	; () banked
  2391  00109A  6B68               	clrf	(??_display_rpm+2)& (0+255),b
  2392  00109C  0E00               	movlw	0
  2393  00109E  0100               	movlb	0	; () banked
  2394  0010A0  2566               	addwf	??_display_rpm& (0+255),w,b
  2395  0010A2  6E1F               	movwf	wr16@addr,c
  2396  0010A4  0E80               	movlw	128
  2397  0010A6  0100               	movlb	0	; () banked
  2398  0010A8  2167               	addwfc	(??_display_rpm+1)& (0+255),w,b
  2399  0010AA  6E20               	movwf	wr16@addr+1,c
  2400  0010AC  0E10               	movlw	16
  2401  0010AE  0100               	movlb	0	; () banked
  2402  0010B0  2168               	addwfc	(??_display_rpm+2)& (0+255),w,b
  2403  0010B2  6E21               	movwf	wr16@addr+2,c
  2404  0010B4  0E00               	movlw	0
  2405  0010B6  6E23               	movwf	wr16@value+1,c
  2406  0010B8  0E82               	movlw	130
  2407  0010BA  6E22               	movwf	wr16@value,c
  2408  0010BC  EC31  F03A         	call	_wr16	;wreg free
  2409  0010C0  0E02               	movlw	2
  2410  0010C2  ECA2  F03A         	call	_cmd_incrementn
  2411  0010C6  C03E  F066         	movff	_cmd_offset,??_display_rpm
  2412  0010CA  C03F  F067         	movff	_cmd_offset+1,??_display_rpm+1
  2413  0010CE  0100               	movlb	0	; () banked
  2414  0010D0  6B68               	clrf	(??_display_rpm+2)& (0+255),b
  2415  0010D2  0E00               	movlw	0
  2416  0010D4  0100               	movlb	0	; () banked
  2417  0010D6  2566               	addwf	??_display_rpm& (0+255),w,b
  2418  0010D8  6E1F               	movwf	wr16@addr,c
  2419  0010DA  0E80               	movlw	128
  2420  0010DC  0100               	movlb	0	; () banked
  2421  0010DE  2167               	addwfc	(??_display_rpm+1)& (0+255),w,b
  2422  0010E0  6E20               	movwf	wr16@addr+1,c
  2423  0010E2  0E10               	movlw	16
  2424  0010E4  0100               	movlb	0	; () banked
  2425  0010E6  2168               	addwfc	(??_display_rpm+2)& (0+255),w,b
  2426  0010E8  6E21               	movwf	wr16@addr+2,c
  2427  0010EA  0E51               	movlw	81
  2428  0010EC  6E23               	movwf	wr16@value+1,c
  2429  0010EE  0E00               	movlw	0
  2430  0010F0  6E22               	movwf	wr16@value,c
  2431  0010F2  EC31  F03A         	call	_wr16	;wreg free
  2432  0010F6  0E02               	movlw	2
  2433  0010F8  ECA2  F03A         	call	_cmd_incrementn
  2434  0010FC  C03E  F066         	movff	_cmd_offset,??_display_rpm
  2435  001100  C03F  F067         	movff	_cmd_offset+1,??_display_rpm+1
  2436  001104  0100               	movlb	0	; () banked
  2437  001106  6B68               	clrf	(??_display_rpm+2)& (0+255),b
  2438  001108  0E00               	movlw	0
  2439  00110A  0100               	movlb	0	; () banked
  2440  00110C  2566               	addwf	??_display_rpm& (0+255),w,b
  2441  00110E  6E1F               	movwf	wr16@addr,c
  2442  001110  0E80               	movlw	128
  2443  001112  0100               	movlb	0	; () banked
  2444  001114  2167               	addwfc	(??_display_rpm+1)& (0+255),w,b
  2445  001116  6E20               	movwf	wr16@addr+1,c
  2446  001118  0E10               	movlw	16
  2447  00111A  0100               	movlb	0	; () banked
  2448  00111C  2168               	addwfc	(??_display_rpm+2)& (0+255),w,b
  2449  00111E  6E21               	movwf	wr16@addr+2,c
  2450  001120  0E00               	movlw	0
  2451  001122  6E23               	movwf	wr16@value+1,c
  2452  001124  0E0A               	movlw	10
  2453  001126  6E22               	movwf	wr16@value,c
  2454  001128  EC31  F03A         	call	_wr16	;wreg free
  2455  00112C  0E02               	movlw	2
  2456  00112E  ECA2  F03A         	call	_cmd_incrementn
  2457  001132  C03E  F066         	movff	_cmd_offset,??_display_rpm
  2458  001136  C03F  F067         	movff	_cmd_offset+1,??_display_rpm+1
  2459  00113A  0100               	movlb	0	; () banked
  2460  00113C  6B68               	clrf	(??_display_rpm+2)& (0+255),b
  2461  00113E  0E00               	movlw	0
  2462  001140  0100               	movlb	0	; () banked
  2463  001142  2566               	addwf	??_display_rpm& (0+255),w,b
  2464  001144  6E1F               	movwf	wr16@addr,c
  2465  001146  0E80               	movlw	128
  2466  001148  0100               	movlb	0	; () banked
  2467  00114A  2167               	addwfc	(??_display_rpm+1)& (0+255),w,b
  2468  00114C  6E20               	movwf	wr16@addr+1,c
  2469  00114E  0E10               	movlw	16
  2470  001150  0100               	movlb	0	; () banked
  2471  001152  2168               	addwfc	(??_display_rpm+2)& (0+255),w,b
  2472  001154  6E21               	movwf	wr16@addr+2,c
  2473  001156  0E00               	movlw	0
  2474  001158  6E23               	movwf	wr16@value+1,c
  2475  00115A  0E05               	movlw	5
  2476  00115C  6E22               	movwf	wr16@value,c
  2477  00115E  EC31  F03A         	call	_wr16	;wreg free
  2478  001162  0E02               	movlw	2
  2479  001164  ECA2  F03A         	call	_cmd_incrementn
  2480  001168  C03E  F066         	movff	_cmd_offset,??_display_rpm
  2481  00116C  C03F  F067         	movff	_cmd_offset+1,??_display_rpm+1
  2482  001170  0100               	movlb	0	; () banked
  2483  001172  6B68               	clrf	(??_display_rpm+2)& (0+255),b
  2484  001174  0E00               	movlw	0
  2485  001176  0100               	movlb	0	; () banked
  2486  001178  2566               	addwf	??_display_rpm& (0+255),w,b
  2487  00117A  6E1F               	movwf	wr16@addr,c
  2488  00117C  0E80               	movlw	128
  2489  00117E  0100               	movlb	0	; () banked
  2490  001180  2167               	addwfc	(??_display_rpm+1)& (0+255),w,b
  2491  001182  6E20               	movwf	wr16@addr+1,c
  2492  001184  0E10               	movlw	16
  2493  001186  0100               	movlb	0	; () banked
  2494  001188  2168               	addwfc	(??_display_rpm+2)& (0+255),w,b
  2495  00118A  6E21               	movwf	wr16@addr+2,c
  2496  00118C  0E00               	movlw	0
  2497  00118E  6E23               	movwf	wr16@value+1,c
  2498  001190  0E00               	movlw	0
  2499  001192  6E22               	movwf	wr16@value,c
  2500  001194  EC31  F03A         	call	_wr16	;wreg free
  2501  001198  0E02               	movlw	2
  2502  00119A  ECA2  F03A         	call	_cmd_incrementn
  2503  00119E  C03E  F066         	movff	_cmd_offset,??_display_rpm
  2504  0011A2  C03F  F067         	movff	_cmd_offset+1,??_display_rpm+1
  2505  0011A6  0100               	movlb	0	; () banked
  2506  0011A8  6B68               	clrf	(??_display_rpm+2)& (0+255),b
  2507  0011AA  0E00               	movlw	0
  2508  0011AC  0100               	movlb	0	; () banked
  2509  0011AE  2566               	addwf	??_display_rpm& (0+255),w,b
  2510  0011B0  6E1F               	movwf	wr16@addr,c
  2511  0011B2  0E80               	movlw	128
  2512  0011B4  0100               	movlb	0	; () banked
  2513  0011B6  2167               	addwfc	(??_display_rpm+1)& (0+255),w,b
  2514  0011B8  6E20               	movwf	wr16@addr+1,c
  2515  0011BA  0E10               	movlw	16
  2516  0011BC  0100               	movlb	0	; () banked
  2517  0011BE  2168               	addwfc	(??_display_rpm+2)& (0+255),w,b
  2518  0011C0  6E21               	movwf	wr16@addr+2,c
  2519  0011C2  0E00               	movlw	0
  2520  0011C4  6E23               	movwf	wr16@value+1,c
  2521  0011C6  0E0A               	movlw	10
  2522  0011C8  6E22               	movwf	wr16@value,c
  2523  0011CA  EC31  F03A         	call	_wr16	;wreg free
  2524  0011CE  0E02               	movlw	2
  2525  0011D0  ECA2  F03A         	call	_cmd_incrementn
  2526                           
  2527                           ;display.c: 165: cmd(((4UL<<24)|(((255)&255UL)<<16)|(((0)&255UL)<<8)|(((0)&255UL)<<0)));
  2528  0011D4  0E00               	movlw	0
  2529  0011D6  0100               	movlb	0	; () banked
  2530  0011D8  6F60               	movwf	cmd@command& (0+255),b
  2531  0011DA  0E00               	movlw	0
  2532  0011DC  6F61               	movwf	(cmd@command+1)& (0+255),b
  2533  0011DE  0EFF               	movlw	255
  2534  0011E0  6F62               	movwf	(cmd@command+2)& (0+255),b
  2535  0011E2  0E04               	movlw	4
  2536  0011E4  6F63               	movwf	(cmd@command+3)& (0+255),b
  2537  0011E6  EC4F  F03A         	call	_cmd	;wreg free
  2538                           
  2539                           ;display.c: 166: if(first_digit < 2) {
  2540  0011EA  0100               	movlb	0	; () banked
  2541  0011EC  BF6C               	btfsc	(display_rpm@first_digit+1)& (0+255),7,b
  2542  0011EE  D008               	goto	l5418
  2543  0011F0  0100               	movlb	0	; () banked
  2544  0011F2  516C               	movf	(display_rpm@first_digit+1)& (0+255),w,b
  2545  0011F4  E104               	bnz	u1491
  2546  0011F6  0E02               	movlw	2
  2547  0011F8  0100               	movlb	0	; () banked
  2548  0011FA  5D6B               	subwf	display_rpm@first_digit& (0+255),w,b
  2549  0011FC  B0D8               	btfsc	status,0,c
  2550  0011FE                     u1491:
  2551  0011FE  D0E4               	goto	l5420
  2552  001200                     l5418:
  2553                           
  2554                           ; BSR set to: 0
  2555                           ;display.c: 167: cmd(4294967059UL);wr16(1081344UL+cmd_offset, 240);cmd_incrementn(2);wr1
      +                          6(1081344UL+cmd_offset, 115);cmd_incrementn(2);wr16(1081344UL+cmd_offset, 130);cmd_incre
      +                          mentn(2);wr16(1081344UL+cmd_offset, 8192UL|4096UL | 256UL);cmd_incrementn(2);wr16(108134
      +                          4UL
  2556  001200  0E13               	movlw	19
  2557  001202  0100               	movlb	0	; () banked
  2558  001204  6F60               	movwf	cmd@command& (0+255),b
  2559  001206  0EFF               	movlw	255
  2560  001208  6F61               	movwf	(cmd@command+1)& (0+255),b
  2561  00120A  0EFF               	movlw	255
  2562  00120C  6F62               	movwf	(cmd@command+2)& (0+255),b
  2563  00120E  0EFF               	movlw	255
  2564  001210  6F63               	movwf	(cmd@command+3)& (0+255),b
  2565  001212  EC4F  F03A         	call	_cmd	;wreg free
  2566  001216  C03E  F066         	movff	_cmd_offset,??_display_rpm
  2567  00121A  C03F  F067         	movff	_cmd_offset+1,??_display_rpm+1
  2568  00121E  0100               	movlb	0	; () banked
  2569  001220  6B68               	clrf	(??_display_rpm+2)& (0+255),b
  2570  001222  0E00               	movlw	0
  2571  001224  0100               	movlb	0	; () banked
  2572  001226  2566               	addwf	??_display_rpm& (0+255),w,b
  2573  001228  6E1F               	movwf	wr16@addr,c
  2574  00122A  0E80               	movlw	128
  2575  00122C  0100               	movlb	0	; () banked
  2576  00122E  2167               	addwfc	(??_display_rpm+1)& (0+255),w,b
  2577  001230  6E20               	movwf	wr16@addr+1,c
  2578  001232  0E10               	movlw	16
  2579  001234  0100               	movlb	0	; () banked
  2580  001236  2168               	addwfc	(??_display_rpm+2)& (0+255),w,b
  2581  001238  6E21               	movwf	wr16@addr+2,c
  2582  00123A  0E00               	movlw	0
  2583  00123C  6E23               	movwf	wr16@value+1,c
  2584  00123E  0EF0               	movlw	240
  2585  001240  6E22               	movwf	wr16@value,c
  2586  001242  EC31  F03A         	call	_wr16	;wreg free
  2587  001246  0E02               	movlw	2
  2588  001248  ECA2  F03A         	call	_cmd_incrementn
  2589  00124C  C03E  F066         	movff	_cmd_offset,??_display_rpm
  2590  001250  C03F  F067         	movff	_cmd_offset+1,??_display_rpm+1
  2591  001254  0100               	movlb	0	; () banked
  2592  001256  6B68               	clrf	(??_display_rpm+2)& (0+255),b
  2593  001258  0E00               	movlw	0
  2594  00125A  0100               	movlb	0	; () banked
  2595  00125C  2566               	addwf	??_display_rpm& (0+255),w,b
  2596  00125E  6E1F               	movwf	wr16@addr,c
  2597  001260  0E80               	movlw	128
  2598  001262  0100               	movlb	0	; () banked
  2599  001264  2167               	addwfc	(??_display_rpm+1)& (0+255),w,b
  2600  001266  6E20               	movwf	wr16@addr+1,c
  2601  001268  0E10               	movlw	16
  2602  00126A  0100               	movlb	0	; () banked
  2603  00126C  2168               	addwfc	(??_display_rpm+2)& (0+255),w,b
  2604  00126E  6E21               	movwf	wr16@addr+2,c
  2605  001270  0E00               	movlw	0
  2606  001272  6E23               	movwf	wr16@value+1,c
  2607  001274  0E73               	movlw	115
  2608  001276  6E22               	movwf	wr16@value,c
  2609  001278  EC31  F03A         	call	_wr16	;wreg free
  2610  00127C  0E02               	movlw	2
  2611  00127E  ECA2  F03A         	call	_cmd_incrementn
  2612  001282  C03E  F066         	movff	_cmd_offset,??_display_rpm
  2613  001286  C03F  F067         	movff	_cmd_offset+1,??_display_rpm+1
  2614  00128A  0100               	movlb	0	; () banked
  2615  00128C  6B68               	clrf	(??_display_rpm+2)& (0+255),b
  2616  00128E  0E00               	movlw	0
  2617  001290  0100               	movlb	0	; () banked
  2618  001292  2566               	addwf	??_display_rpm& (0+255),w,b
  2619  001294  6E1F               	movwf	wr16@addr,c
  2620  001296  0E80               	movlw	128
  2621  001298  0100               	movlb	0	; () banked
  2622  00129A  2167               	addwfc	(??_display_rpm+1)& (0+255),w,b
  2623  00129C  6E20               	movwf	wr16@addr+1,c
  2624  00129E  0E10               	movlw	16
  2625  0012A0  0100               	movlb	0	; () banked
  2626  0012A2  2168               	addwfc	(??_display_rpm+2)& (0+255),w,b
  2627  0012A4  6E21               	movwf	wr16@addr+2,c
  2628  0012A6  0E00               	movlw	0
  2629  0012A8  6E23               	movwf	wr16@value+1,c
  2630  0012AA  0E82               	movlw	130
  2631  0012AC  6E22               	movwf	wr16@value,c
  2632  0012AE  EC31  F03A         	call	_wr16	;wreg free
  2633  0012B2  0E02               	movlw	2
  2634  0012B4  ECA2  F03A         	call	_cmd_incrementn
  2635  0012B8  C03E  F066         	movff	_cmd_offset,??_display_rpm
  2636  0012BC  C03F  F067         	movff	_cmd_offset+1,??_display_rpm+1
  2637  0012C0  0100               	movlb	0	; () banked
  2638  0012C2  6B68               	clrf	(??_display_rpm+2)& (0+255),b
  2639  0012C4  0E00               	movlw	0
  2640  0012C6  0100               	movlb	0	; () banked
  2641  0012C8  2566               	addwf	??_display_rpm& (0+255),w,b
  2642  0012CA  6E1F               	movwf	wr16@addr,c
  2643  0012CC  0E80               	movlw	128
  2644  0012CE  0100               	movlb	0	; () banked
  2645  0012D0  2167               	addwfc	(??_display_rpm+1)& (0+255),w,b
  2646  0012D2  6E20               	movwf	wr16@addr+1,c
  2647  0012D4  0E10               	movlw	16
  2648  0012D6  0100               	movlb	0	; () banked
  2649  0012D8  2168               	addwfc	(??_display_rpm+2)& (0+255),w,b
  2650  0012DA  6E21               	movwf	wr16@addr+2,c
  2651  0012DC  0E31               	movlw	49
  2652  0012DE  6E23               	movwf	wr16@value+1,c
  2653  0012E0  0E00               	movlw	0
  2654  0012E2  6E22               	movwf	wr16@value,c
  2655  0012E4  EC31  F03A         	call	_wr16	;wreg free
  2656  0012E8  0E02               	movlw	2
  2657  0012EA  ECA2  F03A         	call	_cmd_incrementn
  2658  0012EE  C03E  F066         	movff	_cmd_offset,??_display_rpm
  2659  0012F2  C03F  F067         	movff	_cmd_offset+1,??_display_rpm+1
  2660  0012F6  0100               	movlb	0	; () banked
  2661  0012F8  6B68               	clrf	(??_display_rpm+2)& (0+255),b
  2662  0012FA  0E00               	movlw	0
  2663  0012FC  0100               	movlb	0	; () banked
  2664  0012FE  2566               	addwf	??_display_rpm& (0+255),w,b
  2665  001300  6E1F               	movwf	wr16@addr,c
  2666  001302  0E80               	movlw	128
  2667  001304  0100               	movlb	0	; () banked
  2668  001306  2167               	addwfc	(??_display_rpm+1)& (0+255),w,b
  2669  001308  6E20               	movwf	wr16@addr+1,c
  2670  00130A  0E10               	movlw	16
  2671  00130C  0100               	movlb	0	; () banked
  2672  00130E  2168               	addwfc	(??_display_rpm+2)& (0+255),w,b
  2673  001310  6E21               	movwf	wr16@addr+2,c
  2674  001312  0E00               	movlw	0
  2675  001314  6E23               	movwf	wr16@value+1,c
  2676  001316  0E0A               	movlw	10
  2677  001318  6E22               	movwf	wr16@value,c
  2678  00131A  EC31  F03A         	call	_wr16	;wreg free
  2679  00131E  0E02               	movlw	2
  2680  001320  ECA2  F03A         	call	_cmd_incrementn
  2681  001324  C03E  F066         	movff	_cmd_offset,??_display_rpm
  2682  001328  C03F  F067         	movff	_cmd_offset+1,??_display_rpm+1
  2683  00132C  0100               	movlb	0	; () banked
  2684  00132E  6B68               	clrf	(??_display_rpm+2)& (0+255),b
  2685  001330  0E00               	movlw	0
  2686  001332  0100               	movlb	0	; () banked
  2687  001334  2566               	addwf	??_display_rpm& (0+255),w,b
  2688  001336  6E1F               	movwf	wr16@addr,c
  2689  001338  0E80               	movlw	128
  2690  00133A  0100               	movlb	0	; () banked
  2691  00133C  2167               	addwfc	(??_display_rpm+1)& (0+255),w,b
  2692  00133E  6E20               	movwf	wr16@addr+1,c
  2693  001340  0E10               	movlw	16
  2694  001342  0100               	movlb	0	; () banked
  2695  001344  2168               	addwfc	(??_display_rpm+2)& (0+255),w,b
  2696  001346  6E21               	movwf	wr16@addr+2,c
  2697  001348  0E00               	movlw	0
  2698  00134A  6E23               	movwf	wr16@value+1,c
  2699  00134C  0E05               	movlw	5
  2700  00134E  6E22               	movwf	wr16@value,c
  2701  001350  EC31  F03A         	call	_wr16	;wreg free
  2702  001354  0E02               	movlw	2
  2703  001356  ECA2  F03A         	call	_cmd_incrementn
  2704  00135A  C03E  F066         	movff	_cmd_offset,??_display_rpm
  2705  00135E  C03F  F067         	movff	_cmd_offset+1,??_display_rpm+1
  2706  001362  0100               	movlb	0	; () banked
  2707  001364  6B68               	clrf	(??_display_rpm+2)& (0+255),b
  2708  001366  0E00               	movlw	0
  2709  001368  0100               	movlb	0	; () banked
  2710  00136A  2566               	addwf	??_display_rpm& (0+255),w,b
  2711  00136C  6E1F               	movwf	wr16@addr,c
  2712  00136E  0E80               	movlw	128
  2713  001370  0100               	movlb	0	; () banked
  2714  001372  2167               	addwfc	(??_display_rpm+1)& (0+255),w,b
  2715  001374  6E20               	movwf	wr16@addr+1,c
  2716  001376  0E10               	movlw	16
  2717  001378  0100               	movlb	0	; () banked
  2718  00137A  2168               	addwfc	(??_display_rpm+2)& (0+255),w,b
  2719  00137C  6E21               	movwf	wr16@addr+2,c
  2720  00137E  C06B  F022         	movff	display_rpm@first_digit,wr16@value
  2721  001382  C06C  F023         	movff	display_rpm@first_digit+1,wr16@value+1
  2722  001386  EC31  F03A         	call	_wr16	;wreg free
  2723  00138A  0E02               	movlw	2
  2724  00138C  ECA2  F03A         	call	_cmd_incrementn
  2725  001390  C03E  F066         	movff	_cmd_offset,??_display_rpm
  2726  001394  C03F  F067         	movff	_cmd_offset+1,??_display_rpm+1
  2727  001398  0100               	movlb	0	; () banked
  2728  00139A  6B68               	clrf	(??_display_rpm+2)& (0+255),b
  2729  00139C  0E00               	movlw	0
  2730  00139E  0100               	movlb	0	; () banked
  2731  0013A0  2566               	addwf	??_display_rpm& (0+255),w,b
  2732  0013A2  6E1F               	movwf	wr16@addr,c
  2733  0013A4  0E80               	movlw	128
  2734  0013A6  0100               	movlb	0	; () banked
  2735  0013A8  2167               	addwfc	(??_display_rpm+1)& (0+255),w,b
  2736  0013AA  6E20               	movwf	wr16@addr+1,c
  2737  0013AC  0E10               	movlw	16
  2738  0013AE  0100               	movlb	0	; () banked
  2739  0013B0  2168               	addwfc	(??_display_rpm+2)& (0+255),w,b
  2740  0013B2  6E21               	movwf	wr16@addr+2,c
  2741  0013B4  0E00               	movlw	0
  2742  0013B6  6E23               	movwf	wr16@value+1,c
  2743  0013B8  0E0A               	movlw	10
  2744  0013BA  6E22               	movwf	wr16@value,c
  2745  0013BC  EC31  F03A         	call	_wr16	;wreg free
  2746  0013C0  0E02               	movlw	2
  2747  0013C2  ECA2  F03A         	call	_cmd_incrementn
  2748                           
  2749                           ;display.c: 168: } else {
  2750  0013C6  D0E7               	goto	l732
  2751  0013C8                     l5420:
  2752                           
  2753                           ;display.c: 169: cmd(4294967059UL);wr16(1081344UL+cmd_offset, 240);cmd_incrementn(2);wr1
      +                          6(1081344UL+cmd_offset, 115);cmd_incrementn(2);wr16(1081344UL+cmd_offset, 130);cmd_incre
      +                          mentn(2);wr16(1081344UL+cmd_offset, 8192UL|4096UL | 256UL);cmd_incrementn(2);wr16(108134
      +                          4UL
  2754  0013C8  0E13               	movlw	19
  2755  0013CA  0100               	movlb	0	; () banked
  2756  0013CC  6F60               	movwf	cmd@command& (0+255),b
  2757  0013CE  0EFF               	movlw	255
  2758  0013D0  6F61               	movwf	(cmd@command+1)& (0+255),b
  2759  0013D2  0EFF               	movlw	255
  2760  0013D4  6F62               	movwf	(cmd@command+2)& (0+255),b
  2761  0013D6  0EFF               	movlw	255
  2762  0013D8  6F63               	movwf	(cmd@command+3)& (0+255),b
  2763  0013DA  EC4F  F03A         	call	_cmd	;wreg free
  2764  0013DE  C03E  F066         	movff	_cmd_offset,??_display_rpm
  2765  0013E2  C03F  F067         	movff	_cmd_offset+1,??_display_rpm+1
  2766  0013E6  0100               	movlb	0	; () banked
  2767  0013E8  6B68               	clrf	(??_display_rpm+2)& (0+255),b
  2768  0013EA  0E00               	movlw	0
  2769  0013EC  0100               	movlb	0	; () banked
  2770  0013EE  2566               	addwf	??_display_rpm& (0+255),w,b
  2771  0013F0  6E1F               	movwf	wr16@addr,c
  2772  0013F2  0E80               	movlw	128
  2773  0013F4  0100               	movlb	0	; () banked
  2774  0013F6  2167               	addwfc	(??_display_rpm+1)& (0+255),w,b
  2775  0013F8  6E20               	movwf	wr16@addr+1,c
  2776  0013FA  0E10               	movlw	16
  2777  0013FC  0100               	movlb	0	; () banked
  2778  0013FE  2168               	addwfc	(??_display_rpm+2)& (0+255),w,b
  2779  001400  6E21               	movwf	wr16@addr+2,c
  2780  001402  0E00               	movlw	0
  2781  001404  6E23               	movwf	wr16@value+1,c
  2782  001406  0EF0               	movlw	240
  2783  001408  6E22               	movwf	wr16@value,c
  2784  00140A  EC31  F03A         	call	_wr16	;wreg free
  2785  00140E  0E02               	movlw	2
  2786  001410  ECA2  F03A         	call	_cmd_incrementn
  2787  001414  C03E  F066         	movff	_cmd_offset,??_display_rpm
  2788  001418  C03F  F067         	movff	_cmd_offset+1,??_display_rpm+1
  2789  00141C  0100               	movlb	0	; () banked
  2790  00141E  6B68               	clrf	(??_display_rpm+2)& (0+255),b
  2791  001420  0E00               	movlw	0
  2792  001422  0100               	movlb	0	; () banked
  2793  001424  2566               	addwf	??_display_rpm& (0+255),w,b
  2794  001426  6E1F               	movwf	wr16@addr,c
  2795  001428  0E80               	movlw	128
  2796  00142A  0100               	movlb	0	; () banked
  2797  00142C  2167               	addwfc	(??_display_rpm+1)& (0+255),w,b
  2798  00142E  6E20               	movwf	wr16@addr+1,c
  2799  001430  0E10               	movlw	16
  2800  001432  0100               	movlb	0	; () banked
  2801  001434  2168               	addwfc	(??_display_rpm+2)& (0+255),w,b
  2802  001436  6E21               	movwf	wr16@addr+2,c
  2803  001438  0E00               	movlw	0
  2804  00143A  6E23               	movwf	wr16@value+1,c
  2805  00143C  0E73               	movlw	115
  2806  00143E  6E22               	movwf	wr16@value,c
  2807  001440  EC31  F03A         	call	_wr16	;wreg free
  2808  001444  0E02               	movlw	2
  2809  001446  ECA2  F03A         	call	_cmd_incrementn
  2810  00144A  C03E  F066         	movff	_cmd_offset,??_display_rpm
  2811  00144E  C03F  F067         	movff	_cmd_offset+1,??_display_rpm+1
  2812  001452  0100               	movlb	0	; () banked
  2813  001454  6B68               	clrf	(??_display_rpm+2)& (0+255),b
  2814  001456  0E00               	movlw	0
  2815  001458  0100               	movlb	0	; () banked
  2816  00145A  2566               	addwf	??_display_rpm& (0+255),w,b
  2817  00145C  6E1F               	movwf	wr16@addr,c
  2818  00145E  0E80               	movlw	128
  2819  001460  0100               	movlb	0	; () banked
  2820  001462  2167               	addwfc	(??_display_rpm+1)& (0+255),w,b
  2821  001464  6E20               	movwf	wr16@addr+1,c
  2822  001466  0E10               	movlw	16
  2823  001468  0100               	movlb	0	; () banked
  2824  00146A  2168               	addwfc	(??_display_rpm+2)& (0+255),w,b
  2825  00146C  6E21               	movwf	wr16@addr+2,c
  2826  00146E  0E00               	movlw	0
  2827  001470  6E23               	movwf	wr16@value+1,c
  2828  001472  0E82               	movlw	130
  2829  001474  6E22               	movwf	wr16@value,c
  2830  001476  EC31  F03A         	call	_wr16	;wreg free
  2831  00147A  0E02               	movlw	2
  2832  00147C  ECA2  F03A         	call	_cmd_incrementn
  2833  001480  C03E  F066         	movff	_cmd_offset,??_display_rpm
  2834  001484  C03F  F067         	movff	_cmd_offset+1,??_display_rpm+1
  2835  001488  0100               	movlb	0	; () banked
  2836  00148A  6B68               	clrf	(??_display_rpm+2)& (0+255),b
  2837  00148C  0E00               	movlw	0
  2838  00148E  0100               	movlb	0	; () banked
  2839  001490  2566               	addwf	??_display_rpm& (0+255),w,b
  2840  001492  6E1F               	movwf	wr16@addr,c
  2841  001494  0E80               	movlw	128
  2842  001496  0100               	movlb	0	; () banked
  2843  001498  2167               	addwfc	(??_display_rpm+1)& (0+255),w,b
  2844  00149A  6E20               	movwf	wr16@addr+1,c
  2845  00149C  0E10               	movlw	16
  2846  00149E  0100               	movlb	0	; () banked
  2847  0014A0  2168               	addwfc	(??_display_rpm+2)& (0+255),w,b
  2848  0014A2  6E21               	movwf	wr16@addr+2,c
  2849  0014A4  0E31               	movlw	49
  2850  0014A6  6E23               	movwf	wr16@value+1,c
  2851  0014A8  0E00               	movlw	0
  2852  0014AA  6E22               	movwf	wr16@value,c
  2853  0014AC  EC31  F03A         	call	_wr16	;wreg free
  2854  0014B0  0E02               	movlw	2
  2855  0014B2  ECA2  F03A         	call	_cmd_incrementn
  2856  0014B6  C03E  F066         	movff	_cmd_offset,??_display_rpm
  2857  0014BA  C03F  F067         	movff	_cmd_offset+1,??_display_rpm+1
  2858  0014BE  0100               	movlb	0	; () banked
  2859  0014C0  6B68               	clrf	(??_display_rpm+2)& (0+255),b
  2860  0014C2  0E00               	movlw	0
  2861  0014C4  0100               	movlb	0	; () banked
  2862  0014C6  2566               	addwf	??_display_rpm& (0+255),w,b
  2863  0014C8  6E1F               	movwf	wr16@addr,c
  2864  0014CA  0E80               	movlw	128
  2865  0014CC  0100               	movlb	0	; () banked
  2866  0014CE  2167               	addwfc	(??_display_rpm+1)& (0+255),w,b
  2867  0014D0  6E20               	movwf	wr16@addr+1,c
  2868  0014D2  0E10               	movlw	16
  2869  0014D4  0100               	movlb	0	; () banked
  2870  0014D6  2168               	addwfc	(??_display_rpm+2)& (0+255),w,b
  2871  0014D8  6E21               	movwf	wr16@addr+2,c
  2872  0014DA  0E00               	movlw	0
  2873  0014DC  6E23               	movwf	wr16@value+1,c
  2874  0014DE  0E0A               	movlw	10
  2875  0014E0  6E22               	movwf	wr16@value,c
  2876  0014E2  EC31  F03A         	call	_wr16	;wreg free
  2877  0014E6  0E02               	movlw	2
  2878  0014E8  ECA2  F03A         	call	_cmd_incrementn
  2879  0014EC  C03E  F066         	movff	_cmd_offset,??_display_rpm
  2880  0014F0  C03F  F067         	movff	_cmd_offset+1,??_display_rpm+1
  2881  0014F4  0100               	movlb	0	; () banked
  2882  0014F6  6B68               	clrf	(??_display_rpm+2)& (0+255),b
  2883  0014F8  0E00               	movlw	0
  2884  0014FA  0100               	movlb	0	; () banked
  2885  0014FC  2566               	addwf	??_display_rpm& (0+255),w,b
  2886  0014FE  6E1F               	movwf	wr16@addr,c
  2887  001500  0E80               	movlw	128
  2888  001502  0100               	movlb	0	; () banked
  2889  001504  2167               	addwfc	(??_display_rpm+1)& (0+255),w,b
  2890  001506  6E20               	movwf	wr16@addr+1,c
  2891  001508  0E10               	movlw	16
  2892  00150A  0100               	movlb	0	; () banked
  2893  00150C  2168               	addwfc	(??_display_rpm+2)& (0+255),w,b
  2894  00150E  6E21               	movwf	wr16@addr+2,c
  2895  001510  0E00               	movlw	0
  2896  001512  6E23               	movwf	wr16@value+1,c
  2897  001514  0E05               	movlw	5
  2898  001516  6E22               	movwf	wr16@value,c
  2899  001518  EC31  F03A         	call	_wr16	;wreg free
  2900  00151C  0E02               	movlw	2
  2901  00151E  ECA2  F03A         	call	_cmd_incrementn
  2902  001522  C03E  F066         	movff	_cmd_offset,??_display_rpm
  2903  001526  C03F  F067         	movff	_cmd_offset+1,??_display_rpm+1
  2904  00152A  0100               	movlb	0	; () banked
  2905  00152C  6B68               	clrf	(??_display_rpm+2)& (0+255),b
  2906  00152E  0E00               	movlw	0
  2907  001530  0100               	movlb	0	; () banked
  2908  001532  2566               	addwf	??_display_rpm& (0+255),w,b
  2909  001534  6E1F               	movwf	wr16@addr,c
  2910  001536  0E80               	movlw	128
  2911  001538  0100               	movlb	0	; () banked
  2912  00153A  2167               	addwfc	(??_display_rpm+1)& (0+255),w,b
  2913  00153C  6E20               	movwf	wr16@addr+1,c
  2914  00153E  0E10               	movlw	16
  2915  001540  0100               	movlb	0	; () banked
  2916  001542  2168               	addwfc	(??_display_rpm+2)& (0+255),w,b
  2917  001544  6E21               	movwf	wr16@addr+2,c
  2918  001546  0EFE               	movlw	254
  2919  001548  0100               	movlb	0	; () banked
  2920  00154A  256B               	addwf	display_rpm@first_digit& (0+255),w,b
  2921  00154C  6E22               	movwf	wr16@value,c
  2922  00154E  0EFF               	movlw	255
  2923  001550  0100               	movlb	0	; () banked
  2924  001552  216C               	addwfc	(display_rpm@first_digit+1)& (0+255),w,b
  2925  001554  6E23               	movwf	wr16@value+1,c
  2926  001556  EC31  F03A         	call	_wr16	;wreg free
  2927  00155A  0E02               	movlw	2
  2928  00155C  ECA2  F03A         	call	_cmd_incrementn
  2929  001560  C03E  F066         	movff	_cmd_offset,??_display_rpm
  2930  001564  C03F  F067         	movff	_cmd_offset+1,??_display_rpm+1
  2931  001568  0100               	movlb	0	; () banked
  2932  00156A  6B68               	clrf	(??_display_rpm+2)& (0+255),b
  2933  00156C  0E00               	movlw	0
  2934  00156E  0100               	movlb	0	; () banked
  2935  001570  2566               	addwf	??_display_rpm& (0+255),w,b
  2936  001572  6E1F               	movwf	wr16@addr,c
  2937  001574  0E80               	movlw	128
  2938  001576  0100               	movlb	0	; () banked
  2939  001578  2167               	addwfc	(??_display_rpm+1)& (0+255),w,b
  2940  00157A  6E20               	movwf	wr16@addr+1,c
  2941  00157C  0E10               	movlw	16
  2942  00157E  0100               	movlb	0	; () banked
  2943  001580  2168               	addwfc	(??_display_rpm+2)& (0+255),w,b
  2944  001582  6E21               	movwf	wr16@addr+2,c
  2945  001584  0E00               	movlw	0
  2946  001586  6E23               	movwf	wr16@value+1,c
  2947  001588  0E0A               	movlw	10
  2948  00158A  6E22               	movwf	wr16@value,c
  2949  00158C  EC31  F03A         	call	_wr16	;wreg free
  2950  001590  0E02               	movlw	2
  2951  001592  ECA2  F03A         	call	_cmd_incrementn
  2952  001596                     l732:
  2953                           
  2954                           ;display.c: 170: }
  2955                           ;display.c: 172: cmd(((4UL<<24)|(((255)&255UL)<<16)|(((255)&255UL)<<8)|(((255)&255UL)<<0
      +                          )));
  2956  001596  0EFF               	movlw	255
  2957  001598  0100               	movlb	0	; () banked
  2958  00159A  6F60               	movwf	cmd@command& (0+255),b
  2959  00159C  0EFF               	movlw	255
  2960  00159E  6F61               	movwf	(cmd@command+1)& (0+255),b
  2961  0015A0  0EFF               	movlw	255
  2962  0015A2  6F62               	movwf	(cmd@command+2)& (0+255),b
  2963  0015A4  0E04               	movlw	4
  2964  0015A6  6F63               	movwf	(cmd@command+3)& (0+255),b
  2965  0015A8  EC4F  F03A         	call	_cmd	;wreg free
  2966                           
  2967                           ;display.c: 173: cmd(4294967086UL);wr16(1081344UL+cmd_offset, 237);cmd_incrementn(2);wr1
      +                          6(1081344UL+cmd_offset, 89);cmd_incrementn(2);wr16(1081344UL+cmd_offset, 31);cmd_increme
      +                          ntn(2);wr16(1081344UL+cmd_offset, 2048UL);cmd_incrementn(2);cmd(first_digit);
  2968  0015AC  0E2E               	movlw	46
  2969  0015AE  0100               	movlb	0	; () banked
  2970  0015B0  6F60               	movwf	cmd@command& (0+255),b
  2971  0015B2  0EFF               	movlw	255
  2972  0015B4  6F61               	movwf	(cmd@command+1)& (0+255),b
  2973  0015B6  0EFF               	movlw	255
  2974  0015B8  6F62               	movwf	(cmd@command+2)& (0+255),b
  2975  0015BA  0EFF               	movlw	255
  2976  0015BC  6F63               	movwf	(cmd@command+3)& (0+255),b
  2977  0015BE  EC4F  F03A         	call	_cmd	;wreg free
  2978  0015C2  C03E  F066         	movff	_cmd_offset,??_display_rpm
  2979  0015C6  C03F  F067         	movff	_cmd_offset+1,??_display_rpm+1
  2980  0015CA  0100               	movlb	0	; () banked
  2981  0015CC  6B68               	clrf	(??_display_rpm+2)& (0+255),b
  2982  0015CE  0E00               	movlw	0
  2983  0015D0  0100               	movlb	0	; () banked
  2984  0015D2  2566               	addwf	??_display_rpm& (0+255),w,b
  2985  0015D4  6E1F               	movwf	wr16@addr,c
  2986  0015D6  0E80               	movlw	128
  2987  0015D8  0100               	movlb	0	; () banked
  2988  0015DA  2167               	addwfc	(??_display_rpm+1)& (0+255),w,b
  2989  0015DC  6E20               	movwf	wr16@addr+1,c
  2990  0015DE  0E10               	movlw	16
  2991  0015E0  0100               	movlb	0	; () banked
  2992  0015E2  2168               	addwfc	(??_display_rpm+2)& (0+255),w,b
  2993  0015E4  6E21               	movwf	wr16@addr+2,c
  2994  0015E6  0E00               	movlw	0
  2995  0015E8  6E23               	movwf	wr16@value+1,c
  2996  0015EA  0EED               	movlw	237
  2997  0015EC  6E22               	movwf	wr16@value,c
  2998  0015EE  EC31  F03A         	call	_wr16	;wreg free
  2999  0015F2  0E02               	movlw	2
  3000  0015F4  ECA2  F03A         	call	_cmd_incrementn
  3001  0015F8  C03E  F066         	movff	_cmd_offset,??_display_rpm
  3002  0015FC  C03F  F067         	movff	_cmd_offset+1,??_display_rpm+1
  3003  001600  0100               	movlb	0	; () banked
  3004  001602  6B68               	clrf	(??_display_rpm+2)& (0+255),b
  3005  001604  0E00               	movlw	0
  3006  001606  0100               	movlb	0	; () banked
  3007  001608  2566               	addwf	??_display_rpm& (0+255),w,b
  3008  00160A  6E1F               	movwf	wr16@addr,c
  3009  00160C  0E80               	movlw	128
  3010  00160E  0100               	movlb	0	; () banked
  3011  001610  2167               	addwfc	(??_display_rpm+1)& (0+255),w,b
  3012  001612  6E20               	movwf	wr16@addr+1,c
  3013  001614  0E10               	movlw	16
  3014  001616  0100               	movlb	0	; () banked
  3015  001618  2168               	addwfc	(??_display_rpm+2)& (0+255),w,b
  3016  00161A  6E21               	movwf	wr16@addr+2,c
  3017  00161C  0E00               	movlw	0
  3018  00161E  6E23               	movwf	wr16@value+1,c
  3019  001620  0E59               	movlw	89
  3020  001622  6E22               	movwf	wr16@value,c
  3021  001624  EC31  F03A         	call	_wr16	;wreg free
  3022  001628  0E02               	movlw	2
  3023  00162A  ECA2  F03A         	call	_cmd_incrementn
  3024  00162E  C03E  F066         	movff	_cmd_offset,??_display_rpm
  3025  001632  C03F  F067         	movff	_cmd_offset+1,??_display_rpm+1
  3026  001636  0100               	movlb	0	; () banked
  3027  001638  6B68               	clrf	(??_display_rpm+2)& (0+255),b
  3028  00163A  0E00               	movlw	0
  3029  00163C  0100               	movlb	0	; () banked
  3030  00163E  2566               	addwf	??_display_rpm& (0+255),w,b
  3031  001640  6E1F               	movwf	wr16@addr,c
  3032  001642  0E80               	movlw	128
  3033  001644  0100               	movlb	0	; () banked
  3034  001646  2167               	addwfc	(??_display_rpm+1)& (0+255),w,b
  3035  001648  6E20               	movwf	wr16@addr+1,c
  3036  00164A  0E10               	movlw	16
  3037  00164C  0100               	movlb	0	; () banked
  3038  00164E  2168               	addwfc	(??_display_rpm+2)& (0+255),w,b
  3039  001650  6E21               	movwf	wr16@addr+2,c
  3040  001652  0E00               	movlw	0
  3041  001654  6E23               	movwf	wr16@value+1,c
  3042  001656  0E1F               	movlw	31
  3043  001658  6E22               	movwf	wr16@value,c
  3044  00165A  EC31  F03A         	call	_wr16	;wreg free
  3045  00165E  0E02               	movlw	2
  3046  001660  ECA2  F03A         	call	_cmd_incrementn
  3047  001664  C03E  F066         	movff	_cmd_offset,??_display_rpm
  3048  001668  C03F  F067         	movff	_cmd_offset+1,??_display_rpm+1
  3049  00166C  0100               	movlb	0	; () banked
  3050  00166E  6B68               	clrf	(??_display_rpm+2)& (0+255),b
  3051  001670  0E00               	movlw	0
  3052  001672  0100               	movlb	0	; () banked
  3053  001674  2566               	addwf	??_display_rpm& (0+255),w,b
  3054  001676  6E1F               	movwf	wr16@addr,c
  3055  001678  0E80               	movlw	128
  3056  00167A  0100               	movlb	0	; () banked
  3057  00167C  2167               	addwfc	(??_display_rpm+1)& (0+255),w,b
  3058  00167E  6E20               	movwf	wr16@addr+1,c
  3059  001680  0E10               	movlw	16
  3060  001682  0100               	movlb	0	; () banked
  3061  001684  2168               	addwfc	(??_display_rpm+2)& (0+255),w,b
  3062  001686  6E21               	movwf	wr16@addr+2,c
  3063  001688  0E08               	movlw	8
  3064  00168A  6E23               	movwf	wr16@value+1,c
  3065  00168C  0E00               	movlw	0
  3066  00168E  6E22               	movwf	wr16@value,c
  3067  001690  EC31  F03A         	call	_wr16	;wreg free
  3068  001694  0E02               	movlw	2
  3069  001696  ECA2  F03A         	call	_cmd_incrementn
  3070  00169A  C06B  F060         	movff	display_rpm@first_digit,cmd@command
  3071  00169E  C06C  F061         	movff	display_rpm@first_digit+1,cmd@command+1
  3072  0016A2  0100               	movlb	0	; () banked
  3073  0016A4  0E00               	movlw	0
  3074  0016A6  BF61               	btfsc	(cmd@command+1)& (0+255),7,b
  3075  0016A8  0EFF               	movlw	-1
  3076  0016AA  6F62               	movwf	(cmd@command+2)& (0+255),b
  3077  0016AC  6F63               	movwf	(cmd@command+3)& (0+255),b
  3078  0016AE  EC4F  F03A         	call	_cmd	;wreg free
  3079                           
  3080                           ;display.c: 174: cmd(4294967086UL);wr16(1081344UL+cmd_offset, 243);cmd_incrementn(2);wr1
      +                          6(1081344UL+cmd_offset, 89);cmd_incrementn(2);wr16(1081344UL+cmd_offset, 31);cmd_increme
      +                          ntn(2);wr16(1081344UL+cmd_offset, 0);cmd_incrementn(2);cmd(second_digit);
  3081  0016B2  0E2E               	movlw	46
  3082  0016B4  0100               	movlb	0	; () banked
  3083  0016B6  6F60               	movwf	cmd@command& (0+255),b
  3084  0016B8  0EFF               	movlw	255
  3085  0016BA  6F61               	movwf	(cmd@command+1)& (0+255),b
  3086  0016BC  0EFF               	movlw	255
  3087  0016BE  6F62               	movwf	(cmd@command+2)& (0+255),b
  3088  0016C0  0EFF               	movlw	255
  3089  0016C2  6F63               	movwf	(cmd@command+3)& (0+255),b
  3090  0016C4  EC4F  F03A         	call	_cmd	;wreg free
  3091  0016C8  C03E  F066         	movff	_cmd_offset,??_display_rpm
  3092  0016CC  C03F  F067         	movff	_cmd_offset+1,??_display_rpm+1
  3093  0016D0  0100               	movlb	0	; () banked
  3094  0016D2  6B68               	clrf	(??_display_rpm+2)& (0+255),b
  3095  0016D4  0E00               	movlw	0
  3096  0016D6  0100               	movlb	0	; () banked
  3097  0016D8  2566               	addwf	??_display_rpm& (0+255),w,b
  3098  0016DA  6E1F               	movwf	wr16@addr,c
  3099  0016DC  0E80               	movlw	128
  3100  0016DE  0100               	movlb	0	; () banked
  3101  0016E0  2167               	addwfc	(??_display_rpm+1)& (0+255),w,b
  3102  0016E2  6E20               	movwf	wr16@addr+1,c
  3103  0016E4  0E10               	movlw	16
  3104  0016E6  0100               	movlb	0	; () banked
  3105  0016E8  2168               	addwfc	(??_display_rpm+2)& (0+255),w,b
  3106  0016EA  6E21               	movwf	wr16@addr+2,c
  3107  0016EC  0E00               	movlw	0
  3108  0016EE  6E23               	movwf	wr16@value+1,c
  3109  0016F0  0EF3               	movlw	243
  3110  0016F2  6E22               	movwf	wr16@value,c
  3111  0016F4  EC31  F03A         	call	_wr16	;wreg free
  3112  0016F8  0E02               	movlw	2
  3113  0016FA  ECA2  F03A         	call	_cmd_incrementn
  3114  0016FE  C03E  F066         	movff	_cmd_offset,??_display_rpm
  3115  001702  C03F  F067         	movff	_cmd_offset+1,??_display_rpm+1
  3116  001706  0100               	movlb	0	; () banked
  3117  001708  6B68               	clrf	(??_display_rpm+2)& (0+255),b
  3118  00170A  0E00               	movlw	0
  3119  00170C  0100               	movlb	0	; () banked
  3120  00170E  2566               	addwf	??_display_rpm& (0+255),w,b
  3121  001710  6E1F               	movwf	wr16@addr,c
  3122  001712  0E80               	movlw	128
  3123  001714  0100               	movlb	0	; () banked
  3124  001716  2167               	addwfc	(??_display_rpm+1)& (0+255),w,b
  3125  001718  6E20               	movwf	wr16@addr+1,c
  3126  00171A  0E10               	movlw	16
  3127  00171C  0100               	movlb	0	; () banked
  3128  00171E  2168               	addwfc	(??_display_rpm+2)& (0+255),w,b
  3129  001720  6E21               	movwf	wr16@addr+2,c
  3130  001722  0E00               	movlw	0
  3131  001724  6E23               	movwf	wr16@value+1,c
  3132  001726  0E59               	movlw	89
  3133  001728  6E22               	movwf	wr16@value,c
  3134  00172A  EC31  F03A         	call	_wr16	;wreg free
  3135  00172E  0E02               	movlw	2
  3136  001730  ECA2  F03A         	call	_cmd_incrementn
  3137  001734  C03E  F066         	movff	_cmd_offset,??_display_rpm
  3138  001738  C03F  F067         	movff	_cmd_offset+1,??_display_rpm+1
  3139  00173C  0100               	movlb	0	; () banked
  3140  00173E  6B68               	clrf	(??_display_rpm+2)& (0+255),b
  3141  001740  0E00               	movlw	0
  3142  001742  0100               	movlb	0	; () banked
  3143  001744  2566               	addwf	??_display_rpm& (0+255),w,b
  3144  001746  6E1F               	movwf	wr16@addr,c
  3145  001748  0E80               	movlw	128
  3146  00174A  0100               	movlb	0	; () banked
  3147  00174C  2167               	addwfc	(??_display_rpm+1)& (0+255),w,b
  3148  00174E  6E20               	movwf	wr16@addr+1,c
  3149  001750  0E10               	movlw	16
  3150  001752  0100               	movlb	0	; () banked
  3151  001754  2168               	addwfc	(??_display_rpm+2)& (0+255),w,b
  3152  001756  6E21               	movwf	wr16@addr+2,c
  3153  001758  0E00               	movlw	0
  3154  00175A  6E23               	movwf	wr16@value+1,c
  3155  00175C  0E1F               	movlw	31
  3156  00175E  6E22               	movwf	wr16@value,c
  3157  001760  EC31  F03A         	call	_wr16	;wreg free
  3158  001764  0E02               	movlw	2
  3159  001766  ECA2  F03A         	call	_cmd_incrementn
  3160  00176A  C03E  F066         	movff	_cmd_offset,??_display_rpm
  3161  00176E  C03F  F067         	movff	_cmd_offset+1,??_display_rpm+1
  3162  001772  0100               	movlb	0	; () banked
  3163  001774  6B68               	clrf	(??_display_rpm+2)& (0+255),b
  3164  001776  0E00               	movlw	0
  3165  001778  0100               	movlb	0	; () banked
  3166  00177A  2566               	addwf	??_display_rpm& (0+255),w,b
  3167  00177C  6E1F               	movwf	wr16@addr,c
  3168  00177E  0E80               	movlw	128
  3169  001780  0100               	movlb	0	; () banked
  3170  001782  2167               	addwfc	(??_display_rpm+1)& (0+255),w,b
  3171  001784  6E20               	movwf	wr16@addr+1,c
  3172  001786  0E10               	movlw	16
  3173  001788  0100               	movlb	0	; () banked
  3174  00178A  2168               	addwfc	(??_display_rpm+2)& (0+255),w,b
  3175  00178C  6E21               	movwf	wr16@addr+2,c
  3176  00178E  0E00               	movlw	0
  3177  001790  6E23               	movwf	wr16@value+1,c
  3178  001792  0E00               	movlw	0
  3179  001794  6E22               	movwf	wr16@value,c
  3180  001796  EC31  F03A         	call	_wr16	;wreg free
  3181  00179A  0E02               	movlw	2
  3182  00179C  ECA2  F03A         	call	_cmd_incrementn
  3183  0017A0  C069  F060         	movff	display_rpm@second_digit,cmd@command
  3184  0017A4  C06A  F061         	movff	display_rpm@second_digit+1,cmd@command+1
  3185  0017A8  0100               	movlb	0	; () banked
  3186  0017AA  0E00               	movlw	0
  3187  0017AC  BF61               	btfsc	(cmd@command+1)& (0+255),7,b
  3188  0017AE  0EFF               	movlw	-1
  3189  0017B0  6F62               	movwf	(cmd@command+2)& (0+255),b
  3190  0017B2  6F63               	movwf	(cmd@command+3)& (0+255),b
  3191  0017B4  EC4F  F03A         	call	_cmd	;wreg free
  3192                           
  3193                           ;display.c: 176: cmd(4294967052UL);wr16(1081344UL+cmd_offset, 183);cmd_incrementn(2);wr1
      +                          6(1081344UL+cmd_offset, 161);cmd_incrementn(2);wr16(1081344UL+cmd_offset, 28);cmd_increm
      +                          entn(2);wr16(1081344UL+cmd_offset, 0);cmd_incrementn(2);cmd_incrementn(wr8s(1081344UL+cm
      +                          d_o
  3194  0017B8  0E0C               	movlw	12
  3195  0017BA  0100               	movlb	0	; () banked
  3196  0017BC  6F60               	movwf	cmd@command& (0+255),b
  3197  0017BE  0EFF               	movlw	255
  3198  0017C0  6F61               	movwf	(cmd@command+1)& (0+255),b
  3199  0017C2  0EFF               	movlw	255
  3200  0017C4  6F62               	movwf	(cmd@command+2)& (0+255),b
  3201  0017C6  0EFF               	movlw	255
  3202  0017C8  6F63               	movwf	(cmd@command+3)& (0+255),b
  3203  0017CA  EC4F  F03A         	call	_cmd	;wreg free
  3204  0017CE  C03E  F066         	movff	_cmd_offset,??_display_rpm
  3205  0017D2  C03F  F067         	movff	_cmd_offset+1,??_display_rpm+1
  3206  0017D6  0100               	movlb	0	; () banked
  3207  0017D8  6B68               	clrf	(??_display_rpm+2)& (0+255),b
  3208  0017DA  0E00               	movlw	0
  3209  0017DC  0100               	movlb	0	; () banked
  3210  0017DE  2566               	addwf	??_display_rpm& (0+255),w,b
  3211  0017E0  6E1F               	movwf	wr16@addr,c
  3212  0017E2  0E80               	movlw	128
  3213  0017E4  0100               	movlb	0	; () banked
  3214  0017E6  2167               	addwfc	(??_display_rpm+1)& (0+255),w,b
  3215  0017E8  6E20               	movwf	wr16@addr+1,c
  3216  0017EA  0E10               	movlw	16
  3217  0017EC  0100               	movlb	0	; () banked
  3218  0017EE  2168               	addwfc	(??_display_rpm+2)& (0+255),w,b
  3219  0017F0  6E21               	movwf	wr16@addr+2,c
  3220  0017F2  0E00               	movlw	0
  3221  0017F4  6E23               	movwf	wr16@value+1,c
  3222  0017F6  0EB7               	movlw	183
  3223  0017F8  6E22               	movwf	wr16@value,c
  3224  0017FA  EC31  F03A         	call	_wr16	;wreg free
  3225  0017FE  0E02               	movlw	2
  3226  001800  ECA2  F03A         	call	_cmd_incrementn
  3227  001804  C03E  F066         	movff	_cmd_offset,??_display_rpm
  3228  001808  C03F  F067         	movff	_cmd_offset+1,??_display_rpm+1
  3229  00180C  0100               	movlb	0	; () banked
  3230  00180E  6B68               	clrf	(??_display_rpm+2)& (0+255),b
  3231  001810  0E00               	movlw	0
  3232  001812  0100               	movlb	0	; () banked
  3233  001814  2566               	addwf	??_display_rpm& (0+255),w,b
  3234  001816  6E1F               	movwf	wr16@addr,c
  3235  001818  0E80               	movlw	128
  3236  00181A  0100               	movlb	0	; () banked
  3237  00181C  2167               	addwfc	(??_display_rpm+1)& (0+255),w,b
  3238  00181E  6E20               	movwf	wr16@addr+1,c
  3239  001820  0E10               	movlw	16
  3240  001822  0100               	movlb	0	; () banked
  3241  001824  2168               	addwfc	(??_display_rpm+2)& (0+255),w,b
  3242  001826  6E21               	movwf	wr16@addr+2,c
  3243  001828  0E00               	movlw	0
  3244  00182A  6E23               	movwf	wr16@value+1,c
  3245  00182C  0EA1               	movlw	161
  3246  00182E  6E22               	movwf	wr16@value,c
  3247  001830  EC31  F03A         	call	_wr16	;wreg free
  3248  001834  0E02               	movlw	2
  3249  001836  ECA2  F03A         	call	_cmd_incrementn
  3250  00183A  C03E  F066         	movff	_cmd_offset,??_display_rpm
  3251  00183E  C03F  F067         	movff	_cmd_offset+1,??_display_rpm+1
  3252  001842  0100               	movlb	0	; () banked
  3253  001844  6B68               	clrf	(??_display_rpm+2)& (0+255),b
  3254  001846  0E00               	movlw	0
  3255  001848  0100               	movlb	0	; () banked
  3256  00184A  2566               	addwf	??_display_rpm& (0+255),w,b
  3257  00184C  6E1F               	movwf	wr16@addr,c
  3258  00184E  0E80               	movlw	128
  3259  001850  0100               	movlb	0	; () banked
  3260  001852  2167               	addwfc	(??_display_rpm+1)& (0+255),w,b
  3261  001854  6E20               	movwf	wr16@addr+1,c
  3262  001856  0E10               	movlw	16
  3263  001858  0100               	movlb	0	; () banked
  3264  00185A  2168               	addwfc	(??_display_rpm+2)& (0+255),w,b
  3265  00185C  6E21               	movwf	wr16@addr+2,c
  3266  00185E  0E00               	movlw	0
  3267  001860  6E23               	movwf	wr16@value+1,c
  3268  001862  0E1C               	movlw	28
  3269  001864  6E22               	movwf	wr16@value,c
  3270  001866  EC31  F03A         	call	_wr16	;wreg free
  3271  00186A  0E02               	movlw	2
  3272  00186C  ECA2  F03A         	call	_cmd_incrementn
  3273  001870  C03E  F066         	movff	_cmd_offset,??_display_rpm
  3274  001874  C03F  F067         	movff	_cmd_offset+1,??_display_rpm+1
  3275  001878  0100               	movlb	0	; () banked
  3276  00187A  6B68               	clrf	(??_display_rpm+2)& (0+255),b
  3277  00187C  0E00               	movlw	0
  3278  00187E  0100               	movlb	0	; () banked
  3279  001880  2566               	addwf	??_display_rpm& (0+255),w,b
  3280  001882  6E1F               	movwf	wr16@addr,c
  3281  001884  0E80               	movlw	128
  3282  001886  0100               	movlb	0	; () banked
  3283  001888  2167               	addwfc	(??_display_rpm+1)& (0+255),w,b
  3284  00188A  6E20               	movwf	wr16@addr+1,c
  3285  00188C  0E10               	movlw	16
  3286  00188E  0100               	movlb	0	; () banked
  3287  001890  2168               	addwfc	(??_display_rpm+2)& (0+255),w,b
  3288  001892  6E21               	movwf	wr16@addr+2,c
  3289  001894  0E00               	movlw	0
  3290  001896  6E23               	movwf	wr16@value+1,c
  3291  001898  0E00               	movlw	0
  3292  00189A  6E22               	movwf	wr16@value,c
  3293  00189C  EC31  F03A         	call	_wr16	;wreg free
  3294  0018A0  0E02               	movlw	2
  3295  0018A2  ECA2  F03A         	call	_cmd_incrementn
  3296  0018A6  C03E  F066         	movff	_cmd_offset,??_display_rpm
  3297  0018AA  C03F  F067         	movff	_cmd_offset+1,??_display_rpm+1
  3298  0018AE  0100               	movlb	0	; () banked
  3299  0018B0  6B68               	clrf	(??_display_rpm+2)& (0+255),b
  3300  0018B2  0E00               	movlw	0
  3301  0018B4  0100               	movlb	0	; () banked
  3302  0018B6  2566               	addwf	??_display_rpm& (0+255),w,b
  3303  0018B8  6E24               	movwf	wr8s@addr,c
  3304  0018BA  0E80               	movlw	128
  3305  0018BC  0100               	movlb	0	; () banked
  3306  0018BE  2167               	addwfc	(??_display_rpm+1)& (0+255),w,b
  3307  0018C0  6E25               	movwf	wr8s@addr+1,c
  3308  0018C2  0E10               	movlw	16
  3309  0018C4  0100               	movlb	0	; () banked
  3310  0018C6  2168               	addwfc	(??_display_rpm+2)& (0+255),w,b
  3311  0018C8  6E26               	movwf	wr8s@addr+2,c
  3312  0018CA  0E63               	movlw	low (STR_38+1)
  3313  0018CC  6E27               	movwf	wr8s@s,c
  3314  0018CE  0E0F               	movlw	high (STR_38+1)
  3315  0018D0  6E28               	movwf	wr8s@s+1,c
  3316  0018D2  EC04  F038         	call	_wr8s	;wreg free
  3317  0018D6  ECA2  F03A         	call	_cmd_incrementn
  3318                           
  3319                           ;display.c: 177: cmd(4294967052UL);wr16(1081344UL+cmd_offset, 160);cmd_incrementn(2);wr1
      +                          6(1081344UL+cmd_offset, 130);cmd_incrementn(2);wr16(1081344UL+cmd_offset, 28);cmd_increm
      +                          entn(2);wr16(1081344UL+cmd_offset, 0);cmd_incrementn(2);cmd_incrementn(wr8s(1081344UL+cm
      +                          d_o
  3320  0018DA  0E0C               	movlw	12
  3321  0018DC  0100               	movlb	0	; () banked
  3322  0018DE  6F60               	movwf	cmd@command& (0+255),b
  3323  0018E0  0EFF               	movlw	255
  3324  0018E2  6F61               	movwf	(cmd@command+1)& (0+255),b
  3325  0018E4  0EFF               	movlw	255
  3326  0018E6  6F62               	movwf	(cmd@command+2)& (0+255),b
  3327  0018E8  0EFF               	movlw	255
  3328  0018EA  6F63               	movwf	(cmd@command+3)& (0+255),b
  3329  0018EC  EC4F  F03A         	call	_cmd	;wreg free
  3330  0018F0  C03E  F066         	movff	_cmd_offset,??_display_rpm
  3331  0018F4  C03F  F067         	movff	_cmd_offset+1,??_display_rpm+1
  3332  0018F8  0100               	movlb	0	; () banked
  3333  0018FA  6B68               	clrf	(??_display_rpm+2)& (0+255),b
  3334  0018FC  0E00               	movlw	0
  3335  0018FE  0100               	movlb	0	; () banked
  3336  001900  2566               	addwf	??_display_rpm& (0+255),w,b
  3337  001902  6E1F               	movwf	wr16@addr,c
  3338  001904  0E80               	movlw	128
  3339  001906  0100               	movlb	0	; () banked
  3340  001908  2167               	addwfc	(??_display_rpm+1)& (0+255),w,b
  3341  00190A  6E20               	movwf	wr16@addr+1,c
  3342  00190C  0E10               	movlw	16
  3343  00190E  0100               	movlb	0	; () banked
  3344  001910  2168               	addwfc	(??_display_rpm+2)& (0+255),w,b
  3345  001912  6E21               	movwf	wr16@addr+2,c
  3346  001914  0E00               	movlw	0
  3347  001916  6E23               	movwf	wr16@value+1,c
  3348  001918  0EA0               	movlw	160
  3349  00191A  6E22               	movwf	wr16@value,c
  3350  00191C  EC31  F03A         	call	_wr16	;wreg free
  3351  001920  0E02               	movlw	2
  3352  001922  ECA2  F03A         	call	_cmd_incrementn
  3353  001926  C03E  F066         	movff	_cmd_offset,??_display_rpm
  3354  00192A  C03F  F067         	movff	_cmd_offset+1,??_display_rpm+1
  3355  00192E  0100               	movlb	0	; () banked
  3356  001930  6B68               	clrf	(??_display_rpm+2)& (0+255),b
  3357  001932  0E00               	movlw	0
  3358  001934  0100               	movlb	0	; () banked
  3359  001936  2566               	addwf	??_display_rpm& (0+255),w,b
  3360  001938  6E1F               	movwf	wr16@addr,c
  3361  00193A  0E80               	movlw	128
  3362  00193C  0100               	movlb	0	; () banked
  3363  00193E  2167               	addwfc	(??_display_rpm+1)& (0+255),w,b
  3364  001940  6E20               	movwf	wr16@addr+1,c
  3365  001942  0E10               	movlw	16
  3366  001944  0100               	movlb	0	; () banked
  3367  001946  2168               	addwfc	(??_display_rpm+2)& (0+255),w,b
  3368  001948  6E21               	movwf	wr16@addr+2,c
  3369  00194A  0E00               	movlw	0
  3370  00194C  6E23               	movwf	wr16@value+1,c
  3371  00194E  0E82               	movlw	130
  3372  001950  6E22               	movwf	wr16@value,c
  3373  001952  EC31  F03A         	call	_wr16	;wreg free
  3374  001956  0E02               	movlw	2
  3375  001958  ECA2  F03A         	call	_cmd_incrementn
  3376  00195C  C03E  F066         	movff	_cmd_offset,??_display_rpm
  3377  001960  C03F  F067         	movff	_cmd_offset+1,??_display_rpm+1
  3378  001964  0100               	movlb	0	; () banked
  3379  001966  6B68               	clrf	(??_display_rpm+2)& (0+255),b
  3380  001968  0E00               	movlw	0
  3381  00196A  0100               	movlb	0	; () banked
  3382  00196C  2566               	addwf	??_display_rpm& (0+255),w,b
  3383  00196E  6E1F               	movwf	wr16@addr,c
  3384  001970  0E80               	movlw	128
  3385  001972  0100               	movlb	0	; () banked
  3386  001974  2167               	addwfc	(??_display_rpm+1)& (0+255),w,b
  3387  001976  6E20               	movwf	wr16@addr+1,c
  3388  001978  0E10               	movlw	16
  3389  00197A  0100               	movlb	0	; () banked
  3390  00197C  2168               	addwfc	(??_display_rpm+2)& (0+255),w,b
  3391  00197E  6E21               	movwf	wr16@addr+2,c
  3392  001980  0E00               	movlw	0
  3393  001982  6E23               	movwf	wr16@value+1,c
  3394  001984  0E1C               	movlw	28
  3395  001986  6E22               	movwf	wr16@value,c
  3396  001988  EC31  F03A         	call	_wr16	;wreg free
  3397  00198C  0E02               	movlw	2
  3398  00198E  ECA2  F03A         	call	_cmd_incrementn
  3399  001992  C03E  F066         	movff	_cmd_offset,??_display_rpm
  3400  001996  C03F  F067         	movff	_cmd_offset+1,??_display_rpm+1
  3401  00199A  0100               	movlb	0	; () banked
  3402  00199C  6B68               	clrf	(??_display_rpm+2)& (0+255),b
  3403  00199E  0E00               	movlw	0
  3404  0019A0  0100               	movlb	0	; () banked
  3405  0019A2  2566               	addwf	??_display_rpm& (0+255),w,b
  3406  0019A4  6E1F               	movwf	wr16@addr,c
  3407  0019A6  0E80               	movlw	128
  3408  0019A8  0100               	movlb	0	; () banked
  3409  0019AA  2167               	addwfc	(??_display_rpm+1)& (0+255),w,b
  3410  0019AC  6E20               	movwf	wr16@addr+1,c
  3411  0019AE  0E10               	movlw	16
  3412  0019B0  0100               	movlb	0	; () banked
  3413  0019B2  2168               	addwfc	(??_display_rpm+2)& (0+255),w,b
  3414  0019B4  6E21               	movwf	wr16@addr+2,c
  3415  0019B6  0E00               	movlw	0
  3416  0019B8  6E23               	movwf	wr16@value+1,c
  3417  0019BA  0E00               	movlw	0
  3418  0019BC  6E22               	movwf	wr16@value,c
  3419  0019BE  EC31  F03A         	call	_wr16	;wreg free
  3420  0019C2  0E02               	movlw	2
  3421  0019C4  ECA2  F03A         	call	_cmd_incrementn
  3422  0019C8  C03E  F066         	movff	_cmd_offset,??_display_rpm
  3423  0019CC  C03F  F067         	movff	_cmd_offset+1,??_display_rpm+1
  3424  0019D0  0100               	movlb	0	; () banked
  3425  0019D2  6B68               	clrf	(??_display_rpm+2)& (0+255),b
  3426  0019D4  0E00               	movlw	0
  3427  0019D6  0100               	movlb	0	; () banked
  3428  0019D8  2566               	addwf	??_display_rpm& (0+255),w,b
  3429  0019DA  6E24               	movwf	wr8s@addr,c
  3430  0019DC  0E80               	movlw	128
  3431  0019DE  0100               	movlb	0	; () banked
  3432  0019E0  2167               	addwfc	(??_display_rpm+1)& (0+255),w,b
  3433  0019E2  6E25               	movwf	wr8s@addr+1,c
  3434  0019E4  0E10               	movlw	16
  3435  0019E6  0100               	movlb	0	; () banked
  3436  0019E8  2168               	addwfc	(??_display_rpm+2)& (0+255),w,b
  3437  0019EA  6E26               	movwf	wr8s@addr+2,c
  3438  0019EC  0E6C               	movlw	low STR_29
  3439  0019EE  6E27               	movwf	wr8s@s,c
  3440  0019F0  0E0F               	movlw	high STR_29
  3441  0019F2  6E28               	movwf	wr8s@s+1,c
  3442  0019F4  EC04  F038         	call	_wr8s	;wreg free
  3443  0019F8  ECA2  F03A         	call	_cmd_incrementn
  3444                           
  3445                           ;display.c: 178: cmd(4294967052UL);wr16(1081344UL+cmd_offset, 155);cmd_incrementn(2);wr1
      +                          6(1081344UL+cmd_offset, 92);cmd_incrementn(2);wr16(1081344UL+cmd_offset, 28);cmd_increme
      +                          ntn(2);wr16(1081344UL+cmd_offset, 0);cmd_incrementn(2);cmd_incrementn(wr8s(1081344UL+cmd
      +                          _of
  3446  0019FC  0E0C               	movlw	12
  3447  0019FE  0100               	movlb	0	; () banked
  3448  001A00  6F60               	movwf	cmd@command& (0+255),b
  3449  001A02  0EFF               	movlw	255
  3450  001A04  6F61               	movwf	(cmd@command+1)& (0+255),b
  3451  001A06  0EFF               	movlw	255
  3452  001A08  6F62               	movwf	(cmd@command+2)& (0+255),b
  3453  001A0A  0EFF               	movlw	255
  3454  001A0C  6F63               	movwf	(cmd@command+3)& (0+255),b
  3455  001A0E  EC4F  F03A         	call	_cmd	;wreg free
  3456  001A12  C03E  F066         	movff	_cmd_offset,??_display_rpm
  3457  001A16  C03F  F067         	movff	_cmd_offset+1,??_display_rpm+1
  3458  001A1A  0100               	movlb	0	; () banked
  3459  001A1C  6B68               	clrf	(??_display_rpm+2)& (0+255),b
  3460  001A1E  0E00               	movlw	0
  3461  001A20  0100               	movlb	0	; () banked
  3462  001A22  2566               	addwf	??_display_rpm& (0+255),w,b
  3463  001A24  6E1F               	movwf	wr16@addr,c
  3464  001A26  0E80               	movlw	128
  3465  001A28  0100               	movlb	0	; () banked
  3466  001A2A  2167               	addwfc	(??_display_rpm+1)& (0+255),w,b
  3467  001A2C  6E20               	movwf	wr16@addr+1,c
  3468  001A2E  0E10               	movlw	16
  3469  001A30  0100               	movlb	0	; () banked
  3470  001A32  2168               	addwfc	(??_display_rpm+2)& (0+255),w,b
  3471  001A34  6E21               	movwf	wr16@addr+2,c
  3472  001A36  0E00               	movlw	0
  3473  001A38  6E23               	movwf	wr16@value+1,c
  3474  001A3A  0E9B               	movlw	155
  3475  001A3C  6E22               	movwf	wr16@value,c
  3476  001A3E  EC31  F03A         	call	_wr16	;wreg free
  3477  001A42  0E02               	movlw	2
  3478  001A44  ECA2  F03A         	call	_cmd_incrementn
  3479  001A48  C03E  F066         	movff	_cmd_offset,??_display_rpm
  3480  001A4C  C03F  F067         	movff	_cmd_offset+1,??_display_rpm+1
  3481  001A50  0100               	movlb	0	; () banked
  3482  001A52  6B68               	clrf	(??_display_rpm+2)& (0+255),b
  3483  001A54  0E00               	movlw	0
  3484  001A56  0100               	movlb	0	; () banked
  3485  001A58  2566               	addwf	??_display_rpm& (0+255),w,b
  3486  001A5A  6E1F               	movwf	wr16@addr,c
  3487  001A5C  0E80               	movlw	128
  3488  001A5E  0100               	movlb	0	; () banked
  3489  001A60  2167               	addwfc	(??_display_rpm+1)& (0+255),w,b
  3490  001A62  6E20               	movwf	wr16@addr+1,c
  3491  001A64  0E10               	movlw	16
  3492  001A66  0100               	movlb	0	; () banked
  3493  001A68  2168               	addwfc	(??_display_rpm+2)& (0+255),w,b
  3494  001A6A  6E21               	movwf	wr16@addr+2,c
  3495  001A6C  0E00               	movlw	0
  3496  001A6E  6E23               	movwf	wr16@value+1,c
  3497  001A70  0E5C               	movlw	92
  3498  001A72  6E22               	movwf	wr16@value,c
  3499  001A74  EC31  F03A         	call	_wr16	;wreg free
  3500  001A78  0E02               	movlw	2
  3501  001A7A  ECA2  F03A         	call	_cmd_incrementn
  3502  001A7E  C03E  F066         	movff	_cmd_offset,??_display_rpm
  3503  001A82  C03F  F067         	movff	_cmd_offset+1,??_display_rpm+1
  3504  001A86  0100               	movlb	0	; () banked
  3505  001A88  6B68               	clrf	(??_display_rpm+2)& (0+255),b
  3506  001A8A  0E00               	movlw	0
  3507  001A8C  0100               	movlb	0	; () banked
  3508  001A8E  2566               	addwf	??_display_rpm& (0+255),w,b
  3509  001A90  6E1F               	movwf	wr16@addr,c
  3510  001A92  0E80               	movlw	128
  3511  001A94  0100               	movlb	0	; () banked
  3512  001A96  2167               	addwfc	(??_display_rpm+1)& (0+255),w,b
  3513  001A98  6E20               	movwf	wr16@addr+1,c
  3514  001A9A  0E10               	movlw	16
  3515  001A9C  0100               	movlb	0	; () banked
  3516  001A9E  2168               	addwfc	(??_display_rpm+2)& (0+255),w,b
  3517  001AA0  6E21               	movwf	wr16@addr+2,c
  3518  001AA2  0E00               	movlw	0
  3519  001AA4  6E23               	movwf	wr16@value+1,c
  3520  001AA6  0E1C               	movlw	28
  3521  001AA8  6E22               	movwf	wr16@value,c
  3522  001AAA  EC31  F03A         	call	_wr16	;wreg free
  3523  001AAE  0E02               	movlw	2
  3524  001AB0  ECA2  F03A         	call	_cmd_incrementn
  3525  001AB4  C03E  F066         	movff	_cmd_offset,??_display_rpm
  3526  001AB8  C03F  F067         	movff	_cmd_offset+1,??_display_rpm+1
  3527  001ABC  0100               	movlb	0	; () banked
  3528  001ABE  6B68               	clrf	(??_display_rpm+2)& (0+255),b
  3529  001AC0  0E00               	movlw	0
  3530  001AC2  0100               	movlb	0	; () banked
  3531  001AC4  2566               	addwf	??_display_rpm& (0+255),w,b
  3532  001AC6  6E1F               	movwf	wr16@addr,c
  3533  001AC8  0E80               	movlw	128
  3534  001ACA  0100               	movlb	0	; () banked
  3535  001ACC  2167               	addwfc	(??_display_rpm+1)& (0+255),w,b
  3536  001ACE  6E20               	movwf	wr16@addr+1,c
  3537  001AD0  0E10               	movlw	16
  3538  001AD2  0100               	movlb	0	; () banked
  3539  001AD4  2168               	addwfc	(??_display_rpm+2)& (0+255),w,b
  3540  001AD6  6E21               	movwf	wr16@addr+2,c
  3541  001AD8  0E00               	movlw	0
  3542  001ADA  6E23               	movwf	wr16@value+1,c
  3543  001ADC  0E00               	movlw	0
  3544  001ADE  6E22               	movwf	wr16@value,c
  3545  001AE0  EC31  F03A         	call	_wr16	;wreg free
  3546  001AE4  0E02               	movlw	2
  3547  001AE6  ECA2  F03A         	call	_cmd_incrementn
  3548  001AEA  C03E  F066         	movff	_cmd_offset,??_display_rpm
  3549  001AEE  C03F  F067         	movff	_cmd_offset+1,??_display_rpm+1
  3550  001AF2  0100               	movlb	0	; () banked
  3551  001AF4  6B68               	clrf	(??_display_rpm+2)& (0+255),b
  3552  001AF6  0E00               	movlw	0
  3553  001AF8  0100               	movlb	0	; () banked
  3554  001AFA  2566               	addwf	??_display_rpm& (0+255),w,b
  3555  001AFC  6E24               	movwf	wr8s@addr,c
  3556  001AFE  0E80               	movlw	128
  3557  001B00  0100               	movlb	0	; () banked
  3558  001B02  2167               	addwfc	(??_display_rpm+1)& (0+255),w,b
  3559  001B04  6E25               	movwf	wr8s@addr+1,c
  3560  001B06  0E10               	movlw	16
  3561  001B08  0100               	movlb	0	; () banked
  3562  001B0A  2168               	addwfc	(??_display_rpm+2)& (0+255),w,b
  3563  001B0C  6E26               	movwf	wr8s@addr+2,c
  3564  001B0E  0E6E               	movlw	low STR_30
  3565  001B10  6E27               	movwf	wr8s@s,c
  3566  001B12  0E0F               	movlw	high STR_30
  3567  001B14  6E28               	movwf	wr8s@s+1,c
  3568  001B16  EC04  F038         	call	_wr8s	;wreg free
  3569  001B1A  ECA2  F03A         	call	_cmd_incrementn
  3570                           
  3571                           ;display.c: 179: cmd(4294967052UL);wr16(1081344UL+cmd_offset, 171);cmd_incrementn(2);wr1
      +                          6(1081344UL+cmd_offset, 58);cmd_incrementn(2);wr16(1081344UL+cmd_offset, 28);cmd_increme
      +                          ntn(2);wr16(1081344UL+cmd_offset, 0);cmd_incrementn(2);cmd_incrementn(wr8s(1081344UL+cmd
      +                          _of
  3572  001B1E  0E0C               	movlw	12
  3573  001B20  0100               	movlb	0	; () banked
  3574  001B22  6F60               	movwf	cmd@command& (0+255),b
  3575  001B24  0EFF               	movlw	255
  3576  001B26  6F61               	movwf	(cmd@command+1)& (0+255),b
  3577  001B28  0EFF               	movlw	255
  3578  001B2A  6F62               	movwf	(cmd@command+2)& (0+255),b
  3579  001B2C  0EFF               	movlw	255
  3580  001B2E  6F63               	movwf	(cmd@command+3)& (0+255),b
  3581  001B30  EC4F  F03A         	call	_cmd	;wreg free
  3582  001B34  C03E  F066         	movff	_cmd_offset,??_display_rpm
  3583  001B38  C03F  F067         	movff	_cmd_offset+1,??_display_rpm+1
  3584  001B3C  0100               	movlb	0	; () banked
  3585  001B3E  6B68               	clrf	(??_display_rpm+2)& (0+255),b
  3586  001B40  0E00               	movlw	0
  3587  001B42  0100               	movlb	0	; () banked
  3588  001B44  2566               	addwf	??_display_rpm& (0+255),w,b
  3589  001B46  6E1F               	movwf	wr16@addr,c
  3590  001B48  0E80               	movlw	128
  3591  001B4A  0100               	movlb	0	; () banked
  3592  001B4C  2167               	addwfc	(??_display_rpm+1)& (0+255),w,b
  3593  001B4E  6E20               	movwf	wr16@addr+1,c
  3594  001B50  0E10               	movlw	16
  3595  001B52  0100               	movlb	0	; () banked
  3596  001B54  2168               	addwfc	(??_display_rpm+2)& (0+255),w,b
  3597  001B56  6E21               	movwf	wr16@addr+2,c
  3598  001B58  0E00               	movlw	0
  3599  001B5A  6E23               	movwf	wr16@value+1,c
  3600  001B5C  0EAB               	movlw	171
  3601  001B5E  6E22               	movwf	wr16@value,c
  3602  001B60  EC31  F03A         	call	_wr16	;wreg free
  3603  001B64  0E02               	movlw	2
  3604  001B66  ECA2  F03A         	call	_cmd_incrementn
  3605  001B6A  C03E  F066         	movff	_cmd_offset,??_display_rpm
  3606  001B6E  C03F  F067         	movff	_cmd_offset+1,??_display_rpm+1
  3607  001B72  0100               	movlb	0	; () banked
  3608  001B74  6B68               	clrf	(??_display_rpm+2)& (0+255),b
  3609  001B76  0E00               	movlw	0
  3610  001B78  0100               	movlb	0	; () banked
  3611  001B7A  2566               	addwf	??_display_rpm& (0+255),w,b
  3612  001B7C  6E1F               	movwf	wr16@addr,c
  3613  001B7E  0E80               	movlw	128
  3614  001B80  0100               	movlb	0	; () banked
  3615  001B82  2167               	addwfc	(??_display_rpm+1)& (0+255),w,b
  3616  001B84  6E20               	movwf	wr16@addr+1,c
  3617  001B86  0E10               	movlw	16
  3618  001B88  0100               	movlb	0	; () banked
  3619  001B8A  2168               	addwfc	(??_display_rpm+2)& (0+255),w,b
  3620  001B8C  6E21               	movwf	wr16@addr+2,c
  3621  001B8E  0E00               	movlw	0
  3622  001B90  6E23               	movwf	wr16@value+1,c
  3623  001B92  0E3A               	movlw	58
  3624  001B94  6E22               	movwf	wr16@value,c
  3625  001B96  EC31  F03A         	call	_wr16	;wreg free
  3626  001B9A  0E02               	movlw	2
  3627  001B9C  ECA2  F03A         	call	_cmd_incrementn
  3628  001BA0  C03E  F066         	movff	_cmd_offset,??_display_rpm
  3629  001BA4  C03F  F067         	movff	_cmd_offset+1,??_display_rpm+1
  3630  001BA8  0100               	movlb	0	; () banked
  3631  001BAA  6B68               	clrf	(??_display_rpm+2)& (0+255),b
  3632  001BAC  0E00               	movlw	0
  3633  001BAE  0100               	movlb	0	; () banked
  3634  001BB0  2566               	addwf	??_display_rpm& (0+255),w,b
  3635  001BB2  6E1F               	movwf	wr16@addr,c
  3636  001BB4  0E80               	movlw	128
  3637  001BB6  0100               	movlb	0	; () banked
  3638  001BB8  2167               	addwfc	(??_display_rpm+1)& (0+255),w,b
  3639  001BBA  6E20               	movwf	wr16@addr+1,c
  3640  001BBC  0E10               	movlw	16
  3641  001BBE  0100               	movlb	0	; () banked
  3642  001BC0  2168               	addwfc	(??_display_rpm+2)& (0+255),w,b
  3643  001BC2  6E21               	movwf	wr16@addr+2,c
  3644  001BC4  0E00               	movlw	0
  3645  001BC6  6E23               	movwf	wr16@value+1,c
  3646  001BC8  0E1C               	movlw	28
  3647  001BCA  6E22               	movwf	wr16@value,c
  3648  001BCC  EC31  F03A         	call	_wr16	;wreg free
  3649  001BD0  0E02               	movlw	2
  3650  001BD2  ECA2  F03A         	call	_cmd_incrementn
  3651  001BD6  C03E  F066         	movff	_cmd_offset,??_display_rpm
  3652  001BDA  C03F  F067         	movff	_cmd_offset+1,??_display_rpm+1
  3653  001BDE  0100               	movlb	0	; () banked
  3654  001BE0  6B68               	clrf	(??_display_rpm+2)& (0+255),b
  3655  001BE2  0E00               	movlw	0
  3656  001BE4  0100               	movlb	0	; () banked
  3657  001BE6  2566               	addwf	??_display_rpm& (0+255),w,b
  3658  001BE8  6E1F               	movwf	wr16@addr,c
  3659  001BEA  0E80               	movlw	128
  3660  001BEC  0100               	movlb	0	; () banked
  3661  001BEE  2167               	addwfc	(??_display_rpm+1)& (0+255),w,b
  3662  001BF0  6E20               	movwf	wr16@addr+1,c
  3663  001BF2  0E10               	movlw	16
  3664  001BF4  0100               	movlb	0	; () banked
  3665  001BF6  2168               	addwfc	(??_display_rpm+2)& (0+255),w,b
  3666  001BF8  6E21               	movwf	wr16@addr+2,c
  3667  001BFA  0E00               	movlw	0
  3668  001BFC  6E23               	movwf	wr16@value+1,c
  3669  001BFE  0E00               	movlw	0
  3670  001C00  6E22               	movwf	wr16@value,c
  3671  001C02  EC31  F03A         	call	_wr16	;wreg free
  3672  001C06  0E02               	movlw	2
  3673  001C08  ECA2  F03A         	call	_cmd_incrementn
  3674  001C0C  C03E  F066         	movff	_cmd_offset,??_display_rpm
  3675  001C10  C03F  F067         	movff	_cmd_offset+1,??_display_rpm+1
  3676  001C14  0100               	movlb	0	; () banked
  3677  001C16  6B68               	clrf	(??_display_rpm+2)& (0+255),b
  3678  001C18  0E00               	movlw	0
  3679  001C1A  0100               	movlb	0	; () banked
  3680  001C1C  2566               	addwf	??_display_rpm& (0+255),w,b
  3681  001C1E  6E24               	movwf	wr8s@addr,c
  3682  001C20  0E80               	movlw	128
  3683  001C22  0100               	movlb	0	; () banked
  3684  001C24  2167               	addwfc	(??_display_rpm+1)& (0+255),w,b
  3685  001C26  6E25               	movwf	wr8s@addr+1,c
  3686  001C28  0E10               	movlw	16
  3687  001C2A  0100               	movlb	0	; () banked
  3688  001C2C  2168               	addwfc	(??_display_rpm+2)& (0+255),w,b
  3689  001C2E  6E26               	movwf	wr8s@addr+2,c
  3690  001C30  0E70               	movlw	low STR_31
  3691  001C32  6E27               	movwf	wr8s@s,c
  3692  001C34  0E0F               	movlw	high STR_31
  3693  001C36  6E28               	movwf	wr8s@s+1,c
  3694  001C38  EC04  F038         	call	_wr8s	;wreg free
  3695  001C3C  ECA2  F03A         	call	_cmd_incrementn
  3696                           
  3697                           ;display.c: 180: cmd(4294967052UL);wr16(1081344UL+cmd_offset, 201);cmd_incrementn(2);wr1
      +                          6(1081344UL+cmd_offset, 33);cmd_incrementn(2);wr16(1081344UL+cmd_offset, 28);cmd_increme
      +                          ntn(2);wr16(1081344UL+cmd_offset, 0);cmd_incrementn(2);cmd_incrementn(wr8s(1081344UL+cmd
      +                          _of
  3698  001C40  0E0C               	movlw	12
  3699  001C42  0100               	movlb	0	; () banked
  3700  001C44  6F60               	movwf	cmd@command& (0+255),b
  3701  001C46  0EFF               	movlw	255
  3702  001C48  6F61               	movwf	(cmd@command+1)& (0+255),b
  3703  001C4A  0EFF               	movlw	255
  3704  001C4C  6F62               	movwf	(cmd@command+2)& (0+255),b
  3705  001C4E  0EFF               	movlw	255
  3706  001C50  6F63               	movwf	(cmd@command+3)& (0+255),b
  3707  001C52  EC4F  F03A         	call	_cmd	;wreg free
  3708  001C56  C03E  F066         	movff	_cmd_offset,??_display_rpm
  3709  001C5A  C03F  F067         	movff	_cmd_offset+1,??_display_rpm+1
  3710  001C5E  0100               	movlb	0	; () banked
  3711  001C60  6B68               	clrf	(??_display_rpm+2)& (0+255),b
  3712  001C62  0E00               	movlw	0
  3713  001C64  0100               	movlb	0	; () banked
  3714  001C66  2566               	addwf	??_display_rpm& (0+255),w,b
  3715  001C68  6E1F               	movwf	wr16@addr,c
  3716  001C6A  0E80               	movlw	128
  3717  001C6C  0100               	movlb	0	; () banked
  3718  001C6E  2167               	addwfc	(??_display_rpm+1)& (0+255),w,b
  3719  001C70  6E20               	movwf	wr16@addr+1,c
  3720  001C72  0E10               	movlw	16
  3721  001C74  0100               	movlb	0	; () banked
  3722  001C76  2168               	addwfc	(??_display_rpm+2)& (0+255),w,b
  3723  001C78  6E21               	movwf	wr16@addr+2,c
  3724  001C7A  0E00               	movlw	0
  3725  001C7C  6E23               	movwf	wr16@value+1,c
  3726  001C7E  0EC9               	movlw	201
  3727  001C80  6E22               	movwf	wr16@value,c
  3728  001C82  EC31  F03A         	call	_wr16	;wreg free
  3729  001C86  0E02               	movlw	2
  3730  001C88  ECA2  F03A         	call	_cmd_incrementn
  3731  001C8C  C03E  F066         	movff	_cmd_offset,??_display_rpm
  3732  001C90  C03F  F067         	movff	_cmd_offset+1,??_display_rpm+1
  3733  001C94  0100               	movlb	0	; () banked
  3734  001C96  6B68               	clrf	(??_display_rpm+2)& (0+255),b
  3735  001C98  0E00               	movlw	0
  3736  001C9A  0100               	movlb	0	; () banked
  3737  001C9C  2566               	addwf	??_display_rpm& (0+255),w,b
  3738  001C9E  6E1F               	movwf	wr16@addr,c
  3739  001CA0  0E80               	movlw	128
  3740  001CA2  0100               	movlb	0	; () banked
  3741  001CA4  2167               	addwfc	(??_display_rpm+1)& (0+255),w,b
  3742  001CA6  6E20               	movwf	wr16@addr+1,c
  3743  001CA8  0E10               	movlw	16
  3744  001CAA  0100               	movlb	0	; () banked
  3745  001CAC  2168               	addwfc	(??_display_rpm+2)& (0+255),w,b
  3746  001CAE  6E21               	movwf	wr16@addr+2,c
  3747  001CB0  0E00               	movlw	0
  3748  001CB2  6E23               	movwf	wr16@value+1,c
  3749  001CB4  0E21               	movlw	33
  3750  001CB6  6E22               	movwf	wr16@value,c
  3751  001CB8  EC31  F03A         	call	_wr16	;wreg free
  3752  001CBC  0E02               	movlw	2
  3753  001CBE  ECA2  F03A         	call	_cmd_incrementn
  3754  001CC2  C03E  F066         	movff	_cmd_offset,??_display_rpm
  3755  001CC6  C03F  F067         	movff	_cmd_offset+1,??_display_rpm+1
  3756  001CCA  0100               	movlb	0	; () banked
  3757  001CCC  6B68               	clrf	(??_display_rpm+2)& (0+255),b
  3758  001CCE  0E00               	movlw	0
  3759  001CD0  0100               	movlb	0	; () banked
  3760  001CD2  2566               	addwf	??_display_rpm& (0+255),w,b
  3761  001CD4  6E1F               	movwf	wr16@addr,c
  3762  001CD6  0E80               	movlw	128
  3763  001CD8  0100               	movlb	0	; () banked
  3764  001CDA  2167               	addwfc	(??_display_rpm+1)& (0+255),w,b
  3765  001CDC  6E20               	movwf	wr16@addr+1,c
  3766  001CDE  0E10               	movlw	16
  3767  001CE0  0100               	movlb	0	; () banked
  3768  001CE2  2168               	addwfc	(??_display_rpm+2)& (0+255),w,b
  3769  001CE4  6E21               	movwf	wr16@addr+2,c
  3770  001CE6  0E00               	movlw	0
  3771  001CE8  6E23               	movwf	wr16@value+1,c
  3772  001CEA  0E1C               	movlw	28
  3773  001CEC  6E22               	movwf	wr16@value,c
  3774  001CEE  EC31  F03A         	call	_wr16	;wreg free
  3775  001CF2  0E02               	movlw	2
  3776  001CF4  ECA2  F03A         	call	_cmd_incrementn
  3777  001CF8  C03E  F066         	movff	_cmd_offset,??_display_rpm
  3778  001CFC  C03F  F067         	movff	_cmd_offset+1,??_display_rpm+1
  3779  001D00  0100               	movlb	0	; () banked
  3780  001D02  6B68               	clrf	(??_display_rpm+2)& (0+255),b
  3781  001D04  0E00               	movlw	0
  3782  001D06  0100               	movlb	0	; () banked
  3783  001D08  2566               	addwf	??_display_rpm& (0+255),w,b
  3784  001D0A  6E1F               	movwf	wr16@addr,c
  3785  001D0C  0E80               	movlw	128
  3786  001D0E  0100               	movlb	0	; () banked
  3787  001D10  2167               	addwfc	(??_display_rpm+1)& (0+255),w,b
  3788  001D12  6E20               	movwf	wr16@addr+1,c
  3789  001D14  0E10               	movlw	16
  3790  001D16  0100               	movlb	0	; () banked
  3791  001D18  2168               	addwfc	(??_display_rpm+2)& (0+255),w,b
  3792  001D1A  6E21               	movwf	wr16@addr+2,c
  3793  001D1C  0E00               	movlw	0
  3794  001D1E  6E23               	movwf	wr16@value+1,c
  3795  001D20  0E00               	movlw	0
  3796  001D22  6E22               	movwf	wr16@value,c
  3797  001D24  EC31  F03A         	call	_wr16	;wreg free
  3798  001D28  0E02               	movlw	2
  3799  001D2A  ECA2  F03A         	call	_cmd_incrementn
  3800  001D2E  C03E  F066         	movff	_cmd_offset,??_display_rpm
  3801  001D32  C03F  F067         	movff	_cmd_offset+1,??_display_rpm+1
  3802  001D36  0100               	movlb	0	; () banked
  3803  001D38  6B68               	clrf	(??_display_rpm+2)& (0+255),b
  3804  001D3A  0E00               	movlw	0
  3805  001D3C  0100               	movlb	0	; () banked
  3806  001D3E  2566               	addwf	??_display_rpm& (0+255),w,b
  3807  001D40  6E24               	movwf	wr8s@addr,c
  3808  001D42  0E80               	movlw	128
  3809  001D44  0100               	movlb	0	; () banked
  3810  001D46  2167               	addwfc	(??_display_rpm+1)& (0+255),w,b
  3811  001D48  6E25               	movwf	wr8s@addr+1,c
  3812  001D4A  0E10               	movlw	16
  3813  001D4C  0100               	movlb	0	; () banked
  3814  001D4E  2168               	addwfc	(??_display_rpm+2)& (0+255),w,b
  3815  001D50  6E26               	movwf	wr8s@addr+2,c
  3816  001D52  0E72               	movlw	low STR_32
  3817  001D54  6E27               	movwf	wr8s@s,c
  3818  001D56  0E0F               	movlw	high STR_32
  3819  001D58  6E28               	movwf	wr8s@s+1,c
  3820  001D5A  EC04  F038         	call	_wr8s	;wreg free
  3821  001D5E  ECA2  F03A         	call	_cmd_incrementn
  3822                           
  3823                           ;display.c: 181: cmd(4294967052UL);wr16(1081344UL+cmd_offset, 235);cmd_incrementn(2);wr1
      +                          6(1081344UL+cmd_offset, 26);cmd_incrementn(2);wr16(1081344UL+cmd_offset, 28);cmd_increme
      +                          ntn(2);wr16(1081344UL+cmd_offset, 0);cmd_incrementn(2);cmd_incrementn(wr8s(1081344UL+cmd
      +                          _of
  3824  001D62  0E0C               	movlw	12
  3825  001D64  0100               	movlb	0	; () banked
  3826  001D66  6F60               	movwf	cmd@command& (0+255),b
  3827  001D68  0EFF               	movlw	255
  3828  001D6A  6F61               	movwf	(cmd@command+1)& (0+255),b
  3829  001D6C  0EFF               	movlw	255
  3830  001D6E  6F62               	movwf	(cmd@command+2)& (0+255),b
  3831  001D70  0EFF               	movlw	255
  3832  001D72  6F63               	movwf	(cmd@command+3)& (0+255),b
  3833  001D74  EC4F  F03A         	call	_cmd	;wreg free
  3834  001D78  C03E  F066         	movff	_cmd_offset,??_display_rpm
  3835  001D7C  C03F  F067         	movff	_cmd_offset+1,??_display_rpm+1
  3836  001D80  0100               	movlb	0	; () banked
  3837  001D82  6B68               	clrf	(??_display_rpm+2)& (0+255),b
  3838  001D84  0E00               	movlw	0
  3839  001D86  0100               	movlb	0	; () banked
  3840  001D88  2566               	addwf	??_display_rpm& (0+255),w,b
  3841  001D8A  6E1F               	movwf	wr16@addr,c
  3842  001D8C  0E80               	movlw	128
  3843  001D8E  0100               	movlb	0	; () banked
  3844  001D90  2167               	addwfc	(??_display_rpm+1)& (0+255),w,b
  3845  001D92  6E20               	movwf	wr16@addr+1,c
  3846  001D94  0E10               	movlw	16
  3847  001D96  0100               	movlb	0	; () banked
  3848  001D98  2168               	addwfc	(??_display_rpm+2)& (0+255),w,b
  3849  001D9A  6E21               	movwf	wr16@addr+2,c
  3850  001D9C  0E00               	movlw	0
  3851  001D9E  6E23               	movwf	wr16@value+1,c
  3852  001DA0  0EEB               	movlw	235
  3853  001DA2  6E22               	movwf	wr16@value,c
  3854  001DA4  EC31  F03A         	call	_wr16	;wreg free
  3855  001DA8  0E02               	movlw	2
  3856  001DAA  ECA2  F03A         	call	_cmd_incrementn
  3857  001DAE  C03E  F066         	movff	_cmd_offset,??_display_rpm
  3858  001DB2  C03F  F067         	movff	_cmd_offset+1,??_display_rpm+1
  3859  001DB6  0100               	movlb	0	; () banked
  3860  001DB8  6B68               	clrf	(??_display_rpm+2)& (0+255),b
  3861  001DBA  0E00               	movlw	0
  3862  001DBC  0100               	movlb	0	; () banked
  3863  001DBE  2566               	addwf	??_display_rpm& (0+255),w,b
  3864  001DC0  6E1F               	movwf	wr16@addr,c
  3865  001DC2  0E80               	movlw	128
  3866  001DC4  0100               	movlb	0	; () banked
  3867  001DC6  2167               	addwfc	(??_display_rpm+1)& (0+255),w,b
  3868  001DC8  6E20               	movwf	wr16@addr+1,c
  3869  001DCA  0E10               	movlw	16
  3870  001DCC  0100               	movlb	0	; () banked
  3871  001DCE  2168               	addwfc	(??_display_rpm+2)& (0+255),w,b
  3872  001DD0  6E21               	movwf	wr16@addr+2,c
  3873  001DD2  0E00               	movlw	0
  3874  001DD4  6E23               	movwf	wr16@value+1,c
  3875  001DD6  0E1A               	movlw	26
  3876  001DD8  6E22               	movwf	wr16@value,c
  3877  001DDA  EC31  F03A         	call	_wr16	;wreg free
  3878  001DDE  0E02               	movlw	2
  3879  001DE0  ECA2  F03A         	call	_cmd_incrementn
  3880  001DE4  C03E  F066         	movff	_cmd_offset,??_display_rpm
  3881  001DE8  C03F  F067         	movff	_cmd_offset+1,??_display_rpm+1
  3882  001DEC  0100               	movlb	0	; () banked
  3883  001DEE  6B68               	clrf	(??_display_rpm+2)& (0+255),b
  3884  001DF0  0E00               	movlw	0
  3885  001DF2  0100               	movlb	0	; () banked
  3886  001DF4  2566               	addwf	??_display_rpm& (0+255),w,b
  3887  001DF6  6E1F               	movwf	wr16@addr,c
  3888  001DF8  0E80               	movlw	128
  3889  001DFA  0100               	movlb	0	; () banked
  3890  001DFC  2167               	addwfc	(??_display_rpm+1)& (0+255),w,b
  3891  001DFE  6E20               	movwf	wr16@addr+1,c
  3892  001E00  0E10               	movlw	16
  3893  001E02  0100               	movlb	0	; () banked
  3894  001E04  2168               	addwfc	(??_display_rpm+2)& (0+255),w,b
  3895  001E06  6E21               	movwf	wr16@addr+2,c
  3896  001E08  0E00               	movlw	0
  3897  001E0A  6E23               	movwf	wr16@value+1,c
  3898  001E0C  0E1C               	movlw	28
  3899  001E0E  6E22               	movwf	wr16@value,c
  3900  001E10  EC31  F03A         	call	_wr16	;wreg free
  3901  001E14  0E02               	movlw	2
  3902  001E16  ECA2  F03A         	call	_cmd_incrementn
  3903  001E1A  C03E  F066         	movff	_cmd_offset,??_display_rpm
  3904  001E1E  C03F  F067         	movff	_cmd_offset+1,??_display_rpm+1
  3905  001E22  0100               	movlb	0	; () banked
  3906  001E24  6B68               	clrf	(??_display_rpm+2)& (0+255),b
  3907  001E26  0E00               	movlw	0
  3908  001E28  0100               	movlb	0	; () banked
  3909  001E2A  2566               	addwf	??_display_rpm& (0+255),w,b
  3910  001E2C  6E1F               	movwf	wr16@addr,c
  3911  001E2E  0E80               	movlw	128
  3912  001E30  0100               	movlb	0	; () banked
  3913  001E32  2167               	addwfc	(??_display_rpm+1)& (0+255),w,b
  3914  001E34  6E20               	movwf	wr16@addr+1,c
  3915  001E36  0E10               	movlw	16
  3916  001E38  0100               	movlb	0	; () banked
  3917  001E3A  2168               	addwfc	(??_display_rpm+2)& (0+255),w,b
  3918  001E3C  6E21               	movwf	wr16@addr+2,c
  3919  001E3E  0E00               	movlw	0
  3920  001E40  6E23               	movwf	wr16@value+1,c
  3921  001E42  0E00               	movlw	0
  3922  001E44  6E22               	movwf	wr16@value,c
  3923  001E46  EC31  F03A         	call	_wr16	;wreg free
  3924  001E4A  0E02               	movlw	2
  3925  001E4C  ECA2  F03A         	call	_cmd_incrementn
  3926  001E50  C03E  F066         	movff	_cmd_offset,??_display_rpm
  3927  001E54  C03F  F067         	movff	_cmd_offset+1,??_display_rpm+1
  3928  001E58  0100               	movlb	0	; () banked
  3929  001E5A  6B68               	clrf	(??_display_rpm+2)& (0+255),b
  3930  001E5C  0E00               	movlw	0
  3931  001E5E  0100               	movlb	0	; () banked
  3932  001E60  2566               	addwf	??_display_rpm& (0+255),w,b
  3933  001E62  6E24               	movwf	wr8s@addr,c
  3934  001E64  0E80               	movlw	128
  3935  001E66  0100               	movlb	0	; () banked
  3936  001E68  2167               	addwfc	(??_display_rpm+1)& (0+255),w,b
  3937  001E6A  6E25               	movwf	wr8s@addr+1,c
  3938  001E6C  0E10               	movlw	16
  3939  001E6E  0100               	movlb	0	; () banked
  3940  001E70  2168               	addwfc	(??_display_rpm+2)& (0+255),w,b
  3941  001E72  6E26               	movwf	wr8s@addr+2,c
  3942  001E74  0E74               	movlw	low STR_33
  3943  001E76  6E27               	movwf	wr8s@s,c
  3944  001E78  0E0F               	movlw	high STR_33
  3945  001E7A  6E28               	movwf	wr8s@s+1,c
  3946  001E7C  EC04  F038         	call	_wr8s	;wreg free
  3947  001E80  ECA2  F03A         	call	_cmd_incrementn
  3948                           
  3949                           ;display.c: 182: cmd(4294967052UL);wr16(1081344UL+cmd_offset, 269);cmd_incrementn(2);wr1
      +                          6(1081344UL+cmd_offset, 33);cmd_incrementn(2);wr16(1081344UL+cmd_offset, 28);cmd_increme
      +                          ntn(2);wr16(1081344UL+cmd_offset, 0);cmd_incrementn(2);cmd_incrementn(wr8s(1081344UL+cmd
      +                          _of
  3950  001E84  0E0C               	movlw	12
  3951  001E86  0100               	movlb	0	; () banked
  3952  001E88  6F60               	movwf	cmd@command& (0+255),b
  3953  001E8A  0EFF               	movlw	255
  3954  001E8C  6F61               	movwf	(cmd@command+1)& (0+255),b
  3955  001E8E  0EFF               	movlw	255
  3956  001E90  6F62               	movwf	(cmd@command+2)& (0+255),b
  3957  001E92  0EFF               	movlw	255
  3958  001E94  6F63               	movwf	(cmd@command+3)& (0+255),b
  3959  001E96  EC4F  F03A         	call	_cmd	;wreg free
  3960  001E9A  C03E  F066         	movff	_cmd_offset,??_display_rpm
  3961  001E9E  C03F  F067         	movff	_cmd_offset+1,??_display_rpm+1
  3962  001EA2  0100               	movlb	0	; () banked
  3963  001EA4  6B68               	clrf	(??_display_rpm+2)& (0+255),b
  3964  001EA6  0E00               	movlw	0
  3965  001EA8  0100               	movlb	0	; () banked
  3966  001EAA  2566               	addwf	??_display_rpm& (0+255),w,b
  3967  001EAC  6E1F               	movwf	wr16@addr,c
  3968  001EAE  0E80               	movlw	128
  3969  001EB0  0100               	movlb	0	; () banked
  3970  001EB2  2167               	addwfc	(??_display_rpm+1)& (0+255),w,b
  3971  001EB4  6E20               	movwf	wr16@addr+1,c
  3972  001EB6  0E10               	movlw	16
  3973  001EB8  0100               	movlb	0	; () banked
  3974  001EBA  2168               	addwfc	(??_display_rpm+2)& (0+255),w,b
  3975  001EBC  6E21               	movwf	wr16@addr+2,c
  3976  001EBE  0E01               	movlw	1
  3977  001EC0  6E23               	movwf	wr16@value+1,c
  3978  001EC2  0E0D               	movlw	13
  3979  001EC4  6E22               	movwf	wr16@value,c
  3980  001EC6  EC31  F03A         	call	_wr16	;wreg free
  3981  001ECA  0E02               	movlw	2
  3982  001ECC  ECA2  F03A         	call	_cmd_incrementn
  3983  001ED0  C03E  F066         	movff	_cmd_offset,??_display_rpm
  3984  001ED4  C03F  F067         	movff	_cmd_offset+1,??_display_rpm+1
  3985  001ED8  0100               	movlb	0	; () banked
  3986  001EDA  6B68               	clrf	(??_display_rpm+2)& (0+255),b
  3987  001EDC  0E00               	movlw	0
  3988  001EDE  0100               	movlb	0	; () banked
  3989  001EE0  2566               	addwf	??_display_rpm& (0+255),w,b
  3990  001EE2  6E1F               	movwf	wr16@addr,c
  3991  001EE4  0E80               	movlw	128
  3992  001EE6  0100               	movlb	0	; () banked
  3993  001EE8  2167               	addwfc	(??_display_rpm+1)& (0+255),w,b
  3994  001EEA  6E20               	movwf	wr16@addr+1,c
  3995  001EEC  0E10               	movlw	16
  3996  001EEE  0100               	movlb	0	; () banked
  3997  001EF0  2168               	addwfc	(??_display_rpm+2)& (0+255),w,b
  3998  001EF2  6E21               	movwf	wr16@addr+2,c
  3999  001EF4  0E00               	movlw	0
  4000  001EF6  6E23               	movwf	wr16@value+1,c
  4001  001EF8  0E21               	movlw	33
  4002  001EFA  6E22               	movwf	wr16@value,c
  4003  001EFC  EC31  F03A         	call	_wr16	;wreg free
  4004  001F00  0E02               	movlw	2
  4005  001F02  ECA2  F03A         	call	_cmd_incrementn
  4006  001F06  C03E  F066         	movff	_cmd_offset,??_display_rpm
  4007  001F0A  C03F  F067         	movff	_cmd_offset+1,??_display_rpm+1
  4008  001F0E  0100               	movlb	0	; () banked
  4009  001F10  6B68               	clrf	(??_display_rpm+2)& (0+255),b
  4010  001F12  0E00               	movlw	0
  4011  001F14  0100               	movlb	0	; () banked
  4012  001F16  2566               	addwf	??_display_rpm& (0+255),w,b
  4013  001F18  6E1F               	movwf	wr16@addr,c
  4014  001F1A  0E80               	movlw	128
  4015  001F1C  0100               	movlb	0	; () banked
  4016  001F1E  2167               	addwfc	(??_display_rpm+1)& (0+255),w,b
  4017  001F20  6E20               	movwf	wr16@addr+1,c
  4018  001F22  0E10               	movlw	16
  4019  001F24  0100               	movlb	0	; () banked
  4020  001F26  2168               	addwfc	(??_display_rpm+2)& (0+255),w,b
  4021  001F28  6E21               	movwf	wr16@addr+2,c
  4022  001F2A  0E00               	movlw	0
  4023  001F2C  6E23               	movwf	wr16@value+1,c
  4024  001F2E  0E1C               	movlw	28
  4025  001F30  6E22               	movwf	wr16@value,c
  4026  001F32  EC31  F03A         	call	_wr16	;wreg free
  4027  001F36  0E02               	movlw	2
  4028  001F38  ECA2  F03A         	call	_cmd_incrementn
  4029  001F3C  C03E  F066         	movff	_cmd_offset,??_display_rpm
  4030  001F40  C03F  F067         	movff	_cmd_offset+1,??_display_rpm+1
  4031  001F44  0100               	movlb	0	; () banked
  4032  001F46  6B68               	clrf	(??_display_rpm+2)& (0+255),b
  4033  001F48  0E00               	movlw	0
  4034  001F4A  0100               	movlb	0	; () banked
  4035  001F4C  2566               	addwf	??_display_rpm& (0+255),w,b
  4036  001F4E  6E1F               	movwf	wr16@addr,c
  4037  001F50  0E80               	movlw	128
  4038  001F52  0100               	movlb	0	; () banked
  4039  001F54  2167               	addwfc	(??_display_rpm+1)& (0+255),w,b
  4040  001F56  6E20               	movwf	wr16@addr+1,c
  4041  001F58  0E10               	movlw	16
  4042  001F5A  0100               	movlb	0	; () banked
  4043  001F5C  2168               	addwfc	(??_display_rpm+2)& (0+255),w,b
  4044  001F5E  6E21               	movwf	wr16@addr+2,c
  4045  001F60  0E00               	movlw	0
  4046  001F62  6E23               	movwf	wr16@value+1,c
  4047  001F64  0E00               	movlw	0
  4048  001F66  6E22               	movwf	wr16@value,c
  4049  001F68  EC31  F03A         	call	_wr16	;wreg free
  4050  001F6C  0E02               	movlw	2
  4051  001F6E  ECA2  F03A         	call	_cmd_incrementn
  4052  001F72  C03E  F066         	movff	_cmd_offset,??_display_rpm
  4053  001F76  C03F  F067         	movff	_cmd_offset+1,??_display_rpm+1
  4054  001F7A  0100               	movlb	0	; () banked
  4055  001F7C  6B68               	clrf	(??_display_rpm+2)& (0+255),b
  4056  001F7E  0E00               	movlw	0
  4057  001F80  0100               	movlb	0	; () banked
  4058  001F82  2566               	addwf	??_display_rpm& (0+255),w,b
  4059  001F84  6E24               	movwf	wr8s@addr,c
  4060  001F86  0E80               	movlw	128
  4061  001F88  0100               	movlb	0	; () banked
  4062  001F8A  2167               	addwfc	(??_display_rpm+1)& (0+255),w,b
  4063  001F8C  6E25               	movwf	wr8s@addr+1,c
  4064  001F8E  0E10               	movlw	16
  4065  001F90  0100               	movlb	0	; () banked
  4066  001F92  2168               	addwfc	(??_display_rpm+2)& (0+255),w,b
  4067  001F94  6E26               	movwf	wr8s@addr+2,c
  4068  001F96  0E76               	movlw	low STR_34
  4069  001F98  6E27               	movwf	wr8s@s,c
  4070  001F9A  0E0F               	movlw	high STR_34
  4071  001F9C  6E28               	movwf	wr8s@s+1,c
  4072  001F9E  EC04  F038         	call	_wr8s	;wreg free
  4073  001FA2  ECA2  F03A         	call	_cmd_incrementn
  4074                           
  4075                           ;display.c: 183: cmd(4294967052UL);wr16(1081344UL+cmd_offset, 298);cmd_incrementn(2);wr1
      +                          6(1081344UL+cmd_offset, 58);cmd_incrementn(2);wr16(1081344UL+cmd_offset, 28);cmd_increme
      +                          ntn(2);wr16(1081344UL+cmd_offset, 0);cmd_incrementn(2);cmd_incrementn(wr8s(1081344UL+cmd
      +                          _of
  4076  001FA6  0E0C               	movlw	12
  4077  001FA8  0100               	movlb	0	; () banked
  4078  001FAA  6F60               	movwf	cmd@command& (0+255),b
  4079  001FAC  0EFF               	movlw	255
  4080  001FAE  6F61               	movwf	(cmd@command+1)& (0+255),b
  4081  001FB0  0EFF               	movlw	255
  4082  001FB2  6F62               	movwf	(cmd@command+2)& (0+255),b
  4083  001FB4  0EFF               	movlw	255
  4084  001FB6  6F63               	movwf	(cmd@command+3)& (0+255),b
  4085  001FB8  EC4F  F03A         	call	_cmd	;wreg free
  4086  001FBC  C03E  F066         	movff	_cmd_offset,??_display_rpm
  4087  001FC0  C03F  F067         	movff	_cmd_offset+1,??_display_rpm+1
  4088  001FC4  0100               	movlb	0	; () banked
  4089  001FC6  6B68               	clrf	(??_display_rpm+2)& (0+255),b
  4090  001FC8  0E00               	movlw	0
  4091  001FCA  0100               	movlb	0	; () banked
  4092  001FCC  2566               	addwf	??_display_rpm& (0+255),w,b
  4093  001FCE  6E1F               	movwf	wr16@addr,c
  4094  001FD0  0E80               	movlw	128
  4095  001FD2  0100               	movlb	0	; () banked
  4096  001FD4  2167               	addwfc	(??_display_rpm+1)& (0+255),w,b
  4097  001FD6  6E20               	movwf	wr16@addr+1,c
  4098  001FD8  0E10               	movlw	16
  4099  001FDA  0100               	movlb	0	; () banked
  4100  001FDC  2168               	addwfc	(??_display_rpm+2)& (0+255),w,b
  4101  001FDE  6E21               	movwf	wr16@addr+2,c
  4102  001FE0  0E01               	movlw	1
  4103  001FE2  6E23               	movwf	wr16@value+1,c
  4104  001FE4  0E2A               	movlw	42
  4105  001FE6  6E22               	movwf	wr16@value,c
  4106  001FE8  EC31  F03A         	call	_wr16	;wreg free
  4107  001FEC  0E02               	movlw	2
  4108  001FEE  ECA2  F03A         	call	_cmd_incrementn
  4109  001FF2  C03E  F066         	movff	_cmd_offset,??_display_rpm
  4110  001FF6  C03F  F067         	movff	_cmd_offset+1,??_display_rpm+1
  4111  001FFA  0100               	movlb	0	; () banked
  4112  001FFC  6B68               	clrf	(??_display_rpm+2)& (0+255),b
  4113  001FFE  0E00               	movlw	0
  4114  002000  0100               	movlb	0	; () banked
  4115  002002  2566               	addwf	??_display_rpm& (0+255),w,b
  4116  002004  6E1F               	movwf	wr16@addr,c
  4117  002006  0E80               	movlw	128
  4118  002008  0100               	movlb	0	; () banked
  4119  00200A  2167               	addwfc	(??_display_rpm+1)& (0+255),w,b
  4120  00200C  6E20               	movwf	wr16@addr+1,c
  4121  00200E  0E10               	movlw	16
  4122  002010  0100               	movlb	0	; () banked
  4123  002012  2168               	addwfc	(??_display_rpm+2)& (0+255),w,b
  4124  002014  6E21               	movwf	wr16@addr+2,c
  4125  002016  0E00               	movlw	0
  4126  002018  6E23               	movwf	wr16@value+1,c
  4127  00201A  0E3A               	movlw	58
  4128  00201C  6E22               	movwf	wr16@value,c
  4129  00201E  EC31  F03A         	call	_wr16	;wreg free
  4130  002022  0E02               	movlw	2
  4131  002024  ECA2  F03A         	call	_cmd_incrementn
  4132  002028  C03E  F066         	movff	_cmd_offset,??_display_rpm
  4133  00202C  C03F  F067         	movff	_cmd_offset+1,??_display_rpm+1
  4134  002030  0100               	movlb	0	; () banked
  4135  002032  6B68               	clrf	(??_display_rpm+2)& (0+255),b
  4136  002034  0E00               	movlw	0
  4137  002036  0100               	movlb	0	; () banked
  4138  002038  2566               	addwf	??_display_rpm& (0+255),w,b
  4139  00203A  6E1F               	movwf	wr16@addr,c
  4140  00203C  0E80               	movlw	128
  4141  00203E  0100               	movlb	0	; () banked
  4142  002040  2167               	addwfc	(??_display_rpm+1)& (0+255),w,b
  4143  002042  6E20               	movwf	wr16@addr+1,c
  4144  002044  0E10               	movlw	16
  4145  002046  0100               	movlb	0	; () banked
  4146  002048  2168               	addwfc	(??_display_rpm+2)& (0+255),w,b
  4147  00204A  6E21               	movwf	wr16@addr+2,c
  4148  00204C  0E00               	movlw	0
  4149  00204E  6E23               	movwf	wr16@value+1,c
  4150  002050  0E1C               	movlw	28
  4151  002052  6E22               	movwf	wr16@value,c
  4152  002054  EC31  F03A         	call	_wr16	;wreg free
  4153  002058  0E02               	movlw	2
  4154  00205A  ECA2  F03A         	call	_cmd_incrementn
  4155  00205E  C03E  F066         	movff	_cmd_offset,??_display_rpm
  4156  002062  C03F  F067         	movff	_cmd_offset+1,??_display_rpm+1
  4157  002066  0100               	movlb	0	; () banked
  4158  002068  6B68               	clrf	(??_display_rpm+2)& (0+255),b
  4159  00206A  0E00               	movlw	0
  4160  00206C  0100               	movlb	0	; () banked
  4161  00206E  2566               	addwf	??_display_rpm& (0+255),w,b
  4162  002070  6E1F               	movwf	wr16@addr,c
  4163  002072  0E80               	movlw	128
  4164  002074  0100               	movlb	0	; () banked
  4165  002076  2167               	addwfc	(??_display_rpm+1)& (0+255),w,b
  4166  002078  6E20               	movwf	wr16@addr+1,c
  4167  00207A  0E10               	movlw	16
  4168  00207C  0100               	movlb	0	; () banked
  4169  00207E  2168               	addwfc	(??_display_rpm+2)& (0+255),w,b
  4170  002080  6E21               	movwf	wr16@addr+2,c
  4171  002082  0E00               	movlw	0
  4172  002084  6E23               	movwf	wr16@value+1,c
  4173  002086  0E00               	movlw	0
  4174  002088  6E22               	movwf	wr16@value,c
  4175  00208A  EC31  F03A         	call	_wr16	;wreg free
  4176  00208E  0E02               	movlw	2
  4177  002090  ECA2  F03A         	call	_cmd_incrementn
  4178  002094  C03E  F066         	movff	_cmd_offset,??_display_rpm
  4179  002098  C03F  F067         	movff	_cmd_offset+1,??_display_rpm+1
  4180  00209C  0100               	movlb	0	; () banked
  4181  00209E  6B68               	clrf	(??_display_rpm+2)& (0+255),b
  4182  0020A0  0E00               	movlw	0
  4183  0020A2  0100               	movlb	0	; () banked
  4184  0020A4  2566               	addwf	??_display_rpm& (0+255),w,b
  4185  0020A6  6E24               	movwf	wr8s@addr,c
  4186  0020A8  0E80               	movlw	128
  4187  0020AA  0100               	movlb	0	; () banked
  4188  0020AC  2167               	addwfc	(??_display_rpm+1)& (0+255),w,b
  4189  0020AE  6E25               	movwf	wr8s@addr+1,c
  4190  0020B0  0E10               	movlw	16
  4191  0020B2  0100               	movlb	0	; () banked
  4192  0020B4  2168               	addwfc	(??_display_rpm+2)& (0+255),w,b
  4193  0020B6  6E26               	movwf	wr8s@addr+2,c
  4194  0020B8  0E78               	movlw	low STR_35
  4195  0020BA  6E27               	movwf	wr8s@s,c
  4196  0020BC  0E0F               	movlw	high STR_35
  4197  0020BE  6E28               	movwf	wr8s@s+1,c
  4198  0020C0  EC04  F038         	call	_wr8s	;wreg free
  4199  0020C4  ECA2  F03A         	call	_cmd_incrementn
  4200                           
  4201                           ;display.c: 184: cmd(4294967052UL);wr16(1081344UL+cmd_offset, 301);cmd_incrementn(2);wr1
      +                          6(1081344UL+cmd_offset, 92);cmd_incrementn(2);wr16(1081344UL+cmd_offset, 28);cmd_increme
      +                          ntn(2);wr16(1081344UL+cmd_offset, 0);cmd_incrementn(2);cmd_incrementn(wr8s(1081344UL+cmd
      +                          _of
  4202  0020C8  0E0C               	movlw	12
  4203  0020CA  0100               	movlb	0	; () banked
  4204  0020CC  6F60               	movwf	cmd@command& (0+255),b
  4205  0020CE  0EFF               	movlw	255
  4206  0020D0  6F61               	movwf	(cmd@command+1)& (0+255),b
  4207  0020D2  0EFF               	movlw	255
  4208  0020D4  6F62               	movwf	(cmd@command+2)& (0+255),b
  4209  0020D6  0EFF               	movlw	255
  4210  0020D8  6F63               	movwf	(cmd@command+3)& (0+255),b
  4211  0020DA  EC4F  F03A         	call	_cmd	;wreg free
  4212  0020DE  C03E  F066         	movff	_cmd_offset,??_display_rpm
  4213  0020E2  C03F  F067         	movff	_cmd_offset+1,??_display_rpm+1
  4214  0020E6  0100               	movlb	0	; () banked
  4215  0020E8  6B68               	clrf	(??_display_rpm+2)& (0+255),b
  4216  0020EA  0E00               	movlw	0
  4217  0020EC  0100               	movlb	0	; () banked
  4218  0020EE  2566               	addwf	??_display_rpm& (0+255),w,b
  4219  0020F0  6E1F               	movwf	wr16@addr,c
  4220  0020F2  0E80               	movlw	128
  4221  0020F4  0100               	movlb	0	; () banked
  4222  0020F6  2167               	addwfc	(??_display_rpm+1)& (0+255),w,b
  4223  0020F8  6E20               	movwf	wr16@addr+1,c
  4224  0020FA  0E10               	movlw	16
  4225  0020FC  0100               	movlb	0	; () banked
  4226  0020FE  2168               	addwfc	(??_display_rpm+2)& (0+255),w,b
  4227  002100  6E21               	movwf	wr16@addr+2,c
  4228  002102  0E01               	movlw	1
  4229  002104  6E23               	movwf	wr16@value+1,c
  4230  002106  0E2D               	movlw	45
  4231  002108  6E22               	movwf	wr16@value,c
  4232  00210A  EC31  F03A         	call	_wr16	;wreg free
  4233  00210E  0E02               	movlw	2
  4234  002110  ECA2  F03A         	call	_cmd_incrementn
  4235  002114  C03E  F066         	movff	_cmd_offset,??_display_rpm
  4236  002118  C03F  F067         	movff	_cmd_offset+1,??_display_rpm+1
  4237  00211C  0100               	movlb	0	; () banked
  4238  00211E  6B68               	clrf	(??_display_rpm+2)& (0+255),b
  4239  002120  0E00               	movlw	0
  4240  002122  0100               	movlb	0	; () banked
  4241  002124  2566               	addwf	??_display_rpm& (0+255),w,b
  4242  002126  6E1F               	movwf	wr16@addr,c
  4243  002128  0E80               	movlw	128
  4244  00212A  0100               	movlb	0	; () banked
  4245  00212C  2167               	addwfc	(??_display_rpm+1)& (0+255),w,b
  4246  00212E  6E20               	movwf	wr16@addr+1,c
  4247  002130  0E10               	movlw	16
  4248  002132  0100               	movlb	0	; () banked
  4249  002134  2168               	addwfc	(??_display_rpm+2)& (0+255),w,b
  4250  002136  6E21               	movwf	wr16@addr+2,c
  4251  002138  0E00               	movlw	0
  4252  00213A  6E23               	movwf	wr16@value+1,c
  4253  00213C  0E5C               	movlw	92
  4254  00213E  6E22               	movwf	wr16@value,c
  4255  002140  EC31  F03A         	call	_wr16	;wreg free
  4256  002144  0E02               	movlw	2
  4257  002146  ECA2  F03A         	call	_cmd_incrementn
  4258  00214A  C03E  F066         	movff	_cmd_offset,??_display_rpm
  4259  00214E  C03F  F067         	movff	_cmd_offset+1,??_display_rpm+1
  4260  002152  0100               	movlb	0	; () banked
  4261  002154  6B68               	clrf	(??_display_rpm+2)& (0+255),b
  4262  002156  0E00               	movlw	0
  4263  002158  0100               	movlb	0	; () banked
  4264  00215A  2566               	addwf	??_display_rpm& (0+255),w,b
  4265  00215C  6E1F               	movwf	wr16@addr,c
  4266  00215E  0E80               	movlw	128
  4267  002160  0100               	movlb	0	; () banked
  4268  002162  2167               	addwfc	(??_display_rpm+1)& (0+255),w,b
  4269  002164  6E20               	movwf	wr16@addr+1,c
  4270  002166  0E10               	movlw	16
  4271  002168  0100               	movlb	0	; () banked
  4272  00216A  2168               	addwfc	(??_display_rpm+2)& (0+255),w,b
  4273  00216C  6E21               	movwf	wr16@addr+2,c
  4274  00216E  0E00               	movlw	0
  4275  002170  6E23               	movwf	wr16@value+1,c
  4276  002172  0E1C               	movlw	28
  4277  002174  6E22               	movwf	wr16@value,c
  4278  002176  EC31  F03A         	call	_wr16	;wreg free
  4279  00217A  0E02               	movlw	2
  4280  00217C  ECA2  F03A         	call	_cmd_incrementn
  4281  002180  C03E  F066         	movff	_cmd_offset,??_display_rpm
  4282  002184  C03F  F067         	movff	_cmd_offset+1,??_display_rpm+1
  4283  002188  0100               	movlb	0	; () banked
  4284  00218A  6B68               	clrf	(??_display_rpm+2)& (0+255),b
  4285  00218C  0E00               	movlw	0
  4286  00218E  0100               	movlb	0	; () banked
  4287  002190  2566               	addwf	??_display_rpm& (0+255),w,b
  4288  002192  6E1F               	movwf	wr16@addr,c
  4289  002194  0E80               	movlw	128
  4290  002196  0100               	movlb	0	; () banked
  4291  002198  2167               	addwfc	(??_display_rpm+1)& (0+255),w,b
  4292  00219A  6E20               	movwf	wr16@addr+1,c
  4293  00219C  0E10               	movlw	16
  4294  00219E  0100               	movlb	0	; () banked
  4295  0021A0  2168               	addwfc	(??_display_rpm+2)& (0+255),w,b
  4296  0021A2  6E21               	movwf	wr16@addr+2,c
  4297  0021A4  0E00               	movlw	0
  4298  0021A6  6E23               	movwf	wr16@value+1,c
  4299  0021A8  0E00               	movlw	0
  4300  0021AA  6E22               	movwf	wr16@value,c
  4301  0021AC  EC31  F03A         	call	_wr16	;wreg free
  4302  0021B0  0E02               	movlw	2
  4303  0021B2  ECA2  F03A         	call	_cmd_incrementn
  4304  0021B6  C03E  F066         	movff	_cmd_offset,??_display_rpm
  4305  0021BA  C03F  F067         	movff	_cmd_offset+1,??_display_rpm+1
  4306  0021BE  0100               	movlb	0	; () banked
  4307  0021C0  6B68               	clrf	(??_display_rpm+2)& (0+255),b
  4308  0021C2  0E00               	movlw	0
  4309  0021C4  0100               	movlb	0	; () banked
  4310  0021C6  2566               	addwf	??_display_rpm& (0+255),w,b
  4311  0021C8  6E24               	movwf	wr8s@addr,c
  4312  0021CA  0E80               	movlw	128
  4313  0021CC  0100               	movlb	0	; () banked
  4314  0021CE  2167               	addwfc	(??_display_rpm+1)& (0+255),w,b
  4315  0021D0  6E25               	movwf	wr8s@addr+1,c
  4316  0021D2  0E10               	movlw	16
  4317  0021D4  0100               	movlb	0	; () banked
  4318  0021D6  2168               	addwfc	(??_display_rpm+2)& (0+255),w,b
  4319  0021D8  6E26               	movwf	wr8s@addr+2,c
  4320  0021DA  0E5C               	movlw	low STR_36
  4321  0021DC  6E27               	movwf	wr8s@s,c
  4322  0021DE  0E0F               	movlw	high STR_36
  4323  0021E0  6E28               	movwf	wr8s@s+1,c
  4324  0021E2  EC04  F038         	call	_wr8s	;wreg free
  4325  0021E6  ECA2  F03A         	call	_cmd_incrementn
  4326                           
  4327                           ;display.c: 185: cmd(4294967052UL);wr16(1081344UL+cmd_offset, 299);cmd_incrementn(2);wr1
      +                          6(1081344UL+cmd_offset, 130);cmd_incrementn(2);wr16(1081344UL+cmd_offset, 28);cmd_increm
      +                          entn(2);wr16(1081344UL+cmd_offset, 0);cmd_incrementn(2);cmd_incrementn(wr8s(1081344UL+cm
      +                          d_o
  4328  0021EA  0E0C               	movlw	12
  4329  0021EC  0100               	movlb	0	; () banked
  4330  0021EE  6F60               	movwf	cmd@command& (0+255),b
  4331  0021F0  0EFF               	movlw	255
  4332  0021F2  6F61               	movwf	(cmd@command+1)& (0+255),b
  4333  0021F4  0EFF               	movlw	255
  4334  0021F6  6F62               	movwf	(cmd@command+2)& (0+255),b
  4335  0021F8  0EFF               	movlw	255
  4336  0021FA  6F63               	movwf	(cmd@command+3)& (0+255),b
  4337  0021FC  EC4F  F03A         	call	_cmd	;wreg free
  4338  002200  C03E  F066         	movff	_cmd_offset,??_display_rpm
  4339  002204  C03F  F067         	movff	_cmd_offset+1,??_display_rpm+1
  4340  002208  0100               	movlb	0	; () banked
  4341  00220A  6B68               	clrf	(??_display_rpm+2)& (0+255),b
  4342  00220C  0E00               	movlw	0
  4343  00220E  0100               	movlb	0	; () banked
  4344  002210  2566               	addwf	??_display_rpm& (0+255),w,b
  4345  002212  6E1F               	movwf	wr16@addr,c
  4346  002214  0E80               	movlw	128
  4347  002216  0100               	movlb	0	; () banked
  4348  002218  2167               	addwfc	(??_display_rpm+1)& (0+255),w,b
  4349  00221A  6E20               	movwf	wr16@addr+1,c
  4350  00221C  0E10               	movlw	16
  4351  00221E  0100               	movlb	0	; () banked
  4352  002220  2168               	addwfc	(??_display_rpm+2)& (0+255),w,b
  4353  002222  6E21               	movwf	wr16@addr+2,c
  4354  002224  0E01               	movlw	1
  4355  002226  6E23               	movwf	wr16@value+1,c
  4356  002228  0E2B               	movlw	43
  4357  00222A  6E22               	movwf	wr16@value,c
  4358  00222C  EC31  F03A         	call	_wr16	;wreg free
  4359  002230  0E02               	movlw	2
  4360  002232  ECA2  F03A         	call	_cmd_incrementn
  4361  002236  C03E  F066         	movff	_cmd_offset,??_display_rpm
  4362  00223A  C03F  F067         	movff	_cmd_offset+1,??_display_rpm+1
  4363  00223E  0100               	movlb	0	; () banked
  4364  002240  6B68               	clrf	(??_display_rpm+2)& (0+255),b
  4365  002242  0E00               	movlw	0
  4366  002244  0100               	movlb	0	; () banked
  4367  002246  2566               	addwf	??_display_rpm& (0+255),w,b
  4368  002248  6E1F               	movwf	wr16@addr,c
  4369  00224A  0E80               	movlw	128
  4370  00224C  0100               	movlb	0	; () banked
  4371  00224E  2167               	addwfc	(??_display_rpm+1)& (0+255),w,b
  4372  002250  6E20               	movwf	wr16@addr+1,c
  4373  002252  0E10               	movlw	16
  4374  002254  0100               	movlb	0	; () banked
  4375  002256  2168               	addwfc	(??_display_rpm+2)& (0+255),w,b
  4376  002258  6E21               	movwf	wr16@addr+2,c
  4377  00225A  0E00               	movlw	0
  4378  00225C  6E23               	movwf	wr16@value+1,c
  4379  00225E  0E82               	movlw	130
  4380  002260  6E22               	movwf	wr16@value,c
  4381  002262  EC31  F03A         	call	_wr16	;wreg free
  4382  002266  0E02               	movlw	2
  4383  002268  ECA2  F03A         	call	_cmd_incrementn
  4384  00226C  C03E  F066         	movff	_cmd_offset,??_display_rpm
  4385  002270  C03F  F067         	movff	_cmd_offset+1,??_display_rpm+1
  4386  002274  0100               	movlb	0	; () banked
  4387  002276  6B68               	clrf	(??_display_rpm+2)& (0+255),b
  4388  002278  0E00               	movlw	0
  4389  00227A  0100               	movlb	0	; () banked
  4390  00227C  2566               	addwf	??_display_rpm& (0+255),w,b
  4391  00227E  6E1F               	movwf	wr16@addr,c
  4392  002280  0E80               	movlw	128
  4393  002282  0100               	movlb	0	; () banked
  4394  002284  2167               	addwfc	(??_display_rpm+1)& (0+255),w,b
  4395  002286  6E20               	movwf	wr16@addr+1,c
  4396  002288  0E10               	movlw	16
  4397  00228A  0100               	movlb	0	; () banked
  4398  00228C  2168               	addwfc	(??_display_rpm+2)& (0+255),w,b
  4399  00228E  6E21               	movwf	wr16@addr+2,c
  4400  002290  0E00               	movlw	0
  4401  002292  6E23               	movwf	wr16@value+1,c
  4402  002294  0E1C               	movlw	28
  4403  002296  6E22               	movwf	wr16@value,c
  4404  002298  EC31  F03A         	call	_wr16	;wreg free
  4405  00229C  0E02               	movlw	2
  4406  00229E  ECA2  F03A         	call	_cmd_incrementn
  4407  0022A2  C03E  F066         	movff	_cmd_offset,??_display_rpm
  4408  0022A6  C03F  F067         	movff	_cmd_offset+1,??_display_rpm+1
  4409  0022AA  0100               	movlb	0	; () banked
  4410  0022AC  6B68               	clrf	(??_display_rpm+2)& (0+255),b
  4411  0022AE  0E00               	movlw	0
  4412  0022B0  0100               	movlb	0	; () banked
  4413  0022B2  2566               	addwf	??_display_rpm& (0+255),w,b
  4414  0022B4  6E1F               	movwf	wr16@addr,c
  4415  0022B6  0E80               	movlw	128
  4416  0022B8  0100               	movlb	0	; () banked
  4417  0022BA  2167               	addwfc	(??_display_rpm+1)& (0+255),w,b
  4418  0022BC  6E20               	movwf	wr16@addr+1,c
  4419  0022BE  0E10               	movlw	16
  4420  0022C0  0100               	movlb	0	; () banked
  4421  0022C2  2168               	addwfc	(??_display_rpm+2)& (0+255),w,b
  4422  0022C4  6E21               	movwf	wr16@addr+2,c
  4423  0022C6  0E00               	movlw	0
  4424  0022C8  6E23               	movwf	wr16@value+1,c
  4425  0022CA  0E00               	movlw	0
  4426  0022CC  6E22               	movwf	wr16@value,c
  4427  0022CE  EC31  F03A         	call	_wr16	;wreg free
  4428  0022D2  0E02               	movlw	2
  4429  0022D4  ECA2  F03A         	call	_cmd_incrementn
  4430  0022D8  C03E  F066         	movff	_cmd_offset,??_display_rpm
  4431  0022DC  C03F  F067         	movff	_cmd_offset+1,??_display_rpm+1
  4432  0022E0  0100               	movlb	0	; () banked
  4433  0022E2  6B68               	clrf	(??_display_rpm+2)& (0+255),b
  4434  0022E4  0E00               	movlw	0
  4435  0022E6  0100               	movlb	0	; () banked
  4436  0022E8  2566               	addwf	??_display_rpm& (0+255),w,b
  4437  0022EA  6E24               	movwf	wr8s@addr,c
  4438  0022EC  0E80               	movlw	128
  4439  0022EE  0100               	movlb	0	; () banked
  4440  0022F0  2167               	addwfc	(??_display_rpm+1)& (0+255),w,b
  4441  0022F2  6E25               	movwf	wr8s@addr+1,c
  4442  0022F4  0E10               	movlw	16
  4443  0022F6  0100               	movlb	0	; () banked
  4444  0022F8  2168               	addwfc	(??_display_rpm+2)& (0+255),w,b
  4445  0022FA  6E26               	movwf	wr8s@addr+2,c
  4446  0022FC  0E5F               	movlw	low STR_37
  4447  0022FE  6E27               	movwf	wr8s@s,c
  4448  002300  0E0F               	movlw	high STR_37
  4449  002302  6E28               	movwf	wr8s@s+1,c
  4450  002304  EC04  F038         	call	_wr8s	;wreg free
  4451  002308  ECA2  F03A         	call	_cmd_incrementn
  4452                           
  4453                           ;display.c: 186: cmd(4294967052UL);wr16(1081344UL+cmd_offset, 274);cmd_incrementn(2);wr1
      +                          6(1081344UL+cmd_offset, 161);cmd_incrementn(2);wr16(1081344UL+cmd_offset, 28);cmd_increm
      +                          entn(2);wr16(1081344UL+cmd_offset, 0);cmd_incrementn(2);cmd_incrementn(wr8s(1081344UL+cm
      +                          d_o
  4454  00230C  0E0C               	movlw	12
  4455  00230E  0100               	movlb	0	; () banked
  4456  002310  6F60               	movwf	cmd@command& (0+255),b
  4457  002312  0EFF               	movlw	255
  4458  002314  6F61               	movwf	(cmd@command+1)& (0+255),b
  4459  002316  0EFF               	movlw	255
  4460  002318  6F62               	movwf	(cmd@command+2)& (0+255),b
  4461  00231A  0EFF               	movlw	255
  4462  00231C  6F63               	movwf	(cmd@command+3)& (0+255),b
  4463  00231E  EC4F  F03A         	call	_cmd	;wreg free
  4464  002322  C03E  F066         	movff	_cmd_offset,??_display_rpm
  4465  002326  C03F  F067         	movff	_cmd_offset+1,??_display_rpm+1
  4466  00232A  0100               	movlb	0	; () banked
  4467  00232C  6B68               	clrf	(??_display_rpm+2)& (0+255),b
  4468  00232E  0E00               	movlw	0
  4469  002330  0100               	movlb	0	; () banked
  4470  002332  2566               	addwf	??_display_rpm& (0+255),w,b
  4471  002334  6E1F               	movwf	wr16@addr,c
  4472  002336  0E80               	movlw	128
  4473  002338  0100               	movlb	0	; () banked
  4474  00233A  2167               	addwfc	(??_display_rpm+1)& (0+255),w,b
  4475  00233C  6E20               	movwf	wr16@addr+1,c
  4476  00233E  0E10               	movlw	16
  4477  002340  0100               	movlb	0	; () banked
  4478  002342  2168               	addwfc	(??_display_rpm+2)& (0+255),w,b
  4479  002344  6E21               	movwf	wr16@addr+2,c
  4480  002346  0E01               	movlw	1
  4481  002348  6E23               	movwf	wr16@value+1,c
  4482  00234A  0E12               	movlw	18
  4483  00234C  6E22               	movwf	wr16@value,c
  4484  00234E  EC31  F03A         	call	_wr16	;wreg free
  4485  002352  0E02               	movlw	2
  4486  002354  ECA2  F03A         	call	_cmd_incrementn
  4487  002358  C03E  F066         	movff	_cmd_offset,??_display_rpm
  4488  00235C  C03F  F067         	movff	_cmd_offset+1,??_display_rpm+1
  4489  002360  0100               	movlb	0	; () banked
  4490  002362  6B68               	clrf	(??_display_rpm+2)& (0+255),b
  4491  002364  0E00               	movlw	0
  4492  002366  0100               	movlb	0	; () banked
  4493  002368  2566               	addwf	??_display_rpm& (0+255),w,b
  4494  00236A  6E1F               	movwf	wr16@addr,c
  4495  00236C  0E80               	movlw	128
  4496  00236E  0100               	movlb	0	; () banked
  4497  002370  2167               	addwfc	(??_display_rpm+1)& (0+255),w,b
  4498  002372  6E20               	movwf	wr16@addr+1,c
  4499  002374  0E10               	movlw	16
  4500  002376  0100               	movlb	0	; () banked
  4501  002378  2168               	addwfc	(??_display_rpm+2)& (0+255),w,b
  4502  00237A  6E21               	movwf	wr16@addr+2,c
  4503  00237C  0E00               	movlw	0
  4504  00237E  6E23               	movwf	wr16@value+1,c
  4505  002380  0EA1               	movlw	161
  4506  002382  6E22               	movwf	wr16@value,c
  4507  002384  EC31  F03A         	call	_wr16	;wreg free
  4508  002388  0E02               	movlw	2
  4509  00238A  ECA2  F03A         	call	_cmd_incrementn
  4510  00238E  C03E  F066         	movff	_cmd_offset,??_display_rpm
  4511  002392  C03F  F067         	movff	_cmd_offset+1,??_display_rpm+1
  4512  002396  0100               	movlb	0	; () banked
  4513  002398  6B68               	clrf	(??_display_rpm+2)& (0+255),b
  4514  00239A  0E00               	movlw	0
  4515  00239C  0100               	movlb	0	; () banked
  4516  00239E  2566               	addwf	??_display_rpm& (0+255),w,b
  4517  0023A0  6E1F               	movwf	wr16@addr,c
  4518  0023A2  0E80               	movlw	128
  4519  0023A4  0100               	movlb	0	; () banked
  4520  0023A6  2167               	addwfc	(??_display_rpm+1)& (0+255),w,b
  4521  0023A8  6E20               	movwf	wr16@addr+1,c
  4522  0023AA  0E10               	movlw	16
  4523  0023AC  0100               	movlb	0	; () banked
  4524  0023AE  2168               	addwfc	(??_display_rpm+2)& (0+255),w,b
  4525  0023B0  6E21               	movwf	wr16@addr+2,c
  4526  0023B2  0E00               	movlw	0
  4527  0023B4  6E23               	movwf	wr16@value+1,c
  4528  0023B6  0E1C               	movlw	28
  4529  0023B8  6E22               	movwf	wr16@value,c
  4530  0023BA  EC31  F03A         	call	_wr16	;wreg free
  4531  0023BE  0E02               	movlw	2
  4532  0023C0  ECA2  F03A         	call	_cmd_incrementn
  4533  0023C4  C03E  F066         	movff	_cmd_offset,??_display_rpm
  4534  0023C8  C03F  F067         	movff	_cmd_offset+1,??_display_rpm+1
  4535  0023CC  0100               	movlb	0	; () banked
  4536  0023CE  6B68               	clrf	(??_display_rpm+2)& (0+255),b
  4537  0023D0  0E00               	movlw	0
  4538  0023D2  0100               	movlb	0	; () banked
  4539  0023D4  2566               	addwf	??_display_rpm& (0+255),w,b
  4540  0023D6  6E1F               	movwf	wr16@addr,c
  4541  0023D8  0E80               	movlw	128
  4542  0023DA  0100               	movlb	0	; () banked
  4543  0023DC  2167               	addwfc	(??_display_rpm+1)& (0+255),w,b
  4544  0023DE  6E20               	movwf	wr16@addr+1,c
  4545  0023E0  0E10               	movlw	16
  4546  0023E2  0100               	movlb	0	; () banked
  4547  0023E4  2168               	addwfc	(??_display_rpm+2)& (0+255),w,b
  4548  0023E6  6E21               	movwf	wr16@addr+2,c
  4549  0023E8  0E00               	movlw	0
  4550  0023EA  6E23               	movwf	wr16@value+1,c
  4551  0023EC  0E00               	movlw	0
  4552  0023EE  6E22               	movwf	wr16@value,c
  4553  0023F0  EC31  F03A         	call	_wr16	;wreg free
  4554  0023F4  0E02               	movlw	2
  4555  0023F6  ECA2  F03A         	call	_cmd_incrementn
  4556  0023FA  C03E  F066         	movff	_cmd_offset,??_display_rpm
  4557  0023FE  C03F  F067         	movff	_cmd_offset+1,??_display_rpm+1
  4558  002402  0100               	movlb	0	; () banked
  4559  002404  6B68               	clrf	(??_display_rpm+2)& (0+255),b
  4560  002406  0E00               	movlw	0
  4561  002408  0100               	movlb	0	; () banked
  4562  00240A  2566               	addwf	??_display_rpm& (0+255),w,b
  4563  00240C  6E24               	movwf	wr8s@addr,c
  4564  00240E  0E80               	movlw	128
  4565  002410  0100               	movlb	0	; () banked
  4566  002412  2167               	addwfc	(??_display_rpm+1)& (0+255),w,b
  4567  002414  6E25               	movwf	wr8s@addr+1,c
  4568  002416  0E10               	movlw	16
  4569  002418  0100               	movlb	0	; () banked
  4570  00241A  2168               	addwfc	(??_display_rpm+2)& (0+255),w,b
  4571  00241C  6E26               	movwf	wr8s@addr+2,c
  4572  00241E  0E62               	movlw	low STR_38
  4573  002420  6E27               	movwf	wr8s@s,c
  4574  002422  0E0F               	movlw	high STR_38
  4575  002424  6E28               	movwf	wr8s@s+1,c
  4576  002426  EC04  F038         	call	_wr8s	;wreg free
  4577  00242A  ECA2  F03A         	call	_cmd_incrementn
  4578                           
  4579                           ;display.c: 187: cmd(4294967052UL);wr16(1081344UL+cmd_offset, 241);cmd_incrementn(2);wr1
      +                          6(1081344UL+cmd_offset, 114);cmd_incrementn(2);wr16(1081344UL+cmd_offset, 31);cmd_increm
      +                          entn(2);wr16(1081344UL+cmd_offset, 1536UL);cmd_incrementn(2);cmd_incrementn(wr8s(1081344
      +                          UL+
  4580  00242E  0E0C               	movlw	12
  4581  002430  0100               	movlb	0	; () banked
  4582  002432  6F60               	movwf	cmd@command& (0+255),b
  4583  002434  0EFF               	movlw	255
  4584  002436  6F61               	movwf	(cmd@command+1)& (0+255),b
  4585  002438  0EFF               	movlw	255
  4586  00243A  6F62               	movwf	(cmd@command+2)& (0+255),b
  4587  00243C  0EFF               	movlw	255
  4588  00243E  6F63               	movwf	(cmd@command+3)& (0+255),b
  4589  002440  EC4F  F03A         	call	_cmd	;wreg free
  4590  002444  C03E  F066         	movff	_cmd_offset,??_display_rpm
  4591  002448  C03F  F067         	movff	_cmd_offset+1,??_display_rpm+1
  4592  00244C  0100               	movlb	0	; () banked
  4593  00244E  6B68               	clrf	(??_display_rpm+2)& (0+255),b
  4594  002450  0E00               	movlw	0
  4595  002452  0100               	movlb	0	; () banked
  4596  002454  2566               	addwf	??_display_rpm& (0+255),w,b
  4597  002456  6E1F               	movwf	wr16@addr,c
  4598  002458  0E80               	movlw	128
  4599  00245A  0100               	movlb	0	; () banked
  4600  00245C  2167               	addwfc	(??_display_rpm+1)& (0+255),w,b
  4601  00245E  6E20               	movwf	wr16@addr+1,c
  4602  002460  0E10               	movlw	16
  4603  002462  0100               	movlb	0	; () banked
  4604  002464  2168               	addwfc	(??_display_rpm+2)& (0+255),w,b
  4605  002466  6E21               	movwf	wr16@addr+2,c
  4606  002468  0E00               	movlw	0
  4607  00246A  6E23               	movwf	wr16@value+1,c
  4608  00246C  0EF1               	movlw	241
  4609  00246E  6E22               	movwf	wr16@value,c
  4610  002470  EC31  F03A         	call	_wr16	;wreg free
  4611  002474  0E02               	movlw	2
  4612  002476  ECA2  F03A         	call	_cmd_incrementn
  4613  00247A  C03E  F066         	movff	_cmd_offset,??_display_rpm
  4614  00247E  C03F  F067         	movff	_cmd_offset+1,??_display_rpm+1
  4615  002482  0100               	movlb	0	; () banked
  4616  002484  6B68               	clrf	(??_display_rpm+2)& (0+255),b
  4617  002486  0E00               	movlw	0
  4618  002488  0100               	movlb	0	; () banked
  4619  00248A  2566               	addwf	??_display_rpm& (0+255),w,b
  4620  00248C  6E1F               	movwf	wr16@addr,c
  4621  00248E  0E80               	movlw	128
  4622  002490  0100               	movlb	0	; () banked
  4623  002492  2167               	addwfc	(??_display_rpm+1)& (0+255),w,b
  4624  002494  6E20               	movwf	wr16@addr+1,c
  4625  002496  0E10               	movlw	16
  4626  002498  0100               	movlb	0	; () banked
  4627  00249A  2168               	addwfc	(??_display_rpm+2)& (0+255),w,b
  4628  00249C  6E21               	movwf	wr16@addr+2,c
  4629  00249E  0E00               	movlw	0
  4630  0024A0  6E23               	movwf	wr16@value+1,c
  4631  0024A2  0E72               	movlw	114
  4632  0024A4  6E22               	movwf	wr16@value,c
  4633  0024A6  EC31  F03A         	call	_wr16	;wreg free
  4634  0024AA  0E02               	movlw	2
  4635  0024AC  ECA2  F03A         	call	_cmd_incrementn
  4636  0024B0  C03E  F066         	movff	_cmd_offset,??_display_rpm
  4637  0024B4  C03F  F067         	movff	_cmd_offset+1,??_display_rpm+1
  4638  0024B8  0100               	movlb	0	; () banked
  4639  0024BA  6B68               	clrf	(??_display_rpm+2)& (0+255),b
  4640  0024BC  0E00               	movlw	0
  4641  0024BE  0100               	movlb	0	; () banked
  4642  0024C0  2566               	addwf	??_display_rpm& (0+255),w,b
  4643  0024C2  6E1F               	movwf	wr16@addr,c
  4644  0024C4  0E80               	movlw	128
  4645  0024C6  0100               	movlb	0	; () banked
  4646  0024C8  2167               	addwfc	(??_display_rpm+1)& (0+255),w,b
  4647  0024CA  6E20               	movwf	wr16@addr+1,c
  4648  0024CC  0E10               	movlw	16
  4649  0024CE  0100               	movlb	0	; () banked
  4650  0024D0  2168               	addwfc	(??_display_rpm+2)& (0+255),w,b
  4651  0024D2  6E21               	movwf	wr16@addr+2,c
  4652  0024D4  0E00               	movlw	0
  4653  0024D6  6E23               	movwf	wr16@value+1,c
  4654  0024D8  0E1F               	movlw	31
  4655  0024DA  6E22               	movwf	wr16@value,c
  4656  0024DC  EC31  F03A         	call	_wr16	;wreg free
  4657  0024E0  0E02               	movlw	2
  4658  0024E2  ECA2  F03A         	call	_cmd_incrementn
  4659  0024E6  C03E  F066         	movff	_cmd_offset,??_display_rpm
  4660  0024EA  C03F  F067         	movff	_cmd_offset+1,??_display_rpm+1
  4661  0024EE  0100               	movlb	0	; () banked
  4662  0024F0  6B68               	clrf	(??_display_rpm+2)& (0+255),b
  4663  0024F2  0E00               	movlw	0
  4664  0024F4  0100               	movlb	0	; () banked
  4665  0024F6  2566               	addwf	??_display_rpm& (0+255),w,b
  4666  0024F8  6E1F               	movwf	wr16@addr,c
  4667  0024FA  0E80               	movlw	128
  4668  0024FC  0100               	movlb	0	; () banked
  4669  0024FE  2167               	addwfc	(??_display_rpm+1)& (0+255),w,b
  4670  002500  6E20               	movwf	wr16@addr+1,c
  4671  002502  0E10               	movlw	16
  4672  002504  0100               	movlb	0	; () banked
  4673  002506  2168               	addwfc	(??_display_rpm+2)& (0+255),w,b
  4674  002508  6E21               	movwf	wr16@addr+2,c
  4675  00250A  0E06               	movlw	6
  4676  00250C  6E23               	movwf	wr16@value+1,c
  4677  00250E  0E00               	movlw	0
  4678  002510  6E22               	movwf	wr16@value,c
  4679  002512  EC31  F03A         	call	_wr16	;wreg free
  4680  002516  0E02               	movlw	2
  4681  002518  ECA2  F03A         	call	_cmd_incrementn
  4682  00251C  C03E  F066         	movff	_cmd_offset,??_display_rpm
  4683  002520  C03F  F067         	movff	_cmd_offset+1,??_display_rpm+1
  4684  002524  0100               	movlb	0	; () banked
  4685  002526  6B68               	clrf	(??_display_rpm+2)& (0+255),b
  4686  002528  0E00               	movlw	0
  4687  00252A  0100               	movlb	0	; () banked
  4688  00252C  2566               	addwf	??_display_rpm& (0+255),w,b
  4689  00252E  6E24               	movwf	wr8s@addr,c
  4690  002530  0E80               	movlw	128
  4691  002532  0100               	movlb	0	; () banked
  4692  002534  2167               	addwfc	(??_display_rpm+1)& (0+255),w,b
  4693  002536  6E25               	movwf	wr8s@addr+1,c
  4694  002538  0E10               	movlw	16
  4695  00253A  0100               	movlb	0	; () banked
  4696  00253C  2168               	addwfc	(??_display_rpm+2)& (0+255),w,b
  4697  00253E  6E26               	movwf	wr8s@addr+2,c
  4698  002540  0E6A               	movlw	low STR_26
  4699  002542  6E27               	movwf	wr8s@s,c
  4700  002544  0E0F               	movlw	high STR_26
  4701  002546  6E28               	movwf	wr8s@s+1,c
  4702  002548  EC04  F038         	call	_wr8s	;wreg free
  4703  00254C  ECA2  F03A         	call	_cmd_incrementn
  4704                           
  4705                           ;display.c: 188: cmd(4294967052UL);wr16(1081344UL+cmd_offset, 267);cmd_incrementn(2);wr1
      +                          6(1081344UL+cmd_offset, 108);cmd_incrementn(2);wr16(1081344UL+cmd_offset, 28);cmd_increm
      +                          entn(2);wr16(1081344UL+cmd_offset, 0);cmd_incrementn(2);cmd_incrementn(wr8s(1081344UL+cm
      +                          d_o
  4706  002550  0E0C               	movlw	12
  4707  002552  0100               	movlb	0	; () banked
  4708  002554  6F60               	movwf	cmd@command& (0+255),b
  4709  002556  0EFF               	movlw	255
  4710  002558  6F61               	movwf	(cmd@command+1)& (0+255),b
  4711  00255A  0EFF               	movlw	255
  4712  00255C  6F62               	movwf	(cmd@command+2)& (0+255),b
  4713  00255E  0EFF               	movlw	255
  4714  002560  6F63               	movwf	(cmd@command+3)& (0+255),b
  4715  002562  EC4F  F03A         	call	_cmd	;wreg free
  4716  002566  C03E  F066         	movff	_cmd_offset,??_display_rpm
  4717  00256A  C03F  F067         	movff	_cmd_offset+1,??_display_rpm+1
  4718  00256E  0100               	movlb	0	; () banked
  4719  002570  6B68               	clrf	(??_display_rpm+2)& (0+255),b
  4720  002572  0E00               	movlw	0
  4721  002574  0100               	movlb	0	; () banked
  4722  002576  2566               	addwf	??_display_rpm& (0+255),w,b
  4723  002578  6E1F               	movwf	wr16@addr,c
  4724  00257A  0E80               	movlw	128
  4725  00257C  0100               	movlb	0	; () banked
  4726  00257E  2167               	addwfc	(??_display_rpm+1)& (0+255),w,b
  4727  002580  6E20               	movwf	wr16@addr+1,c
  4728  002582  0E10               	movlw	16
  4729  002584  0100               	movlb	0	; () banked
  4730  002586  2168               	addwfc	(??_display_rpm+2)& (0+255),w,b
  4731  002588  6E21               	movwf	wr16@addr+2,c
  4732  00258A  0E01               	movlw	1
  4733  00258C  6E23               	movwf	wr16@value+1,c
  4734  00258E  0E0B               	movlw	11
  4735  002590  6E22               	movwf	wr16@value,c
  4736  002592  EC31  F03A         	call	_wr16	;wreg free
  4737  002596  0E02               	movlw	2
  4738  002598  ECA2  F03A         	call	_cmd_incrementn
  4739  00259C  C03E  F066         	movff	_cmd_offset,??_display_rpm
  4740  0025A0  C03F  F067         	movff	_cmd_offset+1,??_display_rpm+1
  4741  0025A4  0100               	movlb	0	; () banked
  4742  0025A6  6B68               	clrf	(??_display_rpm+2)& (0+255),b
  4743  0025A8  0E00               	movlw	0
  4744  0025AA  0100               	movlb	0	; () banked
  4745  0025AC  2566               	addwf	??_display_rpm& (0+255),w,b
  4746  0025AE  6E1F               	movwf	wr16@addr,c
  4747  0025B0  0E80               	movlw	128
  4748  0025B2  0100               	movlb	0	; () banked
  4749  0025B4  2167               	addwfc	(??_display_rpm+1)& (0+255),w,b
  4750  0025B6  6E20               	movwf	wr16@addr+1,c
  4751  0025B8  0E10               	movlw	16
  4752  0025BA  0100               	movlb	0	; () banked
  4753  0025BC  2168               	addwfc	(??_display_rpm+2)& (0+255),w,b
  4754  0025BE  6E21               	movwf	wr16@addr+2,c
  4755  0025C0  0E00               	movlw	0
  4756  0025C2  6E23               	movwf	wr16@value+1,c
  4757  0025C4  0E6C               	movlw	108
  4758  0025C6  6E22               	movwf	wr16@value,c
  4759  0025C8  EC31  F03A         	call	_wr16	;wreg free
  4760  0025CC  0E02               	movlw	2
  4761  0025CE  ECA2  F03A         	call	_cmd_incrementn
  4762  0025D2  C03E  F066         	movff	_cmd_offset,??_display_rpm
  4763  0025D6  C03F  F067         	movff	_cmd_offset+1,??_display_rpm+1
  4764  0025DA  0100               	movlb	0	; () banked
  4765  0025DC  6B68               	clrf	(??_display_rpm+2)& (0+255),b
  4766  0025DE  0E00               	movlw	0
  4767  0025E0  0100               	movlb	0	; () banked
  4768  0025E2  2566               	addwf	??_display_rpm& (0+255),w,b
  4769  0025E4  6E1F               	movwf	wr16@addr,c
  4770  0025E6  0E80               	movlw	128
  4771  0025E8  0100               	movlb	0	; () banked
  4772  0025EA  2167               	addwfc	(??_display_rpm+1)& (0+255),w,b
  4773  0025EC  6E20               	movwf	wr16@addr+1,c
  4774  0025EE  0E10               	movlw	16
  4775  0025F0  0100               	movlb	0	; () banked
  4776  0025F2  2168               	addwfc	(??_display_rpm+2)& (0+255),w,b
  4777  0025F4  6E21               	movwf	wr16@addr+2,c
  4778  0025F6  0E00               	movlw	0
  4779  0025F8  6E23               	movwf	wr16@value+1,c
  4780  0025FA  0E1C               	movlw	28
  4781  0025FC  6E22               	movwf	wr16@value,c
  4782  0025FE  EC31  F03A         	call	_wr16	;wreg free
  4783  002602  0E02               	movlw	2
  4784  002604  ECA2  F03A         	call	_cmd_incrementn
  4785  002608  C03E  F066         	movff	_cmd_offset,??_display_rpm
  4786  00260C  C03F  F067         	movff	_cmd_offset+1,??_display_rpm+1
  4787  002610  0100               	movlb	0	; () banked
  4788  002612  6B68               	clrf	(??_display_rpm+2)& (0+255),b
  4789  002614  0E00               	movlw	0
  4790  002616  0100               	movlb	0	; () banked
  4791  002618  2566               	addwf	??_display_rpm& (0+255),w,b
  4792  00261A  6E1F               	movwf	wr16@addr,c
  4793  00261C  0E80               	movlw	128
  4794  00261E  0100               	movlb	0	; () banked
  4795  002620  2167               	addwfc	(??_display_rpm+1)& (0+255),w,b
  4796  002622  6E20               	movwf	wr16@addr+1,c
  4797  002624  0E10               	movlw	16
  4798  002626  0100               	movlb	0	; () banked
  4799  002628  2168               	addwfc	(??_display_rpm+2)& (0+255),w,b
  4800  00262A  6E21               	movwf	wr16@addr+2,c
  4801  00262C  0E00               	movlw	0
  4802  00262E  6E23               	movwf	wr16@value+1,c
  4803  002630  0E00               	movlw	0
  4804  002632  6E22               	movwf	wr16@value,c
  4805  002634  EC31  F03A         	call	_wr16	;wreg free
  4806  002638  0E02               	movlw	2
  4807  00263A  ECA2  F03A         	call	_cmd_incrementn
  4808  00263E  C03E  F066         	movff	_cmd_offset,??_display_rpm
  4809  002642  C03F  F067         	movff	_cmd_offset+1,??_display_rpm+1
  4810  002646  0100               	movlb	0	; () banked
  4811  002648  6B68               	clrf	(??_display_rpm+2)& (0+255),b
  4812  00264A  0E00               	movlw	0
  4813  00264C  0100               	movlb	0	; () banked
  4814  00264E  2566               	addwf	??_display_rpm& (0+255),w,b
  4815  002650  6E24               	movwf	wr8s@addr,c
  4816  002652  0E80               	movlw	128
  4817  002654  0100               	movlb	0	; () banked
  4818  002656  2167               	addwfc	(??_display_rpm+1)& (0+255),w,b
  4819  002658  6E25               	movwf	wr8s@addr+1,c
  4820  00265A  0E10               	movlw	16
  4821  00265C  0100               	movlb	0	; () banked
  4822  00265E  2168               	addwfc	(??_display_rpm+2)& (0+255),w,b
  4823  002660  6E26               	movwf	wr8s@addr+2,c
  4824  002662  0E7C               	movlw	low STR_40
  4825  002664  6E27               	movwf	wr8s@s,c
  4826  002666  0E0F               	movlw	high STR_40
  4827  002668  6E28               	movwf	wr8s@s+1,c
  4828  00266A  EC04  F038         	call	_wr8s	;wreg free
  4829  00266E  ECA2  F03A         	call	_cmd_incrementn
  4830                           
  4831                           ;display.c: 189: cmd(4294967052UL);wr16(1081344UL+cmd_offset, 227);cmd_incrementn(2);wr1
      +                          6(1081344UL+cmd_offset, 132);cmd_incrementn(2);wr16(1081344UL+cmd_offset, 26);cmd_increm
      +                          entn(2);wr16(1081344UL+cmd_offset, 0);cmd_incrementn(2);cmd_incrementn(wr8s(1081344UL+cm
      +                          d_o
  4832  002672  0E0C               	movlw	12
  4833  002674  0100               	movlb	0	; () banked
  4834  002676  6F60               	movwf	cmd@command& (0+255),b
  4835  002678  0EFF               	movlw	255
  4836  00267A  6F61               	movwf	(cmd@command+1)& (0+255),b
  4837  00267C  0EFF               	movlw	255
  4838  00267E  6F62               	movwf	(cmd@command+2)& (0+255),b
  4839  002680  0EFF               	movlw	255
  4840  002682  6F63               	movwf	(cmd@command+3)& (0+255),b
  4841  002684  EC4F  F03A         	call	_cmd	;wreg free
  4842  002688  C03E  F066         	movff	_cmd_offset,??_display_rpm
  4843  00268C  C03F  F067         	movff	_cmd_offset+1,??_display_rpm+1
  4844  002690  0100               	movlb	0	; () banked
  4845  002692  6B68               	clrf	(??_display_rpm+2)& (0+255),b
  4846  002694  0E00               	movlw	0
  4847  002696  0100               	movlb	0	; () banked
  4848  002698  2566               	addwf	??_display_rpm& (0+255),w,b
  4849  00269A  6E1F               	movwf	wr16@addr,c
  4850  00269C  0E80               	movlw	128
  4851  00269E  0100               	movlb	0	; () banked
  4852  0026A0  2167               	addwfc	(??_display_rpm+1)& (0+255),w,b
  4853  0026A2  6E20               	movwf	wr16@addr+1,c
  4854  0026A4  0E10               	movlw	16
  4855  0026A6  0100               	movlb	0	; () banked
  4856  0026A8  2168               	addwfc	(??_display_rpm+2)& (0+255),w,b
  4857  0026AA  6E21               	movwf	wr16@addr+2,c
  4858  0026AC  0E00               	movlw	0
  4859  0026AE  6E23               	movwf	wr16@value+1,c
  4860  0026B0  0EE3               	movlw	227
  4861  0026B2  6E22               	movwf	wr16@value,c
  4862  0026B4  EC31  F03A         	call	_wr16	;wreg free
  4863  0026B8  0E02               	movlw	2
  4864  0026BA  ECA2  F03A         	call	_cmd_incrementn
  4865  0026BE  C03E  F066         	movff	_cmd_offset,??_display_rpm
  4866  0026C2  C03F  F067         	movff	_cmd_offset+1,??_display_rpm+1
  4867  0026C6  0100               	movlb	0	; () banked
  4868  0026C8  6B68               	clrf	(??_display_rpm+2)& (0+255),b
  4869  0026CA  0E00               	movlw	0
  4870  0026CC  0100               	movlb	0	; () banked
  4871  0026CE  2566               	addwf	??_display_rpm& (0+255),w,b
  4872  0026D0  6E1F               	movwf	wr16@addr,c
  4873  0026D2  0E80               	movlw	128
  4874  0026D4  0100               	movlb	0	; () banked
  4875  0026D6  2167               	addwfc	(??_display_rpm+1)& (0+255),w,b
  4876  0026D8  6E20               	movwf	wr16@addr+1,c
  4877  0026DA  0E10               	movlw	16
  4878  0026DC  0100               	movlb	0	; () banked
  4879  0026DE  2168               	addwfc	(??_display_rpm+2)& (0+255),w,b
  4880  0026E0  6E21               	movwf	wr16@addr+2,c
  4881  0026E2  0E00               	movlw	0
  4882  0026E4  6E23               	movwf	wr16@value+1,c
  4883  0026E6  0E84               	movlw	132
  4884  0026E8  6E22               	movwf	wr16@value,c
  4885  0026EA  EC31  F03A         	call	_wr16	;wreg free
  4886  0026EE  0E02               	movlw	2
  4887  0026F0  ECA2  F03A         	call	_cmd_incrementn
  4888  0026F4  C03E  F066         	movff	_cmd_offset,??_display_rpm
  4889  0026F8  C03F  F067         	movff	_cmd_offset+1,??_display_rpm+1
  4890  0026FC  0100               	movlb	0	; () banked
  4891  0026FE  6B68               	clrf	(??_display_rpm+2)& (0+255),b
  4892  002700  0E00               	movlw	0
  4893  002702  0100               	movlb	0	; () banked
  4894  002704  2566               	addwf	??_display_rpm& (0+255),w,b
  4895  002706  6E1F               	movwf	wr16@addr,c
  4896  002708  0E80               	movlw	128
  4897  00270A  0100               	movlb	0	; () banked
  4898  00270C  2167               	addwfc	(??_display_rpm+1)& (0+255),w,b
  4899  00270E  6E20               	movwf	wr16@addr+1,c
  4900  002710  0E10               	movlw	16
  4901  002712  0100               	movlb	0	; () banked
  4902  002714  2168               	addwfc	(??_display_rpm+2)& (0+255),w,b
  4903  002716  6E21               	movwf	wr16@addr+2,c
  4904  002718  0E00               	movlw	0
  4905  00271A  6E23               	movwf	wr16@value+1,c
  4906  00271C  0E1A               	movlw	26
  4907  00271E  6E22               	movwf	wr16@value,c
  4908  002720  EC31  F03A         	call	_wr16	;wreg free
  4909  002724  0E02               	movlw	2
  4910  002726  ECA2  F03A         	call	_cmd_incrementn
  4911  00272A  C03E  F066         	movff	_cmd_offset,??_display_rpm
  4912  00272E  C03F  F067         	movff	_cmd_offset+1,??_display_rpm+1
  4913  002732  0100               	movlb	0	; () banked
  4914  002734  6B68               	clrf	(??_display_rpm+2)& (0+255),b
  4915  002736  0E00               	movlw	0
  4916  002738  0100               	movlb	0	; () banked
  4917  00273A  2566               	addwf	??_display_rpm& (0+255),w,b
  4918  00273C  6E1F               	movwf	wr16@addr,c
  4919  00273E  0E80               	movlw	128
  4920  002740  0100               	movlb	0	; () banked
  4921  002742  2167               	addwfc	(??_display_rpm+1)& (0+255),w,b
  4922  002744  6E20               	movwf	wr16@addr+1,c
  4923  002746  0E10               	movlw	16
  4924  002748  0100               	movlb	0	; () banked
  4925  00274A  2168               	addwfc	(??_display_rpm+2)& (0+255),w,b
  4926  00274C  6E21               	movwf	wr16@addr+2,c
  4927  00274E  0E00               	movlw	0
  4928  002750  6E23               	movwf	wr16@value+1,c
  4929  002752  0E00               	movlw	0
  4930  002754  6E22               	movwf	wr16@value,c
  4931  002756  EC31  F03A         	call	_wr16	;wreg free
  4932  00275A  0E02               	movlw	2
  4933  00275C  ECA2  F03A         	call	_cmd_incrementn
  4934  002760  C03E  F066         	movff	_cmd_offset,??_display_rpm
  4935  002764  C03F  F067         	movff	_cmd_offset+1,??_display_rpm+1
  4936  002768  0100               	movlb	0	; () banked
  4937  00276A  6B68               	clrf	(??_display_rpm+2)& (0+255),b
  4938  00276C  0E00               	movlw	0
  4939  00276E  0100               	movlb	0	; () banked
  4940  002770  2566               	addwf	??_display_rpm& (0+255),w,b
  4941  002772  6E24               	movwf	wr8s@addr,c
  4942  002774  0E80               	movlw	128
  4943  002776  0100               	movlb	0	; () banked
  4944  002778  2167               	addwfc	(??_display_rpm+1)& (0+255),w,b
  4945  00277A  6E25               	movwf	wr8s@addr+1,c
  4946  00277C  0E10               	movlw	16
  4947  00277E  0100               	movlb	0	; () banked
  4948  002780  2168               	addwfc	(??_display_rpm+2)& (0+255),w,b
  4949  002782  6E26               	movwf	wr8s@addr+2,c
  4950  002784  0E54               	movlw	low STR_41
  4951  002786  6E27               	movwf	wr8s@s,c
  4952  002788  0E0F               	movlw	high STR_41
  4953  00278A  6E28               	movwf	wr8s@s+1,c
  4954  00278C  EC04  F038         	call	_wr8s	;wreg free
  4955  002790  ECA2  F03A         	call	_cmd_incrementn
  4956  002794  0012               	return		;funcret
  4957  002796                     __end_of_display_rpm:
  4958                           	opt stack 0
  4959                           tblptru	equ	0xFF8
  4960                           postinc0	equ	0xFEE
  4961                           wreg	equ	0xFE8
  4962                           status	equ	0xFD8
  4963                           
  4964 ;; *************** function _display_oilTemp *****************
  4965 ;; Defined at:
  4966 ;;		line 129 in file "display.c"
  4967 ;; Parameters:    Size  Location     Type
  4968 ;;  temp            2    4[BANK0 ] int 
  4969 ;; Auto vars:     Size  Location     Type
  4970 ;;		None
  4971 ;; Return value:  Size  Location     Type
  4972 ;;                  1    wreg      void 
  4973 ;; Registers used:
  4974 ;;		wreg, status,2, status,0, cstack
  4975 ;; Tracked objects:
  4976 ;;		On entry : 0/0
  4977 ;;		On exit  : 0/0
  4978 ;;		Unchanged: 0/0
  4979 ;; Data sizes:     COMRAM   BANK0   BANK1   BANK2   BANK3   BANK4   BANK5   BANK6   BANK7   BANK8   BANK9  BANK10  BANK1
      +1  BANK12  BANK13  BANK14
  4980 ;;      Params:         0       2       0       0       0       0       0       0       0       0       0       0       
      +0       0       0       0
  4981 ;;      Locals:         0       0       0       0       0       0       0       0       0       0       0       0       
      +0       0       0       0
  4982 ;;      Temps:          0       3       0       0       0       0       0       0       0       0       0       0       
      +0       0       0       0
  4983 ;;      Totals:         0       5       0       0       0       0       0       0       0       0       0       0       
      +0       0       0       0
  4984 ;;Total ram usage:        5 bytes
  4985 ;; Hardware stack levels used:    1
  4986 ;; Hardware stack levels required when called:    5
  4987 ;; This function calls:
  4988 ;;		_cmd
  4989 ;;		_cmd_incrementn
  4990 ;;		_wr16
  4991 ;; This function is called by:
  4992 ;;		_display
  4993 ;; This function uses a non-reentrant model
  4994 ;;
  4995                           
  4996                           	psect	text8
  4997  006B98                     __ptext8:
  4998                           	opt stack 0
  4999  006B98                     _display_oilTemp:
  5000                           	opt stack 24
  5001                           
  5002                           ;display.c: 130: cmd(4294967086UL);wr16(1081344UL+cmd_offset, 66);cmd_incrementn(2);wr16
      +                          (1081344UL+cmd_offset, 48);cmd_incrementn(2);wr16(1081344UL+cmd_offset, 28);cmd_incremen
      +                          tn(2);wr16(1081344UL+cmd_offset, 0);cmd_incrementn(2);cmd(temp);
  5003                           
  5004                           ;incstack = 0
  5005  006B98  0E2E               	movlw	46
  5006  006B9A  0100               	movlb	0	; () banked
  5007  006B9C  6F60               	movwf	cmd@command& (0+255),b
  5008  006B9E  0EFF               	movlw	255
  5009  006BA0  6F61               	movwf	(cmd@command+1)& (0+255),b
  5010  006BA2  0EFF               	movlw	255
  5011  006BA4  6F62               	movwf	(cmd@command+2)& (0+255),b
  5012  006BA6  0EFF               	movlw	255
  5013  006BA8  6F63               	movwf	(cmd@command+3)& (0+255),b
  5014  006BAA  EC4F  F03A         	call	_cmd	;wreg free
  5015  006BAE  C03E  F066         	movff	_cmd_offset,??_display_oilTemp
  5016  006BB2  C03F  F067         	movff	_cmd_offset+1,??_display_oilTemp+1
  5017  006BB6  0100               	movlb	0	; () banked
  5018  006BB8  6B68               	clrf	(??_display_oilTemp+2)& (0+255),b
  5019  006BBA  0E00               	movlw	0
  5020  006BBC  0100               	movlb	0	; () banked
  5021  006BBE  2566               	addwf	??_display_oilTemp& (0+255),w,b
  5022  006BC0  6E1F               	movwf	wr16@addr,c
  5023  006BC2  0E80               	movlw	128
  5024  006BC4  0100               	movlb	0	; () banked
  5025  006BC6  2167               	addwfc	(??_display_oilTemp+1)& (0+255),w,b
  5026  006BC8  6E20               	movwf	wr16@addr+1,c
  5027  006BCA  0E10               	movlw	16
  5028  006BCC  0100               	movlb	0	; () banked
  5029  006BCE  2168               	addwfc	(??_display_oilTemp+2)& (0+255),w,b
  5030  006BD0  6E21               	movwf	wr16@addr+2,c
  5031  006BD2  0E00               	movlw	0
  5032  006BD4  6E23               	movwf	wr16@value+1,c
  5033  006BD6  0E42               	movlw	66
  5034  006BD8  6E22               	movwf	wr16@value,c
  5035  006BDA  EC31  F03A         	call	_wr16	;wreg free
  5036  006BDE  0E02               	movlw	2
  5037  006BE0  ECA2  F03A         	call	_cmd_incrementn
  5038  006BE4  C03E  F066         	movff	_cmd_offset,??_display_oilTemp
  5039  006BE8  C03F  F067         	movff	_cmd_offset+1,??_display_oilTemp+1
  5040  006BEC  0100               	movlb	0	; () banked
  5041  006BEE  6B68               	clrf	(??_display_oilTemp+2)& (0+255),b
  5042  006BF0  0E00               	movlw	0
  5043  006BF2  0100               	movlb	0	; () banked
  5044  006BF4  2566               	addwf	??_display_oilTemp& (0+255),w,b
  5045  006BF6  6E1F               	movwf	wr16@addr,c
  5046  006BF8  0E80               	movlw	128
  5047  006BFA  0100               	movlb	0	; () banked
  5048  006BFC  2167               	addwfc	(??_display_oilTemp+1)& (0+255),w,b
  5049  006BFE  6E20               	movwf	wr16@addr+1,c
  5050  006C00  0E10               	movlw	16
  5051  006C02  0100               	movlb	0	; () banked
  5052  006C04  2168               	addwfc	(??_display_oilTemp+2)& (0+255),w,b
  5053  006C06  6E21               	movwf	wr16@addr+2,c
  5054  006C08  0E00               	movlw	0
  5055  006C0A  6E23               	movwf	wr16@value+1,c
  5056  006C0C  0E30               	movlw	48
  5057  006C0E  6E22               	movwf	wr16@value,c
  5058  006C10  EC31  F03A         	call	_wr16	;wreg free
  5059  006C14  0E02               	movlw	2
  5060  006C16  ECA2  F03A         	call	_cmd_incrementn
  5061  006C1A  C03E  F066         	movff	_cmd_offset,??_display_oilTemp
  5062  006C1E  C03F  F067         	movff	_cmd_offset+1,??_display_oilTemp+1
  5063  006C22  0100               	movlb	0	; () banked
  5064  006C24  6B68               	clrf	(??_display_oilTemp+2)& (0+255),b
  5065  006C26  0E00               	movlw	0
  5066  006C28  0100               	movlb	0	; () banked
  5067  006C2A  2566               	addwf	??_display_oilTemp& (0+255),w,b
  5068  006C2C  6E1F               	movwf	wr16@addr,c
  5069  006C2E  0E80               	movlw	128
  5070  006C30  0100               	movlb	0	; () banked
  5071  006C32  2167               	addwfc	(??_display_oilTemp+1)& (0+255),w,b
  5072  006C34  6E20               	movwf	wr16@addr+1,c
  5073  006C36  0E10               	movlw	16
  5074  006C38  0100               	movlb	0	; () banked
  5075  006C3A  2168               	addwfc	(??_display_oilTemp+2)& (0+255),w,b
  5076  006C3C  6E21               	movwf	wr16@addr+2,c
  5077  006C3E  0E00               	movlw	0
  5078  006C40  6E23               	movwf	wr16@value+1,c
  5079  006C42  0E1C               	movlw	28
  5080  006C44  6E22               	movwf	wr16@value,c
  5081  006C46  EC31  F03A         	call	_wr16	;wreg free
  5082  006C4A  0E02               	movlw	2
  5083  006C4C  ECA2  F03A         	call	_cmd_incrementn
  5084  006C50  C03E  F066         	movff	_cmd_offset,??_display_oilTemp
  5085  006C54  C03F  F067         	movff	_cmd_offset+1,??_display_oilTemp+1
  5086  006C58  0100               	movlb	0	; () banked
  5087  006C5A  6B68               	clrf	(??_display_oilTemp+2)& (0+255),b
  5088  006C5C  0E00               	movlw	0
  5089  006C5E  0100               	movlb	0	; () banked
  5090  006C60  2566               	addwf	??_display_oilTemp& (0+255),w,b
  5091  006C62  6E1F               	movwf	wr16@addr,c
  5092  006C64  0E80               	movlw	128
  5093  006C66  0100               	movlb	0	; () banked
  5094  006C68  2167               	addwfc	(??_display_oilTemp+1)& (0+255),w,b
  5095  006C6A  6E20               	movwf	wr16@addr+1,c
  5096  006C6C  0E10               	movlw	16
  5097  006C6E  0100               	movlb	0	; () banked
  5098  006C70  2168               	addwfc	(??_display_oilTemp+2)& (0+255),w,b
  5099  006C72  6E21               	movwf	wr16@addr+2,c
  5100  006C74  0E00               	movlw	0
  5101  006C76  6E23               	movwf	wr16@value+1,c
  5102  006C78  0E00               	movlw	0
  5103  006C7A  6E22               	movwf	wr16@value,c
  5104  006C7C  EC31  F03A         	call	_wr16	;wreg free
  5105  006C80  0E02               	movlw	2
  5106  006C82  ECA2  F03A         	call	_cmd_incrementn
  5107  006C86  C064  F060         	movff	display_oilTemp@temp,cmd@command
  5108  006C8A  C065  F061         	movff	display_oilTemp@temp+1,cmd@command+1
  5109  006C8E  0100               	movlb	0	; () banked
  5110  006C90  0E00               	movlw	0
  5111  006C92  BF61               	btfsc	(cmd@command+1)& (0+255),7,b
  5112  006C94  0EFF               	movlw	-1
  5113  006C96  6F62               	movwf	(cmd@command+2)& (0+255),b
  5114  006C98  6F63               	movwf	(cmd@command+3)& (0+255),b
  5115  006C9A  EC4F  F03A         	call	_cmd	;wreg free
  5116  006C9E  0012               	return		;funcret
  5117  006CA0                     __end_of_display_oilTemp:
  5118                           	opt stack 0
  5119                           tblptru	equ	0xFF8
  5120                           postinc0	equ	0xFEE
  5121                           wreg	equ	0xFE8
  5122                           status	equ	0xFD8
  5123                           
  5124 ;; *************** function _display_oilPress *****************
  5125 ;; Defined at:
  5126 ;;		line 145 in file "display.c"
  5127 ;; Parameters:    Size  Location     Type
  5128 ;;  pressure        3    4[BANK0 ] float 
  5129 ;; Auto vars:     Size  Location     Type
  5130 ;;		None
  5131 ;; Return value:  Size  Location     Type
  5132 ;;                  1    wreg      void 
  5133 ;; Registers used:
  5134 ;;		wreg, status,2, status,0, cstack
  5135 ;; Tracked objects:
  5136 ;;		On entry : 0/0
  5137 ;;		On exit  : 0/0
  5138 ;;		Unchanged: 0/0
  5139 ;; Data sizes:     COMRAM   BANK0   BANK1   BANK2   BANK3   BANK4   BANK5   BANK6   BANK7   BANK8   BANK9  BANK10  BANK1
      +1  BANK12  BANK13  BANK14
  5140 ;;      Params:         0       3       0       0       0       0       0       0       0       0       0       0       
      +0       0       0       0
  5141 ;;      Locals:         0       0       0       0       0       0       0       0       0       0       0       0       
      +0       0       0       0
  5142 ;;      Temps:          0       3       0       0       0       0       0       0       0       0       0       0       
      +0       0       0       0
  5143 ;;      Totals:         0       6       0       0       0       0       0       0       0       0       0       0       
      +0       0       0       0
  5144 ;;Total ram usage:        6 bytes
  5145 ;; Hardware stack levels used:    1
  5146 ;; Hardware stack levels required when called:    5
  5147 ;; This function calls:
  5148 ;;		___fttol
  5149 ;;		_cmd
  5150 ;;		_cmd_incrementn
  5151 ;;		_wr16
  5152 ;; This function is called by:
  5153 ;;		_display
  5154 ;; This function uses a non-reentrant model
  5155 ;;
  5156                           
  5157                           	psect	text9
  5158  006874                     __ptext9:
  5159                           	opt stack 0
  5160  006874                     _display_oilPress:
  5161                           	opt stack 24
  5162                           
  5163                           ;display.c: 146: cmd(4294967086UL);wr16(1081344UL+cmd_offset, 66);cmd_incrementn(2);wr16
      +                          (1081344UL+cmd_offset, 171);cmd_incrementn(2);wr16(1081344UL+cmd_offset, 28);cmd_increme
      +                          ntn(2);wr16(1081344UL+cmd_offset, 0);cmd_incrementn(2);cmd(pressure);
  5164                           
  5165                           ;incstack = 0
  5166  006874  0E2E               	movlw	46
  5167  006876  0100               	movlb	0	; () banked
  5168  006878  6F60               	movwf	cmd@command& (0+255),b
  5169  00687A  0EFF               	movlw	255
  5170  00687C  6F61               	movwf	(cmd@command+1)& (0+255),b
  5171  00687E  0EFF               	movlw	255
  5172  006880  6F62               	movwf	(cmd@command+2)& (0+255),b
  5173  006882  0EFF               	movlw	255
  5174  006884  6F63               	movwf	(cmd@command+3)& (0+255),b
  5175  006886  EC4F  F03A         	call	_cmd	;wreg free
  5176  00688A  C03E  F067         	movff	_cmd_offset,??_display_oilPress
  5177  00688E  C03F  F068         	movff	_cmd_offset+1,??_display_oilPress+1
  5178  006892  0100               	movlb	0	; () banked
  5179  006894  6B69               	clrf	(??_display_oilPress+2)& (0+255),b
  5180  006896  0E00               	movlw	0
  5181  006898  0100               	movlb	0	; () banked
  5182  00689A  2567               	addwf	??_display_oilPress& (0+255),w,b
  5183  00689C  6E1F               	movwf	wr16@addr,c
  5184  00689E  0E80               	movlw	128
  5185  0068A0  0100               	movlb	0	; () banked
  5186  0068A2  2168               	addwfc	(??_display_oilPress+1)& (0+255),w,b
  5187  0068A4  6E20               	movwf	wr16@addr+1,c
  5188  0068A6  0E10               	movlw	16
  5189  0068A8  0100               	movlb	0	; () banked
  5190  0068AA  2169               	addwfc	(??_display_oilPress+2)& (0+255),w,b
  5191  0068AC  6E21               	movwf	wr16@addr+2,c
  5192  0068AE  0E00               	movlw	0
  5193  0068B0  6E23               	movwf	wr16@value+1,c
  5194  0068B2  0E42               	movlw	66
  5195  0068B4  6E22               	movwf	wr16@value,c
  5196  0068B6  EC31  F03A         	call	_wr16	;wreg free
  5197  0068BA  0E02               	movlw	2
  5198  0068BC  ECA2  F03A         	call	_cmd_incrementn
  5199  0068C0  C03E  F067         	movff	_cmd_offset,??_display_oilPress
  5200  0068C4  C03F  F068         	movff	_cmd_offset+1,??_display_oilPress+1
  5201  0068C8  0100               	movlb	0	; () banked
  5202  0068CA  6B69               	clrf	(??_display_oilPress+2)& (0+255),b
  5203  0068CC  0E00               	movlw	0
  5204  0068CE  0100               	movlb	0	; () banked
  5205  0068D0  2567               	addwf	??_display_oilPress& (0+255),w,b
  5206  0068D2  6E1F               	movwf	wr16@addr,c
  5207  0068D4  0E80               	movlw	128
  5208  0068D6  0100               	movlb	0	; () banked
  5209  0068D8  2168               	addwfc	(??_display_oilPress+1)& (0+255),w,b
  5210  0068DA  6E20               	movwf	wr16@addr+1,c
  5211  0068DC  0E10               	movlw	16
  5212  0068DE  0100               	movlb	0	; () banked
  5213  0068E0  2169               	addwfc	(??_display_oilPress+2)& (0+255),w,b
  5214  0068E2  6E21               	movwf	wr16@addr+2,c
  5215  0068E4  0E00               	movlw	0
  5216  0068E6  6E23               	movwf	wr16@value+1,c
  5217  0068E8  0EAB               	movlw	171
  5218  0068EA  6E22               	movwf	wr16@value,c
  5219  0068EC  EC31  F03A         	call	_wr16	;wreg free
  5220  0068F0  0E02               	movlw	2
  5221  0068F2  ECA2  F03A         	call	_cmd_incrementn
  5222  0068F6  C03E  F067         	movff	_cmd_offset,??_display_oilPress
  5223  0068FA  C03F  F068         	movff	_cmd_offset+1,??_display_oilPress+1
  5224  0068FE  0100               	movlb	0	; () banked
  5225  006900  6B69               	clrf	(??_display_oilPress+2)& (0+255),b
  5226  006902  0E00               	movlw	0
  5227  006904  0100               	movlb	0	; () banked
  5228  006906  2567               	addwf	??_display_oilPress& (0+255),w,b
  5229  006908  6E1F               	movwf	wr16@addr,c
  5230  00690A  0E80               	movlw	128
  5231  00690C  0100               	movlb	0	; () banked
  5232  00690E  2168               	addwfc	(??_display_oilPress+1)& (0+255),w,b
  5233  006910  6E20               	movwf	wr16@addr+1,c
  5234  006912  0E10               	movlw	16
  5235  006914  0100               	movlb	0	; () banked
  5236  006916  2169               	addwfc	(??_display_oilPress+2)& (0+255),w,b
  5237  006918  6E21               	movwf	wr16@addr+2,c
  5238  00691A  0E00               	movlw	0
  5239  00691C  6E23               	movwf	wr16@value+1,c
  5240  00691E  0E1C               	movlw	28
  5241  006920  6E22               	movwf	wr16@value,c
  5242  006922  EC31  F03A         	call	_wr16	;wreg free
  5243  006926  0E02               	movlw	2
  5244  006928  ECA2  F03A         	call	_cmd_incrementn
  5245  00692C  C03E  F067         	movff	_cmd_offset,??_display_oilPress
  5246  006930  C03F  F068         	movff	_cmd_offset+1,??_display_oilPress+1
  5247  006934  0100               	movlb	0	; () banked
  5248  006936  6B69               	clrf	(??_display_oilPress+2)& (0+255),b
  5249  006938  0E00               	movlw	0
  5250  00693A  0100               	movlb	0	; () banked
  5251  00693C  2567               	addwf	??_display_oilPress& (0+255),w,b
  5252  00693E  6E1F               	movwf	wr16@addr,c
  5253  006940  0E80               	movlw	128
  5254  006942  0100               	movlb	0	; () banked
  5255  006944  2168               	addwfc	(??_display_oilPress+1)& (0+255),w,b
  5256  006946  6E20               	movwf	wr16@addr+1,c
  5257  006948  0E10               	movlw	16
  5258  00694A  0100               	movlb	0	; () banked
  5259  00694C  2169               	addwfc	(??_display_oilPress+2)& (0+255),w,b
  5260  00694E  6E21               	movwf	wr16@addr+2,c
  5261  006950  0E00               	movlw	0
  5262  006952  6E23               	movwf	wr16@value+1,c
  5263  006954  0E00               	movlw	0
  5264  006956  6E22               	movwf	wr16@value,c
  5265  006958  EC31  F03A         	call	_wr16	;wreg free
  5266  00695C  0E02               	movlw	2
  5267  00695E  ECA2  F03A         	call	_cmd_incrementn
  5268  006962  C064  F01E         	movff	display_oilPress@pressure,___fttol@f1
  5269  006966  C065  F01F         	movff	display_oilPress@pressure+1,___fttol@f1+1
  5270  00696A  C066  F020         	movff	display_oilPress@pressure+2,___fttol@f1+2
  5271  00696E  EC50  F036         	call	___fttol	;wreg free
  5272  006972  C01E  F060         	movff	?___fttol,cmd@command
  5273  006976  C01F  F061         	movff	?___fttol+1,cmd@command+1
  5274  00697A  C020  F062         	movff	?___fttol+2,cmd@command+2
  5275  00697E  C021  F063         	movff	?___fttol+3,cmd@command+3
  5276  006982  EC4F  F03A         	call	_cmd	;wreg free
  5277  006986  0012               	return		;funcret
  5278  006988                     __end_of_display_oilPress:
  5279                           	opt stack 0
  5280                           tblptru	equ	0xFF8
  5281                           postinc0	equ	0xFEE
  5282                           wreg	equ	0xFE8
  5283                           status	equ	0xFD8
  5284                           
  5285 ;; *************** function ___fttol *****************
  5286 ;; Defined at:
  5287 ;;		line 44 in file "C:\Program Files (x86)\Microchip\xc8\v1.42\sources\common\fttol.c"
  5288 ;; Parameters:    Size  Location     Type
  5289 ;;  f1              3   29[COMRAM] float 
  5290 ;; Auto vars:     Size  Location     Type
  5291 ;;  lval            4   39[COMRAM] unsigned long 
  5292 ;;  exp1            1   43[COMRAM] unsigned char 
  5293 ;;  sign1           1   38[COMRAM] unsigned char 
  5294 ;; Return value:  Size  Location     Type
  5295 ;;                  4   29[COMRAM] long 
  5296 ;; Registers used:
  5297 ;;		wreg, status,2, status,0
  5298 ;; Tracked objects:
  5299 ;;		On entry : 0/0
  5300 ;;		On exit  : 0/0
  5301 ;;		Unchanged: 0/0
  5302 ;; Data sizes:     COMRAM   BANK0   BANK1   BANK2   BANK3   BANK4   BANK5   BANK6   BANK7   BANK8   BANK9  BANK10  BANK1
      +1  BANK12  BANK13  BANK14
  5303 ;;      Params:         4       0       0       0       0       0       0       0       0       0       0       0       
      +0       0       0       0
  5304 ;;      Locals:         6       0       0       0       0       0       0       0       0       0       0       0       
      +0       0       0       0
  5305 ;;      Temps:          5       0       0       0       0       0       0       0       0       0       0       0       
      +0       0       0       0
  5306 ;;      Totals:        15       0       0       0       0       0       0       0       0       0       0       0       
      +0       0       0       0
  5307 ;;Total ram usage:       15 bytes
  5308 ;; Hardware stack levels used:    1
  5309 ;; Hardware stack levels required when called:    2
  5310 ;; This function calls:
  5311 ;;		Nothing
  5312 ;; This function is called by:
  5313 ;;		_display_oilPress
  5314 ;; This function uses a non-reentrant model
  5315 ;;
  5316                           
  5317                           	psect	text10
  5318  006CA0                     __ptext10:
  5319                           	opt stack 0
  5320  006CA0                     ___fttol:
  5321                           	opt stack 26
  5322                           
  5323                           ;incstack = 0
  5324  006CA0  C020  F022         	movff	___fttol@f1+2,??___fttol
  5325  006CA4  6A23               	clrf	(??___fttol+1)& (0+255),c
  5326  006CA6  6A24               	clrf	(??___fttol+2)& (0+255),c
  5327  006CA8  341F               	rlcf	___fttol@f1+1,w,c
  5328  006CAA  3622               	rlcf	??___fttol& (0+255),f,c
  5329  006CAC  E301               	bnc	u1001
  5330  006CAE  8023               	bsf	(??___fttol+1)& (0+255),0,c
  5331  006CB0                     u1001:
  5332  006CB0  5022               	movf	??___fttol,w,c
  5333  006CB2  6E2C               	movwf	___fttol@exp1,c
  5334  006CB4  502C               	movf	___fttol@exp1,w,c
  5335  006CB6  A4D8               	btfss	status,2,c
  5336  006CB8  D009               	goto	l3404
  5337  006CBA  0E00               	movlw	0
  5338  006CBC  6E1E               	movwf	?___fttol,c
  5339  006CBE  0E00               	movlw	0
  5340  006CC0  6E1F               	movwf	?___fttol+1,c
  5341  006CC2  0E00               	movlw	0
  5342  006CC4  6E20               	movwf	?___fttol+2,c
  5343  006CC6  0E00               	movlw	0
  5344  006CC8  6E21               	movwf	?___fttol+3,c
  5345  006CCA  0012               	return	
  5346  006CCC                     l3404:
  5347  006CCC  0E17               	movlw	23
  5348  006CCE  6E22               	movwf	??___fttol& (0+255),c
  5349  006CD0  C01E  F023         	movff	___fttol@f1,??___fttol+1
  5350  006CD4  C01F  F024         	movff	___fttol@f1+1,??___fttol+2
  5351  006CD8  C020  F025         	movff	___fttol@f1+2,??___fttol+3
  5352  006CDC  2822               	incf	??___fttol,w,c
  5353  006CDE  6E26               	movwf	(??___fttol+4)& (0+255),c
  5354  006CE0  D004               	goto	u1020
  5355  006CE2                     u1025:
  5356  006CE2  90D8               	bcf	status,0,c
  5357  006CE4  3225               	rrcf	??___fttol+3,f,c
  5358  006CE6  3224               	rrcf	??___fttol+2,f,c
  5359  006CE8  3223               	rrcf	??___fttol+1,f,c
  5360  006CEA                     u1020:
  5361  006CEA  2E26               	decfsz	(??___fttol+4)& (0+255),f,c
  5362  006CEC  D7FA               	goto	u1025
  5363  006CEE  5023               	movf	??___fttol+1,w,c
  5364  006CF0  6E27               	movwf	___fttol@sign1,c
  5365  006CF2  8E1F               	bsf	___fttol@f1+1,7,c
  5366  006CF4  0EFF               	movlw	255
  5367  006CF6  161E               	andwf	___fttol@f1,f,c
  5368  006CF8  0EFF               	movlw	255
  5369  006CFA  161F               	andwf	___fttol@f1+1,f,c
  5370  006CFC  0E00               	movlw	0
  5371  006CFE  1620               	andwf	___fttol@f1+2,f,c
  5372  006D00  501E               	movf	___fttol@f1,w,c
  5373  006D02  6E28               	movwf	___fttol@lval,c
  5374  006D04  501F               	movf	___fttol@f1+1,w,c
  5375  006D06  6E29               	movwf	___fttol@lval+1,c
  5376  006D08  5020               	movf	___fttol@f1+2,w,c
  5377  006D0A  6E2A               	movwf	___fttol@lval+2,c
  5378  006D0C  6A2B               	clrf	___fttol@lval+3,c
  5379  006D0E  0E8E               	movlw	142
  5380  006D10  5E2C               	subwf	___fttol@exp1,f,c
  5381  006D12  AE2C               	btfss	___fttol@exp1,7,c
  5382  006D14  D016               	goto	l3426
  5383  006D16  502C               	movf	___fttol@exp1,w,c
  5384  006D18  0A80               	xorlw	128
  5385  006D1A  0F8F               	addlw	143
  5386  006D1C  B0D8               	btfsc	status,0,c
  5387  006D1E  D009               	goto	l3422
  5388  006D20  0E00               	movlw	0
  5389  006D22  6E1E               	movwf	?___fttol,c
  5390  006D24  0E00               	movlw	0
  5391  006D26  6E1F               	movwf	?___fttol+1,c
  5392  006D28  0E00               	movlw	0
  5393  006D2A  6E20               	movwf	?___fttol+2,c
  5394  006D2C  0E00               	movlw	0
  5395  006D2E  6E21               	movwf	?___fttol+3,c
  5396  006D30  0012               	return	
  5397  006D32                     l3422:
  5398  006D32  90D8               	bcf	status,0,c
  5399  006D34  322B               	rrcf	___fttol@lval+3,f,c
  5400  006D36  322A               	rrcf	___fttol@lval+2,f,c
  5401  006D38  3229               	rrcf	___fttol@lval+1,f,c
  5402  006D3A  3228               	rrcf	___fttol@lval,f,c
  5403  006D3C  3E2C               	incfsz	___fttol@exp1,f,c
  5404  006D3E  D7F9               	goto	l3422
  5405  006D40  D015               	goto	l3436
  5406  006D42                     l3426:
  5407  006D42  0E17               	movlw	23
  5408  006D44  642C               	cpfsgt	___fttol@exp1,c
  5409  006D46  D00F               	goto	l3434
  5410  006D48  0E00               	movlw	0
  5411  006D4A  6E1E               	movwf	?___fttol,c
  5412  006D4C  0E00               	movlw	0
  5413  006D4E  6E1F               	movwf	?___fttol+1,c
  5414  006D50  0E00               	movlw	0
  5415  006D52  6E20               	movwf	?___fttol+2,c
  5416  006D54  0E00               	movlw	0
  5417  006D56  6E21               	movwf	?___fttol+3,c
  5418  006D58  0012               	return	
  5419  006D5A                     l3432:
  5420  006D5A  90D8               	bcf	status,0,c
  5421  006D5C  3628               	rlcf	___fttol@lval,f,c
  5422  006D5E  3629               	rlcf	___fttol@lval+1,f,c
  5423  006D60  362A               	rlcf	___fttol@lval+2,f,c
  5424  006D62  362B               	rlcf	___fttol@lval+3,f,c
  5425  006D64  062C               	decf	___fttol@exp1,f,c
  5426  006D66                     l3434:
  5427  006D66  502C               	movf	___fttol@exp1,w,c
  5428  006D68  A4D8               	btfss	status,2,c
  5429  006D6A  D7F7               	goto	l3432
  5430  006D6C                     l3436:
  5431  006D6C  5027               	movf	___fttol@sign1,w,c
  5432  006D6E  B4D8               	btfsc	status,2,c
  5433  006D70  D008               	goto	l3440
  5434  006D72  1E2B               	comf	___fttol@lval+3,f,c
  5435  006D74  1E2A               	comf	___fttol@lval+2,f,c
  5436  006D76  1E29               	comf	___fttol@lval+1,f,c
  5437  006D78  6C28               	negf	___fttol@lval,c
  5438  006D7A  0E00               	movlw	0
  5439  006D7C  2229               	addwfc	___fttol@lval+1,f,c
  5440  006D7E  222A               	addwfc	___fttol@lval+2,f,c
  5441  006D80  222B               	addwfc	___fttol@lval+3,f,c
  5442  006D82                     l3440:
  5443  006D82  C028  F01E         	movff	___fttol@lval,?___fttol
  5444  006D86  C029  F01F         	movff	___fttol@lval+1,?___fttol+1
  5445  006D8A  C02A  F020         	movff	___fttol@lval+2,?___fttol+2
  5446  006D8E  C02B  F021         	movff	___fttol@lval+3,?___fttol+3
  5447  006D92  0012               	return	
  5448  006D94                     __end_of___fttol:
  5449                           	opt stack 0
  5450                           tblptru	equ	0xFF8
  5451                           postinc0	equ	0xFEE
  5452                           wreg	equ	0xFE8
  5453                           status	equ	0xFD8
  5454                           
  5455 ;; *************** function _display_message *****************
  5456 ;; Defined at:
  5457 ;;		line 64 in file "display.c"
  5458 ;; Parameters:    Size  Location     Type
  5459 ;;  message         2    4[BANK0 ] PTR unsigned char 
  5460 ;;		 -> STR_1(6), 
  5461 ;; Auto vars:     Size  Location     Type
  5462 ;;		None
  5463 ;; Return value:  Size  Location     Type
  5464 ;;                  1    wreg      void 
  5465 ;; Registers used:
  5466 ;;		wreg, status,2, status,0, tblptrl, tblptrh, tblptru, prodl, prodh, cstack
  5467 ;; Tracked objects:
  5468 ;;		On entry : 0/0
  5469 ;;		On exit  : 0/0
  5470 ;;		Unchanged: 0/0
  5471 ;; Data sizes:     COMRAM   BANK0   BANK1   BANK2   BANK3   BANK4   BANK5   BANK6   BANK7   BANK8   BANK9  BANK10  BANK1
      +1  BANK12  BANK13  BANK14
  5472 ;;      Params:         0       2       0       0       0       0       0       0       0       0       0       0       
      +0       0       0       0
  5473 ;;      Locals:         0       0       0       0       0       0       0       0       0       0       0       0       
      +0       0       0       0
  5474 ;;      Temps:          0       3       0       0       0       0       0       0       0       0       0       0       
      +0       0       0       0
  5475 ;;      Totals:         0       5       0       0       0       0       0       0       0       0       0       0       
      +0       0       0       0
  5476 ;;Total ram usage:        5 bytes
  5477 ;; Hardware stack levels used:    1
  5478 ;; Hardware stack levels required when called:    5
  5479 ;; This function calls:
  5480 ;;		_cmd
  5481 ;;		_cmd_incrementn
  5482 ;;		_wr16
  5483 ;;		_wr8s
  5484 ;; This function is called by:
  5485 ;;		_display
  5486 ;; This function uses a non-reentrant model
  5487 ;;
  5488                           
  5489                           	psect	text11
  5490  0065C4                     __ptext11:
  5491                           	opt stack 0
  5492  0065C4                     _display_message:
  5493                           	opt stack 24
  5494                           
  5495                           ;display.c: 65: cmd(((31UL<<24)|(((9UL)&15UL)<<0)));
  5496                           
  5497                           ;incstack = 0
  5498  0065C4  0E09               	movlw	9
  5499  0065C6  0100               	movlb	0	; () banked
  5500  0065C8  6F60               	movwf	cmd@command& (0+255),b
  5501  0065CA  0E00               	movlw	0
  5502  0065CC  6F61               	movwf	(cmd@command+1)& (0+255),b
  5503  0065CE  0E00               	movlw	0
  5504  0065D0  6F62               	movwf	(cmd@command+2)& (0+255),b
  5505  0065D2  0E1F               	movlw	31
  5506  0065D4  6F63               	movwf	(cmd@command+3)& (0+255),b
  5507  0065D6  EC4F  F03A         	call	_cmd	;wreg free
  5508                           
  5509                           ;display.c: 66: cmd(((4UL<<24)|(((60)&255UL)<<16)|(((60)&255UL)<<8)|(((60)&255UL)<<0)));
  5510  0065DA  0E3C               	movlw	60
  5511  0065DC  0100               	movlb	0	; () banked
  5512  0065DE  6F60               	movwf	cmd@command& (0+255),b
  5513  0065E0  0E3C               	movlw	60
  5514  0065E2  6F61               	movwf	(cmd@command+1)& (0+255),b
  5515  0065E4  0E3C               	movlw	60
  5516  0065E6  6F62               	movwf	(cmd@command+2)& (0+255),b
  5517  0065E8  0E04               	movlw	4
  5518  0065EA  6F63               	movwf	(cmd@command+3)& (0+255),b
  5519  0065EC  EC4F  F03A         	call	_cmd	;wreg free
  5520                           
  5521                           ;display.c: 67: cmd(((2UL<<30)|(((350)&511UL)<<21)|(((215)&511UL)<<12)|(((0)&31UL)<<7)|(
      +                          ((0)&127UL)<<0)));
  5522  0065F0  0E00               	movlw	0
  5523  0065F2  0100               	movlb	0	; () banked
  5524  0065F4  6F60               	movwf	cmd@command& (0+255),b
  5525  0065F6  0E70               	movlw	112
  5526  0065F8  6F61               	movwf	(cmd@command+1)& (0+255),b
  5527  0065FA  0ECD               	movlw	205
  5528  0065FC  6F62               	movwf	(cmd@command+2)& (0+255),b
  5529  0065FE  0EAB               	movlw	171
  5530  006600  6F63               	movwf	(cmd@command+3)& (0+255),b
  5531  006602  EC4F  F03A         	call	_cmd	;wreg free
  5532                           
  5533                           ;display.c: 68: cmd(((2UL<<30)|(((134)&511UL)<<21)|(((230)&511UL)<<12)|(((0)&31UL)<<7)|(
      +                          ((0)&127UL)<<0)));
  5534  006606  0E00               	movlw	0
  5535  006608  0100               	movlb	0	; () banked
  5536  00660A  6F60               	movwf	cmd@command& (0+255),b
  5537  00660C  0E60               	movlw	96
  5538  00660E  6F61               	movwf	(cmd@command+1)& (0+255),b
  5539  006610  0ECE               	movlw	206
  5540  006612  6F62               	movwf	(cmd@command+2)& (0+255),b
  5541  006614  0E90               	movlw	144
  5542  006616  6F63               	movwf	(cmd@command+3)& (0+255),b
  5543  006618  EC4F  F03A         	call	_cmd	;wreg free
  5544                           
  5545                           ;display.c: 69: cmd(((4UL<<24)|(((255)&255UL)<<16)|(((255)&255UL)<<8)|(((255)&255UL)<<0)
      +                          ));
  5546  00661C  0EFF               	movlw	255
  5547  00661E  0100               	movlb	0	; () banked
  5548  006620  6F60               	movwf	cmd@command& (0+255),b
  5549  006622  0EFF               	movlw	255
  5550  006624  6F61               	movwf	(cmd@command+1)& (0+255),b
  5551  006626  0EFF               	movlw	255
  5552  006628  6F62               	movwf	(cmd@command+2)& (0+255),b
  5553  00662A  0E04               	movlw	4
  5554  00662C  6F63               	movwf	(cmd@command+3)& (0+255),b
  5555  00662E  EC4F  F03A         	call	_cmd	;wreg free
  5556                           
  5557                           ;display.c: 70: cmd(4294967052UL);wr16(1081344UL+cmd_offset, 240);cmd_incrementn(2);wr16
      +                          (1081344UL+cmd_offset, 222);cmd_incrementn(2);wr16(1081344UL+cmd_offset, 28);cmd_increme
      +                          ntn(2);wr16(1081344UL+cmd_offset, 1536UL);cmd_incrementn(2);cmd_incrementn(wr8s(1081344U
      +                          L+
  5558  006632  0E0C               	movlw	12
  5559  006634  0100               	movlb	0	; () banked
  5560  006636  6F60               	movwf	cmd@command& (0+255),b
  5561  006638  0EFF               	movlw	255
  5562  00663A  6F61               	movwf	(cmd@command+1)& (0+255),b
  5563  00663C  0EFF               	movlw	255
  5564  00663E  6F62               	movwf	(cmd@command+2)& (0+255),b
  5565  006640  0EFF               	movlw	255
  5566  006642  6F63               	movwf	(cmd@command+3)& (0+255),b
  5567  006644  EC4F  F03A         	call	_cmd	;wreg free
  5568  006648  C03E  F066         	movff	_cmd_offset,??_display_message
  5569  00664C  C03F  F067         	movff	_cmd_offset+1,??_display_message+1
  5570  006650  0100               	movlb	0	; () banked
  5571  006652  6B68               	clrf	(??_display_message+2)& (0+255),b
  5572  006654  0E00               	movlw	0
  5573  006656  0100               	movlb	0	; () banked
  5574  006658  2566               	addwf	??_display_message& (0+255),w,b
  5575  00665A  6E1F               	movwf	wr16@addr,c
  5576  00665C  0E80               	movlw	128
  5577  00665E  0100               	movlb	0	; () banked
  5578  006660  2167               	addwfc	(??_display_message+1)& (0+255),w,b
  5579  006662  6E20               	movwf	wr16@addr+1,c
  5580  006664  0E10               	movlw	16
  5581  006666  0100               	movlb	0	; () banked
  5582  006668  2168               	addwfc	(??_display_message+2)& (0+255),w,b
  5583  00666A  6E21               	movwf	wr16@addr+2,c
  5584  00666C  0E00               	movlw	0
  5585  00666E  6E23               	movwf	wr16@value+1,c
  5586  006670  0EF0               	movlw	240
  5587  006672  6E22               	movwf	wr16@value,c
  5588  006674  EC31  F03A         	call	_wr16	;wreg free
  5589  006678  0E02               	movlw	2
  5590  00667A  ECA2  F03A         	call	_cmd_incrementn
  5591  00667E  C03E  F066         	movff	_cmd_offset,??_display_message
  5592  006682  C03F  F067         	movff	_cmd_offset+1,??_display_message+1
  5593  006686  0100               	movlb	0	; () banked
  5594  006688  6B68               	clrf	(??_display_message+2)& (0+255),b
  5595  00668A  0E00               	movlw	0
  5596  00668C  0100               	movlb	0	; () banked
  5597  00668E  2566               	addwf	??_display_message& (0+255),w,b
  5598  006690  6E1F               	movwf	wr16@addr,c
  5599  006692  0E80               	movlw	128
  5600  006694  0100               	movlb	0	; () banked
  5601  006696  2167               	addwfc	(??_display_message+1)& (0+255),w,b
  5602  006698  6E20               	movwf	wr16@addr+1,c
  5603  00669A  0E10               	movlw	16
  5604  00669C  0100               	movlb	0	; () banked
  5605  00669E  2168               	addwfc	(??_display_message+2)& (0+255),w,b
  5606  0066A0  6E21               	movwf	wr16@addr+2,c
  5607  0066A2  0E00               	movlw	0
  5608  0066A4  6E23               	movwf	wr16@value+1,c
  5609  0066A6  0EDE               	movlw	222
  5610  0066A8  6E22               	movwf	wr16@value,c
  5611  0066AA  EC31  F03A         	call	_wr16	;wreg free
  5612  0066AE  0E02               	movlw	2
  5613  0066B0  ECA2  F03A         	call	_cmd_incrementn
  5614  0066B4  C03E  F066         	movff	_cmd_offset,??_display_message
  5615  0066B8  C03F  F067         	movff	_cmd_offset+1,??_display_message+1
  5616  0066BC  0100               	movlb	0	; () banked
  5617  0066BE  6B68               	clrf	(??_display_message+2)& (0+255),b
  5618  0066C0  0E00               	movlw	0
  5619  0066C2  0100               	movlb	0	; () banked
  5620  0066C4  2566               	addwf	??_display_message& (0+255),w,b
  5621  0066C6  6E1F               	movwf	wr16@addr,c
  5622  0066C8  0E80               	movlw	128
  5623  0066CA  0100               	movlb	0	; () banked
  5624  0066CC  2167               	addwfc	(??_display_message+1)& (0+255),w,b
  5625  0066CE  6E20               	movwf	wr16@addr+1,c
  5626  0066D0  0E10               	movlw	16
  5627  0066D2  0100               	movlb	0	; () banked
  5628  0066D4  2168               	addwfc	(??_display_message+2)& (0+255),w,b
  5629  0066D6  6E21               	movwf	wr16@addr+2,c
  5630  0066D8  0E00               	movlw	0
  5631  0066DA  6E23               	movwf	wr16@value+1,c
  5632  0066DC  0E1C               	movlw	28
  5633  0066DE  6E22               	movwf	wr16@value,c
  5634  0066E0  EC31  F03A         	call	_wr16	;wreg free
  5635  0066E4  0E02               	movlw	2
  5636  0066E6  ECA2  F03A         	call	_cmd_incrementn
  5637  0066EA  C03E  F066         	movff	_cmd_offset,??_display_message
  5638  0066EE  C03F  F067         	movff	_cmd_offset+1,??_display_message+1
  5639  0066F2  0100               	movlb	0	; () banked
  5640  0066F4  6B68               	clrf	(??_display_message+2)& (0+255),b
  5641  0066F6  0E00               	movlw	0
  5642  0066F8  0100               	movlb	0	; () banked
  5643  0066FA  2566               	addwf	??_display_message& (0+255),w,b
  5644  0066FC  6E1F               	movwf	wr16@addr,c
  5645  0066FE  0E80               	movlw	128
  5646  006700  0100               	movlb	0	; () banked
  5647  006702  2167               	addwfc	(??_display_message+1)& (0+255),w,b
  5648  006704  6E20               	movwf	wr16@addr+1,c
  5649  006706  0E10               	movlw	16
  5650  006708  0100               	movlb	0	; () banked
  5651  00670A  2168               	addwfc	(??_display_message+2)& (0+255),w,b
  5652  00670C  6E21               	movwf	wr16@addr+2,c
  5653  00670E  0E06               	movlw	6
  5654  006710  6E23               	movwf	wr16@value+1,c
  5655  006712  0E00               	movlw	0
  5656  006714  6E22               	movwf	wr16@value,c
  5657  006716  EC31  F03A         	call	_wr16	;wreg free
  5658  00671A  0E02               	movlw	2
  5659  00671C  ECA2  F03A         	call	_cmd_incrementn
  5660  006720  C03E  F066         	movff	_cmd_offset,??_display_message
  5661  006724  C03F  F067         	movff	_cmd_offset+1,??_display_message+1
  5662  006728  0100               	movlb	0	; () banked
  5663  00672A  6B68               	clrf	(??_display_message+2)& (0+255),b
  5664  00672C  0E00               	movlw	0
  5665  00672E  0100               	movlb	0	; () banked
  5666  006730  2566               	addwf	??_display_message& (0+255),w,b
  5667  006732  6E24               	movwf	wr8s@addr,c
  5668  006734  0E80               	movlw	128
  5669  006736  0100               	movlb	0	; () banked
  5670  006738  2167               	addwfc	(??_display_message+1)& (0+255),w,b
  5671  00673A  6E25               	movwf	wr8s@addr+1,c
  5672  00673C  0E10               	movlw	16
  5673  00673E  0100               	movlb	0	; () banked
  5674  006740  2168               	addwfc	(??_display_message+2)& (0+255),w,b
  5675  006742  6E26               	movwf	wr8s@addr+2,c
  5676  006744  0E01               	movlw	low STR_16
  5677  006746  6E27               	movwf	wr8s@s,c
  5678  006748  0E0F               	movlw	high STR_16
  5679  00674A  6E28               	movwf	wr8s@s+1,c
  5680  00674C  EC04  F038         	call	_wr8s	;wreg free
  5681  006750  ECA2  F03A         	call	_cmd_incrementn
  5682  006754  0012               	return		;funcret
  5683  006756                     __end_of_display_message:
  5684                           	opt stack 0
  5685                           tblptru	equ	0xFF8
  5686                           postinc0	equ	0xFEE
  5687                           wreg	equ	0xFE8
  5688                           status	equ	0xFD8
  5689                           
  5690 ;; *************** function _display_laptime *****************
  5691 ;; Defined at:
  5692 ;;		line 73 in file "display.c"
  5693 ;; Parameters:    Size  Location     Type
  5694 ;;  current         3    4[BANK0 ] float 
  5695 ;;  best            3    7[BANK0 ] float 
  5696 ;;  last            3   10[BANK0 ] float 
  5697 ;;  lap             2   13[BANK0 ] int 
  5698 ;; Auto vars:     Size  Location     Type
  5699 ;;		None
  5700 ;; Return value:  Size  Location     Type
  5701 ;;                  1    wreg      void 
  5702 ;; Registers used:
  5703 ;;		wreg, status,2, status,0, tblptrl, tblptrh, tblptru, prodl, prodh, cstack
  5704 ;; Tracked objects:
  5705 ;;		On entry : 0/0
  5706 ;;		On exit  : 0/0
  5707 ;;		Unchanged: 0/0
  5708 ;; Data sizes:     COMRAM   BANK0   BANK1   BANK2   BANK3   BANK4   BANK5   BANK6   BANK7   BANK8   BANK9  BANK10  BANK1
      +1  BANK12  BANK13  BANK14
  5709 ;;      Params:         0      11       0       0       0       0       0       0       0       0       0       0       
      +0       0       0       0
  5710 ;;      Locals:         0       0       0       0       0       0       0       0       0       0       0       0       
      +0       0       0       0
  5711 ;;      Temps:          0       3       0       0       0       0       0       0       0       0       0       0       
      +0       0       0       0
  5712 ;;      Totals:         0      14       0       0       0       0       0       0       0       0       0       0       
      +0       0       0       0
  5713 ;;Total ram usage:       14 bytes
  5714 ;; Hardware stack levels used:    1
  5715 ;; Hardware stack levels required when called:    5
  5716 ;; This function calls:
  5717 ;;		_cmd
  5718 ;;		_cmd_incrementn
  5719 ;;		_wr16
  5720 ;;		_wr8s
  5721 ;; This function is called by:
  5722 ;;		_display
  5723 ;; This function uses a non-reentrant model
  5724 ;;
  5725                           
  5726                           	psect	text12
  5727  002796                     __ptext12:
  5728                           	opt stack 0
  5729  002796                     _display_laptime:
  5730                           	opt stack 24
  5731                           
  5732                           ;display.c: 74: cmd(((4UL<<24)|(((255)&255UL)<<16)|(((0)&255UL)<<8)|(((0)&255UL)<<0)));
  5733                           
  5734                           ;incstack = 0
  5735  002796  0E00               	movlw	0
  5736  002798  0100               	movlb	0	; () banked
  5737  00279A  6F60               	movwf	cmd@command& (0+255),b
  5738  00279C  0E00               	movlw	0
  5739  00279E  6F61               	movwf	(cmd@command+1)& (0+255),b
  5740  0027A0  0EFF               	movlw	255
  5741  0027A2  6F62               	movwf	(cmd@command+2)& (0+255),b
  5742  0027A4  0E04               	movlw	4
  5743  0027A6  6F63               	movwf	(cmd@command+3)& (0+255),b
  5744  0027A8  EC4F  F03A         	call	_cmd	;wreg free
  5745                           
  5746                           ;display.c: 75: cmd(((31UL<<24)|(((8UL)&15UL)<<0)));
  5747  0027AC  0E08               	movlw	8
  5748  0027AE  0100               	movlb	0	; () banked
  5749  0027B0  6F60               	movwf	cmd@command& (0+255),b
  5750  0027B2  0E00               	movlw	0
  5751  0027B4  6F61               	movwf	(cmd@command+1)& (0+255),b
  5752  0027B6  0E00               	movlw	0
  5753  0027B8  6F62               	movwf	(cmd@command+2)& (0+255),b
  5754  0027BA  0E1F               	movlw	31
  5755  0027BC  6F63               	movwf	(cmd@command+3)& (0+255),b
  5756  0027BE  EC4F  F03A         	call	_cmd	;wreg free
  5757                           
  5758                           ;display.c: 76: cmd(((2UL<<30)|(((0)&511UL)<<21)|(((200)&511UL)<<12)|(((0)&31UL)<<7)|(((
      +                          0)&127UL)<<0)));
  5759  0027C2  0E00               	movlw	0
  5760  0027C4  0100               	movlb	0	; () banked
  5761  0027C6  6F60               	movwf	cmd@command& (0+255),b
  5762  0027C8  0E80               	movlw	128
  5763  0027CA  6F61               	movwf	(cmd@command+1)& (0+255),b
  5764  0027CC  0E0C               	movlw	12
  5765  0027CE  6F62               	movwf	(cmd@command+2)& (0+255),b
  5766  0027D0  0E80               	movlw	128
  5767  0027D2  6F63               	movwf	(cmd@command+3)& (0+255),b
  5768  0027D4  EC4F  F03A         	call	_cmd	;wreg free
  5769                           
  5770                           ;display.c: 77: cmd(((2UL<<30)|(((187)&511UL)<<21)|(((200)&511UL)<<12)|(((0)&31UL)<<7)|(
      +                          ((0)&127UL)<<0)));
  5771  0027D8  0E00               	movlw	0
  5772  0027DA  0100               	movlb	0	; () banked
  5773  0027DC  6F60               	movwf	cmd@command& (0+255),b
  5774  0027DE  0E80               	movlw	128
  5775  0027E0  6F61               	movwf	(cmd@command+1)& (0+255),b
  5776  0027E2  0E6C               	movlw	108
  5777  0027E4  6F62               	movwf	(cmd@command+2)& (0+255),b
  5778  0027E6  0E97               	movlw	151
  5779  0027E8  6F63               	movwf	(cmd@command+3)& (0+255),b
  5780  0027EA  EC4F  F03A         	call	_cmd	;wreg free
  5781                           
  5782                           ;display.c: 78: cmd(((2UL<<30)|(((216)&511UL)<<21)|(((173)&511UL)<<12)|(((0)&31UL)<<7)|(
      +                          ((0)&127UL)<<0)));
  5783  0027EE  0E00               	movlw	0
  5784  0027F0  0100               	movlb	0	; () banked
  5785  0027F2  6F60               	movwf	cmd@command& (0+255),b
  5786  0027F4  0ED0               	movlw	208
  5787  0027F6  6F61               	movwf	(cmd@command+1)& (0+255),b
  5788  0027F8  0E0A               	movlw	10
  5789  0027FA  6F62               	movwf	(cmd@command+2)& (0+255),b
  5790  0027FC  0E9B               	movlw	155
  5791  0027FE  6F63               	movwf	(cmd@command+3)& (0+255),b
  5792  002800  EC4F  F03A         	call	_cmd	;wreg free
  5793                           
  5794                           ;display.c: 79: cmd(((2UL<<30)|(((263)&511UL)<<21)|(((173)&511UL)<<12)|(((0)&31UL)<<7)|(
      +                          ((0)&127UL)<<0)));
  5795  002804  0E00               	movlw	0
  5796  002806  0100               	movlb	0	; () banked
  5797  002808  6F60               	movwf	cmd@command& (0+255),b
  5798  00280A  0ED0               	movlw	208
  5799  00280C  6F61               	movwf	(cmd@command+1)& (0+255),b
  5800  00280E  0EEA               	movlw	234
  5801  002810  6F62               	movwf	(cmd@command+2)& (0+255),b
  5802  002812  0EA0               	movlw	160
  5803  002814  6F63               	movwf	(cmd@command+3)& (0+255),b
  5804  002816  EC4F  F03A         	call	_cmd	;wreg free
  5805                           
  5806                           ;display.c: 80: cmd(((2UL<<30)|(((292)&511UL)<<21)|(((200)&511UL)<<12)|(((0)&31UL)<<7)|(
      +                          ((0)&127UL)<<0)));
  5807  00281A  0E00               	movlw	0
  5808  00281C  0100               	movlb	0	; () banked
  5809  00281E  6F60               	movwf	cmd@command& (0+255),b
  5810  002820  0E80               	movlw	128
  5811  002822  6F61               	movwf	(cmd@command+1)& (0+255),b
  5812  002824  0E8C               	movlw	140
  5813  002826  6F62               	movwf	(cmd@command+2)& (0+255),b
  5814  002828  0EA4               	movlw	164
  5815  00282A  6F63               	movwf	(cmd@command+3)& (0+255),b
  5816  00282C  EC4F  F03A         	call	_cmd	;wreg free
  5817                           
  5818                           ;display.c: 81: cmd(((2UL<<30)|(((480)&511UL)<<21)|(((200)&511UL)<<12)|(((0)&31UL)<<7)|(
      +                          ((0)&127UL)<<0)));
  5819  002830  0E00               	movlw	0
  5820  002832  0100               	movlb	0	; () banked
  5821  002834  6F60               	movwf	cmd@command& (0+255),b
  5822  002836  0E80               	movlw	128
  5823  002838  6F61               	movwf	(cmd@command+1)& (0+255),b
  5824  00283A  0E0C               	movlw	12
  5825  00283C  6F62               	movwf	(cmd@command+2)& (0+255),b
  5826  00283E  0EBC               	movlw	188
  5827  002840  6F63               	movwf	(cmd@command+3)& (0+255),b
  5828  002842  EC4F  F03A         	call	_cmd	;wreg free
  5829                           
  5830                           ;display.c: 83: cmd(((4UL<<24)|(((0)&255UL)<<16)|(((0)&255UL)<<8)|(((0)&255UL)<<0)));
  5831  002846  0E00               	movlw	0
  5832  002848  0100               	movlb	0	; () banked
  5833  00284A  6F60               	movwf	cmd@command& (0+255),b
  5834  00284C  0E00               	movlw	0
  5835  00284E  6F61               	movwf	(cmd@command+1)& (0+255),b
  5836  002850  0E00               	movlw	0
  5837  002852  6F62               	movwf	(cmd@command+2)& (0+255),b
  5838  002854  0E04               	movlw	4
  5839  002856  6F63               	movwf	(cmd@command+3)& (0+255),b
  5840  002858  EC4F  F03A         	call	_cmd	;wreg free
  5841                           
  5842                           ;display.c: 84: cmd(((31UL<<24)|(((8UL)&15UL)<<0)));
  5843  00285C  0E08               	movlw	8
  5844  00285E  0100               	movlb	0	; () banked
  5845  002860  6F60               	movwf	cmd@command& (0+255),b
  5846  002862  0E00               	movlw	0
  5847  002864  6F61               	movwf	(cmd@command+1)& (0+255),b
  5848  002866  0E00               	movlw	0
  5849  002868  6F62               	movwf	(cmd@command+2)& (0+255),b
  5850  00286A  0E1F               	movlw	31
  5851  00286C  6F63               	movwf	(cmd@command+3)& (0+255),b
  5852  00286E  EC4F  F03A         	call	_cmd	;wreg free
  5853                           
  5854                           ;display.c: 85: cmd(((2UL<<30)|(((0)&511UL)<<21)|(((205)&511UL)<<12)|(((0)&31UL)<<7)|(((
      +                          0)&127UL)<<0)));
  5855  002872  0E00               	movlw	0
  5856  002874  0100               	movlb	0	; () banked
  5857  002876  6F60               	movwf	cmd@command& (0+255),b
  5858  002878  0ED0               	movlw	208
  5859  00287A  6F61               	movwf	(cmd@command+1)& (0+255),b
  5860  00287C  0E0C               	movlw	12
  5861  00287E  6F62               	movwf	(cmd@command+2)& (0+255),b
  5862  002880  0E80               	movlw	128
  5863  002882  6F63               	movwf	(cmd@command+3)& (0+255),b
  5864  002884  EC4F  F03A         	call	_cmd	;wreg free
  5865                           
  5866                           ;display.c: 86: cmd(((2UL<<30)|(((189)&511UL)<<21)|(((204)&511UL)<<12)|(((0)&31UL)<<7)|(
      +                          ((0)&127UL)<<0)));
  5867  002888  0E00               	movlw	0
  5868  00288A  0100               	movlb	0	; () banked
  5869  00288C  6F60               	movwf	cmd@command& (0+255),b
  5870  00288E  0EC0               	movlw	192
  5871  002890  6F61               	movwf	(cmd@command+1)& (0+255),b
  5872  002892  0EAC               	movlw	172
  5873  002894  6F62               	movwf	(cmd@command+2)& (0+255),b
  5874  002896  0E97               	movlw	151
  5875  002898  6F63               	movwf	(cmd@command+3)& (0+255),b
  5876  00289A  EC4F  F03A         	call	_cmd	;wreg free
  5877                           
  5878                           ;display.c: 87: cmd(((2UL<<30)|(((217)&511UL)<<21)|(((177)&511UL)<<12)|(((0)&31UL)<<7)|(
      +                          ((0)&127UL)<<0)));
  5879  00289E  0E00               	movlw	0
  5880  0028A0  0100               	movlb	0	; () banked
  5881  0028A2  6F60               	movwf	cmd@command& (0+255),b
  5882  0028A4  0E10               	movlw	16
  5883  0028A6  6F61               	movwf	(cmd@command+1)& (0+255),b
  5884  0028A8  0E2B               	movlw	43
  5885  0028AA  6F62               	movwf	(cmd@command+2)& (0+255),b
  5886  0028AC  0E9B               	movlw	155
  5887  0028AE  6F63               	movwf	(cmd@command+3)& (0+255),b
  5888  0028B0  EC4F  F03A         	call	_cmd	;wreg free
  5889                           
  5890                           ;display.c: 88: cmd(((2UL<<30)|(((261)&511UL)<<21)|(((177)&511UL)<<12)|(((0)&31UL)<<7)|(
      +                          ((0)&127UL)<<0)));
  5891  0028B4  0E00               	movlw	0
  5892  0028B6  0100               	movlb	0	; () banked
  5893  0028B8  6F60               	movwf	cmd@command& (0+255),b
  5894  0028BA  0E10               	movlw	16
  5895  0028BC  6F61               	movwf	(cmd@command+1)& (0+255),b
  5896  0028BE  0EAB               	movlw	171
  5897  0028C0  6F62               	movwf	(cmd@command+2)& (0+255),b
  5898  0028C2  0EA0               	movlw	160
  5899  0028C4  6F63               	movwf	(cmd@command+3)& (0+255),b
  5900  0028C6  EC4F  F03A         	call	_cmd	;wreg free
  5901                           
  5902                           ;display.c: 89: cmd(((2UL<<30)|(((289)&511UL)<<21)|(((204)&511UL)<<12)|(((0)&31UL)<<7)|(
      +                          ((0)&127UL)<<0)));
  5903  0028CA  0E00               	movlw	0
  5904  0028CC  0100               	movlb	0	; () banked
  5905  0028CE  6F60               	movwf	cmd@command& (0+255),b
  5906  0028D0  0EC0               	movlw	192
  5907  0028D2  6F61               	movwf	(cmd@command+1)& (0+255),b
  5908  0028D4  0E2C               	movlw	44
  5909  0028D6  6F62               	movwf	(cmd@command+2)& (0+255),b
  5910  0028D8  0EA4               	movlw	164
  5911  0028DA  6F63               	movwf	(cmd@command+3)& (0+255),b
  5912  0028DC  EC4F  F03A         	call	_cmd	;wreg free
  5913                           
  5914                           ;display.c: 90: cmd(((2UL<<30)|(((483)&511UL)<<21)|(((205)&511UL)<<12)|(((0)&31UL)<<7)|(
      +                          ((0)&127UL)<<0)));
  5915  0028E0  0E00               	movlw	0
  5916  0028E2  0100               	movlb	0	; () banked
  5917  0028E4  6F60               	movwf	cmd@command& (0+255),b
  5918  0028E6  0ED0               	movlw	208
  5919  0028E8  6F61               	movwf	(cmd@command+1)& (0+255),b
  5920  0028EA  0E6C               	movlw	108
  5921  0028EC  6F62               	movwf	(cmd@command+2)& (0+255),b
  5922  0028EE  0EBC               	movlw	188
  5923  0028F0  6F63               	movwf	(cmd@command+3)& (0+255),b
  5924  0028F2  EC4F  F03A         	call	_cmd	;wreg free
  5925                           
  5926                           ;display.c: 93: cmd(((4UL<<24)|(((255)&255UL)<<16)|(((125)&255UL)<<8)|(((0)&255UL)<<0)))
      +                          ;
  5927  0028F6  0E00               	movlw	0
  5928  0028F8  0100               	movlb	0	; () banked
  5929  0028FA  6F60               	movwf	cmd@command& (0+255),b
  5930  0028FC  0E7D               	movlw	125
  5931  0028FE  6F61               	movwf	(cmd@command+1)& (0+255),b
  5932  002900  0EFF               	movlw	255
  5933  002902  6F62               	movwf	(cmd@command+2)& (0+255),b
  5934  002904  0E04               	movlw	4
  5935  002906  6F63               	movwf	(cmd@command+3)& (0+255),b
  5936  002908  EC4F  F03A         	call	_cmd	;wreg free
  5937                           
  5938                           ;display.c: 94: cmd(4294967052UL);wr16(1081344UL+cmd_offset, 5);cmd_incrementn(2);wr16(1
      +                          081344UL+cmd_offset, 207);cmd_incrementn(2);wr16(1081344UL+cmd_offset, 27);cmd_increment
      +                          n(2);wr16(1081344UL+cmd_offset, 0);cmd_incrementn(2);cmd_incrementn(wr8s(1081344UL+cmd_o
      +                          ff
  5939  00290C  0E0C               	movlw	12
  5940  00290E  0100               	movlb	0	; () banked
  5941  002910  6F60               	movwf	cmd@command& (0+255),b
  5942  002912  0EFF               	movlw	255
  5943  002914  6F61               	movwf	(cmd@command+1)& (0+255),b
  5944  002916  0EFF               	movlw	255
  5945  002918  6F62               	movwf	(cmd@command+2)& (0+255),b
  5946  00291A  0EFF               	movlw	255
  5947  00291C  6F63               	movwf	(cmd@command+3)& (0+255),b
  5948  00291E  EC4F  F03A         	call	_cmd	;wreg free
  5949  002922  C03E  F06F         	movff	_cmd_offset,??_display_laptime
  5950  002926  C03F  F070         	movff	_cmd_offset+1,??_display_laptime+1
  5951  00292A  0100               	movlb	0	; () banked
  5952  00292C  6B71               	clrf	(??_display_laptime+2)& (0+255),b
  5953  00292E  0E00               	movlw	0
  5954  002930  0100               	movlb	0	; () banked
  5955  002932  256F               	addwf	??_display_laptime& (0+255),w,b
  5956  002934  6E1F               	movwf	wr16@addr,c
  5957  002936  0E80               	movlw	128
  5958  002938  0100               	movlb	0	; () banked
  5959  00293A  2170               	addwfc	(??_display_laptime+1)& (0+255),w,b
  5960  00293C  6E20               	movwf	wr16@addr+1,c
  5961  00293E  0E10               	movlw	16
  5962  002940  0100               	movlb	0	; () banked
  5963  002942  2171               	addwfc	(??_display_laptime+2)& (0+255),w,b
  5964  002944  6E21               	movwf	wr16@addr+2,c
  5965  002946  0E00               	movlw	0
  5966  002948  6E23               	movwf	wr16@value+1,c
  5967  00294A  0E05               	movlw	5
  5968  00294C  6E22               	movwf	wr16@value,c
  5969  00294E  EC31  F03A         	call	_wr16	;wreg free
  5970  002952  0E02               	movlw	2
  5971  002954  ECA2  F03A         	call	_cmd_incrementn
  5972  002958  C03E  F06F         	movff	_cmd_offset,??_display_laptime
  5973  00295C  C03F  F070         	movff	_cmd_offset+1,??_display_laptime+1
  5974  002960  0100               	movlb	0	; () banked
  5975  002962  6B71               	clrf	(??_display_laptime+2)& (0+255),b
  5976  002964  0E00               	movlw	0
  5977  002966  0100               	movlb	0	; () banked
  5978  002968  256F               	addwf	??_display_laptime& (0+255),w,b
  5979  00296A  6E1F               	movwf	wr16@addr,c
  5980  00296C  0E80               	movlw	128
  5981  00296E  0100               	movlb	0	; () banked
  5982  002970  2170               	addwfc	(??_display_laptime+1)& (0+255),w,b
  5983  002972  6E20               	movwf	wr16@addr+1,c
  5984  002974  0E10               	movlw	16
  5985  002976  0100               	movlb	0	; () banked
  5986  002978  2171               	addwfc	(??_display_laptime+2)& (0+255),w,b
  5987  00297A  6E21               	movwf	wr16@addr+2,c
  5988  00297C  0E00               	movlw	0
  5989  00297E  6E23               	movwf	wr16@value+1,c
  5990  002980  0ECF               	movlw	207
  5991  002982  6E22               	movwf	wr16@value,c
  5992  002984  EC31  F03A         	call	_wr16	;wreg free
  5993  002988  0E02               	movlw	2
  5994  00298A  ECA2  F03A         	call	_cmd_incrementn
  5995  00298E  C03E  F06F         	movff	_cmd_offset,??_display_laptime
  5996  002992  C03F  F070         	movff	_cmd_offset+1,??_display_laptime+1
  5997  002996  0100               	movlb	0	; () banked
  5998  002998  6B71               	clrf	(??_display_laptime+2)& (0+255),b
  5999  00299A  0E00               	movlw	0
  6000  00299C  0100               	movlb	0	; () banked
  6001  00299E  256F               	addwf	??_display_laptime& (0+255),w,b
  6002  0029A0  6E1F               	movwf	wr16@addr,c
  6003  0029A2  0E80               	movlw	128
  6004  0029A4  0100               	movlb	0	; () banked
  6005  0029A6  2170               	addwfc	(??_display_laptime+1)& (0+255),w,b
  6006  0029A8  6E20               	movwf	wr16@addr+1,c
  6007  0029AA  0E10               	movlw	16
  6008  0029AC  0100               	movlb	0	; () banked
  6009  0029AE  2171               	addwfc	(??_display_laptime+2)& (0+255),w,b
  6010  0029B0  6E21               	movwf	wr16@addr+2,c
  6011  0029B2  0E00               	movlw	0
  6012  0029B4  6E23               	movwf	wr16@value+1,c
  6013  0029B6  0E1B               	movlw	27
  6014  0029B8  6E22               	movwf	wr16@value,c
  6015  0029BA  EC31  F03A         	call	_wr16	;wreg free
  6016  0029BE  0E02               	movlw	2
  6017  0029C0  ECA2  F03A         	call	_cmd_incrementn
  6018  0029C4  C03E  F06F         	movff	_cmd_offset,??_display_laptime
  6019  0029C8  C03F  F070         	movff	_cmd_offset+1,??_display_laptime+1
  6020  0029CC  0100               	movlb	0	; () banked
  6021  0029CE  6B71               	clrf	(??_display_laptime+2)& (0+255),b
  6022  0029D0  0E00               	movlw	0
  6023  0029D2  0100               	movlb	0	; () banked
  6024  0029D4  256F               	addwf	??_display_laptime& (0+255),w,b
  6025  0029D6  6E1F               	movwf	wr16@addr,c
  6026  0029D8  0E80               	movlw	128
  6027  0029DA  0100               	movlb	0	; () banked
  6028  0029DC  2170               	addwfc	(??_display_laptime+1)& (0+255),w,b
  6029  0029DE  6E20               	movwf	wr16@addr+1,c
  6030  0029E0  0E10               	movlw	16
  6031  0029E2  0100               	movlb	0	; () banked
  6032  0029E4  2171               	addwfc	(??_display_laptime+2)& (0+255),w,b
  6033  0029E6  6E21               	movwf	wr16@addr+2,c
  6034  0029E8  0E00               	movlw	0
  6035  0029EA  6E23               	movwf	wr16@value+1,c
  6036  0029EC  0E00               	movlw	0
  6037  0029EE  6E22               	movwf	wr16@value,c
  6038  0029F0  EC31  F03A         	call	_wr16	;wreg free
  6039  0029F4  0E02               	movlw	2
  6040  0029F6  ECA2  F03A         	call	_cmd_incrementn
  6041  0029FA  C03E  F06F         	movff	_cmd_offset,??_display_laptime
  6042  0029FE  C03F  F070         	movff	_cmd_offset+1,??_display_laptime+1
  6043  002A02  0100               	movlb	0	; () banked
  6044  002A04  6B71               	clrf	(??_display_laptime+2)& (0+255),b
  6045  002A06  0E00               	movlw	0
  6046  002A08  0100               	movlb	0	; () banked
  6047  002A0A  256F               	addwf	??_display_laptime& (0+255),w,b
  6048  002A0C  6E24               	movwf	wr8s@addr,c
  6049  002A0E  0E80               	movlw	128
  6050  002A10  0100               	movlb	0	; () banked
  6051  002A12  2170               	addwfc	(??_display_laptime+1)& (0+255),w,b
  6052  002A14  6E25               	movwf	wr8s@addr+1,c
  6053  002A16  0E10               	movlw	16
  6054  002A18  0100               	movlb	0	; () banked
  6055  002A1A  2171               	addwfc	(??_display_laptime+2)& (0+255),w,b
  6056  002A1C  6E26               	movwf	wr8s@addr+2,c
  6057  002A1E  0E3D               	movlw	low STR_17
  6058  002A20  6E27               	movwf	wr8s@s,c
  6059  002A22  0E0F               	movlw	high STR_17
  6060  002A24  6E28               	movwf	wr8s@s+1,c
  6061  002A26  EC04  F038         	call	_wr8s	;wreg free
  6062  002A2A  ECA2  F03A         	call	_cmd_incrementn
  6063                           
  6064                           ;display.c: 95: cmd(4294967086UL);wr16(1081344UL+cmd_offset, 66);cmd_incrementn(2);wr16(
      +                          1081344UL+cmd_offset, 217);cmd_incrementn(2);wr16(1081344UL+cmd_offset, 27);cmd_incremen
      +                          tn(2);wr16(1081344UL+cmd_offset, 1536UL);cmd_incrementn(2);cmd(3);
  6065  002A2E  0E2E               	movlw	46
  6066  002A30  0100               	movlb	0	; () banked
  6067  002A32  6F60               	movwf	cmd@command& (0+255),b
  6068  002A34  0EFF               	movlw	255
  6069  002A36  6F61               	movwf	(cmd@command+1)& (0+255),b
  6070  002A38  0EFF               	movlw	255
  6071  002A3A  6F62               	movwf	(cmd@command+2)& (0+255),b
  6072  002A3C  0EFF               	movlw	255
  6073  002A3E  6F63               	movwf	(cmd@command+3)& (0+255),b
  6074  002A40  EC4F  F03A         	call	_cmd	;wreg free
  6075  002A44  C03E  F06F         	movff	_cmd_offset,??_display_laptime
  6076  002A48  C03F  F070         	movff	_cmd_offset+1,??_display_laptime+1
  6077  002A4C  0100               	movlb	0	; () banked
  6078  002A4E  6B71               	clrf	(??_display_laptime+2)& (0+255),b
  6079  002A50  0E00               	movlw	0
  6080  002A52  0100               	movlb	0	; () banked
  6081  002A54  256F               	addwf	??_display_laptime& (0+255),w,b
  6082  002A56  6E1F               	movwf	wr16@addr,c
  6083  002A58  0E80               	movlw	128
  6084  002A5A  0100               	movlb	0	; () banked
  6085  002A5C  2170               	addwfc	(??_display_laptime+1)& (0+255),w,b
  6086  002A5E  6E20               	movwf	wr16@addr+1,c
  6087  002A60  0E10               	movlw	16
  6088  002A62  0100               	movlb	0	; () banked
  6089  002A64  2171               	addwfc	(??_display_laptime+2)& (0+255),w,b
  6090  002A66  6E21               	movwf	wr16@addr+2,c
  6091  002A68  0E00               	movlw	0
  6092  002A6A  6E23               	movwf	wr16@value+1,c
  6093  002A6C  0E42               	movlw	66
  6094  002A6E  6E22               	movwf	wr16@value,c
  6095  002A70  EC31  F03A         	call	_wr16	;wreg free
  6096  002A74  0E02               	movlw	2
  6097  002A76  ECA2  F03A         	call	_cmd_incrementn
  6098  002A7A  C03E  F06F         	movff	_cmd_offset,??_display_laptime
  6099  002A7E  C03F  F070         	movff	_cmd_offset+1,??_display_laptime+1
  6100  002A82  0100               	movlb	0	; () banked
  6101  002A84  6B71               	clrf	(??_display_laptime+2)& (0+255),b
  6102  002A86  0E00               	movlw	0
  6103  002A88  0100               	movlb	0	; () banked
  6104  002A8A  256F               	addwf	??_display_laptime& (0+255),w,b
  6105  002A8C  6E1F               	movwf	wr16@addr,c
  6106  002A8E  0E80               	movlw	128
  6107  002A90  0100               	movlb	0	; () banked
  6108  002A92  2170               	addwfc	(??_display_laptime+1)& (0+255),w,b
  6109  002A94  6E20               	movwf	wr16@addr+1,c
  6110  002A96  0E10               	movlw	16
  6111  002A98  0100               	movlb	0	; () banked
  6112  002A9A  2171               	addwfc	(??_display_laptime+2)& (0+255),w,b
  6113  002A9C  6E21               	movwf	wr16@addr+2,c
  6114  002A9E  0E00               	movlw	0
  6115  002AA0  6E23               	movwf	wr16@value+1,c
  6116  002AA2  0ED9               	movlw	217
  6117  002AA4  6E22               	movwf	wr16@value,c
  6118  002AA6  EC31  F03A         	call	_wr16	;wreg free
  6119  002AAA  0E02               	movlw	2
  6120  002AAC  ECA2  F03A         	call	_cmd_incrementn
  6121  002AB0  C03E  F06F         	movff	_cmd_offset,??_display_laptime
  6122  002AB4  C03F  F070         	movff	_cmd_offset+1,??_display_laptime+1
  6123  002AB8  0100               	movlb	0	; () banked
  6124  002ABA  6B71               	clrf	(??_display_laptime+2)& (0+255),b
  6125  002ABC  0E00               	movlw	0
  6126  002ABE  0100               	movlb	0	; () banked
  6127  002AC0  256F               	addwf	??_display_laptime& (0+255),w,b
  6128  002AC2  6E1F               	movwf	wr16@addr,c
  6129  002AC4  0E80               	movlw	128
  6130  002AC6  0100               	movlb	0	; () banked
  6131  002AC8  2170               	addwfc	(??_display_laptime+1)& (0+255),w,b
  6132  002ACA  6E20               	movwf	wr16@addr+1,c
  6133  002ACC  0E10               	movlw	16
  6134  002ACE  0100               	movlb	0	; () banked
  6135  002AD0  2171               	addwfc	(??_display_laptime+2)& (0+255),w,b
  6136  002AD2  6E21               	movwf	wr16@addr+2,c
  6137  002AD4  0E00               	movlw	0
  6138  002AD6  6E23               	movwf	wr16@value+1,c
  6139  002AD8  0E1B               	movlw	27
  6140  002ADA  6E22               	movwf	wr16@value,c
  6141  002ADC  EC31  F03A         	call	_wr16	;wreg free
  6142  002AE0  0E02               	movlw	2
  6143  002AE2  ECA2  F03A         	call	_cmd_incrementn
  6144  002AE6  C03E  F06F         	movff	_cmd_offset,??_display_laptime
  6145  002AEA  C03F  F070         	movff	_cmd_offset+1,??_display_laptime+1
  6146  002AEE  0100               	movlb	0	; () banked
  6147  002AF0  6B71               	clrf	(??_display_laptime+2)& (0+255),b
  6148  002AF2  0E00               	movlw	0
  6149  002AF4  0100               	movlb	0	; () banked
  6150  002AF6  256F               	addwf	??_display_laptime& (0+255),w,b
  6151  002AF8  6E1F               	movwf	wr16@addr,c
  6152  002AFA  0E80               	movlw	128
  6153  002AFC  0100               	movlb	0	; () banked
  6154  002AFE  2170               	addwfc	(??_display_laptime+1)& (0+255),w,b
  6155  002B00  6E20               	movwf	wr16@addr+1,c
  6156  002B02  0E10               	movlw	16
  6157  002B04  0100               	movlb	0	; () banked
  6158  002B06  2171               	addwfc	(??_display_laptime+2)& (0+255),w,b
  6159  002B08  6E21               	movwf	wr16@addr+2,c
  6160  002B0A  0E06               	movlw	6
  6161  002B0C  6E23               	movwf	wr16@value+1,c
  6162  002B0E  0E00               	movlw	0
  6163  002B10  6E22               	movwf	wr16@value,c
  6164  002B12  EC31  F03A         	call	_wr16	;wreg free
  6165  002B16  0E02               	movlw	2
  6166  002B18  ECA2  F03A         	call	_cmd_incrementn
  6167  002B1C  0E03               	movlw	3
  6168  002B1E  0100               	movlb	0	; () banked
  6169  002B20  6F60               	movwf	cmd@command& (0+255),b
  6170  002B22  0E00               	movlw	0
  6171  002B24  6F61               	movwf	(cmd@command+1)& (0+255),b
  6172  002B26  0E00               	movlw	0
  6173  002B28  6F62               	movwf	(cmd@command+2)& (0+255),b
  6174  002B2A  0E00               	movlw	0
  6175  002B2C  6F63               	movwf	(cmd@command+3)& (0+255),b
  6176  002B2E  EC4F  F03A         	call	_cmd	;wreg free
  6177                           
  6178                           ;display.c: 96: cmd(4294967052UL);wr16(1081344UL+cmd_offset, 448);cmd_incrementn(2);wr16
      +                          (1081344UL+cmd_offset, 207);cmd_incrementn(2);wr16(1081344UL+cmd_offset, 27);cmd_increme
      +                          ntn(2);wr16(1081344UL+cmd_offset, 2048UL);cmd_incrementn(2);cmd_incrementn(wr8s(1081344U
      +                          L+
  6179  002B32  0E0C               	movlw	12
  6180  002B34  0100               	movlb	0	; () banked
  6181  002B36  6F60               	movwf	cmd@command& (0+255),b
  6182  002B38  0EFF               	movlw	255
  6183  002B3A  6F61               	movwf	(cmd@command+1)& (0+255),b
  6184  002B3C  0EFF               	movlw	255
  6185  002B3E  6F62               	movwf	(cmd@command+2)& (0+255),b
  6186  002B40  0EFF               	movlw	255
  6187  002B42  6F63               	movwf	(cmd@command+3)& (0+255),b
  6188  002B44  EC4F  F03A         	call	_cmd	;wreg free
  6189  002B48  C03E  F06F         	movff	_cmd_offset,??_display_laptime
  6190  002B4C  C03F  F070         	movff	_cmd_offset+1,??_display_laptime+1
  6191  002B50  0100               	movlb	0	; () banked
  6192  002B52  6B71               	clrf	(??_display_laptime+2)& (0+255),b
  6193  002B54  0E00               	movlw	0
  6194  002B56  0100               	movlb	0	; () banked
  6195  002B58  256F               	addwf	??_display_laptime& (0+255),w,b
  6196  002B5A  6E1F               	movwf	wr16@addr,c
  6197  002B5C  0E80               	movlw	128
  6198  002B5E  0100               	movlb	0	; () banked
  6199  002B60  2170               	addwfc	(??_display_laptime+1)& (0+255),w,b
  6200  002B62  6E20               	movwf	wr16@addr+1,c
  6201  002B64  0E10               	movlw	16
  6202  002B66  0100               	movlb	0	; () banked
  6203  002B68  2171               	addwfc	(??_display_laptime+2)& (0+255),w,b
  6204  002B6A  6E21               	movwf	wr16@addr+2,c
  6205  002B6C  0E01               	movlw	1
  6206  002B6E  6E23               	movwf	wr16@value+1,c
  6207  002B70  0EC0               	movlw	192
  6208  002B72  6E22               	movwf	wr16@value,c
  6209  002B74  EC31  F03A         	call	_wr16	;wreg free
  6210  002B78  0E02               	movlw	2
  6211  002B7A  ECA2  F03A         	call	_cmd_incrementn
  6212  002B7E  C03E  F06F         	movff	_cmd_offset,??_display_laptime
  6213  002B82  C03F  F070         	movff	_cmd_offset+1,??_display_laptime+1
  6214  002B86  0100               	movlb	0	; () banked
  6215  002B88  6B71               	clrf	(??_display_laptime+2)& (0+255),b
  6216  002B8A  0E00               	movlw	0
  6217  002B8C  0100               	movlb	0	; () banked
  6218  002B8E  256F               	addwf	??_display_laptime& (0+255),w,b
  6219  002B90  6E1F               	movwf	wr16@addr,c
  6220  002B92  0E80               	movlw	128
  6221  002B94  0100               	movlb	0	; () banked
  6222  002B96  2170               	addwfc	(??_display_laptime+1)& (0+255),w,b
  6223  002B98  6E20               	movwf	wr16@addr+1,c
  6224  002B9A  0E10               	movlw	16
  6225  002B9C  0100               	movlb	0	; () banked
  6226  002B9E  2171               	addwfc	(??_display_laptime+2)& (0+255),w,b
  6227  002BA0  6E21               	movwf	wr16@addr+2,c
  6228  002BA2  0E00               	movlw	0
  6229  002BA4  6E23               	movwf	wr16@value+1,c
  6230  002BA6  0ECF               	movlw	207
  6231  002BA8  6E22               	movwf	wr16@value,c
  6232  002BAA  EC31  F03A         	call	_wr16	;wreg free
  6233  002BAE  0E02               	movlw	2
  6234  002BB0  ECA2  F03A         	call	_cmd_incrementn
  6235  002BB4  C03E  F06F         	movff	_cmd_offset,??_display_laptime
  6236  002BB8  C03F  F070         	movff	_cmd_offset+1,??_display_laptime+1
  6237  002BBC  0100               	movlb	0	; () banked
  6238  002BBE  6B71               	clrf	(??_display_laptime+2)& (0+255),b
  6239  002BC0  0E00               	movlw	0
  6240  002BC2  0100               	movlb	0	; () banked
  6241  002BC4  256F               	addwf	??_display_laptime& (0+255),w,b
  6242  002BC6  6E1F               	movwf	wr16@addr,c
  6243  002BC8  0E80               	movlw	128
  6244  002BCA  0100               	movlb	0	; () banked
  6245  002BCC  2170               	addwfc	(??_display_laptime+1)& (0+255),w,b
  6246  002BCE  6E20               	movwf	wr16@addr+1,c
  6247  002BD0  0E10               	movlw	16
  6248  002BD2  0100               	movlb	0	; () banked
  6249  002BD4  2171               	addwfc	(??_display_laptime+2)& (0+255),w,b
  6250  002BD6  6E21               	movwf	wr16@addr+2,c
  6251  002BD8  0E00               	movlw	0
  6252  002BDA  6E23               	movwf	wr16@value+1,c
  6253  002BDC  0E1B               	movlw	27
  6254  002BDE  6E22               	movwf	wr16@value,c
  6255  002BE0  EC31  F03A         	call	_wr16	;wreg free
  6256  002BE4  0E02               	movlw	2
  6257  002BE6  ECA2  F03A         	call	_cmd_incrementn
  6258  002BEA  C03E  F06F         	movff	_cmd_offset,??_display_laptime
  6259  002BEE  C03F  F070         	movff	_cmd_offset+1,??_display_laptime+1
  6260  002BF2  0100               	movlb	0	; () banked
  6261  002BF4  6B71               	clrf	(??_display_laptime+2)& (0+255),b
  6262  002BF6  0E00               	movlw	0
  6263  002BF8  0100               	movlb	0	; () banked
  6264  002BFA  256F               	addwf	??_display_laptime& (0+255),w,b
  6265  002BFC  6E1F               	movwf	wr16@addr,c
  6266  002BFE  0E80               	movlw	128
  6267  002C00  0100               	movlb	0	; () banked
  6268  002C02  2170               	addwfc	(??_display_laptime+1)& (0+255),w,b
  6269  002C04  6E20               	movwf	wr16@addr+1,c
  6270  002C06  0E10               	movlw	16
  6271  002C08  0100               	movlb	0	; () banked
  6272  002C0A  2171               	addwfc	(??_display_laptime+2)& (0+255),w,b
  6273  002C0C  6E21               	movwf	wr16@addr+2,c
  6274  002C0E  0E08               	movlw	8
  6275  002C10  6E23               	movwf	wr16@value+1,c
  6276  002C12  0E00               	movlw	0
  6277  002C14  6E22               	movwf	wr16@value,c
  6278  002C16  EC31  F03A         	call	_wr16	;wreg free
  6279  002C1A  0E02               	movlw	2
  6280  002C1C  ECA2  F03A         	call	_cmd_incrementn
  6281  002C20  C03E  F06F         	movff	_cmd_offset,??_display_laptime
  6282  002C24  C03F  F070         	movff	_cmd_offset+1,??_display_laptime+1
  6283  002C28  0100               	movlb	0	; () banked
  6284  002C2A  6B71               	clrf	(??_display_laptime+2)& (0+255),b
  6285  002C2C  0E00               	movlw	0
  6286  002C2E  0100               	movlb	0	; () banked
  6287  002C30  256F               	addwf	??_display_laptime& (0+255),w,b
  6288  002C32  6E24               	movwf	wr8s@addr,c
  6289  002C34  0E80               	movlw	128
  6290  002C36  0100               	movlb	0	; () banked
  6291  002C38  2170               	addwfc	(??_display_laptime+1)& (0+255),w,b
  6292  002C3A  6E25               	movwf	wr8s@addr+1,c
  6293  002C3C  0E10               	movlw	16
  6294  002C3E  0100               	movlb	0	; () banked
  6295  002C40  2171               	addwfc	(??_display_laptime+2)& (0+255),w,b
  6296  002C42  6E26               	movwf	wr8s@addr+2,c
  6297  002C44  0E42               	movlw	low STR_18
  6298  002C46  6E27               	movwf	wr8s@s,c
  6299  002C48  0E0F               	movlw	high STR_18
  6300  002C4A  6E28               	movwf	wr8s@s+1,c
  6301  002C4C  EC04  F038         	call	_wr8s	;wreg free
  6302  002C50  ECA2  F03A         	call	_cmd_incrementn
  6303                           
  6304                           ;display.c: 97: cmd(4294967086UL);wr16(1081344UL+cmd_offset, 475);cmd_incrementn(2);wr16
      +                          (1081344UL+cmd_offset, 207);cmd_incrementn(2);wr16(1081344UL+cmd_offset, 27);cmd_increme
      +                          ntn(2);wr16(1081344UL+cmd_offset, 2048UL);cmd_incrementn(2);cmd(1);
  6305  002C54  0E2E               	movlw	46
  6306  002C56  0100               	movlb	0	; () banked
  6307  002C58  6F60               	movwf	cmd@command& (0+255),b
  6308  002C5A  0EFF               	movlw	255
  6309  002C5C  6F61               	movwf	(cmd@command+1)& (0+255),b
  6310  002C5E  0EFF               	movlw	255
  6311  002C60  6F62               	movwf	(cmd@command+2)& (0+255),b
  6312  002C62  0EFF               	movlw	255
  6313  002C64  6F63               	movwf	(cmd@command+3)& (0+255),b
  6314  002C66  EC4F  F03A         	call	_cmd	;wreg free
  6315  002C6A  C03E  F06F         	movff	_cmd_offset,??_display_laptime
  6316  002C6E  C03F  F070         	movff	_cmd_offset+1,??_display_laptime+1
  6317  002C72  0100               	movlb	0	; () banked
  6318  002C74  6B71               	clrf	(??_display_laptime+2)& (0+255),b
  6319  002C76  0E00               	movlw	0
  6320  002C78  0100               	movlb	0	; () banked
  6321  002C7A  256F               	addwf	??_display_laptime& (0+255),w,b
  6322  002C7C  6E1F               	movwf	wr16@addr,c
  6323  002C7E  0E80               	movlw	128
  6324  002C80  0100               	movlb	0	; () banked
  6325  002C82  2170               	addwfc	(??_display_laptime+1)& (0+255),w,b
  6326  002C84  6E20               	movwf	wr16@addr+1,c
  6327  002C86  0E10               	movlw	16
  6328  002C88  0100               	movlb	0	; () banked
  6329  002C8A  2171               	addwfc	(??_display_laptime+2)& (0+255),w,b
  6330  002C8C  6E21               	movwf	wr16@addr+2,c
  6331  002C8E  0E01               	movlw	1
  6332  002C90  6E23               	movwf	wr16@value+1,c
  6333  002C92  0EDB               	movlw	219
  6334  002C94  6E22               	movwf	wr16@value,c
  6335  002C96  EC31  F03A         	call	_wr16	;wreg free
  6336  002C9A  0E02               	movlw	2
  6337  002C9C  ECA2  F03A         	call	_cmd_incrementn
  6338  002CA0  C03E  F06F         	movff	_cmd_offset,??_display_laptime
  6339  002CA4  C03F  F070         	movff	_cmd_offset+1,??_display_laptime+1
  6340  002CA8  0100               	movlb	0	; () banked
  6341  002CAA  6B71               	clrf	(??_display_laptime+2)& (0+255),b
  6342  002CAC  0E00               	movlw	0
  6343  002CAE  0100               	movlb	0	; () banked
  6344  002CB0  256F               	addwf	??_display_laptime& (0+255),w,b
  6345  002CB2  6E1F               	movwf	wr16@addr,c
  6346  002CB4  0E80               	movlw	128
  6347  002CB6  0100               	movlb	0	; () banked
  6348  002CB8  2170               	addwfc	(??_display_laptime+1)& (0+255),w,b
  6349  002CBA  6E20               	movwf	wr16@addr+1,c
  6350  002CBC  0E10               	movlw	16
  6351  002CBE  0100               	movlb	0	; () banked
  6352  002CC0  2171               	addwfc	(??_display_laptime+2)& (0+255),w,b
  6353  002CC2  6E21               	movwf	wr16@addr+2,c
  6354  002CC4  0E00               	movlw	0
  6355  002CC6  6E23               	movwf	wr16@value+1,c
  6356  002CC8  0ECF               	movlw	207
  6357  002CCA  6E22               	movwf	wr16@value,c
  6358  002CCC  EC31  F03A         	call	_wr16	;wreg free
  6359  002CD0  0E02               	movlw	2
  6360  002CD2  ECA2  F03A         	call	_cmd_incrementn
  6361  002CD6  C03E  F06F         	movff	_cmd_offset,??_display_laptime
  6362  002CDA  C03F  F070         	movff	_cmd_offset+1,??_display_laptime+1
  6363  002CDE  0100               	movlb	0	; () banked
  6364  002CE0  6B71               	clrf	(??_display_laptime+2)& (0+255),b
  6365  002CE2  0E00               	movlw	0
  6366  002CE4  0100               	movlb	0	; () banked
  6367  002CE6  256F               	addwf	??_display_laptime& (0+255),w,b
  6368  002CE8  6E1F               	movwf	wr16@addr,c
  6369  002CEA  0E80               	movlw	128
  6370  002CEC  0100               	movlb	0	; () banked
  6371  002CEE  2170               	addwfc	(??_display_laptime+1)& (0+255),w,b
  6372  002CF0  6E20               	movwf	wr16@addr+1,c
  6373  002CF2  0E10               	movlw	16
  6374  002CF4  0100               	movlb	0	; () banked
  6375  002CF6  2171               	addwfc	(??_display_laptime+2)& (0+255),w,b
  6376  002CF8  6E21               	movwf	wr16@addr+2,c
  6377  002CFA  0E00               	movlw	0
  6378  002CFC  6E23               	movwf	wr16@value+1,c
  6379  002CFE  0E1B               	movlw	27
  6380  002D00  6E22               	movwf	wr16@value,c
  6381  002D02  EC31  F03A         	call	_wr16	;wreg free
  6382  002D06  0E02               	movlw	2
  6383  002D08  ECA2  F03A         	call	_cmd_incrementn
  6384  002D0C  C03E  F06F         	movff	_cmd_offset,??_display_laptime
  6385  002D10  C03F  F070         	movff	_cmd_offset+1,??_display_laptime+1
  6386  002D14  0100               	movlb	0	; () banked
  6387  002D16  6B71               	clrf	(??_display_laptime+2)& (0+255),b
  6388  002D18  0E00               	movlw	0
  6389  002D1A  0100               	movlb	0	; () banked
  6390  002D1C  256F               	addwf	??_display_laptime& (0+255),w,b
  6391  002D1E  6E1F               	movwf	wr16@addr,c
  6392  002D20  0E80               	movlw	128
  6393  002D22  0100               	movlb	0	; () banked
  6394  002D24  2170               	addwfc	(??_display_laptime+1)& (0+255),w,b
  6395  002D26  6E20               	movwf	wr16@addr+1,c
  6396  002D28  0E10               	movlw	16
  6397  002D2A  0100               	movlb	0	; () banked
  6398  002D2C  2171               	addwfc	(??_display_laptime+2)& (0+255),w,b
  6399  002D2E  6E21               	movwf	wr16@addr+2,c
  6400  002D30  0E08               	movlw	8
  6401  002D32  6E23               	movwf	wr16@value+1,c
  6402  002D34  0E00               	movlw	0
  6403  002D36  6E22               	movwf	wr16@value,c
  6404  002D38  EC31  F03A         	call	_wr16	;wreg free
  6405  002D3C  0E02               	movlw	2
  6406  002D3E  ECA2  F03A         	call	_cmd_incrementn
  6407  002D42  0E01               	movlw	1
  6408  002D44  0100               	movlb	0	; () banked
  6409  002D46  6F60               	movwf	cmd@command& (0+255),b
  6410  002D48  0E00               	movlw	0
  6411  002D4A  6F61               	movwf	(cmd@command+1)& (0+255),b
  6412  002D4C  0E00               	movlw	0
  6413  002D4E  6F62               	movwf	(cmd@command+2)& (0+255),b
  6414  002D50  0E00               	movlw	0
  6415  002D52  6F63               	movwf	(cmd@command+3)& (0+255),b
  6416  002D54  EC4F  F03A         	call	_cmd	;wreg free
  6417                           
  6418                           ;display.c: 98: cmd(4294967052UL);wr16(1081344UL+cmd_offset, 240);cmd_incrementn(2);wr16
      +                          (1081344UL+cmd_offset, 165);cmd_incrementn(2);wr16(1081344UL+cmd_offset, 27);cmd_increme
      +                          ntn(2);wr16(1081344UL+cmd_offset, 1536UL);cmd_incrementn(2);cmd_incrementn(wr8s(1081344U
      +                          L+
  6419  002D58  0E0C               	movlw	12
  6420  002D5A  0100               	movlb	0	; () banked
  6421  002D5C  6F60               	movwf	cmd@command& (0+255),b
  6422  002D5E  0EFF               	movlw	255
  6423  002D60  6F61               	movwf	(cmd@command+1)& (0+255),b
  6424  002D62  0EFF               	movlw	255
  6425  002D64  6F62               	movwf	(cmd@command+2)& (0+255),b
  6426  002D66  0EFF               	movlw	255
  6427  002D68  6F63               	movwf	(cmd@command+3)& (0+255),b
  6428  002D6A  EC4F  F03A         	call	_cmd	;wreg free
  6429  002D6E  C03E  F06F         	movff	_cmd_offset,??_display_laptime
  6430  002D72  C03F  F070         	movff	_cmd_offset+1,??_display_laptime+1
  6431  002D76  0100               	movlb	0	; () banked
  6432  002D78  6B71               	clrf	(??_display_laptime+2)& (0+255),b
  6433  002D7A  0E00               	movlw	0
  6434  002D7C  0100               	movlb	0	; () banked
  6435  002D7E  256F               	addwf	??_display_laptime& (0+255),w,b
  6436  002D80  6E1F               	movwf	wr16@addr,c
  6437  002D82  0E80               	movlw	128
  6438  002D84  0100               	movlb	0	; () banked
  6439  002D86  2170               	addwfc	(??_display_laptime+1)& (0+255),w,b
  6440  002D88  6E20               	movwf	wr16@addr+1,c
  6441  002D8A  0E10               	movlw	16
  6442  002D8C  0100               	movlb	0	; () banked
  6443  002D8E  2171               	addwfc	(??_display_laptime+2)& (0+255),w,b
  6444  002D90  6E21               	movwf	wr16@addr+2,c
  6445  002D92  0E00               	movlw	0
  6446  002D94  6E23               	movwf	wr16@value+1,c
  6447  002D96  0EF0               	movlw	240
  6448  002D98  6E22               	movwf	wr16@value,c
  6449  002D9A  EC31  F03A         	call	_wr16	;wreg free
  6450  002D9E  0E02               	movlw	2
  6451  002DA0  ECA2  F03A         	call	_cmd_incrementn
  6452  002DA4  C03E  F06F         	movff	_cmd_offset,??_display_laptime
  6453  002DA8  C03F  F070         	movff	_cmd_offset+1,??_display_laptime+1
  6454  002DAC  0100               	movlb	0	; () banked
  6455  002DAE  6B71               	clrf	(??_display_laptime+2)& (0+255),b
  6456  002DB0  0E00               	movlw	0
  6457  002DB2  0100               	movlb	0	; () banked
  6458  002DB4  256F               	addwf	??_display_laptime& (0+255),w,b
  6459  002DB6  6E1F               	movwf	wr16@addr,c
  6460  002DB8  0E80               	movlw	128
  6461  002DBA  0100               	movlb	0	; () banked
  6462  002DBC  2170               	addwfc	(??_display_laptime+1)& (0+255),w,b
  6463  002DBE  6E20               	movwf	wr16@addr+1,c
  6464  002DC0  0E10               	movlw	16
  6465  002DC2  0100               	movlb	0	; () banked
  6466  002DC4  2171               	addwfc	(??_display_laptime+2)& (0+255),w,b
  6467  002DC6  6E21               	movwf	wr16@addr+2,c
  6468  002DC8  0E00               	movlw	0
  6469  002DCA  6E23               	movwf	wr16@value+1,c
  6470  002DCC  0EA5               	movlw	165
  6471  002DCE  6E22               	movwf	wr16@value,c
  6472  002DD0  EC31  F03A         	call	_wr16	;wreg free
  6473  002DD4  0E02               	movlw	2
  6474  002DD6  ECA2  F03A         	call	_cmd_incrementn
  6475  002DDA  C03E  F06F         	movff	_cmd_offset,??_display_laptime
  6476  002DDE  C03F  F070         	movff	_cmd_offset+1,??_display_laptime+1
  6477  002DE2  0100               	movlb	0	; () banked
  6478  002DE4  6B71               	clrf	(??_display_laptime+2)& (0+255),b
  6479  002DE6  0E00               	movlw	0
  6480  002DE8  0100               	movlb	0	; () banked
  6481  002DEA  256F               	addwf	??_display_laptime& (0+255),w,b
  6482  002DEC  6E1F               	movwf	wr16@addr,c
  6483  002DEE  0E80               	movlw	128
  6484  002DF0  0100               	movlb	0	; () banked
  6485  002DF2  2170               	addwfc	(??_display_laptime+1)& (0+255),w,b
  6486  002DF4  6E20               	movwf	wr16@addr+1,c
  6487  002DF6  0E10               	movlw	16
  6488  002DF8  0100               	movlb	0	; () banked
  6489  002DFA  2171               	addwfc	(??_display_laptime+2)& (0+255),w,b
  6490  002DFC  6E21               	movwf	wr16@addr+2,c
  6491  002DFE  0E00               	movlw	0
  6492  002E00  6E23               	movwf	wr16@value+1,c
  6493  002E02  0E1B               	movlw	27
  6494  002E04  6E22               	movwf	wr16@value,c
  6495  002E06  EC31  F03A         	call	_wr16	;wreg free
  6496  002E0A  0E02               	movlw	2
  6497  002E0C  ECA2  F03A         	call	_cmd_incrementn
  6498  002E10  C03E  F06F         	movff	_cmd_offset,??_display_laptime
  6499  002E14  C03F  F070         	movff	_cmd_offset+1,??_display_laptime+1
  6500  002E18  0100               	movlb	0	; () banked
  6501  002E1A  6B71               	clrf	(??_display_laptime+2)& (0+255),b
  6502  002E1C  0E00               	movlw	0
  6503  002E1E  0100               	movlb	0	; () banked
  6504  002E20  256F               	addwf	??_display_laptime& (0+255),w,b
  6505  002E22  6E1F               	movwf	wr16@addr,c
  6506  002E24  0E80               	movlw	128
  6507  002E26  0100               	movlb	0	; () banked
  6508  002E28  2170               	addwfc	(??_display_laptime+1)& (0+255),w,b
  6509  002E2A  6E20               	movwf	wr16@addr+1,c
  6510  002E2C  0E10               	movlw	16
  6511  002E2E  0100               	movlb	0	; () banked
  6512  002E30  2171               	addwfc	(??_display_laptime+2)& (0+255),w,b
  6513  002E32  6E21               	movwf	wr16@addr+2,c
  6514  002E34  0E06               	movlw	6
  6515  002E36  6E23               	movwf	wr16@value+1,c
  6516  002E38  0E00               	movlw	0
  6517  002E3A  6E22               	movwf	wr16@value,c
  6518  002E3C  EC31  F03A         	call	_wr16	;wreg free
  6519  002E40  0E02               	movlw	2
  6520  002E42  ECA2  F03A         	call	_cmd_incrementn
  6521  002E46  C03E  F06F         	movff	_cmd_offset,??_display_laptime
  6522  002E4A  C03F  F070         	movff	_cmd_offset+1,??_display_laptime+1
  6523  002E4E  0100               	movlb	0	; () banked
  6524  002E50  6B71               	clrf	(??_display_laptime+2)& (0+255),b
  6525  002E52  0E00               	movlw	0
  6526  002E54  0100               	movlb	0	; () banked
  6527  002E56  256F               	addwf	??_display_laptime& (0+255),w,b
  6528  002E58  6E24               	movwf	wr8s@addr,c
  6529  002E5A  0E80               	movlw	128
  6530  002E5C  0100               	movlb	0	; () banked
  6531  002E5E  2170               	addwfc	(??_display_laptime+1)& (0+255),w,b
  6532  002E60  6E25               	movwf	wr8s@addr+1,c
  6533  002E62  0E10               	movlw	16
  6534  002E64  0100               	movlb	0	; () banked
  6535  002E66  2171               	addwfc	(??_display_laptime+2)& (0+255),w,b
  6536  002E68  6E26               	movwf	wr8s@addr+2,c
  6537  002E6A  0E58               	movlw	low STR_19
  6538  002E6C  6E27               	movwf	wr8s@s,c
  6539  002E6E  0E0F               	movlw	high STR_19
  6540  002E70  6E28               	movwf	wr8s@s+1,c
  6541  002E72  EC04  F038         	call	_wr8s	;wreg free
  6542  002E76  ECA2  F03A         	call	_cmd_incrementn
  6543                           
  6544                           ;display.c: 99: cmd(4294967086UL);wr16(1081344UL+cmd_offset, 240);cmd_incrementn(2);wr16
      +                          (1081344UL+cmd_offset, 190);cmd_incrementn(2);wr16(1081344UL+cmd_offset, 29);cmd_increme
      +                          ntn(2);wr16(1081344UL+cmd_offset, 1536UL);cmd_incrementn(2);cmd(7);
  6545  002E7A  0E2E               	movlw	46
  6546  002E7C  0100               	movlb	0	; () banked
  6547  002E7E  6F60               	movwf	cmd@command& (0+255),b
  6548  002E80  0EFF               	movlw	255
  6549  002E82  6F61               	movwf	(cmd@command+1)& (0+255),b
  6550  002E84  0EFF               	movlw	255
  6551  002E86  6F62               	movwf	(cmd@command+2)& (0+255),b
  6552  002E88  0EFF               	movlw	255
  6553  002E8A  6F63               	movwf	(cmd@command+3)& (0+255),b
  6554  002E8C  EC4F  F03A         	call	_cmd	;wreg free
  6555  002E90  C03E  F06F         	movff	_cmd_offset,??_display_laptime
  6556  002E94  C03F  F070         	movff	_cmd_offset+1,??_display_laptime+1
  6557  002E98  0100               	movlb	0	; () banked
  6558  002E9A  6B71               	clrf	(??_display_laptime+2)& (0+255),b
  6559  002E9C  0E00               	movlw	0
  6560  002E9E  0100               	movlb	0	; () banked
  6561  002EA0  256F               	addwf	??_display_laptime& (0+255),w,b
  6562  002EA2  6E1F               	movwf	wr16@addr,c
  6563  002EA4  0E80               	movlw	128
  6564  002EA6  0100               	movlb	0	; () banked
  6565  002EA8  2170               	addwfc	(??_display_laptime+1)& (0+255),w,b
  6566  002EAA  6E20               	movwf	wr16@addr+1,c
  6567  002EAC  0E10               	movlw	16
  6568  002EAE  0100               	movlb	0	; () banked
  6569  002EB0  2171               	addwfc	(??_display_laptime+2)& (0+255),w,b
  6570  002EB2  6E21               	movwf	wr16@addr+2,c
  6571  002EB4  0E00               	movlw	0
  6572  002EB6  6E23               	movwf	wr16@value+1,c
  6573  002EB8  0EF0               	movlw	240
  6574  002EBA  6E22               	movwf	wr16@value,c
  6575  002EBC  EC31  F03A         	call	_wr16	;wreg free
  6576  002EC0  0E02               	movlw	2
  6577  002EC2  ECA2  F03A         	call	_cmd_incrementn
  6578  002EC6  C03E  F06F         	movff	_cmd_offset,??_display_laptime
  6579  002ECA  C03F  F070         	movff	_cmd_offset+1,??_display_laptime+1
  6580  002ECE  0100               	movlb	0	; () banked
  6581  002ED0  6B71               	clrf	(??_display_laptime+2)& (0+255),b
  6582  002ED2  0E00               	movlw	0
  6583  002ED4  0100               	movlb	0	; () banked
  6584  002ED6  256F               	addwf	??_display_laptime& (0+255),w,b
  6585  002ED8  6E1F               	movwf	wr16@addr,c
  6586  002EDA  0E80               	movlw	128
  6587  002EDC  0100               	movlb	0	; () banked
  6588  002EDE  2170               	addwfc	(??_display_laptime+1)& (0+255),w,b
  6589  002EE0  6E20               	movwf	wr16@addr+1,c
  6590  002EE2  0E10               	movlw	16
  6591  002EE4  0100               	movlb	0	; () banked
  6592  002EE6  2171               	addwfc	(??_display_laptime+2)& (0+255),w,b
  6593  002EE8  6E21               	movwf	wr16@addr+2,c
  6594  002EEA  0E00               	movlw	0
  6595  002EEC  6E23               	movwf	wr16@value+1,c
  6596  002EEE  0EBE               	movlw	190
  6597  002EF0  6E22               	movwf	wr16@value,c
  6598  002EF2  EC31  F03A         	call	_wr16	;wreg free
  6599  002EF6  0E02               	movlw	2
  6600  002EF8  ECA2  F03A         	call	_cmd_incrementn
  6601  002EFC  C03E  F06F         	movff	_cmd_offset,??_display_laptime
  6602  002F00  C03F  F070         	movff	_cmd_offset+1,??_display_laptime+1
  6603  002F04  0100               	movlb	0	; () banked
  6604  002F06  6B71               	clrf	(??_display_laptime+2)& (0+255),b
  6605  002F08  0E00               	movlw	0
  6606  002F0A  0100               	movlb	0	; () banked
  6607  002F0C  256F               	addwf	??_display_laptime& (0+255),w,b
  6608  002F0E  6E1F               	movwf	wr16@addr,c
  6609  002F10  0E80               	movlw	128
  6610  002F12  0100               	movlb	0	; () banked
  6611  002F14  2170               	addwfc	(??_display_laptime+1)& (0+255),w,b
  6612  002F16  6E20               	movwf	wr16@addr+1,c
  6613  002F18  0E10               	movlw	16
  6614  002F1A  0100               	movlb	0	; () banked
  6615  002F1C  2171               	addwfc	(??_display_laptime+2)& (0+255),w,b
  6616  002F1E  6E21               	movwf	wr16@addr+2,c
  6617  002F20  0E00               	movlw	0
  6618  002F22  6E23               	movwf	wr16@value+1,c
  6619  002F24  0E1D               	movlw	29
  6620  002F26  6E22               	movwf	wr16@value,c
  6621  002F28  EC31  F03A         	call	_wr16	;wreg free
  6622  002F2C  0E02               	movlw	2
  6623  002F2E  ECA2  F03A         	call	_cmd_incrementn
  6624  002F32  C03E  F06F         	movff	_cmd_offset,??_display_laptime
  6625  002F36  C03F  F070         	movff	_cmd_offset+1,??_display_laptime+1
  6626  002F3A  0100               	movlb	0	; () banked
  6627  002F3C  6B71               	clrf	(??_display_laptime+2)& (0+255),b
  6628  002F3E  0E00               	movlw	0
  6629  002F40  0100               	movlb	0	; () banked
  6630  002F42  256F               	addwf	??_display_laptime& (0+255),w,b
  6631  002F44  6E1F               	movwf	wr16@addr,c
  6632  002F46  0E80               	movlw	128
  6633  002F48  0100               	movlb	0	; () banked
  6634  002F4A  2170               	addwfc	(??_display_laptime+1)& (0+255),w,b
  6635  002F4C  6E20               	movwf	wr16@addr+1,c
  6636  002F4E  0E10               	movlw	16
  6637  002F50  0100               	movlb	0	; () banked
  6638  002F52  2171               	addwfc	(??_display_laptime+2)& (0+255),w,b
  6639  002F54  6E21               	movwf	wr16@addr+2,c
  6640  002F56  0E06               	movlw	6
  6641  002F58  6E23               	movwf	wr16@value+1,c
  6642  002F5A  0E00               	movlw	0
  6643  002F5C  6E22               	movwf	wr16@value,c
  6644  002F5E  EC31  F03A         	call	_wr16	;wreg free
  6645  002F62  0E02               	movlw	2
  6646  002F64  ECA2  F03A         	call	_cmd_incrementn
  6647  002F68  0E07               	movlw	7
  6648  002F6A  0100               	movlb	0	; () banked
  6649  002F6C  6F60               	movwf	cmd@command& (0+255),b
  6650  002F6E  0E00               	movlw	0
  6651  002F70  6F61               	movwf	(cmd@command+1)& (0+255),b
  6652  002F72  0E00               	movlw	0
  6653  002F74  6F62               	movwf	(cmd@command+2)& (0+255),b
  6654  002F76  0E00               	movlw	0
  6655  002F78  6F63               	movwf	(cmd@command+3)& (0+255),b
  6656  002F7A  EC4F  F03A         	call	_cmd	;wreg free
  6657                           
  6658                           ;display.c: 102: cmd(((4UL<<24)|(((255)&255UL)<<16)|(((255)&255UL)<<8)|(((255)&255UL)<<0
      +                          )));
  6659  002F7E  0EFF               	movlw	255
  6660  002F80  0100               	movlb	0	; () banked
  6661  002F82  6F60               	movwf	cmd@command& (0+255),b
  6662  002F84  0EFF               	movlw	255
  6663  002F86  6F61               	movwf	(cmd@command+1)& (0+255),b
  6664  002F88  0EFF               	movlw	255
  6665  002F8A  6F62               	movwf	(cmd@command+2)& (0+255),b
  6666  002F8C  0E04               	movlw	4
  6667  002F8E  6F63               	movwf	(cmd@command+3)& (0+255),b
  6668  002F90  EC4F  F03A         	call	_cmd	;wreg free
  6669                           
  6670                           ;display.c: 103: cmd(4294967086UL);wr16(1081344UL+cmd_offset, 36);cmd_incrementn(2);wr16
      +                          (1081344UL+cmd_offset, 222);cmd_incrementn(2);wr16(1081344UL+cmd_offset, 30);cmd_increme
      +                          ntn(2);wr16(1081344UL+cmd_offset, 2048UL);cmd_incrementn(2);cmd(18);
  6671  002F94  0E2E               	movlw	46
  6672  002F96  0100               	movlb	0	; () banked
  6673  002F98  6F60               	movwf	cmd@command& (0+255),b
  6674  002F9A  0EFF               	movlw	255
  6675  002F9C  6F61               	movwf	(cmd@command+1)& (0+255),b
  6676  002F9E  0EFF               	movlw	255
  6677  002FA0  6F62               	movwf	(cmd@command+2)& (0+255),b
  6678  002FA2  0EFF               	movlw	255
  6679  002FA4  6F63               	movwf	(cmd@command+3)& (0+255),b
  6680  002FA6  EC4F  F03A         	call	_cmd	;wreg free
  6681  002FAA  C03E  F06F         	movff	_cmd_offset,??_display_laptime
  6682  002FAE  C03F  F070         	movff	_cmd_offset+1,??_display_laptime+1
  6683  002FB2  0100               	movlb	0	; () banked
  6684  002FB4  6B71               	clrf	(??_display_laptime+2)& (0+255),b
  6685  002FB6  0E00               	movlw	0
  6686  002FB8  0100               	movlb	0	; () banked
  6687  002FBA  256F               	addwf	??_display_laptime& (0+255),w,b
  6688  002FBC  6E1F               	movwf	wr16@addr,c
  6689  002FBE  0E80               	movlw	128
  6690  002FC0  0100               	movlb	0	; () banked
  6691  002FC2  2170               	addwfc	(??_display_laptime+1)& (0+255),w,b
  6692  002FC4  6E20               	movwf	wr16@addr+1,c
  6693  002FC6  0E10               	movlw	16
  6694  002FC8  0100               	movlb	0	; () banked
  6695  002FCA  2171               	addwfc	(??_display_laptime+2)& (0+255),w,b
  6696  002FCC  6E21               	movwf	wr16@addr+2,c
  6697  002FCE  0E00               	movlw	0
  6698  002FD0  6E23               	movwf	wr16@value+1,c
  6699  002FD2  0E24               	movlw	36
  6700  002FD4  6E22               	movwf	wr16@value,c
  6701  002FD6  EC31  F03A         	call	_wr16	;wreg free
  6702  002FDA  0E02               	movlw	2
  6703  002FDC  ECA2  F03A         	call	_cmd_incrementn
  6704  002FE0  C03E  F06F         	movff	_cmd_offset,??_display_laptime
  6705  002FE4  C03F  F070         	movff	_cmd_offset+1,??_display_laptime+1
  6706  002FE8  0100               	movlb	0	; () banked
  6707  002FEA  6B71               	clrf	(??_display_laptime+2)& (0+255),b
  6708  002FEC  0E00               	movlw	0
  6709  002FEE  0100               	movlb	0	; () banked
  6710  002FF0  256F               	addwf	??_display_laptime& (0+255),w,b
  6711  002FF2  6E1F               	movwf	wr16@addr,c
  6712  002FF4  0E80               	movlw	128
  6713  002FF6  0100               	movlb	0	; () banked
  6714  002FF8  2170               	addwfc	(??_display_laptime+1)& (0+255),w,b
  6715  002FFA  6E20               	movwf	wr16@addr+1,c
  6716  002FFC  0E10               	movlw	16
  6717  002FFE  0100               	movlb	0	; () banked
  6718  003000  2171               	addwfc	(??_display_laptime+2)& (0+255),w,b
  6719  003002  6E21               	movwf	wr16@addr+2,c
  6720  003004  0E00               	movlw	0
  6721  003006  6E23               	movwf	wr16@value+1,c
  6722  003008  0EDE               	movlw	222
  6723  00300A  6E22               	movwf	wr16@value,c
  6724  00300C  EC31  F03A         	call	_wr16	;wreg free
  6725  003010  0E02               	movlw	2
  6726  003012  ECA2  F03A         	call	_cmd_incrementn
  6727  003016  C03E  F06F         	movff	_cmd_offset,??_display_laptime
  6728  00301A  C03F  F070         	movff	_cmd_offset+1,??_display_laptime+1
  6729  00301E  0100               	movlb	0	; () banked
  6730  003020  6B71               	clrf	(??_display_laptime+2)& (0+255),b
  6731  003022  0E00               	movlw	0
  6732  003024  0100               	movlb	0	; () banked
  6733  003026  256F               	addwf	??_display_laptime& (0+255),w,b
  6734  003028  6E1F               	movwf	wr16@addr,c
  6735  00302A  0E80               	movlw	128
  6736  00302C  0100               	movlb	0	; () banked
  6737  00302E  2170               	addwfc	(??_display_laptime+1)& (0+255),w,b
  6738  003030  6E20               	movwf	wr16@addr+1,c
  6739  003032  0E10               	movlw	16
  6740  003034  0100               	movlb	0	; () banked
  6741  003036  2171               	addwfc	(??_display_laptime+2)& (0+255),w,b
  6742  003038  6E21               	movwf	wr16@addr+2,c
  6743  00303A  0E00               	movlw	0
  6744  00303C  6E23               	movwf	wr16@value+1,c
  6745  00303E  0E1E               	movlw	30
  6746  003040  6E22               	movwf	wr16@value,c
  6747  003042  EC31  F03A         	call	_wr16	;wreg free
  6748  003046  0E02               	movlw	2
  6749  003048  ECA2  F03A         	call	_cmd_incrementn
  6750  00304C  C03E  F06F         	movff	_cmd_offset,??_display_laptime
  6751  003050  C03F  F070         	movff	_cmd_offset+1,??_display_laptime+1
  6752  003054  0100               	movlb	0	; () banked
  6753  003056  6B71               	clrf	(??_display_laptime+2)& (0+255),b
  6754  003058  0E00               	movlw	0
  6755  00305A  0100               	movlb	0	; () banked
  6756  00305C  256F               	addwf	??_display_laptime& (0+255),w,b
  6757  00305E  6E1F               	movwf	wr16@addr,c
  6758  003060  0E80               	movlw	128
  6759  003062  0100               	movlb	0	; () banked
  6760  003064  2170               	addwfc	(??_display_laptime+1)& (0+255),w,b
  6761  003066  6E20               	movwf	wr16@addr+1,c
  6762  003068  0E10               	movlw	16
  6763  00306A  0100               	movlb	0	; () banked
  6764  00306C  2171               	addwfc	(??_display_laptime+2)& (0+255),w,b
  6765  00306E  6E21               	movwf	wr16@addr+2,c
  6766  003070  0E08               	movlw	8
  6767  003072  6E23               	movwf	wr16@value+1,c
  6768  003074  0E00               	movlw	0
  6769  003076  6E22               	movwf	wr16@value,c
  6770  003078  EC31  F03A         	call	_wr16	;wreg free
  6771  00307C  0E02               	movlw	2
  6772  00307E  ECA2  F03A         	call	_cmd_incrementn
  6773  003082  0E12               	movlw	18
  6774  003084  0100               	movlb	0	; () banked
  6775  003086  6F60               	movwf	cmd@command& (0+255),b
  6776  003088  0E00               	movlw	0
  6777  00308A  6F61               	movwf	(cmd@command+1)& (0+255),b
  6778  00308C  0E00               	movlw	0
  6779  00308E  6F62               	movwf	(cmd@command+2)& (0+255),b
  6780  003090  0E00               	movlw	0
  6781  003092  6F63               	movwf	(cmd@command+3)& (0+255),b
  6782  003094  EC4F  F03A         	call	_cmd	;wreg free
  6783                           
  6784                           ;display.c: 104: cmd(4294967052UL);wr16(1081344UL+cmd_offset, 39);cmd_incrementn(2);wr16
      +                          (1081344UL+cmd_offset, 238);cmd_incrementn(2);wr16(1081344UL+cmd_offset, 28);cmd_increme
      +                          ntn(2);wr16(1081344UL+cmd_offset, 1536UL);cmd_incrementn(2);cmd_incrementn(wr8s(1081344U
      +                          L+c
  6785  003098  0E0C               	movlw	12
  6786  00309A  0100               	movlb	0	; () banked
  6787  00309C  6F60               	movwf	cmd@command& (0+255),b
  6788  00309E  0EFF               	movlw	255
  6789  0030A0  6F61               	movwf	(cmd@command+1)& (0+255),b
  6790  0030A2  0EFF               	movlw	255
  6791  0030A4  6F62               	movwf	(cmd@command+2)& (0+255),b
  6792  0030A6  0EFF               	movlw	255
  6793  0030A8  6F63               	movwf	(cmd@command+3)& (0+255),b
  6794  0030AA  EC4F  F03A         	call	_cmd	;wreg free
  6795  0030AE  C03E  F06F         	movff	_cmd_offset,??_display_laptime
  6796  0030B2  C03F  F070         	movff	_cmd_offset+1,??_display_laptime+1
  6797  0030B6  0100               	movlb	0	; () banked
  6798  0030B8  6B71               	clrf	(??_display_laptime+2)& (0+255),b
  6799  0030BA  0E00               	movlw	0
  6800  0030BC  0100               	movlb	0	; () banked
  6801  0030BE  256F               	addwf	??_display_laptime& (0+255),w,b
  6802  0030C0  6E1F               	movwf	wr16@addr,c
  6803  0030C2  0E80               	movlw	128
  6804  0030C4  0100               	movlb	0	; () banked
  6805  0030C6  2170               	addwfc	(??_display_laptime+1)& (0+255),w,b
  6806  0030C8  6E20               	movwf	wr16@addr+1,c
  6807  0030CA  0E10               	movlw	16
  6808  0030CC  0100               	movlb	0	; () banked
  6809  0030CE  2171               	addwfc	(??_display_laptime+2)& (0+255),w,b
  6810  0030D0  6E21               	movwf	wr16@addr+2,c
  6811  0030D2  0E00               	movlw	0
  6812  0030D4  6E23               	movwf	wr16@value+1,c
  6813  0030D6  0E27               	movlw	39
  6814  0030D8  6E22               	movwf	wr16@value,c
  6815  0030DA  EC31  F03A         	call	_wr16	;wreg free
  6816  0030DE  0E02               	movlw	2
  6817  0030E0  ECA2  F03A         	call	_cmd_incrementn
  6818  0030E4  C03E  F06F         	movff	_cmd_offset,??_display_laptime
  6819  0030E8  C03F  F070         	movff	_cmd_offset+1,??_display_laptime+1
  6820  0030EC  0100               	movlb	0	; () banked
  6821  0030EE  6B71               	clrf	(??_display_laptime+2)& (0+255),b
  6822  0030F0  0E00               	movlw	0
  6823  0030F2  0100               	movlb	0	; () banked
  6824  0030F4  256F               	addwf	??_display_laptime& (0+255),w,b
  6825  0030F6  6E1F               	movwf	wr16@addr,c
  6826  0030F8  0E80               	movlw	128
  6827  0030FA  0100               	movlb	0	; () banked
  6828  0030FC  2170               	addwfc	(??_display_laptime+1)& (0+255),w,b
  6829  0030FE  6E20               	movwf	wr16@addr+1,c
  6830  003100  0E10               	movlw	16
  6831  003102  0100               	movlb	0	; () banked
  6832  003104  2171               	addwfc	(??_display_laptime+2)& (0+255),w,b
  6833  003106  6E21               	movwf	wr16@addr+2,c
  6834  003108  0E00               	movlw	0
  6835  00310A  6E23               	movwf	wr16@value+1,c
  6836  00310C  0EEE               	movlw	238
  6837  00310E  6E22               	movwf	wr16@value,c
  6838  003110  EC31  F03A         	call	_wr16	;wreg free
  6839  003114  0E02               	movlw	2
  6840  003116  ECA2  F03A         	call	_cmd_incrementn
  6841  00311A  C03E  F06F         	movff	_cmd_offset,??_display_laptime
  6842  00311E  C03F  F070         	movff	_cmd_offset+1,??_display_laptime+1
  6843  003122  0100               	movlb	0	; () banked
  6844  003124  6B71               	clrf	(??_display_laptime+2)& (0+255),b
  6845  003126  0E00               	movlw	0
  6846  003128  0100               	movlb	0	; () banked
  6847  00312A  256F               	addwf	??_display_laptime& (0+255),w,b
  6848  00312C  6E1F               	movwf	wr16@addr,c
  6849  00312E  0E80               	movlw	128
  6850  003130  0100               	movlb	0	; () banked
  6851  003132  2170               	addwfc	(??_display_laptime+1)& (0+255),w,b
  6852  003134  6E20               	movwf	wr16@addr+1,c
  6853  003136  0E10               	movlw	16
  6854  003138  0100               	movlb	0	; () banked
  6855  00313A  2171               	addwfc	(??_display_laptime+2)& (0+255),w,b
  6856  00313C  6E21               	movwf	wr16@addr+2,c
  6857  00313E  0E00               	movlw	0
  6858  003140  6E23               	movwf	wr16@value+1,c
  6859  003142  0E1C               	movlw	28
  6860  003144  6E22               	movwf	wr16@value,c
  6861  003146  EC31  F03A         	call	_wr16	;wreg free
  6862  00314A  0E02               	movlw	2
  6863  00314C  ECA2  F03A         	call	_cmd_incrementn
  6864  003150  C03E  F06F         	movff	_cmd_offset,??_display_laptime
  6865  003154  C03F  F070         	movff	_cmd_offset+1,??_display_laptime+1
  6866  003158  0100               	movlb	0	; () banked
  6867  00315A  6B71               	clrf	(??_display_laptime+2)& (0+255),b
  6868  00315C  0E00               	movlw	0
  6869  00315E  0100               	movlb	0	; () banked
  6870  003160  256F               	addwf	??_display_laptime& (0+255),w,b
  6871  003162  6E1F               	movwf	wr16@addr,c
  6872  003164  0E80               	movlw	128
  6873  003166  0100               	movlb	0	; () banked
  6874  003168  2170               	addwfc	(??_display_laptime+1)& (0+255),w,b
  6875  00316A  6E20               	movwf	wr16@addr+1,c
  6876  00316C  0E10               	movlw	16
  6877  00316E  0100               	movlb	0	; () banked
  6878  003170  2171               	addwfc	(??_display_laptime+2)& (0+255),w,b
  6879  003172  6E21               	movwf	wr16@addr+2,c
  6880  003174  0E06               	movlw	6
  6881  003176  6E23               	movwf	wr16@value+1,c
  6882  003178  0E00               	movlw	0
  6883  00317A  6E22               	movwf	wr16@value,c
  6884  00317C  EC31  F03A         	call	_wr16	;wreg free
  6885  003180  0E02               	movlw	2
  6886  003182  ECA2  F03A         	call	_cmd_incrementn
  6887  003186  C03E  F06F         	movff	_cmd_offset,??_display_laptime
  6888  00318A  C03F  F070         	movff	_cmd_offset+1,??_display_laptime+1
  6889  00318E  0100               	movlb	0	; () banked
  6890  003190  6B71               	clrf	(??_display_laptime+2)& (0+255),b
  6891  003192  0E00               	movlw	0
  6892  003194  0100               	movlb	0	; () banked
  6893  003196  256F               	addwf	??_display_laptime& (0+255),w,b
  6894  003198  6E24               	movwf	wr8s@addr,c
  6895  00319A  0E80               	movlw	128
  6896  00319C  0100               	movlb	0	; () banked
  6897  00319E  2170               	addwfc	(??_display_laptime+1)& (0+255),w,b
  6898  0031A0  6E25               	movwf	wr8s@addr+1,c
  6899  0031A2  0E10               	movlw	16
  6900  0031A4  0100               	movlb	0	; () banked
  6901  0031A6  2171               	addwfc	(??_display_laptime+2)& (0+255),w,b
  6902  0031A8  6E26               	movwf	wr8s@addr+2,c
  6903  0031AA  0E7A               	movlw	low STR_20
  6904  0031AC  6E27               	movwf	wr8s@s,c
  6905  0031AE  0E0F               	movlw	high STR_20
  6906  0031B0  6E28               	movwf	wr8s@s+1,c
  6907  0031B2  EC04  F038         	call	_wr8s	;wreg free
  6908  0031B6  ECA2  F03A         	call	_cmd_incrementn
  6909                           
  6910                           ;display.c: 105: cmd(4294967086UL);wr16(1081344UL+cmd_offset, 42);cmd_incrementn(2);wr16
      +                          (1081344UL+cmd_offset, 222);cmd_incrementn(2);wr16(1081344UL+cmd_offset, 30);cmd_increme
      +                          ntn(2);wr16(1081344UL+cmd_offset, 2UL);cmd_incrementn(2);cmd(36);
  6911  0031BA  0E2E               	movlw	46
  6912  0031BC  0100               	movlb	0	; () banked
  6913  0031BE  6F60               	movwf	cmd@command& (0+255),b
  6914  0031C0  0EFF               	movlw	255
  6915  0031C2  6F61               	movwf	(cmd@command+1)& (0+255),b
  6916  0031C4  0EFF               	movlw	255
  6917  0031C6  6F62               	movwf	(cmd@command+2)& (0+255),b
  6918  0031C8  0EFF               	movlw	255
  6919  0031CA  6F63               	movwf	(cmd@command+3)& (0+255),b
  6920  0031CC  EC4F  F03A         	call	_cmd	;wreg free
  6921  0031D0  C03E  F06F         	movff	_cmd_offset,??_display_laptime
  6922  0031D4  C03F  F070         	movff	_cmd_offset+1,??_display_laptime+1
  6923  0031D8  0100               	movlb	0	; () banked
  6924  0031DA  6B71               	clrf	(??_display_laptime+2)& (0+255),b
  6925  0031DC  0E00               	movlw	0
  6926  0031DE  0100               	movlb	0	; () banked
  6927  0031E0  256F               	addwf	??_display_laptime& (0+255),w,b
  6928  0031E2  6E1F               	movwf	wr16@addr,c
  6929  0031E4  0E80               	movlw	128
  6930  0031E6  0100               	movlb	0	; () banked
  6931  0031E8  2170               	addwfc	(??_display_laptime+1)& (0+255),w,b
  6932  0031EA  6E20               	movwf	wr16@addr+1,c
  6933  0031EC  0E10               	movlw	16
  6934  0031EE  0100               	movlb	0	; () banked
  6935  0031F0  2171               	addwfc	(??_display_laptime+2)& (0+255),w,b
  6936  0031F2  6E21               	movwf	wr16@addr+2,c
  6937  0031F4  0E00               	movlw	0
  6938  0031F6  6E23               	movwf	wr16@value+1,c
  6939  0031F8  0E2A               	movlw	42
  6940  0031FA  6E22               	movwf	wr16@value,c
  6941  0031FC  EC31  F03A         	call	_wr16	;wreg free
  6942  003200  0E02               	movlw	2
  6943  003202  ECA2  F03A         	call	_cmd_incrementn
  6944  003206  C03E  F06F         	movff	_cmd_offset,??_display_laptime
  6945  00320A  C03F  F070         	movff	_cmd_offset+1,??_display_laptime+1
  6946  00320E  0100               	movlb	0	; () banked
  6947  003210  6B71               	clrf	(??_display_laptime+2)& (0+255),b
  6948  003212  0E00               	movlw	0
  6949  003214  0100               	movlb	0	; () banked
  6950  003216  256F               	addwf	??_display_laptime& (0+255),w,b
  6951  003218  6E1F               	movwf	wr16@addr,c
  6952  00321A  0E80               	movlw	128
  6953  00321C  0100               	movlb	0	; () banked
  6954  00321E  2170               	addwfc	(??_display_laptime+1)& (0+255),w,b
  6955  003220  6E20               	movwf	wr16@addr+1,c
  6956  003222  0E10               	movlw	16
  6957  003224  0100               	movlb	0	; () banked
  6958  003226  2171               	addwfc	(??_display_laptime+2)& (0+255),w,b
  6959  003228  6E21               	movwf	wr16@addr+2,c
  6960  00322A  0E00               	movlw	0
  6961  00322C  6E23               	movwf	wr16@value+1,c
  6962  00322E  0EDE               	movlw	222
  6963  003230  6E22               	movwf	wr16@value,c
  6964  003232  EC31  F03A         	call	_wr16	;wreg free
  6965  003236  0E02               	movlw	2
  6966  003238  ECA2  F03A         	call	_cmd_incrementn
  6967  00323C  C03E  F06F         	movff	_cmd_offset,??_display_laptime
  6968  003240  C03F  F070         	movff	_cmd_offset+1,??_display_laptime+1
  6969  003244  0100               	movlb	0	; () banked
  6970  003246  6B71               	clrf	(??_display_laptime+2)& (0+255),b
  6971  003248  0E00               	movlw	0
  6972  00324A  0100               	movlb	0	; () banked
  6973  00324C  256F               	addwf	??_display_laptime& (0+255),w,b
  6974  00324E  6E1F               	movwf	wr16@addr,c
  6975  003250  0E80               	movlw	128
  6976  003252  0100               	movlb	0	; () banked
  6977  003254  2170               	addwfc	(??_display_laptime+1)& (0+255),w,b
  6978  003256  6E20               	movwf	wr16@addr+1,c
  6979  003258  0E10               	movlw	16
  6980  00325A  0100               	movlb	0	; () banked
  6981  00325C  2171               	addwfc	(??_display_laptime+2)& (0+255),w,b
  6982  00325E  6E21               	movwf	wr16@addr+2,c
  6983  003260  0E00               	movlw	0
  6984  003262  6E23               	movwf	wr16@value+1,c
  6985  003264  0E1E               	movlw	30
  6986  003266  6E22               	movwf	wr16@value,c
  6987  003268  EC31  F03A         	call	_wr16	;wreg free
  6988  00326C  0E02               	movlw	2
  6989  00326E  ECA2  F03A         	call	_cmd_incrementn
  6990  003272  C03E  F06F         	movff	_cmd_offset,??_display_laptime
  6991  003276  C03F  F070         	movff	_cmd_offset+1,??_display_laptime+1
  6992  00327A  0100               	movlb	0	; () banked
  6993  00327C  6B71               	clrf	(??_display_laptime+2)& (0+255),b
  6994  00327E  0E00               	movlw	0
  6995  003280  0100               	movlb	0	; () banked
  6996  003282  256F               	addwf	??_display_laptime& (0+255),w,b
  6997  003284  6E1F               	movwf	wr16@addr,c
  6998  003286  0E80               	movlw	128
  6999  003288  0100               	movlb	0	; () banked
  7000  00328A  2170               	addwfc	(??_display_laptime+1)& (0+255),w,b
  7001  00328C  6E20               	movwf	wr16@addr+1,c
  7002  00328E  0E10               	movlw	16
  7003  003290  0100               	movlb	0	; () banked
  7004  003292  2171               	addwfc	(??_display_laptime+2)& (0+255),w,b
  7005  003294  6E21               	movwf	wr16@addr+2,c
  7006  003296  0E00               	movlw	0
  7007  003298  6E23               	movwf	wr16@value+1,c
  7008  00329A  0E02               	movlw	2
  7009  00329C  6E22               	movwf	wr16@value,c
  7010  00329E  EC31  F03A         	call	_wr16	;wreg free
  7011  0032A2  0E02               	movlw	2
  7012  0032A4  ECA2  F03A         	call	_cmd_incrementn
  7013  0032A8  0E24               	movlw	36
  7014  0032AA  0100               	movlb	0	; () banked
  7015  0032AC  6F60               	movwf	cmd@command& (0+255),b
  7016  0032AE  0E00               	movlw	0
  7017  0032B0  6F61               	movwf	(cmd@command+1)& (0+255),b
  7018  0032B2  0E00               	movlw	0
  7019  0032B4  6F62               	movwf	(cmd@command+2)& (0+255),b
  7020  0032B6  0E00               	movlw	0
  7021  0032B8  6F63               	movwf	(cmd@command+3)& (0+255),b
  7022  0032BA  EC4F  F03A         	call	_cmd	;wreg free
  7023                           
  7024                           ;display.c: 106: cmd(4294967052UL);wr16(1081344UL+cmd_offset, 79);cmd_incrementn(2);wr16
      +                          (1081344UL+cmd_offset, 238);cmd_incrementn(2);wr16(1081344UL+cmd_offset, 28);cmd_increme
      +                          ntn(2);wr16(1081344UL+cmd_offset, 1536UL);cmd_incrementn(2);cmd_incrementn(wr8s(1081344U
      +                          L+c
  7025  0032BE  0E0C               	movlw	12
  7026  0032C0  0100               	movlb	0	; () banked
  7027  0032C2  6F60               	movwf	cmd@command& (0+255),b
  7028  0032C4  0EFF               	movlw	255
  7029  0032C6  6F61               	movwf	(cmd@command+1)& (0+255),b
  7030  0032C8  0EFF               	movlw	255
  7031  0032CA  6F62               	movwf	(cmd@command+2)& (0+255),b
  7032  0032CC  0EFF               	movlw	255
  7033  0032CE  6F63               	movwf	(cmd@command+3)& (0+255),b
  7034  0032D0  EC4F  F03A         	call	_cmd	;wreg free
  7035  0032D4  C03E  F06F         	movff	_cmd_offset,??_display_laptime
  7036  0032D8  C03F  F070         	movff	_cmd_offset+1,??_display_laptime+1
  7037  0032DC  0100               	movlb	0	; () banked
  7038  0032DE  6B71               	clrf	(??_display_laptime+2)& (0+255),b
  7039  0032E0  0E00               	movlw	0
  7040  0032E2  0100               	movlb	0	; () banked
  7041  0032E4  256F               	addwf	??_display_laptime& (0+255),w,b
  7042  0032E6  6E1F               	movwf	wr16@addr,c
  7043  0032E8  0E80               	movlw	128
  7044  0032EA  0100               	movlb	0	; () banked
  7045  0032EC  2170               	addwfc	(??_display_laptime+1)& (0+255),w,b
  7046  0032EE  6E20               	movwf	wr16@addr+1,c
  7047  0032F0  0E10               	movlw	16
  7048  0032F2  0100               	movlb	0	; () banked
  7049  0032F4  2171               	addwfc	(??_display_laptime+2)& (0+255),w,b
  7050  0032F6  6E21               	movwf	wr16@addr+2,c
  7051  0032F8  0E00               	movlw	0
  7052  0032FA  6E23               	movwf	wr16@value+1,c
  7053  0032FC  0E4F               	movlw	79
  7054  0032FE  6E22               	movwf	wr16@value,c
  7055  003300  EC31  F03A         	call	_wr16	;wreg free
  7056  003304  0E02               	movlw	2
  7057  003306  ECA2  F03A         	call	_cmd_incrementn
  7058  00330A  C03E  F06F         	movff	_cmd_offset,??_display_laptime
  7059  00330E  C03F  F070         	movff	_cmd_offset+1,??_display_laptime+1
  7060  003312  0100               	movlb	0	; () banked
  7061  003314  6B71               	clrf	(??_display_laptime+2)& (0+255),b
  7062  003316  0E00               	movlw	0
  7063  003318  0100               	movlb	0	; () banked
  7064  00331A  256F               	addwf	??_display_laptime& (0+255),w,b
  7065  00331C  6E1F               	movwf	wr16@addr,c
  7066  00331E  0E80               	movlw	128
  7067  003320  0100               	movlb	0	; () banked
  7068  003322  2170               	addwfc	(??_display_laptime+1)& (0+255),w,b
  7069  003324  6E20               	movwf	wr16@addr+1,c
  7070  003326  0E10               	movlw	16
  7071  003328  0100               	movlb	0	; () banked
  7072  00332A  2171               	addwfc	(??_display_laptime+2)& (0+255),w,b
  7073  00332C  6E21               	movwf	wr16@addr+2,c
  7074  00332E  0E00               	movlw	0
  7075  003330  6E23               	movwf	wr16@value+1,c
  7076  003332  0EEE               	movlw	238
  7077  003334  6E22               	movwf	wr16@value,c
  7078  003336  EC31  F03A         	call	_wr16	;wreg free
  7079  00333A  0E02               	movlw	2
  7080  00333C  ECA2  F03A         	call	_cmd_incrementn
  7081  003340  C03E  F06F         	movff	_cmd_offset,??_display_laptime
  7082  003344  C03F  F070         	movff	_cmd_offset+1,??_display_laptime+1
  7083  003348  0100               	movlb	0	; () banked
  7084  00334A  6B71               	clrf	(??_display_laptime+2)& (0+255),b
  7085  00334C  0E00               	movlw	0
  7086  00334E  0100               	movlb	0	; () banked
  7087  003350  256F               	addwf	??_display_laptime& (0+255),w,b
  7088  003352  6E1F               	movwf	wr16@addr,c
  7089  003354  0E80               	movlw	128
  7090  003356  0100               	movlb	0	; () banked
  7091  003358  2170               	addwfc	(??_display_laptime+1)& (0+255),w,b
  7092  00335A  6E20               	movwf	wr16@addr+1,c
  7093  00335C  0E10               	movlw	16
  7094  00335E  0100               	movlb	0	; () banked
  7095  003360  2171               	addwfc	(??_display_laptime+2)& (0+255),w,b
  7096  003362  6E21               	movwf	wr16@addr+2,c
  7097  003364  0E00               	movlw	0
  7098  003366  6E23               	movwf	wr16@value+1,c
  7099  003368  0E1C               	movlw	28
  7100  00336A  6E22               	movwf	wr16@value,c
  7101  00336C  EC31  F03A         	call	_wr16	;wreg free
  7102  003370  0E02               	movlw	2
  7103  003372  ECA2  F03A         	call	_cmd_incrementn
  7104  003376  C03E  F06F         	movff	_cmd_offset,??_display_laptime
  7105  00337A  C03F  F070         	movff	_cmd_offset+1,??_display_laptime+1
  7106  00337E  0100               	movlb	0	; () banked
  7107  003380  6B71               	clrf	(??_display_laptime+2)& (0+255),b
  7108  003382  0E00               	movlw	0
  7109  003384  0100               	movlb	0	; () banked
  7110  003386  256F               	addwf	??_display_laptime& (0+255),w,b
  7111  003388  6E1F               	movwf	wr16@addr,c
  7112  00338A  0E80               	movlw	128
  7113  00338C  0100               	movlb	0	; () banked
  7114  00338E  2170               	addwfc	(??_display_laptime+1)& (0+255),w,b
  7115  003390  6E20               	movwf	wr16@addr+1,c
  7116  003392  0E10               	movlw	16
  7117  003394  0100               	movlb	0	; () banked
  7118  003396  2171               	addwfc	(??_display_laptime+2)& (0+255),w,b
  7119  003398  6E21               	movwf	wr16@addr+2,c
  7120  00339A  0E06               	movlw	6
  7121  00339C  6E23               	movwf	wr16@value+1,c
  7122  00339E  0E00               	movlw	0
  7123  0033A0  6E22               	movwf	wr16@value,c
  7124  0033A2  EC31  F03A         	call	_wr16	;wreg free
  7125  0033A6  0E02               	movlw	2
  7126  0033A8  ECA2  F03A         	call	_cmd_incrementn
  7127  0033AC  C03E  F06F         	movff	_cmd_offset,??_display_laptime
  7128  0033B0  C03F  F070         	movff	_cmd_offset+1,??_display_laptime+1
  7129  0033B4  0100               	movlb	0	; () banked
  7130  0033B6  6B71               	clrf	(??_display_laptime+2)& (0+255),b
  7131  0033B8  0E00               	movlw	0
  7132  0033BA  0100               	movlb	0	; () banked
  7133  0033BC  256F               	addwf	??_display_laptime& (0+255),w,b
  7134  0033BE  6E24               	movwf	wr8s@addr,c
  7135  0033C0  0E80               	movlw	128
  7136  0033C2  0100               	movlb	0	; () banked
  7137  0033C4  2170               	addwfc	(??_display_laptime+1)& (0+255),w,b
  7138  0033C6  6E25               	movwf	wr8s@addr+1,c
  7139  0033C8  0E10               	movlw	16
  7140  0033CA  0100               	movlb	0	; () banked
  7141  0033CC  2171               	addwfc	(??_display_laptime+2)& (0+255),w,b
  7142  0033CE  6E26               	movwf	wr8s@addr+2,c
  7143  0033D0  0E7A               	movlw	low STR_20
  7144  0033D2  6E27               	movwf	wr8s@s,c
  7145  0033D4  0E0F               	movlw	high STR_20
  7146  0033D6  6E28               	movwf	wr8s@s+1,c
  7147  0033D8  EC04  F038         	call	_wr8s	;wreg free
  7148  0033DC  ECA2  F03A         	call	_cmd_incrementn
  7149                           
  7150                           ;display.c: 107: cmd(4294967086UL);wr16(1081344UL+cmd_offset, 82);cmd_incrementn(2);wr16
      +                          (1081344UL+cmd_offset, 221);cmd_incrementn(2);wr16(1081344UL+cmd_offset, 30);cmd_increme
      +                          ntn(2);wr16(1081344UL+cmd_offset, 2UL);cmd_incrementn(2);cmd(89);
  7151  0033E0  0E2E               	movlw	46
  7152  0033E2  0100               	movlb	0	; () banked
  7153  0033E4  6F60               	movwf	cmd@command& (0+255),b
  7154  0033E6  0EFF               	movlw	255
  7155  0033E8  6F61               	movwf	(cmd@command+1)& (0+255),b
  7156  0033EA  0EFF               	movlw	255
  7157  0033EC  6F62               	movwf	(cmd@command+2)& (0+255),b
  7158  0033EE  0EFF               	movlw	255
  7159  0033F0  6F63               	movwf	(cmd@command+3)& (0+255),b
  7160  0033F2  EC4F  F03A         	call	_cmd	;wreg free
  7161  0033F6  C03E  F06F         	movff	_cmd_offset,??_display_laptime
  7162  0033FA  C03F  F070         	movff	_cmd_offset+1,??_display_laptime+1
  7163  0033FE  0100               	movlb	0	; () banked
  7164  003400  6B71               	clrf	(??_display_laptime+2)& (0+255),b
  7165  003402  0E00               	movlw	0
  7166  003404  0100               	movlb	0	; () banked
  7167  003406  256F               	addwf	??_display_laptime& (0+255),w,b
  7168  003408  6E1F               	movwf	wr16@addr,c
  7169  00340A  0E80               	movlw	128
  7170  00340C  0100               	movlb	0	; () banked
  7171  00340E  2170               	addwfc	(??_display_laptime+1)& (0+255),w,b
  7172  003410  6E20               	movwf	wr16@addr+1,c
  7173  003412  0E10               	movlw	16
  7174  003414  0100               	movlb	0	; () banked
  7175  003416  2171               	addwfc	(??_display_laptime+2)& (0+255),w,b
  7176  003418  6E21               	movwf	wr16@addr+2,c
  7177  00341A  0E00               	movlw	0
  7178  00341C  6E23               	movwf	wr16@value+1,c
  7179  00341E  0E52               	movlw	82
  7180  003420  6E22               	movwf	wr16@value,c
  7181  003422  EC31  F03A         	call	_wr16	;wreg free
  7182  003426  0E02               	movlw	2
  7183  003428  ECA2  F03A         	call	_cmd_incrementn
  7184  00342C  C03E  F06F         	movff	_cmd_offset,??_display_laptime
  7185  003430  C03F  F070         	movff	_cmd_offset+1,??_display_laptime+1
  7186  003434  0100               	movlb	0	; () banked
  7187  003436  6B71               	clrf	(??_display_laptime+2)& (0+255),b
  7188  003438  0E00               	movlw	0
  7189  00343A  0100               	movlb	0	; () banked
  7190  00343C  256F               	addwf	??_display_laptime& (0+255),w,b
  7191  00343E  6E1F               	movwf	wr16@addr,c
  7192  003440  0E80               	movlw	128
  7193  003442  0100               	movlb	0	; () banked
  7194  003444  2170               	addwfc	(??_display_laptime+1)& (0+255),w,b
  7195  003446  6E20               	movwf	wr16@addr+1,c
  7196  003448  0E10               	movlw	16
  7197  00344A  0100               	movlb	0	; () banked
  7198  00344C  2171               	addwfc	(??_display_laptime+2)& (0+255),w,b
  7199  00344E  6E21               	movwf	wr16@addr+2,c
  7200  003450  0E00               	movlw	0
  7201  003452  6E23               	movwf	wr16@value+1,c
  7202  003454  0EDD               	movlw	221
  7203  003456  6E22               	movwf	wr16@value,c
  7204  003458  EC31  F03A         	call	_wr16	;wreg free
  7205  00345C  0E02               	movlw	2
  7206  00345E  ECA2  F03A         	call	_cmd_incrementn
  7207  003462  C03E  F06F         	movff	_cmd_offset,??_display_laptime
  7208  003466  C03F  F070         	movff	_cmd_offset+1,??_display_laptime+1
  7209  00346A  0100               	movlb	0	; () banked
  7210  00346C  6B71               	clrf	(??_display_laptime+2)& (0+255),b
  7211  00346E  0E00               	movlw	0
  7212  003470  0100               	movlb	0	; () banked
  7213  003472  256F               	addwf	??_display_laptime& (0+255),w,b
  7214  003474  6E1F               	movwf	wr16@addr,c
  7215  003476  0E80               	movlw	128
  7216  003478  0100               	movlb	0	; () banked
  7217  00347A  2170               	addwfc	(??_display_laptime+1)& (0+255),w,b
  7218  00347C  6E20               	movwf	wr16@addr+1,c
  7219  00347E  0E10               	movlw	16
  7220  003480  0100               	movlb	0	; () banked
  7221  003482  2171               	addwfc	(??_display_laptime+2)& (0+255),w,b
  7222  003484  6E21               	movwf	wr16@addr+2,c
  7223  003486  0E00               	movlw	0
  7224  003488  6E23               	movwf	wr16@value+1,c
  7225  00348A  0E1E               	movlw	30
  7226  00348C  6E22               	movwf	wr16@value,c
  7227  00348E  EC31  F03A         	call	_wr16	;wreg free
  7228  003492  0E02               	movlw	2
  7229  003494  ECA2  F03A         	call	_cmd_incrementn
  7230  003498  C03E  F06F         	movff	_cmd_offset,??_display_laptime
  7231  00349C  C03F  F070         	movff	_cmd_offset+1,??_display_laptime+1
  7232  0034A0  0100               	movlb	0	; () banked
  7233  0034A2  6B71               	clrf	(??_display_laptime+2)& (0+255),b
  7234  0034A4  0E00               	movlw	0
  7235  0034A6  0100               	movlb	0	; () banked
  7236  0034A8  256F               	addwf	??_display_laptime& (0+255),w,b
  7237  0034AA  6E1F               	movwf	wr16@addr,c
  7238  0034AC  0E80               	movlw	128
  7239  0034AE  0100               	movlb	0	; () banked
  7240  0034B0  2170               	addwfc	(??_display_laptime+1)& (0+255),w,b
  7241  0034B2  6E20               	movwf	wr16@addr+1,c
  7242  0034B4  0E10               	movlw	16
  7243  0034B6  0100               	movlb	0	; () banked
  7244  0034B8  2171               	addwfc	(??_display_laptime+2)& (0+255),w,b
  7245  0034BA  6E21               	movwf	wr16@addr+2,c
  7246  0034BC  0E00               	movlw	0
  7247  0034BE  6E23               	movwf	wr16@value+1,c
  7248  0034C0  0E02               	movlw	2
  7249  0034C2  6E22               	movwf	wr16@value,c
  7250  0034C4  EC31  F03A         	call	_wr16	;wreg free
  7251  0034C8  0E02               	movlw	2
  7252  0034CA  ECA2  F03A         	call	_cmd_incrementn
  7253  0034CE  0E59               	movlw	89
  7254  0034D0  0100               	movlb	0	; () banked
  7255  0034D2  6F60               	movwf	cmd@command& (0+255),b
  7256  0034D4  0E00               	movlw	0
  7257  0034D6  6F61               	movwf	(cmd@command+1)& (0+255),b
  7258  0034D8  0E00               	movlw	0
  7259  0034DA  6F62               	movwf	(cmd@command+2)& (0+255),b
  7260  0034DC  0E00               	movlw	0
  7261  0034DE  6F63               	movwf	(cmd@command+3)& (0+255),b
  7262  0034E0  EC4F  F03A         	call	_cmd	;wreg free
  7263                           
  7264                           ;display.c: 110: cmd(4294967086UL);wr16(1081344UL+cmd_offset, 397);cmd_incrementn(2);wr1
      +                          6(1081344UL+cmd_offset, 222);cmd_incrementn(2);wr16(1081344UL+cmd_offset, 30);cmd_increm
      +                          entn(2);wr16(1081344UL+cmd_offset, 2048UL);cmd_incrementn(2);cmd(19);
  7265  0034E4  0E2E               	movlw	46
  7266  0034E6  0100               	movlb	0	; () banked
  7267  0034E8  6F60               	movwf	cmd@command& (0+255),b
  7268  0034EA  0EFF               	movlw	255
  7269  0034EC  6F61               	movwf	(cmd@command+1)& (0+255),b
  7270  0034EE  0EFF               	movlw	255
  7271  0034F0  6F62               	movwf	(cmd@command+2)& (0+255),b
  7272  0034F2  0EFF               	movlw	255
  7273  0034F4  6F63               	movwf	(cmd@command+3)& (0+255),b
  7274  0034F6  EC4F  F03A         	call	_cmd	;wreg free
  7275  0034FA  C03E  F06F         	movff	_cmd_offset,??_display_laptime
  7276  0034FE  C03F  F070         	movff	_cmd_offset+1,??_display_laptime+1
  7277  003502  0100               	movlb	0	; () banked
  7278  003504  6B71               	clrf	(??_display_laptime+2)& (0+255),b
  7279  003506  0E00               	movlw	0
  7280  003508  0100               	movlb	0	; () banked
  7281  00350A  256F               	addwf	??_display_laptime& (0+255),w,b
  7282  00350C  6E1F               	movwf	wr16@addr,c
  7283  00350E  0E80               	movlw	128
  7284  003510  0100               	movlb	0	; () banked
  7285  003512  2170               	addwfc	(??_display_laptime+1)& (0+255),w,b
  7286  003514  6E20               	movwf	wr16@addr+1,c
  7287  003516  0E10               	movlw	16
  7288  003518  0100               	movlb	0	; () banked
  7289  00351A  2171               	addwfc	(??_display_laptime+2)& (0+255),w,b
  7290  00351C  6E21               	movwf	wr16@addr+2,c
  7291  00351E  0E01               	movlw	1
  7292  003520  6E23               	movwf	wr16@value+1,c
  7293  003522  0E8D               	movlw	141
  7294  003524  6E22               	movwf	wr16@value,c
  7295  003526  EC31  F03A         	call	_wr16	;wreg free
  7296  00352A  0E02               	movlw	2
  7297  00352C  ECA2  F03A         	call	_cmd_incrementn
  7298  003530  C03E  F06F         	movff	_cmd_offset,??_display_laptime
  7299  003534  C03F  F070         	movff	_cmd_offset+1,??_display_laptime+1
  7300  003538  0100               	movlb	0	; () banked
  7301  00353A  6B71               	clrf	(??_display_laptime+2)& (0+255),b
  7302  00353C  0E00               	movlw	0
  7303  00353E  0100               	movlb	0	; () banked
  7304  003540  256F               	addwf	??_display_laptime& (0+255),w,b
  7305  003542  6E1F               	movwf	wr16@addr,c
  7306  003544  0E80               	movlw	128
  7307  003546  0100               	movlb	0	; () banked
  7308  003548  2170               	addwfc	(??_display_laptime+1)& (0+255),w,b
  7309  00354A  6E20               	movwf	wr16@addr+1,c
  7310  00354C  0E10               	movlw	16
  7311  00354E  0100               	movlb	0	; () banked
  7312  003550  2171               	addwfc	(??_display_laptime+2)& (0+255),w,b
  7313  003552  6E21               	movwf	wr16@addr+2,c
  7314  003554  0E00               	movlw	0
  7315  003556  6E23               	movwf	wr16@value+1,c
  7316  003558  0EDE               	movlw	222
  7317  00355A  6E22               	movwf	wr16@value,c
  7318  00355C  EC31  F03A         	call	_wr16	;wreg free
  7319  003560  0E02               	movlw	2
  7320  003562  ECA2  F03A         	call	_cmd_incrementn
  7321  003566  C03E  F06F         	movff	_cmd_offset,??_display_laptime
  7322  00356A  C03F  F070         	movff	_cmd_offset+1,??_display_laptime+1
  7323  00356E  0100               	movlb	0	; () banked
  7324  003570  6B71               	clrf	(??_display_laptime+2)& (0+255),b
  7325  003572  0E00               	movlw	0
  7326  003574  0100               	movlb	0	; () banked
  7327  003576  256F               	addwf	??_display_laptime& (0+255),w,b
  7328  003578  6E1F               	movwf	wr16@addr,c
  7329  00357A  0E80               	movlw	128
  7330  00357C  0100               	movlb	0	; () banked
  7331  00357E  2170               	addwfc	(??_display_laptime+1)& (0+255),w,b
  7332  003580  6E20               	movwf	wr16@addr+1,c
  7333  003582  0E10               	movlw	16
  7334  003584  0100               	movlb	0	; () banked
  7335  003586  2171               	addwfc	(??_display_laptime+2)& (0+255),w,b
  7336  003588  6E21               	movwf	wr16@addr+2,c
  7337  00358A  0E00               	movlw	0
  7338  00358C  6E23               	movwf	wr16@value+1,c
  7339  00358E  0E1E               	movlw	30
  7340  003590  6E22               	movwf	wr16@value,c
  7341  003592  EC31  F03A         	call	_wr16	;wreg free
  7342  003596  0E02               	movlw	2
  7343  003598  ECA2  F03A         	call	_cmd_incrementn
  7344  00359C  C03E  F06F         	movff	_cmd_offset,??_display_laptime
  7345  0035A0  C03F  F070         	movff	_cmd_offset+1,??_display_laptime+1
  7346  0035A4  0100               	movlb	0	; () banked
  7347  0035A6  6B71               	clrf	(??_display_laptime+2)& (0+255),b
  7348  0035A8  0E00               	movlw	0
  7349  0035AA  0100               	movlb	0	; () banked
  7350  0035AC  256F               	addwf	??_display_laptime& (0+255),w,b
  7351  0035AE  6E1F               	movwf	wr16@addr,c
  7352  0035B0  0E80               	movlw	128
  7353  0035B2  0100               	movlb	0	; () banked
  7354  0035B4  2170               	addwfc	(??_display_laptime+1)& (0+255),w,b
  7355  0035B6  6E20               	movwf	wr16@addr+1,c
  7356  0035B8  0E10               	movlw	16
  7357  0035BA  0100               	movlb	0	; () banked
  7358  0035BC  2171               	addwfc	(??_display_laptime+2)& (0+255),w,b
  7359  0035BE  6E21               	movwf	wr16@addr+2,c
  7360  0035C0  0E08               	movlw	8
  7361  0035C2  6E23               	movwf	wr16@value+1,c
  7362  0035C4  0E00               	movlw	0
  7363  0035C6  6E22               	movwf	wr16@value,c
  7364  0035C8  EC31  F03A         	call	_wr16	;wreg free
  7365  0035CC  0E02               	movlw	2
  7366  0035CE  ECA2  F03A         	call	_cmd_incrementn
  7367  0035D2  0E13               	movlw	19
  7368  0035D4  0100               	movlb	0	; () banked
  7369  0035D6  6F60               	movwf	cmd@command& (0+255),b
  7370  0035D8  0E00               	movlw	0
  7371  0035DA  6F61               	movwf	(cmd@command+1)& (0+255),b
  7372  0035DC  0E00               	movlw	0
  7373  0035DE  6F62               	movwf	(cmd@command+2)& (0+255),b
  7374  0035E0  0E00               	movlw	0
  7375  0035E2  6F63               	movwf	(cmd@command+3)& (0+255),b
  7376  0035E4  EC4F  F03A         	call	_cmd	;wreg free
  7377                           
  7378                           ;display.c: 111: cmd(4294967052UL);wr16(1081344UL+cmd_offset, 400);cmd_incrementn(2);wr1
      +                          6(1081344UL+cmd_offset, 239);cmd_incrementn(2);wr16(1081344UL+cmd_offset, 28);cmd_increm
      +                          entn(2);wr16(1081344UL+cmd_offset, 1536UL);cmd_incrementn(2);cmd_incrementn(wr8s(1081344
      +                          UL+
  7379  0035E8  0E0C               	movlw	12
  7380  0035EA  0100               	movlb	0	; () banked
  7381  0035EC  6F60               	movwf	cmd@command& (0+255),b
  7382  0035EE  0EFF               	movlw	255
  7383  0035F0  6F61               	movwf	(cmd@command+1)& (0+255),b
  7384  0035F2  0EFF               	movlw	255
  7385  0035F4  6F62               	movwf	(cmd@command+2)& (0+255),b
  7386  0035F6  0EFF               	movlw	255
  7387  0035F8  6F63               	movwf	(cmd@command+3)& (0+255),b
  7388  0035FA  EC4F  F03A         	call	_cmd	;wreg free
  7389  0035FE  C03E  F06F         	movff	_cmd_offset,??_display_laptime
  7390  003602  C03F  F070         	movff	_cmd_offset+1,??_display_laptime+1
  7391  003606  0100               	movlb	0	; () banked
  7392  003608  6B71               	clrf	(??_display_laptime+2)& (0+255),b
  7393  00360A  0E00               	movlw	0
  7394  00360C  0100               	movlb	0	; () banked
  7395  00360E  256F               	addwf	??_display_laptime& (0+255),w,b
  7396  003610  6E1F               	movwf	wr16@addr,c
  7397  003612  0E80               	movlw	128
  7398  003614  0100               	movlb	0	; () banked
  7399  003616  2170               	addwfc	(??_display_laptime+1)& (0+255),w,b
  7400  003618  6E20               	movwf	wr16@addr+1,c
  7401  00361A  0E10               	movlw	16
  7402  00361C  0100               	movlb	0	; () banked
  7403  00361E  2171               	addwfc	(??_display_laptime+2)& (0+255),w,b
  7404  003620  6E21               	movwf	wr16@addr+2,c
  7405  003622  0E01               	movlw	1
  7406  003624  6E23               	movwf	wr16@value+1,c
  7407  003626  0E90               	movlw	144
  7408  003628  6E22               	movwf	wr16@value,c
  7409  00362A  EC31  F03A         	call	_wr16	;wreg free
  7410  00362E  0E02               	movlw	2
  7411  003630  ECA2  F03A         	call	_cmd_incrementn
  7412  003634  C03E  F06F         	movff	_cmd_offset,??_display_laptime
  7413  003638  C03F  F070         	movff	_cmd_offset+1,??_display_laptime+1
  7414  00363C  0100               	movlb	0	; () banked
  7415  00363E  6B71               	clrf	(??_display_laptime+2)& (0+255),b
  7416  003640  0E00               	movlw	0
  7417  003642  0100               	movlb	0	; () banked
  7418  003644  256F               	addwf	??_display_laptime& (0+255),w,b
  7419  003646  6E1F               	movwf	wr16@addr,c
  7420  003648  0E80               	movlw	128
  7421  00364A  0100               	movlb	0	; () banked
  7422  00364C  2170               	addwfc	(??_display_laptime+1)& (0+255),w,b
  7423  00364E  6E20               	movwf	wr16@addr+1,c
  7424  003650  0E10               	movlw	16
  7425  003652  0100               	movlb	0	; () banked
  7426  003654  2171               	addwfc	(??_display_laptime+2)& (0+255),w,b
  7427  003656  6E21               	movwf	wr16@addr+2,c
  7428  003658  0E00               	movlw	0
  7429  00365A  6E23               	movwf	wr16@value+1,c
  7430  00365C  0EEF               	movlw	239
  7431  00365E  6E22               	movwf	wr16@value,c
  7432  003660  EC31  F03A         	call	_wr16	;wreg free
  7433  003664  0E02               	movlw	2
  7434  003666  ECA2  F03A         	call	_cmd_incrementn
  7435  00366A  C03E  F06F         	movff	_cmd_offset,??_display_laptime
  7436  00366E  C03F  F070         	movff	_cmd_offset+1,??_display_laptime+1
  7437  003672  0100               	movlb	0	; () banked
  7438  003674  6B71               	clrf	(??_display_laptime+2)& (0+255),b
  7439  003676  0E00               	movlw	0
  7440  003678  0100               	movlb	0	; () banked
  7441  00367A  256F               	addwf	??_display_laptime& (0+255),w,b
  7442  00367C  6E1F               	movwf	wr16@addr,c
  7443  00367E  0E80               	movlw	128
  7444  003680  0100               	movlb	0	; () banked
  7445  003682  2170               	addwfc	(??_display_laptime+1)& (0+255),w,b
  7446  003684  6E20               	movwf	wr16@addr+1,c
  7447  003686  0E10               	movlw	16
  7448  003688  0100               	movlb	0	; () banked
  7449  00368A  2171               	addwfc	(??_display_laptime+2)& (0+255),w,b
  7450  00368C  6E21               	movwf	wr16@addr+2,c
  7451  00368E  0E00               	movlw	0
  7452  003690  6E23               	movwf	wr16@value+1,c
  7453  003692  0E1C               	movlw	28
  7454  003694  6E22               	movwf	wr16@value,c
  7455  003696  EC31  F03A         	call	_wr16	;wreg free
  7456  00369A  0E02               	movlw	2
  7457  00369C  ECA2  F03A         	call	_cmd_incrementn
  7458  0036A0  C03E  F06F         	movff	_cmd_offset,??_display_laptime
  7459  0036A4  C03F  F070         	movff	_cmd_offset+1,??_display_laptime+1
  7460  0036A8  0100               	movlb	0	; () banked
  7461  0036AA  6B71               	clrf	(??_display_laptime+2)& (0+255),b
  7462  0036AC  0E00               	movlw	0
  7463  0036AE  0100               	movlb	0	; () banked
  7464  0036B0  256F               	addwf	??_display_laptime& (0+255),w,b
  7465  0036B2  6E1F               	movwf	wr16@addr,c
  7466  0036B4  0E80               	movlw	128
  7467  0036B6  0100               	movlb	0	; () banked
  7468  0036B8  2170               	addwfc	(??_display_laptime+1)& (0+255),w,b
  7469  0036BA  6E20               	movwf	wr16@addr+1,c
  7470  0036BC  0E10               	movlw	16
  7471  0036BE  0100               	movlb	0	; () banked
  7472  0036C0  2171               	addwfc	(??_display_laptime+2)& (0+255),w,b
  7473  0036C2  6E21               	movwf	wr16@addr+2,c
  7474  0036C4  0E06               	movlw	6
  7475  0036C6  6E23               	movwf	wr16@value+1,c
  7476  0036C8  0E00               	movlw	0
  7477  0036CA  6E22               	movwf	wr16@value,c
  7478  0036CC  EC31  F03A         	call	_wr16	;wreg free
  7479  0036D0  0E02               	movlw	2
  7480  0036D2  ECA2  F03A         	call	_cmd_incrementn
  7481  0036D6  C03E  F06F         	movff	_cmd_offset,??_display_laptime
  7482  0036DA  C03F  F070         	movff	_cmd_offset+1,??_display_laptime+1
  7483  0036DE  0100               	movlb	0	; () banked
  7484  0036E0  6B71               	clrf	(??_display_laptime+2)& (0+255),b
  7485  0036E2  0E00               	movlw	0
  7486  0036E4  0100               	movlb	0	; () banked
  7487  0036E6  256F               	addwf	??_display_laptime& (0+255),w,b
  7488  0036E8  6E24               	movwf	wr8s@addr,c
  7489  0036EA  0E80               	movlw	128
  7490  0036EC  0100               	movlb	0	; () banked
  7491  0036EE  2170               	addwfc	(??_display_laptime+1)& (0+255),w,b
  7492  0036F0  6E25               	movwf	wr8s@addr+1,c
  7493  0036F2  0E10               	movlw	16
  7494  0036F4  0100               	movlb	0	; () banked
  7495  0036F6  2171               	addwfc	(??_display_laptime+2)& (0+255),w,b
  7496  0036F8  6E26               	movwf	wr8s@addr+2,c
  7497  0036FA  0E7A               	movlw	low STR_20
  7498  0036FC  6E27               	movwf	wr8s@s,c
  7499  0036FE  0E0F               	movlw	high STR_20
  7500  003700  6E28               	movwf	wr8s@s+1,c
  7501  003702  EC04  F038         	call	_wr8s	;wreg free
  7502  003706  ECA2  F03A         	call	_cmd_incrementn
  7503                           
  7504                           ;display.c: 112: cmd(4294967086UL);wr16(1081344UL+cmd_offset, 403);cmd_incrementn(2);wr1
      +                          6(1081344UL+cmd_offset, 222);cmd_incrementn(2);wr16(1081344UL+cmd_offset, 30);cmd_increm
      +                          entn(2);wr16(1081344UL+cmd_offset, 2UL);cmd_incrementn(2);cmd(25);
  7505  00370A  0E2E               	movlw	46
  7506  00370C  0100               	movlb	0	; () banked
  7507  00370E  6F60               	movwf	cmd@command& (0+255),b
  7508  003710  0EFF               	movlw	255
  7509  003712  6F61               	movwf	(cmd@command+1)& (0+255),b
  7510  003714  0EFF               	movlw	255
  7511  003716  6F62               	movwf	(cmd@command+2)& (0+255),b
  7512  003718  0EFF               	movlw	255
  7513  00371A  6F63               	movwf	(cmd@command+3)& (0+255),b
  7514  00371C  EC4F  F03A         	call	_cmd	;wreg free
  7515  003720  C03E  F06F         	movff	_cmd_offset,??_display_laptime
  7516  003724  C03F  F070         	movff	_cmd_offset+1,??_display_laptime+1
  7517  003728  0100               	movlb	0	; () banked
  7518  00372A  6B71               	clrf	(??_display_laptime+2)& (0+255),b
  7519  00372C  0E00               	movlw	0
  7520  00372E  0100               	movlb	0	; () banked
  7521  003730  256F               	addwf	??_display_laptime& (0+255),w,b
  7522  003732  6E1F               	movwf	wr16@addr,c
  7523  003734  0E80               	movlw	128
  7524  003736  0100               	movlb	0	; () banked
  7525  003738  2170               	addwfc	(??_display_laptime+1)& (0+255),w,b
  7526  00373A  6E20               	movwf	wr16@addr+1,c
  7527  00373C  0E10               	movlw	16
  7528  00373E  0100               	movlb	0	; () banked
  7529  003740  2171               	addwfc	(??_display_laptime+2)& (0+255),w,b
  7530  003742  6E21               	movwf	wr16@addr+2,c
  7531  003744  0E01               	movlw	1
  7532  003746  6E23               	movwf	wr16@value+1,c
  7533  003748  0E93               	movlw	147
  7534  00374A  6E22               	movwf	wr16@value,c
  7535  00374C  EC31  F03A         	call	_wr16	;wreg free
  7536  003750  0E02               	movlw	2
  7537  003752  ECA2  F03A         	call	_cmd_incrementn
  7538  003756  C03E  F06F         	movff	_cmd_offset,??_display_laptime
  7539  00375A  C03F  F070         	movff	_cmd_offset+1,??_display_laptime+1
  7540  00375E  0100               	movlb	0	; () banked
  7541  003760  6B71               	clrf	(??_display_laptime+2)& (0+255),b
  7542  003762  0E00               	movlw	0
  7543  003764  0100               	movlb	0	; () banked
  7544  003766  256F               	addwf	??_display_laptime& (0+255),w,b
  7545  003768  6E1F               	movwf	wr16@addr,c
  7546  00376A  0E80               	movlw	128
  7547  00376C  0100               	movlb	0	; () banked
  7548  00376E  2170               	addwfc	(??_display_laptime+1)& (0+255),w,b
  7549  003770  6E20               	movwf	wr16@addr+1,c
  7550  003772  0E10               	movlw	16
  7551  003774  0100               	movlb	0	; () banked
  7552  003776  2171               	addwfc	(??_display_laptime+2)& (0+255),w,b
  7553  003778  6E21               	movwf	wr16@addr+2,c
  7554  00377A  0E00               	movlw	0
  7555  00377C  6E23               	movwf	wr16@value+1,c
  7556  00377E  0EDE               	movlw	222
  7557  003780  6E22               	movwf	wr16@value,c
  7558  003782  EC31  F03A         	call	_wr16	;wreg free
  7559  003786  0E02               	movlw	2
  7560  003788  ECA2  F03A         	call	_cmd_incrementn
  7561  00378C  C03E  F06F         	movff	_cmd_offset,??_display_laptime
  7562  003790  C03F  F070         	movff	_cmd_offset+1,??_display_laptime+1
  7563  003794  0100               	movlb	0	; () banked
  7564  003796  6B71               	clrf	(??_display_laptime+2)& (0+255),b
  7565  003798  0E00               	movlw	0
  7566  00379A  0100               	movlb	0	; () banked
  7567  00379C  256F               	addwf	??_display_laptime& (0+255),w,b
  7568  00379E  6E1F               	movwf	wr16@addr,c
  7569  0037A0  0E80               	movlw	128
  7570  0037A2  0100               	movlb	0	; () banked
  7571  0037A4  2170               	addwfc	(??_display_laptime+1)& (0+255),w,b
  7572  0037A6  6E20               	movwf	wr16@addr+1,c
  7573  0037A8  0E10               	movlw	16
  7574  0037AA  0100               	movlb	0	; () banked
  7575  0037AC  2171               	addwfc	(??_display_laptime+2)& (0+255),w,b
  7576  0037AE  6E21               	movwf	wr16@addr+2,c
  7577  0037B0  0E00               	movlw	0
  7578  0037B2  6E23               	movwf	wr16@value+1,c
  7579  0037B4  0E1E               	movlw	30
  7580  0037B6  6E22               	movwf	wr16@value,c
  7581  0037B8  EC31  F03A         	call	_wr16	;wreg free
  7582  0037BC  0E02               	movlw	2
  7583  0037BE  ECA2  F03A         	call	_cmd_incrementn
  7584  0037C2  C03E  F06F         	movff	_cmd_offset,??_display_laptime
  7585  0037C6  C03F  F070         	movff	_cmd_offset+1,??_display_laptime+1
  7586  0037CA  0100               	movlb	0	; () banked
  7587  0037CC  6B71               	clrf	(??_display_laptime+2)& (0+255),b
  7588  0037CE  0E00               	movlw	0
  7589  0037D0  0100               	movlb	0	; () banked
  7590  0037D2  256F               	addwf	??_display_laptime& (0+255),w,b
  7591  0037D4  6E1F               	movwf	wr16@addr,c
  7592  0037D6  0E80               	movlw	128
  7593  0037D8  0100               	movlb	0	; () banked
  7594  0037DA  2170               	addwfc	(??_display_laptime+1)& (0+255),w,b
  7595  0037DC  6E20               	movwf	wr16@addr+1,c
  7596  0037DE  0E10               	movlw	16
  7597  0037E0  0100               	movlb	0	; () banked
  7598  0037E2  2171               	addwfc	(??_display_laptime+2)& (0+255),w,b
  7599  0037E4  6E21               	movwf	wr16@addr+2,c
  7600  0037E6  0E00               	movlw	0
  7601  0037E8  6E23               	movwf	wr16@value+1,c
  7602  0037EA  0E02               	movlw	2
  7603  0037EC  6E22               	movwf	wr16@value,c
  7604  0037EE  EC31  F03A         	call	_wr16	;wreg free
  7605  0037F2  0E02               	movlw	2
  7606  0037F4  ECA2  F03A         	call	_cmd_incrementn
  7607  0037F8  0E19               	movlw	25
  7608  0037FA  0100               	movlb	0	; () banked
  7609  0037FC  6F60               	movwf	cmd@command& (0+255),b
  7610  0037FE  0E00               	movlw	0
  7611  003800  6F61               	movwf	(cmd@command+1)& (0+255),b
  7612  003802  0E00               	movlw	0
  7613  003804  6F62               	movwf	(cmd@command+2)& (0+255),b
  7614  003806  0E00               	movlw	0
  7615  003808  6F63               	movwf	(cmd@command+3)& (0+255),b
  7616  00380A  EC4F  F03A         	call	_cmd	;wreg free
  7617                           
  7618                           ;display.c: 113: cmd(4294967052UL);wr16(1081344UL+cmd_offset, 439);cmd_incrementn(2);wr1
      +                          6(1081344UL+cmd_offset, 239);cmd_incrementn(2);wr16(1081344UL+cmd_offset, 28);cmd_increm
      +                          entn(2);wr16(1081344UL+cmd_offset, 1536UL);cmd_incrementn(2);cmd_incrementn(wr8s(1081344
      +                          UL+
  7619  00380E  0E0C               	movlw	12
  7620  003810  0100               	movlb	0	; () banked
  7621  003812  6F60               	movwf	cmd@command& (0+255),b
  7622  003814  0EFF               	movlw	255
  7623  003816  6F61               	movwf	(cmd@command+1)& (0+255),b
  7624  003818  0EFF               	movlw	255
  7625  00381A  6F62               	movwf	(cmd@command+2)& (0+255),b
  7626  00381C  0EFF               	movlw	255
  7627  00381E  6F63               	movwf	(cmd@command+3)& (0+255),b
  7628  003820  EC4F  F03A         	call	_cmd	;wreg free
  7629  003824  C03E  F06F         	movff	_cmd_offset,??_display_laptime
  7630  003828  C03F  F070         	movff	_cmd_offset+1,??_display_laptime+1
  7631  00382C  0100               	movlb	0	; () banked
  7632  00382E  6B71               	clrf	(??_display_laptime+2)& (0+255),b
  7633  003830  0E00               	movlw	0
  7634  003832  0100               	movlb	0	; () banked
  7635  003834  256F               	addwf	??_display_laptime& (0+255),w,b
  7636  003836  6E1F               	movwf	wr16@addr,c
  7637  003838  0E80               	movlw	128
  7638  00383A  0100               	movlb	0	; () banked
  7639  00383C  2170               	addwfc	(??_display_laptime+1)& (0+255),w,b
  7640  00383E  6E20               	movwf	wr16@addr+1,c
  7641  003840  0E10               	movlw	16
  7642  003842  0100               	movlb	0	; () banked
  7643  003844  2171               	addwfc	(??_display_laptime+2)& (0+255),w,b
  7644  003846  6E21               	movwf	wr16@addr+2,c
  7645  003848  0E01               	movlw	1
  7646  00384A  6E23               	movwf	wr16@value+1,c
  7647  00384C  0EB7               	movlw	183
  7648  00384E  6E22               	movwf	wr16@value,c
  7649  003850  EC31  F03A         	call	_wr16	;wreg free
  7650  003854  0E02               	movlw	2
  7651  003856  ECA2  F03A         	call	_cmd_incrementn
  7652  00385A  C03E  F06F         	movff	_cmd_offset,??_display_laptime
  7653  00385E  C03F  F070         	movff	_cmd_offset+1,??_display_laptime+1
  7654  003862  0100               	movlb	0	; () banked
  7655  003864  6B71               	clrf	(??_display_laptime+2)& (0+255),b
  7656  003866  0E00               	movlw	0
  7657  003868  0100               	movlb	0	; () banked
  7658  00386A  256F               	addwf	??_display_laptime& (0+255),w,b
  7659  00386C  6E1F               	movwf	wr16@addr,c
  7660  00386E  0E80               	movlw	128
  7661  003870  0100               	movlb	0	; () banked
  7662  003872  2170               	addwfc	(??_display_laptime+1)& (0+255),w,b
  7663  003874  6E20               	movwf	wr16@addr+1,c
  7664  003876  0E10               	movlw	16
  7665  003878  0100               	movlb	0	; () banked
  7666  00387A  2171               	addwfc	(??_display_laptime+2)& (0+255),w,b
  7667  00387C  6E21               	movwf	wr16@addr+2,c
  7668  00387E  0E00               	movlw	0
  7669  003880  6E23               	movwf	wr16@value+1,c
  7670  003882  0EEF               	movlw	239
  7671  003884  6E22               	movwf	wr16@value,c
  7672  003886  EC31  F03A         	call	_wr16	;wreg free
  7673  00388A  0E02               	movlw	2
  7674  00388C  ECA2  F03A         	call	_cmd_incrementn
  7675  003890  C03E  F06F         	movff	_cmd_offset,??_display_laptime
  7676  003894  C03F  F070         	movff	_cmd_offset+1,??_display_laptime+1
  7677  003898  0100               	movlb	0	; () banked
  7678  00389A  6B71               	clrf	(??_display_laptime+2)& (0+255),b
  7679  00389C  0E00               	movlw	0
  7680  00389E  0100               	movlb	0	; () banked
  7681  0038A0  256F               	addwf	??_display_laptime& (0+255),w,b
  7682  0038A2  6E1F               	movwf	wr16@addr,c
  7683  0038A4  0E80               	movlw	128
  7684  0038A6  0100               	movlb	0	; () banked
  7685  0038A8  2170               	addwfc	(??_display_laptime+1)& (0+255),w,b
  7686  0038AA  6E20               	movwf	wr16@addr+1,c
  7687  0038AC  0E10               	movlw	16
  7688  0038AE  0100               	movlb	0	; () banked
  7689  0038B0  2171               	addwfc	(??_display_laptime+2)& (0+255),w,b
  7690  0038B2  6E21               	movwf	wr16@addr+2,c
  7691  0038B4  0E00               	movlw	0
  7692  0038B6  6E23               	movwf	wr16@value+1,c
  7693  0038B8  0E1C               	movlw	28
  7694  0038BA  6E22               	movwf	wr16@value,c
  7695  0038BC  EC31  F03A         	call	_wr16	;wreg free
  7696  0038C0  0E02               	movlw	2
  7697  0038C2  ECA2  F03A         	call	_cmd_incrementn
  7698  0038C6  C03E  F06F         	movff	_cmd_offset,??_display_laptime
  7699  0038CA  C03F  F070         	movff	_cmd_offset+1,??_display_laptime+1
  7700  0038CE  0100               	movlb	0	; () banked
  7701  0038D0  6B71               	clrf	(??_display_laptime+2)& (0+255),b
  7702  0038D2  0E00               	movlw	0
  7703  0038D4  0100               	movlb	0	; () banked
  7704  0038D6  256F               	addwf	??_display_laptime& (0+255),w,b
  7705  0038D8  6E1F               	movwf	wr16@addr,c
  7706  0038DA  0E80               	movlw	128
  7707  0038DC  0100               	movlb	0	; () banked
  7708  0038DE  2170               	addwfc	(??_display_laptime+1)& (0+255),w,b
  7709  0038E0  6E20               	movwf	wr16@addr+1,c
  7710  0038E2  0E10               	movlw	16
  7711  0038E4  0100               	movlb	0	; () banked
  7712  0038E6  2171               	addwfc	(??_display_laptime+2)& (0+255),w,b
  7713  0038E8  6E21               	movwf	wr16@addr+2,c
  7714  0038EA  0E06               	movlw	6
  7715  0038EC  6E23               	movwf	wr16@value+1,c
  7716  0038EE  0E00               	movlw	0
  7717  0038F0  6E22               	movwf	wr16@value,c
  7718  0038F2  EC31  F03A         	call	_wr16	;wreg free
  7719  0038F6  0E02               	movlw	2
  7720  0038F8  ECA2  F03A         	call	_cmd_incrementn
  7721  0038FC  C03E  F06F         	movff	_cmd_offset,??_display_laptime
  7722  003900  C03F  F070         	movff	_cmd_offset+1,??_display_laptime+1
  7723  003904  0100               	movlb	0	; () banked
  7724  003906  6B71               	clrf	(??_display_laptime+2)& (0+255),b
  7725  003908  0E00               	movlw	0
  7726  00390A  0100               	movlb	0	; () banked
  7727  00390C  256F               	addwf	??_display_laptime& (0+255),w,b
  7728  00390E  6E24               	movwf	wr8s@addr,c
  7729  003910  0E80               	movlw	128
  7730  003912  0100               	movlb	0	; () banked
  7731  003914  2170               	addwfc	(??_display_laptime+1)& (0+255),w,b
  7732  003916  6E25               	movwf	wr8s@addr+1,c
  7733  003918  0E10               	movlw	16
  7734  00391A  0100               	movlb	0	; () banked
  7735  00391C  2171               	addwfc	(??_display_laptime+2)& (0+255),w,b
  7736  00391E  6E26               	movwf	wr8s@addr+2,c
  7737  003920  0E7A               	movlw	low STR_20
  7738  003922  6E27               	movwf	wr8s@s,c
  7739  003924  0E0F               	movlw	high STR_20
  7740  003926  6E28               	movwf	wr8s@s+1,c
  7741  003928  EC04  F038         	call	_wr8s	;wreg free
  7742  00392C  ECA2  F03A         	call	_cmd_incrementn
  7743                           
  7744                           ;display.c: 114: cmd(4294967086UL);wr16(1081344UL+cmd_offset, 475);cmd_incrementn(2);wr1
      +                          6(1081344UL+cmd_offset, 222);cmd_incrementn(2);wr16(1081344UL+cmd_offset, 30);cmd_increm
      +                          entn(2);wr16(1081344UL+cmd_offset, 2048UL);cmd_incrementn(2);cmd(89);
  7745  003930  0E2E               	movlw	46
  7746  003932  0100               	movlb	0	; () banked
  7747  003934  6F60               	movwf	cmd@command& (0+255),b
  7748  003936  0EFF               	movlw	255
  7749  003938  6F61               	movwf	(cmd@command+1)& (0+255),b
  7750  00393A  0EFF               	movlw	255
  7751  00393C  6F62               	movwf	(cmd@command+2)& (0+255),b
  7752  00393E  0EFF               	movlw	255
  7753  003940  6F63               	movwf	(cmd@command+3)& (0+255),b
  7754  003942  EC4F  F03A         	call	_cmd	;wreg free
  7755  003946  C03E  F06F         	movff	_cmd_offset,??_display_laptime
  7756  00394A  C03F  F070         	movff	_cmd_offset+1,??_display_laptime+1
  7757  00394E  0100               	movlb	0	; () banked
  7758  003950  6B71               	clrf	(??_display_laptime+2)& (0+255),b
  7759  003952  0E00               	movlw	0
  7760  003954  0100               	movlb	0	; () banked
  7761  003956  256F               	addwf	??_display_laptime& (0+255),w,b
  7762  003958  6E1F               	movwf	wr16@addr,c
  7763  00395A  0E80               	movlw	128
  7764  00395C  0100               	movlb	0	; () banked
  7765  00395E  2170               	addwfc	(??_display_laptime+1)& (0+255),w,b
  7766  003960  6E20               	movwf	wr16@addr+1,c
  7767  003962  0E10               	movlw	16
  7768  003964  0100               	movlb	0	; () banked
  7769  003966  2171               	addwfc	(??_display_laptime+2)& (0+255),w,b
  7770  003968  6E21               	movwf	wr16@addr+2,c
  7771  00396A  0E01               	movlw	1
  7772  00396C  6E23               	movwf	wr16@value+1,c
  7773  00396E  0EDB               	movlw	219
  7774  003970  6E22               	movwf	wr16@value,c
  7775  003972  EC31  F03A         	call	_wr16	;wreg free
  7776  003976  0E02               	movlw	2
  7777  003978  ECA2  F03A         	call	_cmd_incrementn
  7778  00397C  C03E  F06F         	movff	_cmd_offset,??_display_laptime
  7779  003980  C03F  F070         	movff	_cmd_offset+1,??_display_laptime+1
  7780  003984  0100               	movlb	0	; () banked
  7781  003986  6B71               	clrf	(??_display_laptime+2)& (0+255),b
  7782  003988  0E00               	movlw	0
  7783  00398A  0100               	movlb	0	; () banked
  7784  00398C  256F               	addwf	??_display_laptime& (0+255),w,b
  7785  00398E  6E1F               	movwf	wr16@addr,c
  7786  003990  0E80               	movlw	128
  7787  003992  0100               	movlb	0	; () banked
  7788  003994  2170               	addwfc	(??_display_laptime+1)& (0+255),w,b
  7789  003996  6E20               	movwf	wr16@addr+1,c
  7790  003998  0E10               	movlw	16
  7791  00399A  0100               	movlb	0	; () banked
  7792  00399C  2171               	addwfc	(??_display_laptime+2)& (0+255),w,b
  7793  00399E  6E21               	movwf	wr16@addr+2,c
  7794  0039A0  0E00               	movlw	0
  7795  0039A2  6E23               	movwf	wr16@value+1,c
  7796  0039A4  0EDE               	movlw	222
  7797  0039A6  6E22               	movwf	wr16@value,c
  7798  0039A8  EC31  F03A         	call	_wr16	;wreg free
  7799  0039AC  0E02               	movlw	2
  7800  0039AE  ECA2  F03A         	call	_cmd_incrementn
  7801  0039B2  C03E  F06F         	movff	_cmd_offset,??_display_laptime
  7802  0039B6  C03F  F070         	movff	_cmd_offset+1,??_display_laptime+1
  7803  0039BA  0100               	movlb	0	; () banked
  7804  0039BC  6B71               	clrf	(??_display_laptime+2)& (0+255),b
  7805  0039BE  0E00               	movlw	0
  7806  0039C0  0100               	movlb	0	; () banked
  7807  0039C2  256F               	addwf	??_display_laptime& (0+255),w,b
  7808  0039C4  6E1F               	movwf	wr16@addr,c
  7809  0039C6  0E80               	movlw	128
  7810  0039C8  0100               	movlb	0	; () banked
  7811  0039CA  2170               	addwfc	(??_display_laptime+1)& (0+255),w,b
  7812  0039CC  6E20               	movwf	wr16@addr+1,c
  7813  0039CE  0E10               	movlw	16
  7814  0039D0  0100               	movlb	0	; () banked
  7815  0039D2  2171               	addwfc	(??_display_laptime+2)& (0+255),w,b
  7816  0039D4  6E21               	movwf	wr16@addr+2,c
  7817  0039D6  0E00               	movlw	0
  7818  0039D8  6E23               	movwf	wr16@value+1,c
  7819  0039DA  0E1E               	movlw	30
  7820  0039DC  6E22               	movwf	wr16@value,c
  7821  0039DE  EC31  F03A         	call	_wr16	;wreg free
  7822  0039E2  0E02               	movlw	2
  7823  0039E4  ECA2  F03A         	call	_cmd_incrementn
  7824  0039E8  C03E  F06F         	movff	_cmd_offset,??_display_laptime
  7825  0039EC  C03F  F070         	movff	_cmd_offset+1,??_display_laptime+1
  7826  0039F0  0100               	movlb	0	; () banked
  7827  0039F2  6B71               	clrf	(??_display_laptime+2)& (0+255),b
  7828  0039F4  0E00               	movlw	0
  7829  0039F6  0100               	movlb	0	; () banked
  7830  0039F8  256F               	addwf	??_display_laptime& (0+255),w,b
  7831  0039FA  6E1F               	movwf	wr16@addr,c
  7832  0039FC  0E80               	movlw	128
  7833  0039FE  0100               	movlb	0	; () banked
  7834  003A00  2170               	addwfc	(??_display_laptime+1)& (0+255),w,b
  7835  003A02  6E20               	movwf	wr16@addr+1,c
  7836  003A04  0E10               	movlw	16
  7837  003A06  0100               	movlb	0	; () banked
  7838  003A08  2171               	addwfc	(??_display_laptime+2)& (0+255),w,b
  7839  003A0A  6E21               	movwf	wr16@addr+2,c
  7840  003A0C  0E08               	movlw	8
  7841  003A0E  6E23               	movwf	wr16@value+1,c
  7842  003A10  0E00               	movlw	0
  7843  003A12  6E22               	movwf	wr16@value,c
  7844  003A14  EC31  F03A         	call	_wr16	;wreg free
  7845  003A18  0E02               	movlw	2
  7846  003A1A  ECA2  F03A         	call	_cmd_incrementn
  7847  003A1E  0E59               	movlw	89
  7848  003A20  0100               	movlb	0	; () banked
  7849  003A22  6F60               	movwf	cmd@command& (0+255),b
  7850  003A24  0E00               	movlw	0
  7851  003A26  6F61               	movwf	(cmd@command+1)& (0+255),b
  7852  003A28  0E00               	movlw	0
  7853  003A2A  6F62               	movwf	(cmd@command+2)& (0+255),b
  7854  003A2C  0E00               	movlw	0
  7855  003A2E  6F63               	movwf	(cmd@command+3)& (0+255),b
  7856  003A30  EC4F  F03A         	call	_cmd	;wreg free
  7857                           
  7858                           ;display.c: 117: cmd(4294967086UL);wr16(1081344UL+cmd_offset, 217);cmd_incrementn(2);wr1
      +                          6(1081344UL+cmd_offset, 237);cmd_incrementn(2);wr16(1081344UL+cmd_offset, 30);cmd_increm
      +                          entn(2);wr16(1081344UL+cmd_offset, 2048UL);cmd_incrementn(2);cmd(19);
  7859  003A34  0E2E               	movlw	46
  7860  003A36  0100               	movlb	0	; () banked
  7861  003A38  6F60               	movwf	cmd@command& (0+255),b
  7862  003A3A  0EFF               	movlw	255
  7863  003A3C  6F61               	movwf	(cmd@command+1)& (0+255),b
  7864  003A3E  0EFF               	movlw	255
  7865  003A40  6F62               	movwf	(cmd@command+2)& (0+255),b
  7866  003A42  0EFF               	movlw	255
  7867  003A44  6F63               	movwf	(cmd@command+3)& (0+255),b
  7868  003A46  EC4F  F03A         	call	_cmd	;wreg free
  7869  003A4A  C03E  F06F         	movff	_cmd_offset,??_display_laptime
  7870  003A4E  C03F  F070         	movff	_cmd_offset+1,??_display_laptime+1
  7871  003A52  0100               	movlb	0	; () banked
  7872  003A54  6B71               	clrf	(??_display_laptime+2)& (0+255),b
  7873  003A56  0E00               	movlw	0
  7874  003A58  0100               	movlb	0	; () banked
  7875  003A5A  256F               	addwf	??_display_laptime& (0+255),w,b
  7876  003A5C  6E1F               	movwf	wr16@addr,c
  7877  003A5E  0E80               	movlw	128
  7878  003A60  0100               	movlb	0	; () banked
  7879  003A62  2170               	addwfc	(??_display_laptime+1)& (0+255),w,b
  7880  003A64  6E20               	movwf	wr16@addr+1,c
  7881  003A66  0E10               	movlw	16
  7882  003A68  0100               	movlb	0	; () banked
  7883  003A6A  2171               	addwfc	(??_display_laptime+2)& (0+255),w,b
  7884  003A6C  6E21               	movwf	wr16@addr+2,c
  7885  003A6E  0E00               	movlw	0
  7886  003A70  6E23               	movwf	wr16@value+1,c
  7887  003A72  0ED9               	movlw	217
  7888  003A74  6E22               	movwf	wr16@value,c
  7889  003A76  EC31  F03A         	call	_wr16	;wreg free
  7890  003A7A  0E02               	movlw	2
  7891  003A7C  ECA2  F03A         	call	_cmd_incrementn
  7892  003A80  C03E  F06F         	movff	_cmd_offset,??_display_laptime
  7893  003A84  C03F  F070         	movff	_cmd_offset+1,??_display_laptime+1
  7894  003A88  0100               	movlb	0	; () banked
  7895  003A8A  6B71               	clrf	(??_display_laptime+2)& (0+255),b
  7896  003A8C  0E00               	movlw	0
  7897  003A8E  0100               	movlb	0	; () banked
  7898  003A90  256F               	addwf	??_display_laptime& (0+255),w,b
  7899  003A92  6E1F               	movwf	wr16@addr,c
  7900  003A94  0E80               	movlw	128
  7901  003A96  0100               	movlb	0	; () banked
  7902  003A98  2170               	addwfc	(??_display_laptime+1)& (0+255),w,b
  7903  003A9A  6E20               	movwf	wr16@addr+1,c
  7904  003A9C  0E10               	movlw	16
  7905  003A9E  0100               	movlb	0	; () banked
  7906  003AA0  2171               	addwfc	(??_display_laptime+2)& (0+255),w,b
  7907  003AA2  6E21               	movwf	wr16@addr+2,c
  7908  003AA4  0E00               	movlw	0
  7909  003AA6  6E23               	movwf	wr16@value+1,c
  7910  003AA8  0EED               	movlw	237
  7911  003AAA  6E22               	movwf	wr16@value,c
  7912  003AAC  EC31  F03A         	call	_wr16	;wreg free
  7913  003AB0  0E02               	movlw	2
  7914  003AB2  ECA2  F03A         	call	_cmd_incrementn
  7915  003AB6  C03E  F06F         	movff	_cmd_offset,??_display_laptime
  7916  003ABA  C03F  F070         	movff	_cmd_offset+1,??_display_laptime+1
  7917  003ABE  0100               	movlb	0	; () banked
  7918  003AC0  6B71               	clrf	(??_display_laptime+2)& (0+255),b
  7919  003AC2  0E00               	movlw	0
  7920  003AC4  0100               	movlb	0	; () banked
  7921  003AC6  256F               	addwf	??_display_laptime& (0+255),w,b
  7922  003AC8  6E1F               	movwf	wr16@addr,c
  7923  003ACA  0E80               	movlw	128
  7924  003ACC  0100               	movlb	0	; () banked
  7925  003ACE  2170               	addwfc	(??_display_laptime+1)& (0+255),w,b
  7926  003AD0  6E20               	movwf	wr16@addr+1,c
  7927  003AD2  0E10               	movlw	16
  7928  003AD4  0100               	movlb	0	; () banked
  7929  003AD6  2171               	addwfc	(??_display_laptime+2)& (0+255),w,b
  7930  003AD8  6E21               	movwf	wr16@addr+2,c
  7931  003ADA  0E00               	movlw	0
  7932  003ADC  6E23               	movwf	wr16@value+1,c
  7933  003ADE  0E1E               	movlw	30
  7934  003AE0  6E22               	movwf	wr16@value,c
  7935  003AE2  EC31  F03A         	call	_wr16	;wreg free
  7936  003AE6  0E02               	movlw	2
  7937  003AE8  ECA2  F03A         	call	_cmd_incrementn
  7938  003AEC  C03E  F06F         	movff	_cmd_offset,??_display_laptime
  7939  003AF0  C03F  F070         	movff	_cmd_offset+1,??_display_laptime+1
  7940  003AF4  0100               	movlb	0	; () banked
  7941  003AF6  6B71               	clrf	(??_display_laptime+2)& (0+255),b
  7942  003AF8  0E00               	movlw	0
  7943  003AFA  0100               	movlb	0	; () banked
  7944  003AFC  256F               	addwf	??_display_laptime& (0+255),w,b
  7945  003AFE  6E1F               	movwf	wr16@addr,c
  7946  003B00  0E80               	movlw	128
  7947  003B02  0100               	movlb	0	; () banked
  7948  003B04  2170               	addwfc	(??_display_laptime+1)& (0+255),w,b
  7949  003B06  6E20               	movwf	wr16@addr+1,c
  7950  003B08  0E10               	movlw	16
  7951  003B0A  0100               	movlb	0	; () banked
  7952  003B0C  2171               	addwfc	(??_display_laptime+2)& (0+255),w,b
  7953  003B0E  6E21               	movwf	wr16@addr+2,c
  7954  003B10  0E08               	movlw	8
  7955  003B12  6E23               	movwf	wr16@value+1,c
  7956  003B14  0E00               	movlw	0
  7957  003B16  6E22               	movwf	wr16@value,c
  7958  003B18  EC31  F03A         	call	_wr16	;wreg free
  7959  003B1C  0E02               	movlw	2
  7960  003B1E  ECA2  F03A         	call	_cmd_incrementn
  7961  003B22  0E13               	movlw	19
  7962  003B24  0100               	movlb	0	; () banked
  7963  003B26  6F60               	movwf	cmd@command& (0+255),b
  7964  003B28  0E00               	movlw	0
  7965  003B2A  6F61               	movwf	(cmd@command+1)& (0+255),b
  7966  003B2C  0E00               	movlw	0
  7967  003B2E  6F62               	movwf	(cmd@command+2)& (0+255),b
  7968  003B30  0E00               	movlw	0
  7969  003B32  6F63               	movwf	(cmd@command+3)& (0+255),b
  7970  003B34  EC4F  F03A         	call	_cmd	;wreg free
  7971                           
  7972                           ;display.c: 118: cmd(4294967052UL);wr16(1081344UL+cmd_offset, 221);cmd_incrementn(2);wr1
      +                          6(1081344UL+cmd_offset, 254);cmd_incrementn(2);wr16(1081344UL+cmd_offset, 28);cmd_increm
      +                          entn(2);wr16(1081344UL+cmd_offset, 1536UL);cmd_incrementn(2);cmd_incrementn(wr8s(1081344
      +                          UL+
  7973  003B38  0E0C               	movlw	12
  7974  003B3A  0100               	movlb	0	; () banked
  7975  003B3C  6F60               	movwf	cmd@command& (0+255),b
  7976  003B3E  0EFF               	movlw	255
  7977  003B40  6F61               	movwf	(cmd@command+1)& (0+255),b
  7978  003B42  0EFF               	movlw	255
  7979  003B44  6F62               	movwf	(cmd@command+2)& (0+255),b
  7980  003B46  0EFF               	movlw	255
  7981  003B48  6F63               	movwf	(cmd@command+3)& (0+255),b
  7982  003B4A  EC4F  F03A         	call	_cmd	;wreg free
  7983  003B4E  C03E  F06F         	movff	_cmd_offset,??_display_laptime
  7984  003B52  C03F  F070         	movff	_cmd_offset+1,??_display_laptime+1
  7985  003B56  0100               	movlb	0	; () banked
  7986  003B58  6B71               	clrf	(??_display_laptime+2)& (0+255),b
  7987  003B5A  0E00               	movlw	0
  7988  003B5C  0100               	movlb	0	; () banked
  7989  003B5E  256F               	addwf	??_display_laptime& (0+255),w,b
  7990  003B60  6E1F               	movwf	wr16@addr,c
  7991  003B62  0E80               	movlw	128
  7992  003B64  0100               	movlb	0	; () banked
  7993  003B66  2170               	addwfc	(??_display_laptime+1)& (0+255),w,b
  7994  003B68  6E20               	movwf	wr16@addr+1,c
  7995  003B6A  0E10               	movlw	16
  7996  003B6C  0100               	movlb	0	; () banked
  7997  003B6E  2171               	addwfc	(??_display_laptime+2)& (0+255),w,b
  7998  003B70  6E21               	movwf	wr16@addr+2,c
  7999  003B72  0E00               	movlw	0
  8000  003B74  6E23               	movwf	wr16@value+1,c
  8001  003B76  0EDD               	movlw	221
  8002  003B78  6E22               	movwf	wr16@value,c
  8003  003B7A  EC31  F03A         	call	_wr16	;wreg free
  8004  003B7E  0E02               	movlw	2
  8005  003B80  ECA2  F03A         	call	_cmd_incrementn
  8006  003B84  C03E  F06F         	movff	_cmd_offset,??_display_laptime
  8007  003B88  C03F  F070         	movff	_cmd_offset+1,??_display_laptime+1
  8008  003B8C  0100               	movlb	0	; () banked
  8009  003B8E  6B71               	clrf	(??_display_laptime+2)& (0+255),b
  8010  003B90  0E00               	movlw	0
  8011  003B92  0100               	movlb	0	; () banked
  8012  003B94  256F               	addwf	??_display_laptime& (0+255),w,b
  8013  003B96  6E1F               	movwf	wr16@addr,c
  8014  003B98  0E80               	movlw	128
  8015  003B9A  0100               	movlb	0	; () banked
  8016  003B9C  2170               	addwfc	(??_display_laptime+1)& (0+255),w,b
  8017  003B9E  6E20               	movwf	wr16@addr+1,c
  8018  003BA0  0E10               	movlw	16
  8019  003BA2  0100               	movlb	0	; () banked
  8020  003BA4  2171               	addwfc	(??_display_laptime+2)& (0+255),w,b
  8021  003BA6  6E21               	movwf	wr16@addr+2,c
  8022  003BA8  0E00               	movlw	0
  8023  003BAA  6E23               	movwf	wr16@value+1,c
  8024  003BAC  0EFE               	movlw	254
  8025  003BAE  6E22               	movwf	wr16@value,c
  8026  003BB0  EC31  F03A         	call	_wr16	;wreg free
  8027  003BB4  0E02               	movlw	2
  8028  003BB6  ECA2  F03A         	call	_cmd_incrementn
  8029  003BBA  C03E  F06F         	movff	_cmd_offset,??_display_laptime
  8030  003BBE  C03F  F070         	movff	_cmd_offset+1,??_display_laptime+1
  8031  003BC2  0100               	movlb	0	; () banked
  8032  003BC4  6B71               	clrf	(??_display_laptime+2)& (0+255),b
  8033  003BC6  0E00               	movlw	0
  8034  003BC8  0100               	movlb	0	; () banked
  8035  003BCA  256F               	addwf	??_display_laptime& (0+255),w,b
  8036  003BCC  6E1F               	movwf	wr16@addr,c
  8037  003BCE  0E80               	movlw	128
  8038  003BD0  0100               	movlb	0	; () banked
  8039  003BD2  2170               	addwfc	(??_display_laptime+1)& (0+255),w,b
  8040  003BD4  6E20               	movwf	wr16@addr+1,c
  8041  003BD6  0E10               	movlw	16
  8042  003BD8  0100               	movlb	0	; () banked
  8043  003BDA  2171               	addwfc	(??_display_laptime+2)& (0+255),w,b
  8044  003BDC  6E21               	movwf	wr16@addr+2,c
  8045  003BDE  0E00               	movlw	0
  8046  003BE0  6E23               	movwf	wr16@value+1,c
  8047  003BE2  0E1C               	movlw	28
  8048  003BE4  6E22               	movwf	wr16@value,c
  8049  003BE6  EC31  F03A         	call	_wr16	;wreg free
  8050  003BEA  0E02               	movlw	2
  8051  003BEC  ECA2  F03A         	call	_cmd_incrementn
  8052  003BF0  C03E  F06F         	movff	_cmd_offset,??_display_laptime
  8053  003BF4  C03F  F070         	movff	_cmd_offset+1,??_display_laptime+1
  8054  003BF8  0100               	movlb	0	; () banked
  8055  003BFA  6B71               	clrf	(??_display_laptime+2)& (0+255),b
  8056  003BFC  0E00               	movlw	0
  8057  003BFE  0100               	movlb	0	; () banked
  8058  003C00  256F               	addwf	??_display_laptime& (0+255),w,b
  8059  003C02  6E1F               	movwf	wr16@addr,c
  8060  003C04  0E80               	movlw	128
  8061  003C06  0100               	movlb	0	; () banked
  8062  003C08  2170               	addwfc	(??_display_laptime+1)& (0+255),w,b
  8063  003C0A  6E20               	movwf	wr16@addr+1,c
  8064  003C0C  0E10               	movlw	16
  8065  003C0E  0100               	movlb	0	; () banked
  8066  003C10  2171               	addwfc	(??_display_laptime+2)& (0+255),w,b
  8067  003C12  6E21               	movwf	wr16@addr+2,c
  8068  003C14  0E06               	movlw	6
  8069  003C16  6E23               	movwf	wr16@value+1,c
  8070  003C18  0E00               	movlw	0
  8071  003C1A  6E22               	movwf	wr16@value,c
  8072  003C1C  EC31  F03A         	call	_wr16	;wreg free
  8073  003C20  0E02               	movlw	2
  8074  003C22  ECA2  F03A         	call	_cmd_incrementn
  8075  003C26  C03E  F06F         	movff	_cmd_offset,??_display_laptime
  8076  003C2A  C03F  F070         	movff	_cmd_offset+1,??_display_laptime+1
  8077  003C2E  0100               	movlb	0	; () banked
  8078  003C30  6B71               	clrf	(??_display_laptime+2)& (0+255),b
  8079  003C32  0E00               	movlw	0
  8080  003C34  0100               	movlb	0	; () banked
  8081  003C36  256F               	addwf	??_display_laptime& (0+255),w,b
  8082  003C38  6E24               	movwf	wr8s@addr,c
  8083  003C3A  0E80               	movlw	128
  8084  003C3C  0100               	movlb	0	; () banked
  8085  003C3E  2170               	addwfc	(??_display_laptime+1)& (0+255),w,b
  8086  003C40  6E25               	movwf	wr8s@addr+1,c
  8087  003C42  0E10               	movlw	16
  8088  003C44  0100               	movlb	0	; () banked
  8089  003C46  2171               	addwfc	(??_display_laptime+2)& (0+255),w,b
  8090  003C48  6E26               	movwf	wr8s@addr+2,c
  8091  003C4A  0E7A               	movlw	low STR_20
  8092  003C4C  6E27               	movwf	wr8s@s,c
  8093  003C4E  0E0F               	movlw	high STR_20
  8094  003C50  6E28               	movwf	wr8s@s+1,c
  8095  003C52  EC04  F038         	call	_wr8s	;wreg free
  8096  003C56  ECA2  F03A         	call	_cmd_incrementn
  8097                           
  8098                           ;display.c: 119: cmd(4294967086UL);wr16(1081344UL+cmd_offset, 240);cmd_incrementn(2);wr1
      +                          6(1081344UL+cmd_offset, 255);cmd_incrementn(2);wr16(1081344UL+cmd_offset, 30);cmd_increm
      +                          entn(2);wr16(1081344UL+cmd_offset, 1536UL);cmd_incrementn(2);cmd(25);
  8099  003C5A  0E2E               	movlw	46
  8100  003C5C  0100               	movlb	0	; () banked
  8101  003C5E  6F60               	movwf	cmd@command& (0+255),b
  8102  003C60  0EFF               	movlw	255
  8103  003C62  6F61               	movwf	(cmd@command+1)& (0+255),b
  8104  003C64  0EFF               	movlw	255
  8105  003C66  6F62               	movwf	(cmd@command+2)& (0+255),b
  8106  003C68  0EFF               	movlw	255
  8107  003C6A  6F63               	movwf	(cmd@command+3)& (0+255),b
  8108  003C6C  EC4F  F03A         	call	_cmd	;wreg free
  8109  003C70  C03E  F06F         	movff	_cmd_offset,??_display_laptime
  8110  003C74  C03F  F070         	movff	_cmd_offset+1,??_display_laptime+1
  8111  003C78  0100               	movlb	0	; () banked
  8112  003C7A  6B71               	clrf	(??_display_laptime+2)& (0+255),b
  8113  003C7C  0E00               	movlw	0
  8114  003C7E  0100               	movlb	0	; () banked
  8115  003C80  256F               	addwf	??_display_laptime& (0+255),w,b
  8116  003C82  6E1F               	movwf	wr16@addr,c
  8117  003C84  0E80               	movlw	128
  8118  003C86  0100               	movlb	0	; () banked
  8119  003C88  2170               	addwfc	(??_display_laptime+1)& (0+255),w,b
  8120  003C8A  6E20               	movwf	wr16@addr+1,c
  8121  003C8C  0E10               	movlw	16
  8122  003C8E  0100               	movlb	0	; () banked
  8123  003C90  2171               	addwfc	(??_display_laptime+2)& (0+255),w,b
  8124  003C92  6E21               	movwf	wr16@addr+2,c
  8125  003C94  0E00               	movlw	0
  8126  003C96  6E23               	movwf	wr16@value+1,c
  8127  003C98  0EF0               	movlw	240
  8128  003C9A  6E22               	movwf	wr16@value,c
  8129  003C9C  EC31  F03A         	call	_wr16	;wreg free
  8130  003CA0  0E02               	movlw	2
  8131  003CA2  ECA2  F03A         	call	_cmd_incrementn
  8132  003CA6  C03E  F06F         	movff	_cmd_offset,??_display_laptime
  8133  003CAA  C03F  F070         	movff	_cmd_offset+1,??_display_laptime+1
  8134  003CAE  0100               	movlb	0	; () banked
  8135  003CB0  6B71               	clrf	(??_display_laptime+2)& (0+255),b
  8136  003CB2  0E00               	movlw	0
  8137  003CB4  0100               	movlb	0	; () banked
  8138  003CB6  256F               	addwf	??_display_laptime& (0+255),w,b
  8139  003CB8  6E1F               	movwf	wr16@addr,c
  8140  003CBA  0E80               	movlw	128
  8141  003CBC  0100               	movlb	0	; () banked
  8142  003CBE  2170               	addwfc	(??_display_laptime+1)& (0+255),w,b
  8143  003CC0  6E20               	movwf	wr16@addr+1,c
  8144  003CC2  0E10               	movlw	16
  8145  003CC4  0100               	movlb	0	; () banked
  8146  003CC6  2171               	addwfc	(??_display_laptime+2)& (0+255),w,b
  8147  003CC8  6E21               	movwf	wr16@addr+2,c
  8148  003CCA  0E00               	movlw	0
  8149  003CCC  6E23               	movwf	wr16@value+1,c
  8150  003CCE  6822               	setf	wr16@value,c
  8151  003CD0  EC31  F03A         	call	_wr16	;wreg free
  8152  003CD4  0E02               	movlw	2
  8153  003CD6  ECA2  F03A         	call	_cmd_incrementn
  8154  003CDA  C03E  F06F         	movff	_cmd_offset,??_display_laptime
  8155  003CDE  C03F  F070         	movff	_cmd_offset+1,??_display_laptime+1
  8156  003CE2  0100               	movlb	0	; () banked
  8157  003CE4  6B71               	clrf	(??_display_laptime+2)& (0+255),b
  8158  003CE6  0E00               	movlw	0
  8159  003CE8  0100               	movlb	0	; () banked
  8160  003CEA  256F               	addwf	??_display_laptime& (0+255),w,b
  8161  003CEC  6E1F               	movwf	wr16@addr,c
  8162  003CEE  0E80               	movlw	128
  8163  003CF0  0100               	movlb	0	; () banked
  8164  003CF2  2170               	addwfc	(??_display_laptime+1)& (0+255),w,b
  8165  003CF4  6E20               	movwf	wr16@addr+1,c
  8166  003CF6  0E10               	movlw	16
  8167  003CF8  0100               	movlb	0	; () banked
  8168  003CFA  2171               	addwfc	(??_display_laptime+2)& (0+255),w,b
  8169  003CFC  6E21               	movwf	wr16@addr+2,c
  8170  003CFE  0E00               	movlw	0
  8171  003D00  6E23               	movwf	wr16@value+1,c
  8172  003D02  0E1E               	movlw	30
  8173  003D04  6E22               	movwf	wr16@value,c
  8174  003D06  EC31  F03A         	call	_wr16	;wreg free
  8175  003D0A  0E02               	movlw	2
  8176  003D0C  ECA2  F03A         	call	_cmd_incrementn
  8177  003D10  C03E  F06F         	movff	_cmd_offset,??_display_laptime
  8178  003D14  C03F  F070         	movff	_cmd_offset+1,??_display_laptime+1
  8179  003D18  0100               	movlb	0	; () banked
  8180  003D1A  6B71               	clrf	(??_display_laptime+2)& (0+255),b
  8181  003D1C  0E00               	movlw	0
  8182  003D1E  0100               	movlb	0	; () banked
  8183  003D20  256F               	addwf	??_display_laptime& (0+255),w,b
  8184  003D22  6E1F               	movwf	wr16@addr,c
  8185  003D24  0E80               	movlw	128
  8186  003D26  0100               	movlb	0	; () banked
  8187  003D28  2170               	addwfc	(??_display_laptime+1)& (0+255),w,b
  8188  003D2A  6E20               	movwf	wr16@addr+1,c
  8189  003D2C  0E10               	movlw	16
  8190  003D2E  0100               	movlb	0	; () banked
  8191  003D30  2171               	addwfc	(??_display_laptime+2)& (0+255),w,b
  8192  003D32  6E21               	movwf	wr16@addr+2,c
  8193  003D34  0E06               	movlw	6
  8194  003D36  6E23               	movwf	wr16@value+1,c
  8195  003D38  0E00               	movlw	0
  8196  003D3A  6E22               	movwf	wr16@value,c
  8197  003D3C  EC31  F03A         	call	_wr16	;wreg free
  8198  003D40  0E02               	movlw	2
  8199  003D42  ECA2  F03A         	call	_cmd_incrementn
  8200  003D46  0E19               	movlw	25
  8201  003D48  0100               	movlb	0	; () banked
  8202  003D4A  6F60               	movwf	cmd@command& (0+255),b
  8203  003D4C  0E00               	movlw	0
  8204  003D4E  6F61               	movwf	(cmd@command+1)& (0+255),b
  8205  003D50  0E00               	movlw	0
  8206  003D52  6F62               	movwf	(cmd@command+2)& (0+255),b
  8207  003D54  0E00               	movlw	0
  8208  003D56  6F63               	movwf	(cmd@command+3)& (0+255),b
  8209  003D58  EC4F  F03A         	call	_cmd	;wreg free
  8210                           
  8211                           ;display.c: 120: cmd(4294967052UL);wr16(1081344UL+cmd_offset, 261);cmd_incrementn(2);wr1
      +                          6(1081344UL+cmd_offset, 254);cmd_incrementn(2);wr16(1081344UL+cmd_offset, 28);cmd_increm
      +                          entn(2);wr16(1081344UL+cmd_offset, 1536UL);cmd_incrementn(2);cmd_incrementn(wr8s(1081344
      +                          UL+
  8212  003D5C  0E0C               	movlw	12
  8213  003D5E  0100               	movlb	0	; () banked
  8214  003D60  6F60               	movwf	cmd@command& (0+255),b
  8215  003D62  0EFF               	movlw	255
  8216  003D64  6F61               	movwf	(cmd@command+1)& (0+255),b
  8217  003D66  0EFF               	movlw	255
  8218  003D68  6F62               	movwf	(cmd@command+2)& (0+255),b
  8219  003D6A  0EFF               	movlw	255
  8220  003D6C  6F63               	movwf	(cmd@command+3)& (0+255),b
  8221  003D6E  EC4F  F03A         	call	_cmd	;wreg free
  8222  003D72  C03E  F06F         	movff	_cmd_offset,??_display_laptime
  8223  003D76  C03F  F070         	movff	_cmd_offset+1,??_display_laptime+1
  8224  003D7A  0100               	movlb	0	; () banked
  8225  003D7C  6B71               	clrf	(??_display_laptime+2)& (0+255),b
  8226  003D7E  0E00               	movlw	0
  8227  003D80  0100               	movlb	0	; () banked
  8228  003D82  256F               	addwf	??_display_laptime& (0+255),w,b
  8229  003D84  6E1F               	movwf	wr16@addr,c
  8230  003D86  0E80               	movlw	128
  8231  003D88  0100               	movlb	0	; () banked
  8232  003D8A  2170               	addwfc	(??_display_laptime+1)& (0+255),w,b
  8233  003D8C  6E20               	movwf	wr16@addr+1,c
  8234  003D8E  0E10               	movlw	16
  8235  003D90  0100               	movlb	0	; () banked
  8236  003D92  2171               	addwfc	(??_display_laptime+2)& (0+255),w,b
  8237  003D94  6E21               	movwf	wr16@addr+2,c
  8238  003D96  0E01               	movlw	1
  8239  003D98  6E23               	movwf	wr16@value+1,c
  8240  003D9A  0E05               	movlw	5
  8241  003D9C  6E22               	movwf	wr16@value,c
  8242  003D9E  EC31  F03A         	call	_wr16	;wreg free
  8243  003DA2  0E02               	movlw	2
  8244  003DA4  ECA2  F03A         	call	_cmd_incrementn
  8245  003DA8  C03E  F06F         	movff	_cmd_offset,??_display_laptime
  8246  003DAC  C03F  F070         	movff	_cmd_offset+1,??_display_laptime+1
  8247  003DB0  0100               	movlb	0	; () banked
  8248  003DB2  6B71               	clrf	(??_display_laptime+2)& (0+255),b
  8249  003DB4  0E00               	movlw	0
  8250  003DB6  0100               	movlb	0	; () banked
  8251  003DB8  256F               	addwf	??_display_laptime& (0+255),w,b
  8252  003DBA  6E1F               	movwf	wr16@addr,c
  8253  003DBC  0E80               	movlw	128
  8254  003DBE  0100               	movlb	0	; () banked
  8255  003DC0  2170               	addwfc	(??_display_laptime+1)& (0+255),w,b
  8256  003DC2  6E20               	movwf	wr16@addr+1,c
  8257  003DC4  0E10               	movlw	16
  8258  003DC6  0100               	movlb	0	; () banked
  8259  003DC8  2171               	addwfc	(??_display_laptime+2)& (0+255),w,b
  8260  003DCA  6E21               	movwf	wr16@addr+2,c
  8261  003DCC  0E00               	movlw	0
  8262  003DCE  6E23               	movwf	wr16@value+1,c
  8263  003DD0  0EFE               	movlw	254
  8264  003DD2  6E22               	movwf	wr16@value,c
  8265  003DD4  EC31  F03A         	call	_wr16	;wreg free
  8266  003DD8  0E02               	movlw	2
  8267  003DDA  ECA2  F03A         	call	_cmd_incrementn
  8268  003DDE  C03E  F06F         	movff	_cmd_offset,??_display_laptime
  8269  003DE2  C03F  F070         	movff	_cmd_offset+1,??_display_laptime+1
  8270  003DE6  0100               	movlb	0	; () banked
  8271  003DE8  6B71               	clrf	(??_display_laptime+2)& (0+255),b
  8272  003DEA  0E00               	movlw	0
  8273  003DEC  0100               	movlb	0	; () banked
  8274  003DEE  256F               	addwf	??_display_laptime& (0+255),w,b
  8275  003DF0  6E1F               	movwf	wr16@addr,c
  8276  003DF2  0E80               	movlw	128
  8277  003DF4  0100               	movlb	0	; () banked
  8278  003DF6  2170               	addwfc	(??_display_laptime+1)& (0+255),w,b
  8279  003DF8  6E20               	movwf	wr16@addr+1,c
  8280  003DFA  0E10               	movlw	16
  8281  003DFC  0100               	movlb	0	; () banked
  8282  003DFE  2171               	addwfc	(??_display_laptime+2)& (0+255),w,b
  8283  003E00  6E21               	movwf	wr16@addr+2,c
  8284  003E02  0E00               	movlw	0
  8285  003E04  6E23               	movwf	wr16@value+1,c
  8286  003E06  0E1C               	movlw	28
  8287  003E08  6E22               	movwf	wr16@value,c
  8288  003E0A  EC31  F03A         	call	_wr16	;wreg free
  8289  003E0E  0E02               	movlw	2
  8290  003E10  ECA2  F03A         	call	_cmd_incrementn
  8291  003E14  C03E  F06F         	movff	_cmd_offset,??_display_laptime
  8292  003E18  C03F  F070         	movff	_cmd_offset+1,??_display_laptime+1
  8293  003E1C  0100               	movlb	0	; () banked
  8294  003E1E  6B71               	clrf	(??_display_laptime+2)& (0+255),b
  8295  003E20  0E00               	movlw	0
  8296  003E22  0100               	movlb	0	; () banked
  8297  003E24  256F               	addwf	??_display_laptime& (0+255),w,b
  8298  003E26  6E1F               	movwf	wr16@addr,c
  8299  003E28  0E80               	movlw	128
  8300  003E2A  0100               	movlb	0	; () banked
  8301  003E2C  2170               	addwfc	(??_display_laptime+1)& (0+255),w,b
  8302  003E2E  6E20               	movwf	wr16@addr+1,c
  8303  003E30  0E10               	movlw	16
  8304  003E32  0100               	movlb	0	; () banked
  8305  003E34  2171               	addwfc	(??_display_laptime+2)& (0+255),w,b
  8306  003E36  6E21               	movwf	wr16@addr+2,c
  8307  003E38  0E06               	movlw	6
  8308  003E3A  6E23               	movwf	wr16@value+1,c
  8309  003E3C  0E00               	movlw	0
  8310  003E3E  6E22               	movwf	wr16@value,c
  8311  003E40  EC31  F03A         	call	_wr16	;wreg free
  8312  003E44  0E02               	movlw	2
  8313  003E46  ECA2  F03A         	call	_cmd_incrementn
  8314  003E4A  C03E  F06F         	movff	_cmd_offset,??_display_laptime
  8315  003E4E  C03F  F070         	movff	_cmd_offset+1,??_display_laptime+1
  8316  003E52  0100               	movlb	0	; () banked
  8317  003E54  6B71               	clrf	(??_display_laptime+2)& (0+255),b
  8318  003E56  0E00               	movlw	0
  8319  003E58  0100               	movlb	0	; () banked
  8320  003E5A  256F               	addwf	??_display_laptime& (0+255),w,b
  8321  003E5C  6E24               	movwf	wr8s@addr,c
  8322  003E5E  0E80               	movlw	128
  8323  003E60  0100               	movlb	0	; () banked
  8324  003E62  2170               	addwfc	(??_display_laptime+1)& (0+255),w,b
  8325  003E64  6E25               	movwf	wr8s@addr+1,c
  8326  003E66  0E10               	movlw	16
  8327  003E68  0100               	movlb	0	; () banked
  8328  003E6A  2171               	addwfc	(??_display_laptime+2)& (0+255),w,b
  8329  003E6C  6E26               	movwf	wr8s@addr+2,c
  8330  003E6E  0E7A               	movlw	low STR_20
  8331  003E70  6E27               	movwf	wr8s@s,c
  8332  003E72  0E0F               	movlw	high STR_20
  8333  003E74  6E28               	movwf	wr8s@s+1,c
  8334  003E76  EC04  F038         	call	_wr8s	;wreg free
  8335  003E7A  ECA2  F03A         	call	_cmd_incrementn
  8336                           
  8337                           ;display.c: 121: cmd(4294967086UL);wr16(1081344UL+cmd_offset, 298);cmd_incrementn(2);wr1
      +                          6(1081344UL+cmd_offset, 237);cmd_incrementn(2);wr16(1081344UL+cmd_offset, 30);cmd_increm
      +                          entn(2);wr16(1081344UL+cmd_offset, 2048UL);cmd_incrementn(2);cmd(89);
  8338  003E7E  0E2E               	movlw	46
  8339  003E80  0100               	movlb	0	; () banked
  8340  003E82  6F60               	movwf	cmd@command& (0+255),b
  8341  003E84  0EFF               	movlw	255
  8342  003E86  6F61               	movwf	(cmd@command+1)& (0+255),b
  8343  003E88  0EFF               	movlw	255
  8344  003E8A  6F62               	movwf	(cmd@command+2)& (0+255),b
  8345  003E8C  0EFF               	movlw	255
  8346  003E8E  6F63               	movwf	(cmd@command+3)& (0+255),b
  8347  003E90  EC4F  F03A         	call	_cmd	;wreg free
  8348  003E94  C03E  F06F         	movff	_cmd_offset,??_display_laptime
  8349  003E98  C03F  F070         	movff	_cmd_offset+1,??_display_laptime+1
  8350  003E9C  0100               	movlb	0	; () banked
  8351  003E9E  6B71               	clrf	(??_display_laptime+2)& (0+255),b
  8352  003EA0  0E00               	movlw	0
  8353  003EA2  0100               	movlb	0	; () banked
  8354  003EA4  256F               	addwf	??_display_laptime& (0+255),w,b
  8355  003EA6  6E1F               	movwf	wr16@addr,c
  8356  003EA8  0E80               	movlw	128
  8357  003EAA  0100               	movlb	0	; () banked
  8358  003EAC  2170               	addwfc	(??_display_laptime+1)& (0+255),w,b
  8359  003EAE  6E20               	movwf	wr16@addr+1,c
  8360  003EB0  0E10               	movlw	16
  8361  003EB2  0100               	movlb	0	; () banked
  8362  003EB4  2171               	addwfc	(??_display_laptime+2)& (0+255),w,b
  8363  003EB6  6E21               	movwf	wr16@addr+2,c
  8364  003EB8  0E01               	movlw	1
  8365  003EBA  6E23               	movwf	wr16@value+1,c
  8366  003EBC  0E2A               	movlw	42
  8367  003EBE  6E22               	movwf	wr16@value,c
  8368  003EC0  EC31  F03A         	call	_wr16	;wreg free
  8369  003EC4  0E02               	movlw	2
  8370  003EC6  ECA2  F03A         	call	_cmd_incrementn
  8371  003ECA  C03E  F06F         	movff	_cmd_offset,??_display_laptime
  8372  003ECE  C03F  F070         	movff	_cmd_offset+1,??_display_laptime+1
  8373  003ED2  0100               	movlb	0	; () banked
  8374  003ED4  6B71               	clrf	(??_display_laptime+2)& (0+255),b
  8375  003ED6  0E00               	movlw	0
  8376  003ED8  0100               	movlb	0	; () banked
  8377  003EDA  256F               	addwf	??_display_laptime& (0+255),w,b
  8378  003EDC  6E1F               	movwf	wr16@addr,c
  8379  003EDE  0E80               	movlw	128
  8380  003EE0  0100               	movlb	0	; () banked
  8381  003EE2  2170               	addwfc	(??_display_laptime+1)& (0+255),w,b
  8382  003EE4  6E20               	movwf	wr16@addr+1,c
  8383  003EE6  0E10               	movlw	16
  8384  003EE8  0100               	movlb	0	; () banked
  8385  003EEA  2171               	addwfc	(??_display_laptime+2)& (0+255),w,b
  8386  003EEC  6E21               	movwf	wr16@addr+2,c
  8387  003EEE  0E00               	movlw	0
  8388  003EF0  6E23               	movwf	wr16@value+1,c
  8389  003EF2  0EED               	movlw	237
  8390  003EF4  6E22               	movwf	wr16@value,c
  8391  003EF6  EC31  F03A         	call	_wr16	;wreg free
  8392  003EFA  0E02               	movlw	2
  8393  003EFC  ECA2  F03A         	call	_cmd_incrementn
  8394  003F00  C03E  F06F         	movff	_cmd_offset,??_display_laptime
  8395  003F04  C03F  F070         	movff	_cmd_offset+1,??_display_laptime+1
  8396  003F08  0100               	movlb	0	; () banked
  8397  003F0A  6B71               	clrf	(??_display_laptime+2)& (0+255),b
  8398  003F0C  0E00               	movlw	0
  8399  003F0E  0100               	movlb	0	; () banked
  8400  003F10  256F               	addwf	??_display_laptime& (0+255),w,b
  8401  003F12  6E1F               	movwf	wr16@addr,c
  8402  003F14  0E80               	movlw	128
  8403  003F16  0100               	movlb	0	; () banked
  8404  003F18  2170               	addwfc	(??_display_laptime+1)& (0+255),w,b
  8405  003F1A  6E20               	movwf	wr16@addr+1,c
  8406  003F1C  0E10               	movlw	16
  8407  003F1E  0100               	movlb	0	; () banked
  8408  003F20  2171               	addwfc	(??_display_laptime+2)& (0+255),w,b
  8409  003F22  6E21               	movwf	wr16@addr+2,c
  8410  003F24  0E00               	movlw	0
  8411  003F26  6E23               	movwf	wr16@value+1,c
  8412  003F28  0E1E               	movlw	30
  8413  003F2A  6E22               	movwf	wr16@value,c
  8414  003F2C  EC31  F03A         	call	_wr16	;wreg free
  8415  003F30  0E02               	movlw	2
  8416  003F32  ECA2  F03A         	call	_cmd_incrementn
  8417  003F36  C03E  F06F         	movff	_cmd_offset,??_display_laptime
  8418  003F3A  C03F  F070         	movff	_cmd_offset+1,??_display_laptime+1
  8419  003F3E  0100               	movlb	0	; () banked
  8420  003F40  6B71               	clrf	(??_display_laptime+2)& (0+255),b
  8421  003F42  0E00               	movlw	0
  8422  003F44  0100               	movlb	0	; () banked
  8423  003F46  256F               	addwf	??_display_laptime& (0+255),w,b
  8424  003F48  6E1F               	movwf	wr16@addr,c
  8425  003F4A  0E80               	movlw	128
  8426  003F4C  0100               	movlb	0	; () banked
  8427  003F4E  2170               	addwfc	(??_display_laptime+1)& (0+255),w,b
  8428  003F50  6E20               	movwf	wr16@addr+1,c
  8429  003F52  0E10               	movlw	16
  8430  003F54  0100               	movlb	0	; () banked
  8431  003F56  2171               	addwfc	(??_display_laptime+2)& (0+255),w,b
  8432  003F58  6E21               	movwf	wr16@addr+2,c
  8433  003F5A  0E08               	movlw	8
  8434  003F5C  6E23               	movwf	wr16@value+1,c
  8435  003F5E  0E00               	movlw	0
  8436  003F60  6E22               	movwf	wr16@value,c
  8437  003F62  EC31  F03A         	call	_wr16	;wreg free
  8438  003F66  0E02               	movlw	2
  8439  003F68  ECA2  F03A         	call	_cmd_incrementn
  8440  003F6C  0E59               	movlw	89
  8441  003F6E  0100               	movlb	0	; () banked
  8442  003F70  6F60               	movwf	cmd@command& (0+255),b
  8443  003F72  0E00               	movlw	0
  8444  003F74  6F61               	movwf	(cmd@command+1)& (0+255),b
  8445  003F76  0E00               	movlw	0
  8446  003F78  6F62               	movwf	(cmd@command+2)& (0+255),b
  8447  003F7A  0E00               	movlw	0
  8448  003F7C  6F63               	movwf	(cmd@command+3)& (0+255),b
  8449  003F7E  EC4F  F03A         	call	_cmd	;wreg free
  8450  003F82  0012               	return		;funcret
  8451  003F84                     __end_of_display_laptime:
  8452                           	opt stack 0
  8453                           tblptru	equ	0xFF8
  8454                           postinc0	equ	0xFEE
  8455                           wreg	equ	0xFE8
  8456                           status	equ	0xFD8
  8457                           
  8458 ;; *************** function _display_labels *****************
  8459 ;; Defined at:
  8460 ;;		line 32 in file "display.c"
  8461 ;; Parameters:    Size  Location     Type
  8462 ;;		None
  8463 ;; Auto vars:     Size  Location     Type
  8464 ;;  y_start         2    7[BANK0 ] int 
  8465 ;; Return value:  Size  Location     Type
  8466 ;;                  1    wreg      void 
  8467 ;; Registers used:
  8468 ;;		wreg, status,2, status,0, tblptrl, tblptrh, tblptru, prodl, prodh, cstack
  8469 ;; Tracked objects:
  8470 ;;		On entry : 0/0
  8471 ;;		On exit  : 0/0
  8472 ;;		Unchanged: 0/0
  8473 ;; Data sizes:     COMRAM   BANK0   BANK1   BANK2   BANK3   BANK4   BANK5   BANK6   BANK7   BANK8   BANK9  BANK10  BANK1
      +1  BANK12  BANK13  BANK14
  8474 ;;      Params:         0       0       0       0       0       0       0       0       0       0       0       0       
      +0       0       0       0
  8475 ;;      Locals:         0       2       0       0       0       0       0       0       0       0       0       0       
      +0       0       0       0
  8476 ;;      Temps:          0       3       0       0       0       0       0       0       0       0       0       0       
      +0       0       0       0
  8477 ;;      Totals:         0       5       0       0       0       0       0       0       0       0       0       0       
      +0       0       0       0
  8478 ;;Total ram usage:        5 bytes
  8479 ;; Hardware stack levels used:    1
  8480 ;; Hardware stack levels required when called:    5
  8481 ;; This function calls:
  8482 ;;		_cmd
  8483 ;;		_cmd_incrementn
  8484 ;;		_wr16
  8485 ;;		_wr8s
  8486 ;; This function is called by:
  8487 ;;		_display
  8488 ;; This function uses a non-reentrant model
  8489 ;;
  8490                           
  8491                           	psect	text13
  8492  003F84                     __ptext13:
  8493                           	opt stack 0
  8494  003F84                     _display_labels:
  8495                           	opt stack 24
  8496                           
  8497                           ;display.c: 33: int y_start = 5;
  8498                           
  8499                           ;incstack = 0
  8500  003F84  0E00               	movlw	0
  8501  003F86  0100               	movlb	0	; () banked
  8502  003F88  6F68               	movwf	(display_labels@y_start+1)& (0+255),b
  8503  003F8A  0E05               	movlw	5
  8504  003F8C  6F67               	movwf	display_labels@y_start& (0+255),b
  8505                           
  8506                           ; BSR set to: 0
  8507                           ;display.c: 36: cmd(((4UL<<24)|(((255)&255UL)<<16)|(((255)&255UL)<<8)|(((255)&255UL)<<0)
      +                          ));
  8508  003F8E  0EFF               	movlw	255
  8509  003F90  0100               	movlb	0	; () banked
  8510  003F92  6F60               	movwf	cmd@command& (0+255),b
  8511  003F94  0EFF               	movlw	255
  8512  003F96  6F61               	movwf	(cmd@command+1)& (0+255),b
  8513  003F98  0EFF               	movlw	255
  8514  003F9A  6F62               	movwf	(cmd@command+2)& (0+255),b
  8515  003F9C  0E04               	movlw	4
  8516  003F9E  6F63               	movwf	(cmd@command+3)& (0+255),b
  8517  003FA0  EC4F  F03A         	call	_cmd	;wreg free
  8518                           
  8519                           ;display.c: 37: cmd(4294967052UL);wr16(1081344UL+cmd_offset, 5);cmd_incrementn(2);wr16(1
      +                          081344UL+cmd_offset, y_start);cmd_incrementn(2);wr16(1081344UL+cmd_offset, 26);cmd_incre
      +                          mentn(2);wr16(1081344UL+cmd_offset, 0);cmd_incrementn(2);cmd_incrementn(wr8s(1081344UL+c
      +                          md
  8520  003FA4  0E0C               	movlw	12
  8521  003FA6  0100               	movlb	0	; () banked
  8522  003FA8  6F60               	movwf	cmd@command& (0+255),b
  8523  003FAA  0EFF               	movlw	255
  8524  003FAC  6F61               	movwf	(cmd@command+1)& (0+255),b
  8525  003FAE  0EFF               	movlw	255
  8526  003FB0  6F62               	movwf	(cmd@command+2)& (0+255),b
  8527  003FB2  0EFF               	movlw	255
  8528  003FB4  6F63               	movwf	(cmd@command+3)& (0+255),b
  8529  003FB6  EC4F  F03A         	call	_cmd	;wreg free
  8530  003FBA  C03E  F064         	movff	_cmd_offset,??_display_labels
  8531  003FBE  C03F  F065         	movff	_cmd_offset+1,??_display_labels+1
  8532  003FC2  0100               	movlb	0	; () banked
  8533  003FC4  6B66               	clrf	(??_display_labels+2)& (0+255),b
  8534  003FC6  0E00               	movlw	0
  8535  003FC8  0100               	movlb	0	; () banked
  8536  003FCA  2564               	addwf	??_display_labels& (0+255),w,b
  8537  003FCC  6E1F               	movwf	wr16@addr,c
  8538  003FCE  0E80               	movlw	128
  8539  003FD0  0100               	movlb	0	; () banked
  8540  003FD2  2165               	addwfc	(??_display_labels+1)& (0+255),w,b
  8541  003FD4  6E20               	movwf	wr16@addr+1,c
  8542  003FD6  0E10               	movlw	16
  8543  003FD8  0100               	movlb	0	; () banked
  8544  003FDA  2166               	addwfc	(??_display_labels+2)& (0+255),w,b
  8545  003FDC  6E21               	movwf	wr16@addr+2,c
  8546  003FDE  0E00               	movlw	0
  8547  003FE0  6E23               	movwf	wr16@value+1,c
  8548  003FE2  0E05               	movlw	5
  8549  003FE4  6E22               	movwf	wr16@value,c
  8550  003FE6  EC31  F03A         	call	_wr16	;wreg free
  8551  003FEA  0E02               	movlw	2
  8552  003FEC  ECA2  F03A         	call	_cmd_incrementn
  8553  003FF0  C03E  F064         	movff	_cmd_offset,??_display_labels
  8554  003FF4  C03F  F065         	movff	_cmd_offset+1,??_display_labels+1
  8555  003FF8  0100               	movlb	0	; () banked
  8556  003FFA  6B66               	clrf	(??_display_labels+2)& (0+255),b
  8557  003FFC  0E00               	movlw	0
  8558  003FFE  0100               	movlb	0	; () banked
  8559  004000  2564               	addwf	??_display_labels& (0+255),w,b
  8560  004002  6E1F               	movwf	wr16@addr,c
  8561  004004  0E80               	movlw	128
  8562  004006  0100               	movlb	0	; () banked
  8563  004008  2165               	addwfc	(??_display_labels+1)& (0+255),w,b
  8564  00400A  6E20               	movwf	wr16@addr+1,c
  8565  00400C  0E10               	movlw	16
  8566  00400E  0100               	movlb	0	; () banked
  8567  004010  2166               	addwfc	(??_display_labels+2)& (0+255),w,b
  8568  004012  6E21               	movwf	wr16@addr+2,c
  8569  004014  C067  F022         	movff	display_labels@y_start,wr16@value
  8570  004018  C068  F023         	movff	display_labels@y_start+1,wr16@value+1
  8571  00401C  EC31  F03A         	call	_wr16	;wreg free
  8572  004020  0E02               	movlw	2
  8573  004022  ECA2  F03A         	call	_cmd_incrementn
  8574  004026  C03E  F064         	movff	_cmd_offset,??_display_labels
  8575  00402A  C03F  F065         	movff	_cmd_offset+1,??_display_labels+1
  8576  00402E  0100               	movlb	0	; () banked
  8577  004030  6B66               	clrf	(??_display_labels+2)& (0+255),b
  8578  004032  0E00               	movlw	0
  8579  004034  0100               	movlb	0	; () banked
  8580  004036  2564               	addwf	??_display_labels& (0+255),w,b
  8581  004038  6E1F               	movwf	wr16@addr,c
  8582  00403A  0E80               	movlw	128
  8583  00403C  0100               	movlb	0	; () banked
  8584  00403E  2165               	addwfc	(??_display_labels+1)& (0+255),w,b
  8585  004040  6E20               	movwf	wr16@addr+1,c
  8586  004042  0E10               	movlw	16
  8587  004044  0100               	movlb	0	; () banked
  8588  004046  2166               	addwfc	(??_display_labels+2)& (0+255),w,b
  8589  004048  6E21               	movwf	wr16@addr+2,c
  8590  00404A  0E00               	movlw	0
  8591  00404C  6E23               	movwf	wr16@value+1,c
  8592  00404E  0E1A               	movlw	26
  8593  004050  6E22               	movwf	wr16@value,c
  8594  004052  EC31  F03A         	call	_wr16	;wreg free
  8595  004056  0E02               	movlw	2
  8596  004058  ECA2  F03A         	call	_cmd_incrementn
  8597  00405C  C03E  F064         	movff	_cmd_offset,??_display_labels
  8598  004060  C03F  F065         	movff	_cmd_offset+1,??_display_labels+1
  8599  004064  0100               	movlb	0	; () banked
  8600  004066  6B66               	clrf	(??_display_labels+2)& (0+255),b
  8601  004068  0E00               	movlw	0
  8602  00406A  0100               	movlb	0	; () banked
  8603  00406C  2564               	addwf	??_display_labels& (0+255),w,b
  8604  00406E  6E1F               	movwf	wr16@addr,c
  8605  004070  0E80               	movlw	128
  8606  004072  0100               	movlb	0	; () banked
  8607  004074  2165               	addwfc	(??_display_labels+1)& (0+255),w,b
  8608  004076  6E20               	movwf	wr16@addr+1,c
  8609  004078  0E10               	movlw	16
  8610  00407A  0100               	movlb	0	; () banked
  8611  00407C  2166               	addwfc	(??_display_labels+2)& (0+255),w,b
  8612  00407E  6E21               	movwf	wr16@addr+2,c
  8613  004080  0E00               	movlw	0
  8614  004082  6E23               	movwf	wr16@value+1,c
  8615  004084  0E00               	movlw	0
  8616  004086  6E22               	movwf	wr16@value,c
  8617  004088  EC31  F03A         	call	_wr16	;wreg free
  8618  00408C  0E02               	movlw	2
  8619  00408E  ECA2  F03A         	call	_cmd_incrementn
  8620  004092  C03E  F064         	movff	_cmd_offset,??_display_labels
  8621  004096  C03F  F065         	movff	_cmd_offset+1,??_display_labels+1
  8622  00409A  0100               	movlb	0	; () banked
  8623  00409C  6B66               	clrf	(??_display_labels+2)& (0+255),b
  8624  00409E  0E00               	movlw	0
  8625  0040A0  0100               	movlb	0	; () banked
  8626  0040A2  2564               	addwf	??_display_labels& (0+255),w,b
  8627  0040A4  6E24               	movwf	wr8s@addr,c
  8628  0040A6  0E80               	movlw	128
  8629  0040A8  0100               	movlb	0	; () banked
  8630  0040AA  2165               	addwfc	(??_display_labels+1)& (0+255),w,b
  8631  0040AC  6E25               	movwf	wr8s@addr+1,c
  8632  0040AE  0E10               	movlw	16
  8633  0040B0  0100               	movlb	0	; () banked
  8634  0040B2  2166               	addwfc	(??_display_labels+2)& (0+255),w,b
  8635  0040B4  6E26               	movwf	wr8s@addr+2,c
  8636  0040B6  0E16               	movlw	low STR_2
  8637  0040B8  6E27               	movwf	wr8s@s,c
  8638  0040BA  0E0F               	movlw	high STR_2
  8639  0040BC  6E28               	movwf	wr8s@s+1,c
  8640  0040BE  EC04  F038         	call	_wr8s	;wreg free
  8641  0040C2  ECA2  F03A         	call	_cmd_incrementn
  8642                           
  8643                           ;display.c: 38: cmd(4294967052UL);wr16(1081344UL+cmd_offset, 5);cmd_incrementn(2);wr16(1
      +                          081344UL+cmd_offset, y_start += 15);cmd_incrementn(2);wr16(1081344UL+cmd_offset, 26);cmd
      +                          _incrementn(2);wr16(1081344UL+cmd_offset, 0);cmd_incrementn(2);cmd_incrementn(wr8s(10813
      +                          44
  8644  0040C6  0E0C               	movlw	12
  8645  0040C8  0100               	movlb	0	; () banked
  8646  0040CA  6F60               	movwf	cmd@command& (0+255),b
  8647  0040CC  0EFF               	movlw	255
  8648  0040CE  6F61               	movwf	(cmd@command+1)& (0+255),b
  8649  0040D0  0EFF               	movlw	255
  8650  0040D2  6F62               	movwf	(cmd@command+2)& (0+255),b
  8651  0040D4  0EFF               	movlw	255
  8652  0040D6  6F63               	movwf	(cmd@command+3)& (0+255),b
  8653  0040D8  EC4F  F03A         	call	_cmd	;wreg free
  8654  0040DC  C03E  F064         	movff	_cmd_offset,??_display_labels
  8655  0040E0  C03F  F065         	movff	_cmd_offset+1,??_display_labels+1
  8656  0040E4  0100               	movlb	0	; () banked
  8657  0040E6  6B66               	clrf	(??_display_labels+2)& (0+255),b
  8658  0040E8  0E00               	movlw	0
  8659  0040EA  0100               	movlb	0	; () banked
  8660  0040EC  2564               	addwf	??_display_labels& (0+255),w,b
  8661  0040EE  6E1F               	movwf	wr16@addr,c
  8662  0040F0  0E80               	movlw	128
  8663  0040F2  0100               	movlb	0	; () banked
  8664  0040F4  2165               	addwfc	(??_display_labels+1)& (0+255),w,b
  8665  0040F6  6E20               	movwf	wr16@addr+1,c
  8666  0040F8  0E10               	movlw	16
  8667  0040FA  0100               	movlb	0	; () banked
  8668  0040FC  2166               	addwfc	(??_display_labels+2)& (0+255),w,b
  8669  0040FE  6E21               	movwf	wr16@addr+2,c
  8670  004100  0E00               	movlw	0
  8671  004102  6E23               	movwf	wr16@value+1,c
  8672  004104  0E05               	movlw	5
  8673  004106  6E22               	movwf	wr16@value,c
  8674  004108  EC31  F03A         	call	_wr16	;wreg free
  8675  00410C  0E02               	movlw	2
  8676  00410E  ECA2  F03A         	call	_cmd_incrementn
  8677  004112  C03E  F064         	movff	_cmd_offset,??_display_labels
  8678  004116  C03F  F065         	movff	_cmd_offset+1,??_display_labels+1
  8679  00411A  0100               	movlb	0	; () banked
  8680  00411C  6B66               	clrf	(??_display_labels+2)& (0+255),b
  8681  00411E  0E00               	movlw	0
  8682  004120  0100               	movlb	0	; () banked
  8683  004122  2564               	addwf	??_display_labels& (0+255),w,b
  8684  004124  6E1F               	movwf	wr16@addr,c
  8685  004126  0E80               	movlw	128
  8686  004128  0100               	movlb	0	; () banked
  8687  00412A  2165               	addwfc	(??_display_labels+1)& (0+255),w,b
  8688  00412C  6E20               	movwf	wr16@addr+1,c
  8689  00412E  0E10               	movlw	16
  8690  004130  0100               	movlb	0	; () banked
  8691  004132  2166               	addwfc	(??_display_labels+2)& (0+255),w,b
  8692  004134  6E21               	movwf	wr16@addr+2,c
  8693  004136  0E0F               	movlw	15
  8694  004138  0100               	movlb	0	; () banked
  8695  00413A  2767               	addwf	display_labels@y_start& (0+255),f,b
  8696  00413C  0E00               	movlw	0
  8697  00413E  2368               	addwfc	(display_labels@y_start+1)& (0+255),f,b
  8698  004140  C067  F022         	movff	display_labels@y_start,wr16@value
  8699  004144  C068  F023         	movff	display_labels@y_start+1,wr16@value+1
  8700  004148  EC31  F03A         	call	_wr16	;wreg free
  8701  00414C  0E02               	movlw	2
  8702  00414E  ECA2  F03A         	call	_cmd_incrementn
  8703  004152  C03E  F064         	movff	_cmd_offset,??_display_labels
  8704  004156  C03F  F065         	movff	_cmd_offset+1,??_display_labels+1
  8705  00415A  0100               	movlb	0	; () banked
  8706  00415C  6B66               	clrf	(??_display_labels+2)& (0+255),b
  8707  00415E  0E00               	movlw	0
  8708  004160  0100               	movlb	0	; () banked
  8709  004162  2564               	addwf	??_display_labels& (0+255),w,b
  8710  004164  6E1F               	movwf	wr16@addr,c
  8711  004166  0E80               	movlw	128
  8712  004168  0100               	movlb	0	; () banked
  8713  00416A  2165               	addwfc	(??_display_labels+1)& (0+255),w,b
  8714  00416C  6E20               	movwf	wr16@addr+1,c
  8715  00416E  0E10               	movlw	16
  8716  004170  0100               	movlb	0	; () banked
  8717  004172  2166               	addwfc	(??_display_labels+2)& (0+255),w,b
  8718  004174  6E21               	movwf	wr16@addr+2,c
  8719  004176  0E00               	movlw	0
  8720  004178  6E23               	movwf	wr16@value+1,c
  8721  00417A  0E1A               	movlw	26
  8722  00417C  6E22               	movwf	wr16@value,c
  8723  00417E  EC31  F03A         	call	_wr16	;wreg free
  8724  004182  0E02               	movlw	2
  8725  004184  ECA2  F03A         	call	_cmd_incrementn
  8726  004188  C03E  F064         	movff	_cmd_offset,??_display_labels
  8727  00418C  C03F  F065         	movff	_cmd_offset+1,??_display_labels+1
  8728  004190  0100               	movlb	0	; () banked
  8729  004192  6B66               	clrf	(??_display_labels+2)& (0+255),b
  8730  004194  0E00               	movlw	0
  8731  004196  0100               	movlb	0	; () banked
  8732  004198  2564               	addwf	??_display_labels& (0+255),w,b
  8733  00419A  6E1F               	movwf	wr16@addr,c
  8734  00419C  0E80               	movlw	128
  8735  00419E  0100               	movlb	0	; () banked
  8736  0041A0  2165               	addwfc	(??_display_labels+1)& (0+255),w,b
  8737  0041A2  6E20               	movwf	wr16@addr+1,c
  8738  0041A4  0E10               	movlw	16
  8739  0041A6  0100               	movlb	0	; () banked
  8740  0041A8  2166               	addwfc	(??_display_labels+2)& (0+255),w,b
  8741  0041AA  6E21               	movwf	wr16@addr+2,c
  8742  0041AC  0E00               	movlw	0
  8743  0041AE  6E23               	movwf	wr16@value+1,c
  8744  0041B0  0E00               	movlw	0
  8745  0041B2  6E22               	movwf	wr16@value,c
  8746  0041B4  EC31  F03A         	call	_wr16	;wreg free
  8747  0041B8  0E02               	movlw	2
  8748  0041BA  ECA2  F03A         	call	_cmd_incrementn
  8749  0041BE  C03E  F064         	movff	_cmd_offset,??_display_labels
  8750  0041C2  C03F  F065         	movff	_cmd_offset+1,??_display_labels+1
  8751  0041C6  0100               	movlb	0	; () banked
  8752  0041C8  6B66               	clrf	(??_display_labels+2)& (0+255),b
  8753  0041CA  0E00               	movlw	0
  8754  0041CC  0100               	movlb	0	; () banked
  8755  0041CE  2564               	addwf	??_display_labels& (0+255),w,b
  8756  0041D0  6E24               	movwf	wr8s@addr,c
  8757  0041D2  0E80               	movlw	128
  8758  0041D4  0100               	movlb	0	; () banked
  8759  0041D6  2165               	addwfc	(??_display_labels+1)& (0+255),w,b
  8760  0041D8  6E25               	movwf	wr8s@addr+1,c
  8761  0041DA  0E10               	movlw	16
  8762  0041DC  0100               	movlb	0	; () banked
  8763  0041DE  2166               	addwfc	(??_display_labels+2)& (0+255),w,b
  8764  0041E0  6E26               	movwf	wr8s@addr+2,c
  8765  0041E2  0E38               	movlw	low STR_3
  8766  0041E4  6E27               	movwf	wr8s@s,c
  8767  0041E6  0E0F               	movlw	high STR_3
  8768  0041E8  6E28               	movwf	wr8s@s+1,c
  8769  0041EA  EC04  F038         	call	_wr8s	;wreg free
  8770  0041EE  ECA2  F03A         	call	_cmd_incrementn
  8771                           
  8772                           ;display.c: 39: cmd(4294967052UL);wr16(1081344UL+cmd_offset, 5);cmd_incrementn(2);wr16(1
      +                          081344UL+cmd_offset, y_start += 25);cmd_incrementn(2);wr16(1081344UL+cmd_offset, 26);cmd
      +                          _incrementn(2);wr16(1081344UL+cmd_offset, 0);cmd_incrementn(2);cmd_incrementn(wr8s(10813
      +                          44
  8773  0041F2  0E0C               	movlw	12
  8774  0041F4  0100               	movlb	0	; () banked
  8775  0041F6  6F60               	movwf	cmd@command& (0+255),b
  8776  0041F8  0EFF               	movlw	255
  8777  0041FA  6F61               	movwf	(cmd@command+1)& (0+255),b
  8778  0041FC  0EFF               	movlw	255
  8779  0041FE  6F62               	movwf	(cmd@command+2)& (0+255),b
  8780  004200  0EFF               	movlw	255
  8781  004202  6F63               	movwf	(cmd@command+3)& (0+255),b
  8782  004204  EC4F  F03A         	call	_cmd	;wreg free
  8783  004208  C03E  F064         	movff	_cmd_offset,??_display_labels
  8784  00420C  C03F  F065         	movff	_cmd_offset+1,??_display_labels+1
  8785  004210  0100               	movlb	0	; () banked
  8786  004212  6B66               	clrf	(??_display_labels+2)& (0+255),b
  8787  004214  0E00               	movlw	0
  8788  004216  0100               	movlb	0	; () banked
  8789  004218  2564               	addwf	??_display_labels& (0+255),w,b
  8790  00421A  6E1F               	movwf	wr16@addr,c
  8791  00421C  0E80               	movlw	128
  8792  00421E  0100               	movlb	0	; () banked
  8793  004220  2165               	addwfc	(??_display_labels+1)& (0+255),w,b
  8794  004222  6E20               	movwf	wr16@addr+1,c
  8795  004224  0E10               	movlw	16
  8796  004226  0100               	movlb	0	; () banked
  8797  004228  2166               	addwfc	(??_display_labels+2)& (0+255),w,b
  8798  00422A  6E21               	movwf	wr16@addr+2,c
  8799  00422C  0E00               	movlw	0
  8800  00422E  6E23               	movwf	wr16@value+1,c
  8801  004230  0E05               	movlw	5
  8802  004232  6E22               	movwf	wr16@value,c
  8803  004234  EC31  F03A         	call	_wr16	;wreg free
  8804  004238  0E02               	movlw	2
  8805  00423A  ECA2  F03A         	call	_cmd_incrementn
  8806  00423E  C03E  F064         	movff	_cmd_offset,??_display_labels
  8807  004242  C03F  F065         	movff	_cmd_offset+1,??_display_labels+1
  8808  004246  0100               	movlb	0	; () banked
  8809  004248  6B66               	clrf	(??_display_labels+2)& (0+255),b
  8810  00424A  0E00               	movlw	0
  8811  00424C  0100               	movlb	0	; () banked
  8812  00424E  2564               	addwf	??_display_labels& (0+255),w,b
  8813  004250  6E1F               	movwf	wr16@addr,c
  8814  004252  0E80               	movlw	128
  8815  004254  0100               	movlb	0	; () banked
  8816  004256  2165               	addwfc	(??_display_labels+1)& (0+255),w,b
  8817  004258  6E20               	movwf	wr16@addr+1,c
  8818  00425A  0E10               	movlw	16
  8819  00425C  0100               	movlb	0	; () banked
  8820  00425E  2166               	addwfc	(??_display_labels+2)& (0+255),w,b
  8821  004260  6E21               	movwf	wr16@addr+2,c
  8822  004262  0E19               	movlw	25
  8823  004264  0100               	movlb	0	; () banked
  8824  004266  2767               	addwf	display_labels@y_start& (0+255),f,b
  8825  004268  0E00               	movlw	0
  8826  00426A  2368               	addwfc	(display_labels@y_start+1)& (0+255),f,b
  8827  00426C  C067  F022         	movff	display_labels@y_start,wr16@value
  8828  004270  C068  F023         	movff	display_labels@y_start+1,wr16@value+1
  8829  004274  EC31  F03A         	call	_wr16	;wreg free
  8830  004278  0E02               	movlw	2
  8831  00427A  ECA2  F03A         	call	_cmd_incrementn
  8832  00427E  C03E  F064         	movff	_cmd_offset,??_display_labels
  8833  004282  C03F  F065         	movff	_cmd_offset+1,??_display_labels+1
  8834  004286  0100               	movlb	0	; () banked
  8835  004288  6B66               	clrf	(??_display_labels+2)& (0+255),b
  8836  00428A  0E00               	movlw	0
  8837  00428C  0100               	movlb	0	; () banked
  8838  00428E  2564               	addwf	??_display_labels& (0+255),w,b
  8839  004290  6E1F               	movwf	wr16@addr,c
  8840  004292  0E80               	movlw	128
  8841  004294  0100               	movlb	0	; () banked
  8842  004296  2165               	addwfc	(??_display_labels+1)& (0+255),w,b
  8843  004298  6E20               	movwf	wr16@addr+1,c
  8844  00429A  0E10               	movlw	16
  8845  00429C  0100               	movlb	0	; () banked
  8846  00429E  2166               	addwfc	(??_display_labels+2)& (0+255),w,b
  8847  0042A0  6E21               	movwf	wr16@addr+2,c
  8848  0042A2  0E00               	movlw	0
  8849  0042A4  6E23               	movwf	wr16@value+1,c
  8850  0042A6  0E1A               	movlw	26
  8851  0042A8  6E22               	movwf	wr16@value,c
  8852  0042AA  EC31  F03A         	call	_wr16	;wreg free
  8853  0042AE  0E02               	movlw	2
  8854  0042B0  ECA2  F03A         	call	_cmd_incrementn
  8855  0042B4  C03E  F064         	movff	_cmd_offset,??_display_labels
  8856  0042B8  C03F  F065         	movff	_cmd_offset+1,??_display_labels+1
  8857  0042BC  0100               	movlb	0	; () banked
  8858  0042BE  6B66               	clrf	(??_display_labels+2)& (0+255),b
  8859  0042C0  0E00               	movlw	0
  8860  0042C2  0100               	movlb	0	; () banked
  8861  0042C4  2564               	addwf	??_display_labels& (0+255),w,b
  8862  0042C6  6E1F               	movwf	wr16@addr,c
  8863  0042C8  0E80               	movlw	128
  8864  0042CA  0100               	movlb	0	; () banked
  8865  0042CC  2165               	addwfc	(??_display_labels+1)& (0+255),w,b
  8866  0042CE  6E20               	movwf	wr16@addr+1,c
  8867  0042D0  0E10               	movlw	16
  8868  0042D2  0100               	movlb	0	; () banked
  8869  0042D4  2166               	addwfc	(??_display_labels+2)& (0+255),w,b
  8870  0042D6  6E21               	movwf	wr16@addr+2,c
  8871  0042D8  0E00               	movlw	0
  8872  0042DA  6E23               	movwf	wr16@value+1,c
  8873  0042DC  0E00               	movlw	0
  8874  0042DE  6E22               	movwf	wr16@value,c
  8875  0042E0  EC31  F03A         	call	_wr16	;wreg free
  8876  0042E4  0E02               	movlw	2
  8877  0042E6  ECA2  F03A         	call	_cmd_incrementn
  8878  0042EA  C03E  F064         	movff	_cmd_offset,??_display_labels
  8879  0042EE  C03F  F065         	movff	_cmd_offset+1,??_display_labels+1
  8880  0042F2  0100               	movlb	0	; () banked
  8881  0042F4  6B66               	clrf	(??_display_labels+2)& (0+255),b
  8882  0042F6  0E00               	movlw	0
  8883  0042F8  0100               	movlb	0	; () banked
  8884  0042FA  2564               	addwf	??_display_labels& (0+255),w,b
  8885  0042FC  6E24               	movwf	wr8s@addr,c
  8886  0042FE  0E80               	movlw	128
  8887  004300  0100               	movlb	0	; () banked
  8888  004302  2165               	addwfc	(??_display_labels+1)& (0+255),w,b
  8889  004304  6E25               	movwf	wr8s@addr+1,c
  8890  004306  0E10               	movlw	16
  8891  004308  0100               	movlb	0	; () banked
  8892  00430A  2166               	addwfc	(??_display_labels+2)& (0+255),w,b
  8893  00430C  6E26               	movwf	wr8s@addr+2,c
  8894  00430E  0E50               	movlw	low STR_4
  8895  004310  6E27               	movwf	wr8s@s,c
  8896  004312  0E0F               	movlw	high STR_4
  8897  004314  6E28               	movwf	wr8s@s+1,c
  8898  004316  EC04  F038         	call	_wr8s	;wreg free
  8899  00431A  ECA2  F03A         	call	_cmd_incrementn
  8900                           
  8901                           ;display.c: 40: cmd(4294967052UL);wr16(1081344UL+cmd_offset, 5);cmd_incrementn(2);wr16(1
      +                          081344UL+cmd_offset, y_start += 15);cmd_incrementn(2);wr16(1081344UL+cmd_offset, 26);cmd
      +                          _incrementn(2);wr16(1081344UL+cmd_offset, 0);cmd_incrementn(2);cmd_incrementn(wr8s(10813
      +                          44
  8902  00431E  0E0C               	movlw	12
  8903  004320  0100               	movlb	0	; () banked
  8904  004322  6F60               	movwf	cmd@command& (0+255),b
  8905  004324  0EFF               	movlw	255
  8906  004326  6F61               	movwf	(cmd@command+1)& (0+255),b
  8907  004328  0EFF               	movlw	255
  8908  00432A  6F62               	movwf	(cmd@command+2)& (0+255),b
  8909  00432C  0EFF               	movlw	255
  8910  00432E  6F63               	movwf	(cmd@command+3)& (0+255),b
  8911  004330  EC4F  F03A         	call	_cmd	;wreg free
  8912  004334  C03E  F064         	movff	_cmd_offset,??_display_labels
  8913  004338  C03F  F065         	movff	_cmd_offset+1,??_display_labels+1
  8914  00433C  0100               	movlb	0	; () banked
  8915  00433E  6B66               	clrf	(??_display_labels+2)& (0+255),b
  8916  004340  0E00               	movlw	0
  8917  004342  0100               	movlb	0	; () banked
  8918  004344  2564               	addwf	??_display_labels& (0+255),w,b
  8919  004346  6E1F               	movwf	wr16@addr,c
  8920  004348  0E80               	movlw	128
  8921  00434A  0100               	movlb	0	; () banked
  8922  00434C  2165               	addwfc	(??_display_labels+1)& (0+255),w,b
  8923  00434E  6E20               	movwf	wr16@addr+1,c
  8924  004350  0E10               	movlw	16
  8925  004352  0100               	movlb	0	; () banked
  8926  004354  2166               	addwfc	(??_display_labels+2)& (0+255),w,b
  8927  004356  6E21               	movwf	wr16@addr+2,c
  8928  004358  0E00               	movlw	0
  8929  00435A  6E23               	movwf	wr16@value+1,c
  8930  00435C  0E05               	movlw	5
  8931  00435E  6E22               	movwf	wr16@value,c
  8932  004360  EC31  F03A         	call	_wr16	;wreg free
  8933  004364  0E02               	movlw	2
  8934  004366  ECA2  F03A         	call	_cmd_incrementn
  8935  00436A  C03E  F064         	movff	_cmd_offset,??_display_labels
  8936  00436E  C03F  F065         	movff	_cmd_offset+1,??_display_labels+1
  8937  004372  0100               	movlb	0	; () banked
  8938  004374  6B66               	clrf	(??_display_labels+2)& (0+255),b
  8939  004376  0E00               	movlw	0
  8940  004378  0100               	movlb	0	; () banked
  8941  00437A  2564               	addwf	??_display_labels& (0+255),w,b
  8942  00437C  6E1F               	movwf	wr16@addr,c
  8943  00437E  0E80               	movlw	128
  8944  004380  0100               	movlb	0	; () banked
  8945  004382  2165               	addwfc	(??_display_labels+1)& (0+255),w,b
  8946  004384  6E20               	movwf	wr16@addr+1,c
  8947  004386  0E10               	movlw	16
  8948  004388  0100               	movlb	0	; () banked
  8949  00438A  2166               	addwfc	(??_display_labels+2)& (0+255),w,b
  8950  00438C  6E21               	movwf	wr16@addr+2,c
  8951  00438E  0E0F               	movlw	15
  8952  004390  0100               	movlb	0	; () banked
  8953  004392  2767               	addwf	display_labels@y_start& (0+255),f,b
  8954  004394  0E00               	movlw	0
  8955  004396  2368               	addwfc	(display_labels@y_start+1)& (0+255),f,b
  8956  004398  C067  F022         	movff	display_labels@y_start,wr16@value
  8957  00439C  C068  F023         	movff	display_labels@y_start+1,wr16@value+1
  8958  0043A0  EC31  F03A         	call	_wr16	;wreg free
  8959  0043A4  0E02               	movlw	2
  8960  0043A6  ECA2  F03A         	call	_cmd_incrementn
  8961  0043AA  C03E  F064         	movff	_cmd_offset,??_display_labels
  8962  0043AE  C03F  F065         	movff	_cmd_offset+1,??_display_labels+1
  8963  0043B2  0100               	movlb	0	; () banked
  8964  0043B4  6B66               	clrf	(??_display_labels+2)& (0+255),b
  8965  0043B6  0E00               	movlw	0
  8966  0043B8  0100               	movlb	0	; () banked
  8967  0043BA  2564               	addwf	??_display_labels& (0+255),w,b
  8968  0043BC  6E1F               	movwf	wr16@addr,c
  8969  0043BE  0E80               	movlw	128
  8970  0043C0  0100               	movlb	0	; () banked
  8971  0043C2  2165               	addwfc	(??_display_labels+1)& (0+255),w,b
  8972  0043C4  6E20               	movwf	wr16@addr+1,c
  8973  0043C6  0E10               	movlw	16
  8974  0043C8  0100               	movlb	0	; () banked
  8975  0043CA  2166               	addwfc	(??_display_labels+2)& (0+255),w,b
  8976  0043CC  6E21               	movwf	wr16@addr+2,c
  8977  0043CE  0E00               	movlw	0
  8978  0043D0  6E23               	movwf	wr16@value+1,c
  8979  0043D2  0E1A               	movlw	26
  8980  0043D4  6E22               	movwf	wr16@value,c
  8981  0043D6  EC31  F03A         	call	_wr16	;wreg free
  8982  0043DA  0E02               	movlw	2
  8983  0043DC  ECA2  F03A         	call	_cmd_incrementn
  8984  0043E0  C03E  F064         	movff	_cmd_offset,??_display_labels
  8985  0043E4  C03F  F065         	movff	_cmd_offset+1,??_display_labels+1
  8986  0043E8  0100               	movlb	0	; () banked
  8987  0043EA  6B66               	clrf	(??_display_labels+2)& (0+255),b
  8988  0043EC  0E00               	movlw	0
  8989  0043EE  0100               	movlb	0	; () banked
  8990  0043F0  2564               	addwf	??_display_labels& (0+255),w,b
  8991  0043F2  6E1F               	movwf	wr16@addr,c
  8992  0043F4  0E80               	movlw	128
  8993  0043F6  0100               	movlb	0	; () banked
  8994  0043F8  2165               	addwfc	(??_display_labels+1)& (0+255),w,b
  8995  0043FA  6E20               	movwf	wr16@addr+1,c
  8996  0043FC  0E10               	movlw	16
  8997  0043FE  0100               	movlb	0	; () banked
  8998  004400  2166               	addwfc	(??_display_labels+2)& (0+255),w,b
  8999  004402  6E21               	movwf	wr16@addr+2,c
  9000  004404  0E00               	movlw	0
  9001  004406  6E23               	movwf	wr16@value+1,c
  9002  004408  0E00               	movlw	0
  9003  00440A  6E22               	movwf	wr16@value,c
  9004  00440C  EC31  F03A         	call	_wr16	;wreg free
  9005  004410  0E02               	movlw	2
  9006  004412  ECA2  F03A         	call	_cmd_incrementn
  9007  004416  C03E  F064         	movff	_cmd_offset,??_display_labels
  9008  00441A  C03F  F065         	movff	_cmd_offset+1,??_display_labels+1
  9009  00441E  0100               	movlb	0	; () banked
  9010  004420  6B66               	clrf	(??_display_labels+2)& (0+255),b
  9011  004422  0E00               	movlw	0
  9012  004424  0100               	movlb	0	; () banked
  9013  004426  2564               	addwf	??_display_labels& (0+255),w,b
  9014  004428  6E24               	movwf	wr8s@addr,c
  9015  00442A  0E80               	movlw	128
  9016  00442C  0100               	movlb	0	; () banked
  9017  00442E  2165               	addwfc	(??_display_labels+1)& (0+255),w,b
  9018  004430  6E25               	movwf	wr8s@addr+1,c
  9019  004432  0E10               	movlw	16
  9020  004434  0100               	movlb	0	; () banked
  9021  004436  2166               	addwfc	(??_display_labels+2)& (0+255),w,b
  9022  004438  6E26               	movwf	wr8s@addr+2,c
  9023  00443A  0E38               	movlw	low STR_3
  9024  00443C  6E27               	movwf	wr8s@s,c
  9025  00443E  0E0F               	movlw	high STR_3
  9026  004440  6E28               	movwf	wr8s@s+1,c
  9027  004442  EC04  F038         	call	_wr8s	;wreg free
  9028  004446  ECA2  F03A         	call	_cmd_incrementn
  9029                           
  9030                           ;display.c: 41: cmd(4294967052UL);wr16(1081344UL+cmd_offset, 5);cmd_incrementn(2);wr16(1
      +                          081344UL+cmd_offset, y_start += 25);cmd_incrementn(2);wr16(1081344UL+cmd_offset, 26);cmd
      +                          _incrementn(2);wr16(1081344UL+cmd_offset, 0);cmd_incrementn(2);cmd_incrementn(wr8s(10813
      +                          44
  9031  00444A  0E0C               	movlw	12
  9032  00444C  0100               	movlb	0	; () banked
  9033  00444E  6F60               	movwf	cmd@command& (0+255),b
  9034  004450  0EFF               	movlw	255
  9035  004452  6F61               	movwf	(cmd@command+1)& (0+255),b
  9036  004454  0EFF               	movlw	255
  9037  004456  6F62               	movwf	(cmd@command+2)& (0+255),b
  9038  004458  0EFF               	movlw	255
  9039  00445A  6F63               	movwf	(cmd@command+3)& (0+255),b
  9040  00445C  EC4F  F03A         	call	_cmd	;wreg free
  9041  004460  C03E  F064         	movff	_cmd_offset,??_display_labels
  9042  004464  C03F  F065         	movff	_cmd_offset+1,??_display_labels+1
  9043  004468  0100               	movlb	0	; () banked
  9044  00446A  6B66               	clrf	(??_display_labels+2)& (0+255),b
  9045  00446C  0E00               	movlw	0
  9046  00446E  0100               	movlb	0	; () banked
  9047  004470  2564               	addwf	??_display_labels& (0+255),w,b
  9048  004472  6E1F               	movwf	wr16@addr,c
  9049  004474  0E80               	movlw	128
  9050  004476  0100               	movlb	0	; () banked
  9051  004478  2165               	addwfc	(??_display_labels+1)& (0+255),w,b
  9052  00447A  6E20               	movwf	wr16@addr+1,c
  9053  00447C  0E10               	movlw	16
  9054  00447E  0100               	movlb	0	; () banked
  9055  004480  2166               	addwfc	(??_display_labels+2)& (0+255),w,b
  9056  004482  6E21               	movwf	wr16@addr+2,c
  9057  004484  0E00               	movlw	0
  9058  004486  6E23               	movwf	wr16@value+1,c
  9059  004488  0E05               	movlw	5
  9060  00448A  6E22               	movwf	wr16@value,c
  9061  00448C  EC31  F03A         	call	_wr16	;wreg free
  9062  004490  0E02               	movlw	2
  9063  004492  ECA2  F03A         	call	_cmd_incrementn
  9064  004496  C03E  F064         	movff	_cmd_offset,??_display_labels
  9065  00449A  C03F  F065         	movff	_cmd_offset+1,??_display_labels+1
  9066  00449E  0100               	movlb	0	; () banked
  9067  0044A0  6B66               	clrf	(??_display_labels+2)& (0+255),b
  9068  0044A2  0E00               	movlw	0
  9069  0044A4  0100               	movlb	0	; () banked
  9070  0044A6  2564               	addwf	??_display_labels& (0+255),w,b
  9071  0044A8  6E1F               	movwf	wr16@addr,c
  9072  0044AA  0E80               	movlw	128
  9073  0044AC  0100               	movlb	0	; () banked
  9074  0044AE  2165               	addwfc	(??_display_labels+1)& (0+255),w,b
  9075  0044B0  6E20               	movwf	wr16@addr+1,c
  9076  0044B2  0E10               	movlw	16
  9077  0044B4  0100               	movlb	0	; () banked
  9078  0044B6  2166               	addwfc	(??_display_labels+2)& (0+255),w,b
  9079  0044B8  6E21               	movwf	wr16@addr+2,c
  9080  0044BA  0E19               	movlw	25
  9081  0044BC  0100               	movlb	0	; () banked
  9082  0044BE  2767               	addwf	display_labels@y_start& (0+255),f,b
  9083  0044C0  0E00               	movlw	0
  9084  0044C2  2368               	addwfc	(display_labels@y_start+1)& (0+255),f,b
  9085  0044C4  C067  F022         	movff	display_labels@y_start,wr16@value
  9086  0044C8  C068  F023         	movff	display_labels@y_start+1,wr16@value+1
  9087  0044CC  EC31  F03A         	call	_wr16	;wreg free
  9088  0044D0  0E02               	movlw	2
  9089  0044D2  ECA2  F03A         	call	_cmd_incrementn
  9090  0044D6  C03E  F064         	movff	_cmd_offset,??_display_labels
  9091  0044DA  C03F  F065         	movff	_cmd_offset+1,??_display_labels+1
  9092  0044DE  0100               	movlb	0	; () banked
  9093  0044E0  6B66               	clrf	(??_display_labels+2)& (0+255),b
  9094  0044E2  0E00               	movlw	0
  9095  0044E4  0100               	movlb	0	; () banked
  9096  0044E6  2564               	addwf	??_display_labels& (0+255),w,b
  9097  0044E8  6E1F               	movwf	wr16@addr,c
  9098  0044EA  0E80               	movlw	128
  9099  0044EC  0100               	movlb	0	; () banked
  9100  0044EE  2165               	addwfc	(??_display_labels+1)& (0+255),w,b
  9101  0044F0  6E20               	movwf	wr16@addr+1,c
  9102  0044F2  0E10               	movlw	16
  9103  0044F4  0100               	movlb	0	; () banked
  9104  0044F6  2166               	addwfc	(??_display_labels+2)& (0+255),w,b
  9105  0044F8  6E21               	movwf	wr16@addr+2,c
  9106  0044FA  0E00               	movlw	0
  9107  0044FC  6E23               	movwf	wr16@value+1,c
  9108  0044FE  0E1A               	movlw	26
  9109  004500  6E22               	movwf	wr16@value,c
  9110  004502  EC31  F03A         	call	_wr16	;wreg free
  9111  004506  0E02               	movlw	2
  9112  004508  ECA2  F03A         	call	_cmd_incrementn
  9113  00450C  C03E  F064         	movff	_cmd_offset,??_display_labels
  9114  004510  C03F  F065         	movff	_cmd_offset+1,??_display_labels+1
  9115  004514  0100               	movlb	0	; () banked
  9116  004516  6B66               	clrf	(??_display_labels+2)& (0+255),b
  9117  004518  0E00               	movlw	0
  9118  00451A  0100               	movlb	0	; () banked
  9119  00451C  2564               	addwf	??_display_labels& (0+255),w,b
  9120  00451E  6E1F               	movwf	wr16@addr,c
  9121  004520  0E80               	movlw	128
  9122  004522  0100               	movlb	0	; () banked
  9123  004524  2165               	addwfc	(??_display_labels+1)& (0+255),w,b
  9124  004526  6E20               	movwf	wr16@addr+1,c
  9125  004528  0E10               	movlw	16
  9126  00452A  0100               	movlb	0	; () banked
  9127  00452C  2166               	addwfc	(??_display_labels+2)& (0+255),w,b
  9128  00452E  6E21               	movwf	wr16@addr+2,c
  9129  004530  0E00               	movlw	0
  9130  004532  6E23               	movwf	wr16@value+1,c
  9131  004534  0E00               	movlw	0
  9132  004536  6E22               	movwf	wr16@value,c
  9133  004538  EC31  F03A         	call	_wr16	;wreg free
  9134  00453C  0E02               	movlw	2
  9135  00453E  ECA2  F03A         	call	_cmd_incrementn
  9136  004542  C03E  F064         	movff	_cmd_offset,??_display_labels
  9137  004546  C03F  F065         	movff	_cmd_offset+1,??_display_labels+1
  9138  00454A  0100               	movlb	0	; () banked
  9139  00454C  6B66               	clrf	(??_display_labels+2)& (0+255),b
  9140  00454E  0E00               	movlw	0
  9141  004550  0100               	movlb	0	; () banked
  9142  004552  2564               	addwf	??_display_labels& (0+255),w,b
  9143  004554  6E24               	movwf	wr8s@addr,c
  9144  004556  0E80               	movlw	128
  9145  004558  0100               	movlb	0	; () banked
  9146  00455A  2165               	addwfc	(??_display_labels+1)& (0+255),w,b
  9147  00455C  6E25               	movwf	wr8s@addr+1,c
  9148  00455E  0E10               	movlw	16
  9149  004560  0100               	movlb	0	; () banked
  9150  004562  2166               	addwfc	(??_display_labels+2)& (0+255),w,b
  9151  004564  6E26               	movwf	wr8s@addr+2,c
  9152  004566  0E33               	movlw	low STR_6
  9153  004568  6E27               	movwf	wr8s@s,c
  9154  00456A  0E0F               	movlw	high STR_6
  9155  00456C  6E28               	movwf	wr8s@s+1,c
  9156  00456E  EC04  F038         	call	_wr8s	;wreg free
  9157  004572  ECA2  F03A         	call	_cmd_incrementn
  9158                           
  9159                           ;display.c: 42: cmd(4294967052UL);wr16(1081344UL+cmd_offset, 5);cmd_incrementn(2);wr16(1
      +                          081344UL+cmd_offset, y_start += 15);cmd_incrementn(2);wr16(1081344UL+cmd_offset, 26);cmd
      +                          _incrementn(2);wr16(1081344UL+cmd_offset, 0);cmd_incrementn(2);cmd_incrementn(wr8s(10813
      +                          44
  9160  004576  0E0C               	movlw	12
  9161  004578  0100               	movlb	0	; () banked
  9162  00457A  6F60               	movwf	cmd@command& (0+255),b
  9163  00457C  0EFF               	movlw	255
  9164  00457E  6F61               	movwf	(cmd@command+1)& (0+255),b
  9165  004580  0EFF               	movlw	255
  9166  004582  6F62               	movwf	(cmd@command+2)& (0+255),b
  9167  004584  0EFF               	movlw	255
  9168  004586  6F63               	movwf	(cmd@command+3)& (0+255),b
  9169  004588  EC4F  F03A         	call	_cmd	;wreg free
  9170  00458C  C03E  F064         	movff	_cmd_offset,??_display_labels
  9171  004590  C03F  F065         	movff	_cmd_offset+1,??_display_labels+1
  9172  004594  0100               	movlb	0	; () banked
  9173  004596  6B66               	clrf	(??_display_labels+2)& (0+255),b
  9174  004598  0E00               	movlw	0
  9175  00459A  0100               	movlb	0	; () banked
  9176  00459C  2564               	addwf	??_display_labels& (0+255),w,b
  9177  00459E  6E1F               	movwf	wr16@addr,c
  9178  0045A0  0E80               	movlw	128
  9179  0045A2  0100               	movlb	0	; () banked
  9180  0045A4  2165               	addwfc	(??_display_labels+1)& (0+255),w,b
  9181  0045A6  6E20               	movwf	wr16@addr+1,c
  9182  0045A8  0E10               	movlw	16
  9183  0045AA  0100               	movlb	0	; () banked
  9184  0045AC  2166               	addwfc	(??_display_labels+2)& (0+255),w,b
  9185  0045AE  6E21               	movwf	wr16@addr+2,c
  9186  0045B0  0E00               	movlw	0
  9187  0045B2  6E23               	movwf	wr16@value+1,c
  9188  0045B4  0E05               	movlw	5
  9189  0045B6  6E22               	movwf	wr16@value,c
  9190  0045B8  EC31  F03A         	call	_wr16	;wreg free
  9191  0045BC  0E02               	movlw	2
  9192  0045BE  ECA2  F03A         	call	_cmd_incrementn
  9193  0045C2  C03E  F064         	movff	_cmd_offset,??_display_labels
  9194  0045C6  C03F  F065         	movff	_cmd_offset+1,??_display_labels+1
  9195  0045CA  0100               	movlb	0	; () banked
  9196  0045CC  6B66               	clrf	(??_display_labels+2)& (0+255),b
  9197  0045CE  0E00               	movlw	0
  9198  0045D0  0100               	movlb	0	; () banked
  9199  0045D2  2564               	addwf	??_display_labels& (0+255),w,b
  9200  0045D4  6E1F               	movwf	wr16@addr,c
  9201  0045D6  0E80               	movlw	128
  9202  0045D8  0100               	movlb	0	; () banked
  9203  0045DA  2165               	addwfc	(??_display_labels+1)& (0+255),w,b
  9204  0045DC  6E20               	movwf	wr16@addr+1,c
  9205  0045DE  0E10               	movlw	16
  9206  0045E0  0100               	movlb	0	; () banked
  9207  0045E2  2166               	addwfc	(??_display_labels+2)& (0+255),w,b
  9208  0045E4  6E21               	movwf	wr16@addr+2,c
  9209  0045E6  0E0F               	movlw	15
  9210  0045E8  0100               	movlb	0	; () banked
  9211  0045EA  2767               	addwf	display_labels@y_start& (0+255),f,b
  9212  0045EC  0E00               	movlw	0
  9213  0045EE  2368               	addwfc	(display_labels@y_start+1)& (0+255),f,b
  9214  0045F0  C067  F022         	movff	display_labels@y_start,wr16@value
  9215  0045F4  C068  F023         	movff	display_labels@y_start+1,wr16@value+1
  9216  0045F8  EC31  F03A         	call	_wr16	;wreg free
  9217  0045FC  0E02               	movlw	2
  9218  0045FE  ECA2  F03A         	call	_cmd_incrementn
  9219  004602  C03E  F064         	movff	_cmd_offset,??_display_labels
  9220  004606  C03F  F065         	movff	_cmd_offset+1,??_display_labels+1
  9221  00460A  0100               	movlb	0	; () banked
  9222  00460C  6B66               	clrf	(??_display_labels+2)& (0+255),b
  9223  00460E  0E00               	movlw	0
  9224  004610  0100               	movlb	0	; () banked
  9225  004612  2564               	addwf	??_display_labels& (0+255),w,b
  9226  004614  6E1F               	movwf	wr16@addr,c
  9227  004616  0E80               	movlw	128
  9228  004618  0100               	movlb	0	; () banked
  9229  00461A  2165               	addwfc	(??_display_labels+1)& (0+255),w,b
  9230  00461C  6E20               	movwf	wr16@addr+1,c
  9231  00461E  0E10               	movlw	16
  9232  004620  0100               	movlb	0	; () banked
  9233  004622  2166               	addwfc	(??_display_labels+2)& (0+255),w,b
  9234  004624  6E21               	movwf	wr16@addr+2,c
  9235  004626  0E00               	movlw	0
  9236  004628  6E23               	movwf	wr16@value+1,c
  9237  00462A  0E1A               	movlw	26
  9238  00462C  6E22               	movwf	wr16@value,c
  9239  00462E  EC31  F03A         	call	_wr16	;wreg free
  9240  004632  0E02               	movlw	2
  9241  004634  ECA2  F03A         	call	_cmd_incrementn
  9242  004638  C03E  F064         	movff	_cmd_offset,??_display_labels
  9243  00463C  C03F  F065         	movff	_cmd_offset+1,??_display_labels+1
  9244  004640  0100               	movlb	0	; () banked
  9245  004642  6B66               	clrf	(??_display_labels+2)& (0+255),b
  9246  004644  0E00               	movlw	0
  9247  004646  0100               	movlb	0	; () banked
  9248  004648  2564               	addwf	??_display_labels& (0+255),w,b
  9249  00464A  6E1F               	movwf	wr16@addr,c
  9250  00464C  0E80               	movlw	128
  9251  00464E  0100               	movlb	0	; () banked
  9252  004650  2165               	addwfc	(??_display_labels+1)& (0+255),w,b
  9253  004652  6E20               	movwf	wr16@addr+1,c
  9254  004654  0E10               	movlw	16
  9255  004656  0100               	movlb	0	; () banked
  9256  004658  2166               	addwfc	(??_display_labels+2)& (0+255),w,b
  9257  00465A  6E21               	movwf	wr16@addr+2,c
  9258  00465C  0E00               	movlw	0
  9259  00465E  6E23               	movwf	wr16@value+1,c
  9260  004660  0E00               	movlw	0
  9261  004662  6E22               	movwf	wr16@value,c
  9262  004664  EC31  F03A         	call	_wr16	;wreg free
  9263  004668  0E02               	movlw	2
  9264  00466A  ECA2  F03A         	call	_cmd_incrementn
  9265  00466E  C03E  F064         	movff	_cmd_offset,??_display_labels
  9266  004672  C03F  F065         	movff	_cmd_offset+1,??_display_labels+1
  9267  004676  0100               	movlb	0	; () banked
  9268  004678  6B66               	clrf	(??_display_labels+2)& (0+255),b
  9269  00467A  0E00               	movlw	0
  9270  00467C  0100               	movlb	0	; () banked
  9271  00467E  2564               	addwf	??_display_labels& (0+255),w,b
  9272  004680  6E24               	movwf	wr8s@addr,c
  9273  004682  0E80               	movlw	128
  9274  004684  0100               	movlb	0	; () banked
  9275  004686  2165               	addwfc	(??_display_labels+1)& (0+255),w,b
  9276  004688  6E25               	movwf	wr8s@addr+1,c
  9277  00468A  0E10               	movlw	16
  9278  00468C  0100               	movlb	0	; () banked
  9279  00468E  2166               	addwfc	(??_display_labels+2)& (0+255),w,b
  9280  004690  6E26               	movwf	wr8s@addr+2,c
  9281  004692  0E2E               	movlw	low STR_7
  9282  004694  6E27               	movwf	wr8s@s,c
  9283  004696  0E0F               	movlw	high STR_7
  9284  004698  6E28               	movwf	wr8s@s+1,c
  9285  00469A  EC04  F038         	call	_wr8s	;wreg free
  9286  00469E  ECA2  F03A         	call	_cmd_incrementn
  9287                           
  9288                           ;display.c: 43: cmd(4294967052UL);wr16(1081344UL+cmd_offset, 5);cmd_incrementn(2);wr16(1
      +                          081344UL+cmd_offset, y_start += 25);cmd_incrementn(2);wr16(1081344UL+cmd_offset, 26);cmd
      +                          _incrementn(2);wr16(1081344UL+cmd_offset, 0);cmd_incrementn(2);cmd_incrementn(wr8s(10813
      +                          44
  9289  0046A2  0E0C               	movlw	12
  9290  0046A4  0100               	movlb	0	; () banked
  9291  0046A6  6F60               	movwf	cmd@command& (0+255),b
  9292  0046A8  0EFF               	movlw	255
  9293  0046AA  6F61               	movwf	(cmd@command+1)& (0+255),b
  9294  0046AC  0EFF               	movlw	255
  9295  0046AE  6F62               	movwf	(cmd@command+2)& (0+255),b
  9296  0046B0  0EFF               	movlw	255
  9297  0046B2  6F63               	movwf	(cmd@command+3)& (0+255),b
  9298  0046B4  EC4F  F03A         	call	_cmd	;wreg free
  9299  0046B8  C03E  F064         	movff	_cmd_offset,??_display_labels
  9300  0046BC  C03F  F065         	movff	_cmd_offset+1,??_display_labels+1
  9301  0046C0  0100               	movlb	0	; () banked
  9302  0046C2  6B66               	clrf	(??_display_labels+2)& (0+255),b
  9303  0046C4  0E00               	movlw	0
  9304  0046C6  0100               	movlb	0	; () banked
  9305  0046C8  2564               	addwf	??_display_labels& (0+255),w,b
  9306  0046CA  6E1F               	movwf	wr16@addr,c
  9307  0046CC  0E80               	movlw	128
  9308  0046CE  0100               	movlb	0	; () banked
  9309  0046D0  2165               	addwfc	(??_display_labels+1)& (0+255),w,b
  9310  0046D2  6E20               	movwf	wr16@addr+1,c
  9311  0046D4  0E10               	movlw	16
  9312  0046D6  0100               	movlb	0	; () banked
  9313  0046D8  2166               	addwfc	(??_display_labels+2)& (0+255),w,b
  9314  0046DA  6E21               	movwf	wr16@addr+2,c
  9315  0046DC  0E00               	movlw	0
  9316  0046DE  6E23               	movwf	wr16@value+1,c
  9317  0046E0  0E05               	movlw	5
  9318  0046E2  6E22               	movwf	wr16@value,c
  9319  0046E4  EC31  F03A         	call	_wr16	;wreg free
  9320  0046E8  0E02               	movlw	2
  9321  0046EA  ECA2  F03A         	call	_cmd_incrementn
  9322  0046EE  C03E  F064         	movff	_cmd_offset,??_display_labels
  9323  0046F2  C03F  F065         	movff	_cmd_offset+1,??_display_labels+1
  9324  0046F6  0100               	movlb	0	; () banked
  9325  0046F8  6B66               	clrf	(??_display_labels+2)& (0+255),b
  9326  0046FA  0E00               	movlw	0
  9327  0046FC  0100               	movlb	0	; () banked
  9328  0046FE  2564               	addwf	??_display_labels& (0+255),w,b
  9329  004700  6E1F               	movwf	wr16@addr,c
  9330  004702  0E80               	movlw	128
  9331  004704  0100               	movlb	0	; () banked
  9332  004706  2165               	addwfc	(??_display_labels+1)& (0+255),w,b
  9333  004708  6E20               	movwf	wr16@addr+1,c
  9334  00470A  0E10               	movlw	16
  9335  00470C  0100               	movlb	0	; () banked
  9336  00470E  2166               	addwfc	(??_display_labels+2)& (0+255),w,b
  9337  004710  6E21               	movwf	wr16@addr+2,c
  9338  004712  0E19               	movlw	25
  9339  004714  0100               	movlb	0	; () banked
  9340  004716  2767               	addwf	display_labels@y_start& (0+255),f,b
  9341  004718  0E00               	movlw	0
  9342  00471A  2368               	addwfc	(display_labels@y_start+1)& (0+255),f,b
  9343  00471C  C067  F022         	movff	display_labels@y_start,wr16@value
  9344  004720  C068  F023         	movff	display_labels@y_start+1,wr16@value+1
  9345  004724  EC31  F03A         	call	_wr16	;wreg free
  9346  004728  0E02               	movlw	2
  9347  00472A  ECA2  F03A         	call	_cmd_incrementn
  9348  00472E  C03E  F064         	movff	_cmd_offset,??_display_labels
  9349  004732  C03F  F065         	movff	_cmd_offset+1,??_display_labels+1
  9350  004736  0100               	movlb	0	; () banked
  9351  004738  6B66               	clrf	(??_display_labels+2)& (0+255),b
  9352  00473A  0E00               	movlw	0
  9353  00473C  0100               	movlb	0	; () banked
  9354  00473E  2564               	addwf	??_display_labels& (0+255),w,b
  9355  004740  6E1F               	movwf	wr16@addr,c
  9356  004742  0E80               	movlw	128
  9357  004744  0100               	movlb	0	; () banked
  9358  004746  2165               	addwfc	(??_display_labels+1)& (0+255),w,b
  9359  004748  6E20               	movwf	wr16@addr+1,c
  9360  00474A  0E10               	movlw	16
  9361  00474C  0100               	movlb	0	; () banked
  9362  00474E  2166               	addwfc	(??_display_labels+2)& (0+255),w,b
  9363  004750  6E21               	movwf	wr16@addr+2,c
  9364  004752  0E00               	movlw	0
  9365  004754  6E23               	movwf	wr16@value+1,c
  9366  004756  0E1A               	movlw	26
  9367  004758  6E22               	movwf	wr16@value,c
  9368  00475A  EC31  F03A         	call	_wr16	;wreg free
  9369  00475E  0E02               	movlw	2
  9370  004760  ECA2  F03A         	call	_cmd_incrementn
  9371  004764  C03E  F064         	movff	_cmd_offset,??_display_labels
  9372  004768  C03F  F065         	movff	_cmd_offset+1,??_display_labels+1
  9373  00476C  0100               	movlb	0	; () banked
  9374  00476E  6B66               	clrf	(??_display_labels+2)& (0+255),b
  9375  004770  0E00               	movlw	0
  9376  004772  0100               	movlb	0	; () banked
  9377  004774  2564               	addwf	??_display_labels& (0+255),w,b
  9378  004776  6E1F               	movwf	wr16@addr,c
  9379  004778  0E80               	movlw	128
  9380  00477A  0100               	movlb	0	; () banked
  9381  00477C  2165               	addwfc	(??_display_labels+1)& (0+255),w,b
  9382  00477E  6E20               	movwf	wr16@addr+1,c
  9383  004780  0E10               	movlw	16
  9384  004782  0100               	movlb	0	; () banked
  9385  004784  2166               	addwfc	(??_display_labels+2)& (0+255),w,b
  9386  004786  6E21               	movwf	wr16@addr+2,c
  9387  004788  0E00               	movlw	0
  9388  00478A  6E23               	movwf	wr16@value+1,c
  9389  00478C  0E00               	movlw	0
  9390  00478E  6E22               	movwf	wr16@value,c
  9391  004790  EC31  F03A         	call	_wr16	;wreg free
  9392  004794  0E02               	movlw	2
  9393  004796  ECA2  F03A         	call	_cmd_incrementn
  9394  00479A  C03E  F064         	movff	_cmd_offset,??_display_labels
  9395  00479E  C03F  F065         	movff	_cmd_offset+1,??_display_labels+1
  9396  0047A2  0100               	movlb	0	; () banked
  9397  0047A4  6B66               	clrf	(??_display_labels+2)& (0+255),b
  9398  0047A6  0E00               	movlw	0
  9399  0047A8  0100               	movlb	0	; () banked
  9400  0047AA  2564               	addwf	??_display_labels& (0+255),w,b
  9401  0047AC  6E24               	movwf	wr8s@addr,c
  9402  0047AE  0E80               	movlw	128
  9403  0047B0  0100               	movlb	0	; () banked
  9404  0047B2  2165               	addwfc	(??_display_labels+1)& (0+255),w,b
  9405  0047B4  6E25               	movwf	wr8s@addr+1,c
  9406  0047B6  0E10               	movlw	16
  9407  0047B8  0100               	movlb	0	; () banked
  9408  0047BA  2166               	addwfc	(??_display_labels+2)& (0+255),w,b
  9409  0047BC  6E26               	movwf	wr8s@addr+2,c
  9410  0047BE  0E47               	movlw	low STR_8
  9411  0047C0  6E27               	movwf	wr8s@s,c
  9412  0047C2  0E0F               	movlw	high STR_8
  9413  0047C4  6E28               	movwf	wr8s@s+1,c
  9414  0047C6  EC04  F038         	call	_wr8s	;wreg free
  9415  0047CA  ECA2  F03A         	call	_cmd_incrementn
  9416                           
  9417                           ;display.c: 44: cmd(4294967052UL);wr16(1081344UL+cmd_offset, 5);cmd_incrementn(2);wr16(1
      +                          081344UL+cmd_offset, y_start += 15);cmd_incrementn(2);wr16(1081344UL+cmd_offset, 26);cmd
      +                          _incrementn(2);wr16(1081344UL+cmd_offset, 0);cmd_incrementn(2);cmd_incrementn(wr8s(10813
      +                          44
  9418  0047CE  0E0C               	movlw	12
  9419  0047D0  0100               	movlb	0	; () banked
  9420  0047D2  6F60               	movwf	cmd@command& (0+255),b
  9421  0047D4  0EFF               	movlw	255
  9422  0047D6  6F61               	movwf	(cmd@command+1)& (0+255),b
  9423  0047D8  0EFF               	movlw	255
  9424  0047DA  6F62               	movwf	(cmd@command+2)& (0+255),b
  9425  0047DC  0EFF               	movlw	255
  9426  0047DE  6F63               	movwf	(cmd@command+3)& (0+255),b
  9427  0047E0  EC4F  F03A         	call	_cmd	;wreg free
  9428  0047E4  C03E  F064         	movff	_cmd_offset,??_display_labels
  9429  0047E8  C03F  F065         	movff	_cmd_offset+1,??_display_labels+1
  9430  0047EC  0100               	movlb	0	; () banked
  9431  0047EE  6B66               	clrf	(??_display_labels+2)& (0+255),b
  9432  0047F0  0E00               	movlw	0
  9433  0047F2  0100               	movlb	0	; () banked
  9434  0047F4  2564               	addwf	??_display_labels& (0+255),w,b
  9435  0047F6  6E1F               	movwf	wr16@addr,c
  9436  0047F8  0E80               	movlw	128
  9437  0047FA  0100               	movlb	0	; () banked
  9438  0047FC  2165               	addwfc	(??_display_labels+1)& (0+255),w,b
  9439  0047FE  6E20               	movwf	wr16@addr+1,c
  9440  004800  0E10               	movlw	16
  9441  004802  0100               	movlb	0	; () banked
  9442  004804  2166               	addwfc	(??_display_labels+2)& (0+255),w,b
  9443  004806  6E21               	movwf	wr16@addr+2,c
  9444  004808  0E00               	movlw	0
  9445  00480A  6E23               	movwf	wr16@value+1,c
  9446  00480C  0E05               	movlw	5
  9447  00480E  6E22               	movwf	wr16@value,c
  9448  004810  EC31  F03A         	call	_wr16	;wreg free
  9449  004814  0E02               	movlw	2
  9450  004816  ECA2  F03A         	call	_cmd_incrementn
  9451  00481A  C03E  F064         	movff	_cmd_offset,??_display_labels
  9452  00481E  C03F  F065         	movff	_cmd_offset+1,??_display_labels+1
  9453  004822  0100               	movlb	0	; () banked
  9454  004824  6B66               	clrf	(??_display_labels+2)& (0+255),b
  9455  004826  0E00               	movlw	0
  9456  004828  0100               	movlb	0	; () banked
  9457  00482A  2564               	addwf	??_display_labels& (0+255),w,b
  9458  00482C  6E1F               	movwf	wr16@addr,c
  9459  00482E  0E80               	movlw	128
  9460  004830  0100               	movlb	0	; () banked
  9461  004832  2165               	addwfc	(??_display_labels+1)& (0+255),w,b
  9462  004834  6E20               	movwf	wr16@addr+1,c
  9463  004836  0E10               	movlw	16
  9464  004838  0100               	movlb	0	; () banked
  9465  00483A  2166               	addwfc	(??_display_labels+2)& (0+255),w,b
  9466  00483C  6E21               	movwf	wr16@addr+2,c
  9467  00483E  0E0F               	movlw	15
  9468  004840  0100               	movlb	0	; () banked
  9469  004842  2767               	addwf	display_labels@y_start& (0+255),f,b
  9470  004844  0E00               	movlw	0
  9471  004846  2368               	addwfc	(display_labels@y_start+1)& (0+255),f,b
  9472  004848  C067  F022         	movff	display_labels@y_start,wr16@value
  9473  00484C  C068  F023         	movff	display_labels@y_start+1,wr16@value+1
  9474  004850  EC31  F03A         	call	_wr16	;wreg free
  9475  004854  0E02               	movlw	2
  9476  004856  ECA2  F03A         	call	_cmd_incrementn
  9477  00485A  C03E  F064         	movff	_cmd_offset,??_display_labels
  9478  00485E  C03F  F065         	movff	_cmd_offset+1,??_display_labels+1
  9479  004862  0100               	movlb	0	; () banked
  9480  004864  6B66               	clrf	(??_display_labels+2)& (0+255),b
  9481  004866  0E00               	movlw	0
  9482  004868  0100               	movlb	0	; () banked
  9483  00486A  2564               	addwf	??_display_labels& (0+255),w,b
  9484  00486C  6E1F               	movwf	wr16@addr,c
  9485  00486E  0E80               	movlw	128
  9486  004870  0100               	movlb	0	; () banked
  9487  004872  2165               	addwfc	(??_display_labels+1)& (0+255),w,b
  9488  004874  6E20               	movwf	wr16@addr+1,c
  9489  004876  0E10               	movlw	16
  9490  004878  0100               	movlb	0	; () banked
  9491  00487A  2166               	addwfc	(??_display_labels+2)& (0+255),w,b
  9492  00487C  6E21               	movwf	wr16@addr+2,c
  9493  00487E  0E00               	movlw	0
  9494  004880  6E23               	movwf	wr16@value+1,c
  9495  004882  0E1A               	movlw	26
  9496  004884  6E22               	movwf	wr16@value,c
  9497  004886  EC31  F03A         	call	_wr16	;wreg free
  9498  00488A  0E02               	movlw	2
  9499  00488C  ECA2  F03A         	call	_cmd_incrementn
  9500  004890  C03E  F064         	movff	_cmd_offset,??_display_labels
  9501  004894  C03F  F065         	movff	_cmd_offset+1,??_display_labels+1
  9502  004898  0100               	movlb	0	; () banked
  9503  00489A  6B66               	clrf	(??_display_labels+2)& (0+255),b
  9504  00489C  0E00               	movlw	0
  9505  00489E  0100               	movlb	0	; () banked
  9506  0048A0  2564               	addwf	??_display_labels& (0+255),w,b
  9507  0048A2  6E1F               	movwf	wr16@addr,c
  9508  0048A4  0E80               	movlw	128
  9509  0048A6  0100               	movlb	0	; () banked
  9510  0048A8  2165               	addwfc	(??_display_labels+1)& (0+255),w,b
  9511  0048AA  6E20               	movwf	wr16@addr+1,c
  9512  0048AC  0E10               	movlw	16
  9513  0048AE  0100               	movlb	0	; () banked
  9514  0048B0  2166               	addwfc	(??_display_labels+2)& (0+255),w,b
  9515  0048B2  6E21               	movwf	wr16@addr+2,c
  9516  0048B4  0E00               	movlw	0
  9517  0048B6  6E23               	movwf	wr16@value+1,c
  9518  0048B8  0E00               	movlw	0
  9519  0048BA  6E22               	movwf	wr16@value,c
  9520  0048BC  EC31  F03A         	call	_wr16	;wreg free
  9521  0048C0  0E02               	movlw	2
  9522  0048C2  ECA2  F03A         	call	_cmd_incrementn
  9523  0048C6  C03E  F064         	movff	_cmd_offset,??_display_labels
  9524  0048CA  C03F  F065         	movff	_cmd_offset+1,??_display_labels+1
  9525  0048CE  0100               	movlb	0	; () banked
  9526  0048D0  6B66               	clrf	(??_display_labels+2)& (0+255),b
  9527  0048D2  0E00               	movlw	0
  9528  0048D4  0100               	movlb	0	; () banked
  9529  0048D6  2564               	addwf	??_display_labels& (0+255),w,b
  9530  0048D8  6E24               	movwf	wr8s@addr,c
  9531  0048DA  0E80               	movlw	128
  9532  0048DC  0100               	movlb	0	; () banked
  9533  0048DE  2165               	addwfc	(??_display_labels+1)& (0+255),w,b
  9534  0048E0  6E25               	movwf	wr8s@addr+1,c
  9535  0048E2  0E10               	movlw	16
  9536  0048E4  0100               	movlb	0	; () banked
  9537  0048E6  2166               	addwfc	(??_display_labels+2)& (0+255),w,b
  9538  0048E8  6E26               	movwf	wr8s@addr+2,c
  9539  0048EA  0E22               	movlw	low STR_9
  9540  0048EC  6E27               	movwf	wr8s@s,c
  9541  0048EE  0E0F               	movlw	high STR_9
  9542  0048F0  6E28               	movwf	wr8s@s+1,c
  9543  0048F2  EC04  F038         	call	_wr8s	;wreg free
  9544  0048F6  ECA2  F03A         	call	_cmd_incrementn
  9545                           
  9546                           ;display.c: 45: cmd(4294967052UL);wr16(1081344UL+cmd_offset, 5);cmd_incrementn(2);wr16(1
      +                          081344UL+cmd_offset, y_start += 25);cmd_incrementn(2);wr16(1081344UL+cmd_offset, 26);cmd
      +                          _incrementn(2);wr16(1081344UL+cmd_offset, 0);cmd_incrementn(2);cmd_incrementn(wr8s(10813
      +                          44
  9547  0048FA  0E0C               	movlw	12
  9548  0048FC  0100               	movlb	0	; () banked
  9549  0048FE  6F60               	movwf	cmd@command& (0+255),b
  9550  004900  0EFF               	movlw	255
  9551  004902  6F61               	movwf	(cmd@command+1)& (0+255),b
  9552  004904  0EFF               	movlw	255
  9553  004906  6F62               	movwf	(cmd@command+2)& (0+255),b
  9554  004908  0EFF               	movlw	255
  9555  00490A  6F63               	movwf	(cmd@command+3)& (0+255),b
  9556  00490C  EC4F  F03A         	call	_cmd	;wreg free
  9557  004910  C03E  F064         	movff	_cmd_offset,??_display_labels
  9558  004914  C03F  F065         	movff	_cmd_offset+1,??_display_labels+1
  9559  004918  0100               	movlb	0	; () banked
  9560  00491A  6B66               	clrf	(??_display_labels+2)& (0+255),b
  9561  00491C  0E00               	movlw	0
  9562  00491E  0100               	movlb	0	; () banked
  9563  004920  2564               	addwf	??_display_labels& (0+255),w,b
  9564  004922  6E1F               	movwf	wr16@addr,c
  9565  004924  0E80               	movlw	128
  9566  004926  0100               	movlb	0	; () banked
  9567  004928  2165               	addwfc	(??_display_labels+1)& (0+255),w,b
  9568  00492A  6E20               	movwf	wr16@addr+1,c
  9569  00492C  0E10               	movlw	16
  9570  00492E  0100               	movlb	0	; () banked
  9571  004930  2166               	addwfc	(??_display_labels+2)& (0+255),w,b
  9572  004932  6E21               	movwf	wr16@addr+2,c
  9573  004934  0E00               	movlw	0
  9574  004936  6E23               	movwf	wr16@value+1,c
  9575  004938  0E05               	movlw	5
  9576  00493A  6E22               	movwf	wr16@value,c
  9577  00493C  EC31  F03A         	call	_wr16	;wreg free
  9578  004940  0E02               	movlw	2
  9579  004942  ECA2  F03A         	call	_cmd_incrementn
  9580  004946  C03E  F064         	movff	_cmd_offset,??_display_labels
  9581  00494A  C03F  F065         	movff	_cmd_offset+1,??_display_labels+1
  9582  00494E  0100               	movlb	0	; () banked
  9583  004950  6B66               	clrf	(??_display_labels+2)& (0+255),b
  9584  004952  0E00               	movlw	0
  9585  004954  0100               	movlb	0	; () banked
  9586  004956  2564               	addwf	??_display_labels& (0+255),w,b
  9587  004958  6E1F               	movwf	wr16@addr,c
  9588  00495A  0E80               	movlw	128
  9589  00495C  0100               	movlb	0	; () banked
  9590  00495E  2165               	addwfc	(??_display_labels+1)& (0+255),w,b
  9591  004960  6E20               	movwf	wr16@addr+1,c
  9592  004962  0E10               	movlw	16
  9593  004964  0100               	movlb	0	; () banked
  9594  004966  2166               	addwfc	(??_display_labels+2)& (0+255),w,b
  9595  004968  6E21               	movwf	wr16@addr+2,c
  9596  00496A  0E19               	movlw	25
  9597  00496C  0100               	movlb	0	; () banked
  9598  00496E  2767               	addwf	display_labels@y_start& (0+255),f,b
  9599  004970  0E00               	movlw	0
  9600  004972  2368               	addwfc	(display_labels@y_start+1)& (0+255),f,b
  9601  004974  C067  F022         	movff	display_labels@y_start,wr16@value
  9602  004978  C068  F023         	movff	display_labels@y_start+1,wr16@value+1
  9603  00497C  EC31  F03A         	call	_wr16	;wreg free
  9604  004980  0E02               	movlw	2
  9605  004982  ECA2  F03A         	call	_cmd_incrementn
  9606  004986  C03E  F064         	movff	_cmd_offset,??_display_labels
  9607  00498A  C03F  F065         	movff	_cmd_offset+1,??_display_labels+1
  9608  00498E  0100               	movlb	0	; () banked
  9609  004990  6B66               	clrf	(??_display_labels+2)& (0+255),b
  9610  004992  0E00               	movlw	0
  9611  004994  0100               	movlb	0	; () banked
  9612  004996  2564               	addwf	??_display_labels& (0+255),w,b
  9613  004998  6E1F               	movwf	wr16@addr,c
  9614  00499A  0E80               	movlw	128
  9615  00499C  0100               	movlb	0	; () banked
  9616  00499E  2165               	addwfc	(??_display_labels+1)& (0+255),w,b
  9617  0049A0  6E20               	movwf	wr16@addr+1,c
  9618  0049A2  0E10               	movlw	16
  9619  0049A4  0100               	movlb	0	; () banked
  9620  0049A6  2166               	addwfc	(??_display_labels+2)& (0+255),w,b
  9621  0049A8  6E21               	movwf	wr16@addr+2,c
  9622  0049AA  0E00               	movlw	0
  9623  0049AC  6E23               	movwf	wr16@value+1,c
  9624  0049AE  0E1A               	movlw	26
  9625  0049B0  6E22               	movwf	wr16@value,c
  9626  0049B2  EC31  F03A         	call	_wr16	;wreg free
  9627  0049B6  0E02               	movlw	2
  9628  0049B8  ECA2  F03A         	call	_cmd_incrementn
  9629  0049BC  C03E  F064         	movff	_cmd_offset,??_display_labels
  9630  0049C0  C03F  F065         	movff	_cmd_offset+1,??_display_labels+1
  9631  0049C4  0100               	movlb	0	; () banked
  9632  0049C6  6B66               	clrf	(??_display_labels+2)& (0+255),b
  9633  0049C8  0E00               	movlw	0
  9634  0049CA  0100               	movlb	0	; () banked
  9635  0049CC  2564               	addwf	??_display_labels& (0+255),w,b
  9636  0049CE  6E1F               	movwf	wr16@addr,c
  9637  0049D0  0E80               	movlw	128
  9638  0049D2  0100               	movlb	0	; () banked
  9639  0049D4  2165               	addwfc	(??_display_labels+1)& (0+255),w,b
  9640  0049D6  6E20               	movwf	wr16@addr+1,c
  9641  0049D8  0E10               	movlw	16
  9642  0049DA  0100               	movlb	0	; () banked
  9643  0049DC  2166               	addwfc	(??_display_labels+2)& (0+255),w,b
  9644  0049DE  6E21               	movwf	wr16@addr+2,c
  9645  0049E0  0E00               	movlw	0
  9646  0049E2  6E23               	movwf	wr16@value+1,c
  9647  0049E4  0E00               	movlw	0
  9648  0049E6  6E22               	movwf	wr16@value,c
  9649  0049E8  EC31  F03A         	call	_wr16	;wreg free
  9650  0049EC  0E02               	movlw	2
  9651  0049EE  ECA2  F03A         	call	_cmd_incrementn
  9652  0049F2  C03E  F064         	movff	_cmd_offset,??_display_labels
  9653  0049F6  C03F  F065         	movff	_cmd_offset+1,??_display_labels+1
  9654  0049FA  0100               	movlb	0	; () banked
  9655  0049FC  6B66               	clrf	(??_display_labels+2)& (0+255),b
  9656  0049FE  0E00               	movlw	0
  9657  004A00  0100               	movlb	0	; () banked
  9658  004A02  2564               	addwf	??_display_labels& (0+255),w,b
  9659  004A04  6E24               	movwf	wr8s@addr,c
  9660  004A06  0E80               	movlw	128
  9661  004A08  0100               	movlb	0	; () banked
  9662  004A0A  2165               	addwfc	(??_display_labels+1)& (0+255),w,b
  9663  004A0C  6E25               	movwf	wr8s@addr+1,c
  9664  004A0E  0E10               	movlw	16
  9665  004A10  0100               	movlb	0	; () banked
  9666  004A12  2166               	addwfc	(??_display_labels+2)& (0+255),w,b
  9667  004A14  6E26               	movwf	wr8s@addr+2,c
  9668  004A16  0E50               	movlw	low STR_4
  9669  004A18  6E27               	movwf	wr8s@s,c
  9670  004A1A  0E0F               	movlw	high STR_4
  9671  004A1C  6E28               	movwf	wr8s@s+1,c
  9672  004A1E  EC04  F038         	call	_wr8s	;wreg free
  9673  004A22  ECA2  F03A         	call	_cmd_incrementn
  9674                           
  9675                           ;display.c: 46: cmd(4294967052UL);wr16(1081344UL+cmd_offset, 5);cmd_incrementn(2);wr16(1
      +                          081344UL+cmd_offset, y_start += 15);cmd_incrementn(2);wr16(1081344UL+cmd_offset, 26);cmd
      +                          _incrementn(2);wr16(1081344UL+cmd_offset, 0);cmd_incrementn(2);cmd_incrementn(wr8s(10813
      +                          44
  9676  004A26  0E0C               	movlw	12
  9677  004A28  0100               	movlb	0	; () banked
  9678  004A2A  6F60               	movwf	cmd@command& (0+255),b
  9679  004A2C  0EFF               	movlw	255
  9680  004A2E  6F61               	movwf	(cmd@command+1)& (0+255),b
  9681  004A30  0EFF               	movlw	255
  9682  004A32  6F62               	movwf	(cmd@command+2)& (0+255),b
  9683  004A34  0EFF               	movlw	255
  9684  004A36  6F63               	movwf	(cmd@command+3)& (0+255),b
  9685  004A38  EC4F  F03A         	call	_cmd	;wreg free
  9686  004A3C  C03E  F064         	movff	_cmd_offset,??_display_labels
  9687  004A40  C03F  F065         	movff	_cmd_offset+1,??_display_labels+1
  9688  004A44  0100               	movlb	0	; () banked
  9689  004A46  6B66               	clrf	(??_display_labels+2)& (0+255),b
  9690  004A48  0E00               	movlw	0
  9691  004A4A  0100               	movlb	0	; () banked
  9692  004A4C  2564               	addwf	??_display_labels& (0+255),w,b
  9693  004A4E  6E1F               	movwf	wr16@addr,c
  9694  004A50  0E80               	movlw	128
  9695  004A52  0100               	movlb	0	; () banked
  9696  004A54  2165               	addwfc	(??_display_labels+1)& (0+255),w,b
  9697  004A56  6E20               	movwf	wr16@addr+1,c
  9698  004A58  0E10               	movlw	16
  9699  004A5A  0100               	movlb	0	; () banked
  9700  004A5C  2166               	addwfc	(??_display_labels+2)& (0+255),w,b
  9701  004A5E  6E21               	movwf	wr16@addr+2,c
  9702  004A60  0E00               	movlw	0
  9703  004A62  6E23               	movwf	wr16@value+1,c
  9704  004A64  0E05               	movlw	5
  9705  004A66  6E22               	movwf	wr16@value,c
  9706  004A68  EC31  F03A         	call	_wr16	;wreg free
  9707  004A6C  0E02               	movlw	2
  9708  004A6E  ECA2  F03A         	call	_cmd_incrementn
  9709  004A72  C03E  F064         	movff	_cmd_offset,??_display_labels
  9710  004A76  C03F  F065         	movff	_cmd_offset+1,??_display_labels+1
  9711  004A7A  0100               	movlb	0	; () banked
  9712  004A7C  6B66               	clrf	(??_display_labels+2)& (0+255),b
  9713  004A7E  0E00               	movlw	0
  9714  004A80  0100               	movlb	0	; () banked
  9715  004A82  2564               	addwf	??_display_labels& (0+255),w,b
  9716  004A84  6E1F               	movwf	wr16@addr,c
  9717  004A86  0E80               	movlw	128
  9718  004A88  0100               	movlb	0	; () banked
  9719  004A8A  2165               	addwfc	(??_display_labels+1)& (0+255),w,b
  9720  004A8C  6E20               	movwf	wr16@addr+1,c
  9721  004A8E  0E10               	movlw	16
  9722  004A90  0100               	movlb	0	; () banked
  9723  004A92  2166               	addwfc	(??_display_labels+2)& (0+255),w,b
  9724  004A94  6E21               	movwf	wr16@addr+2,c
  9725  004A96  0E0F               	movlw	15
  9726  004A98  0100               	movlb	0	; () banked
  9727  004A9A  2767               	addwf	display_labels@y_start& (0+255),f,b
  9728  004A9C  0E00               	movlw	0
  9729  004A9E  2368               	addwfc	(display_labels@y_start+1)& (0+255),f,b
  9730  004AA0  C067  F022         	movff	display_labels@y_start,wr16@value
  9731  004AA4  C068  F023         	movff	display_labels@y_start+1,wr16@value+1
  9732  004AA8  EC31  F03A         	call	_wr16	;wreg free
  9733  004AAC  0E02               	movlw	2
  9734  004AAE  ECA2  F03A         	call	_cmd_incrementn
  9735  004AB2  C03E  F064         	movff	_cmd_offset,??_display_labels
  9736  004AB6  C03F  F065         	movff	_cmd_offset+1,??_display_labels+1
  9737  004ABA  0100               	movlb	0	; () banked
  9738  004ABC  6B66               	clrf	(??_display_labels+2)& (0+255),b
  9739  004ABE  0E00               	movlw	0
  9740  004AC0  0100               	movlb	0	; () banked
  9741  004AC2  2564               	addwf	??_display_labels& (0+255),w,b
  9742  004AC4  6E1F               	movwf	wr16@addr,c
  9743  004AC6  0E80               	movlw	128
  9744  004AC8  0100               	movlb	0	; () banked
  9745  004ACA  2165               	addwfc	(??_display_labels+1)& (0+255),w,b
  9746  004ACC  6E20               	movwf	wr16@addr+1,c
  9747  004ACE  0E10               	movlw	16
  9748  004AD0  0100               	movlb	0	; () banked
  9749  004AD2  2166               	addwfc	(??_display_labels+2)& (0+255),w,b
  9750  004AD4  6E21               	movwf	wr16@addr+2,c
  9751  004AD6  0E00               	movlw	0
  9752  004AD8  6E23               	movwf	wr16@value+1,c
  9753  004ADA  0E1A               	movlw	26
  9754  004ADC  6E22               	movwf	wr16@value,c
  9755  004ADE  EC31  F03A         	call	_wr16	;wreg free
  9756  004AE2  0E02               	movlw	2
  9757  004AE4  ECA2  F03A         	call	_cmd_incrementn
  9758  004AE8  C03E  F064         	movff	_cmd_offset,??_display_labels
  9759  004AEC  C03F  F065         	movff	_cmd_offset+1,??_display_labels+1
  9760  004AF0  0100               	movlb	0	; () banked
  9761  004AF2  6B66               	clrf	(??_display_labels+2)& (0+255),b
  9762  004AF4  0E00               	movlw	0
  9763  004AF6  0100               	movlb	0	; () banked
  9764  004AF8  2564               	addwf	??_display_labels& (0+255),w,b
  9765  004AFA  6E1F               	movwf	wr16@addr,c
  9766  004AFC  0E80               	movlw	128
  9767  004AFE  0100               	movlb	0	; () banked
  9768  004B00  2165               	addwfc	(??_display_labels+1)& (0+255),w,b
  9769  004B02  6E20               	movwf	wr16@addr+1,c
  9770  004B04  0E10               	movlw	16
  9771  004B06  0100               	movlb	0	; () banked
  9772  004B08  2166               	addwfc	(??_display_labels+2)& (0+255),w,b
  9773  004B0A  6E21               	movwf	wr16@addr+2,c
  9774  004B0C  0E00               	movlw	0
  9775  004B0E  6E23               	movwf	wr16@value+1,c
  9776  004B10  0E00               	movlw	0
  9777  004B12  6E22               	movwf	wr16@value,c
  9778  004B14  EC31  F03A         	call	_wr16	;wreg free
  9779  004B18  0E02               	movlw	2
  9780  004B1A  ECA2  F03A         	call	_cmd_incrementn
  9781  004B1E  C03E  F064         	movff	_cmd_offset,??_display_labels
  9782  004B22  C03F  F065         	movff	_cmd_offset+1,??_display_labels+1
  9783  004B26  0100               	movlb	0	; () banked
  9784  004B28  6B66               	clrf	(??_display_labels+2)& (0+255),b
  9785  004B2A  0E00               	movlw	0
  9786  004B2C  0100               	movlb	0	; () banked
  9787  004B2E  2564               	addwf	??_display_labels& (0+255),w,b
  9788  004B30  6E24               	movwf	wr8s@addr,c
  9789  004B32  0E80               	movlw	128
  9790  004B34  0100               	movlb	0	; () banked
  9791  004B36  2165               	addwfc	(??_display_labels+1)& (0+255),w,b
  9792  004B38  6E25               	movwf	wr8s@addr+1,c
  9793  004B3A  0E10               	movlw	16
  9794  004B3C  0100               	movlb	0	; () banked
  9795  004B3E  2166               	addwfc	(??_display_labels+2)& (0+255),w,b
  9796  004B40  6E26               	movwf	wr8s@addr+2,c
  9797  004B42  0E1C               	movlw	low STR_11
  9798  004B44  6E27               	movwf	wr8s@s,c
  9799  004B46  0E0F               	movlw	high STR_11
  9800  004B48  6E28               	movwf	wr8s@s+1,c
  9801  004B4A  EC04  F038         	call	_wr8s	;wreg free
  9802  004B4E  ECA2  F03A         	call	_cmd_incrementn
  9803                           
  9804                           ;display.c: 47: cmd(4294967052UL);wr16(1081344UL+cmd_offset, 360);cmd_incrementn(2);wr16
      +                          (1081344UL+cmd_offset, 130);cmd_incrementn(2);wr16(1081344UL+cmd_offset, 26);cmd_increme
      +                          ntn(2);wr16(1081344UL+cmd_offset, 0);cmd_incrementn(2);cmd_incrementn(wr8s(1081344UL+cmd
      +                          _o
  9805  004B52  0E0C               	movlw	12
  9806  004B54  0100               	movlb	0	; () banked
  9807  004B56  6F60               	movwf	cmd@command& (0+255),b
  9808  004B58  0EFF               	movlw	255
  9809  004B5A  6F61               	movwf	(cmd@command+1)& (0+255),b
  9810  004B5C  0EFF               	movlw	255
  9811  004B5E  6F62               	movwf	(cmd@command+2)& (0+255),b
  9812  004B60  0EFF               	movlw	255
  9813  004B62  6F63               	movwf	(cmd@command+3)& (0+255),b
  9814  004B64  EC4F  F03A         	call	_cmd	;wreg free
  9815  004B68  C03E  F064         	movff	_cmd_offset,??_display_labels
  9816  004B6C  C03F  F065         	movff	_cmd_offset+1,??_display_labels+1
  9817  004B70  0100               	movlb	0	; () banked
  9818  004B72  6B66               	clrf	(??_display_labels+2)& (0+255),b
  9819  004B74  0E00               	movlw	0
  9820  004B76  0100               	movlb	0	; () banked
  9821  004B78  2564               	addwf	??_display_labels& (0+255),w,b
  9822  004B7A  6E1F               	movwf	wr16@addr,c
  9823  004B7C  0E80               	movlw	128
  9824  004B7E  0100               	movlb	0	; () banked
  9825  004B80  2165               	addwfc	(??_display_labels+1)& (0+255),w,b
  9826  004B82  6E20               	movwf	wr16@addr+1,c
  9827  004B84  0E10               	movlw	16
  9828  004B86  0100               	movlb	0	; () banked
  9829  004B88  2166               	addwfc	(??_display_labels+2)& (0+255),w,b
  9830  004B8A  6E21               	movwf	wr16@addr+2,c
  9831  004B8C  0E01               	movlw	1
  9832  004B8E  6E23               	movwf	wr16@value+1,c
  9833  004B90  0E68               	movlw	104
  9834  004B92  6E22               	movwf	wr16@value,c
  9835  004B94  EC31  F03A         	call	_wr16	;wreg free
  9836  004B98  0E02               	movlw	2
  9837  004B9A  ECA2  F03A         	call	_cmd_incrementn
  9838  004B9E  C03E  F064         	movff	_cmd_offset,??_display_labels
  9839  004BA2  C03F  F065         	movff	_cmd_offset+1,??_display_labels+1
  9840  004BA6  0100               	movlb	0	; () banked
  9841  004BA8  6B66               	clrf	(??_display_labels+2)& (0+255),b
  9842  004BAA  0E00               	movlw	0
  9843  004BAC  0100               	movlb	0	; () banked
  9844  004BAE  2564               	addwf	??_display_labels& (0+255),w,b
  9845  004BB0  6E1F               	movwf	wr16@addr,c
  9846  004BB2  0E80               	movlw	128
  9847  004BB4  0100               	movlb	0	; () banked
  9848  004BB6  2165               	addwfc	(??_display_labels+1)& (0+255),w,b
  9849  004BB8  6E20               	movwf	wr16@addr+1,c
  9850  004BBA  0E10               	movlw	16
  9851  004BBC  0100               	movlb	0	; () banked
  9852  004BBE  2166               	addwfc	(??_display_labels+2)& (0+255),w,b
  9853  004BC0  6E21               	movwf	wr16@addr+2,c
  9854  004BC2  0E00               	movlw	0
  9855  004BC4  6E23               	movwf	wr16@value+1,c
  9856  004BC6  0E82               	movlw	130
  9857  004BC8  6E22               	movwf	wr16@value,c
  9858  004BCA  EC31  F03A         	call	_wr16	;wreg free
  9859  004BCE  0E02               	movlw	2
  9860  004BD0  ECA2  F03A         	call	_cmd_incrementn
  9861  004BD4  C03E  F064         	movff	_cmd_offset,??_display_labels
  9862  004BD8  C03F  F065         	movff	_cmd_offset+1,??_display_labels+1
  9863  004BDC  0100               	movlb	0	; () banked
  9864  004BDE  6B66               	clrf	(??_display_labels+2)& (0+255),b
  9865  004BE0  0E00               	movlw	0
  9866  004BE2  0100               	movlb	0	; () banked
  9867  004BE4  2564               	addwf	??_display_labels& (0+255),w,b
  9868  004BE6  6E1F               	movwf	wr16@addr,c
  9869  004BE8  0E80               	movlw	128
  9870  004BEA  0100               	movlb	0	; () banked
  9871  004BEC  2165               	addwfc	(??_display_labels+1)& (0+255),w,b
  9872  004BEE  6E20               	movwf	wr16@addr+1,c
  9873  004BF0  0E10               	movlw	16
  9874  004BF2  0100               	movlb	0	; () banked
  9875  004BF4  2166               	addwfc	(??_display_labels+2)& (0+255),w,b
  9876  004BF6  6E21               	movwf	wr16@addr+2,c
  9877  004BF8  0E00               	movlw	0
  9878  004BFA  6E23               	movwf	wr16@value+1,c
  9879  004BFC  0E1A               	movlw	26
  9880  004BFE  6E22               	movwf	wr16@value,c
  9881  004C00  EC31  F03A         	call	_wr16	;wreg free
  9882  004C04  0E02               	movlw	2
  9883  004C06  ECA2  F03A         	call	_cmd_incrementn
  9884  004C0A  C03E  F064         	movff	_cmd_offset,??_display_labels
  9885  004C0E  C03F  F065         	movff	_cmd_offset+1,??_display_labels+1
  9886  004C12  0100               	movlb	0	; () banked
  9887  004C14  6B66               	clrf	(??_display_labels+2)& (0+255),b
  9888  004C16  0E00               	movlw	0
  9889  004C18  0100               	movlb	0	; () banked
  9890  004C1A  2564               	addwf	??_display_labels& (0+255),w,b
  9891  004C1C  6E1F               	movwf	wr16@addr,c
  9892  004C1E  0E80               	movlw	128
  9893  004C20  0100               	movlb	0	; () banked
  9894  004C22  2165               	addwfc	(??_display_labels+1)& (0+255),w,b
  9895  004C24  6E20               	movwf	wr16@addr+1,c
  9896  004C26  0E10               	movlw	16
  9897  004C28  0100               	movlb	0	; () banked
  9898  004C2A  2166               	addwfc	(??_display_labels+2)& (0+255),w,b
  9899  004C2C  6E21               	movwf	wr16@addr+2,c
  9900  004C2E  0E00               	movlw	0
  9901  004C30  6E23               	movwf	wr16@value+1,c
  9902  004C32  0E00               	movlw	0
  9903  004C34  6E22               	movwf	wr16@value,c
  9904  004C36  EC31  F03A         	call	_wr16	;wreg free
  9905  004C3A  0E02               	movlw	2
  9906  004C3C  ECA2  F03A         	call	_cmd_incrementn
  9907  004C40  C03E  F064         	movff	_cmd_offset,??_display_labels
  9908  004C44  C03F  F065         	movff	_cmd_offset+1,??_display_labels+1
  9909  004C48  0100               	movlb	0	; () banked
  9910  004C4A  6B66               	clrf	(??_display_labels+2)& (0+255),b
  9911  004C4C  0E00               	movlw	0
  9912  004C4E  0100               	movlb	0	; () banked
  9913  004C50  2564               	addwf	??_display_labels& (0+255),w,b
  9914  004C52  6E24               	movwf	wr8s@addr,c
  9915  004C54  0E80               	movlw	128
  9916  004C56  0100               	movlb	0	; () banked
  9917  004C58  2165               	addwfc	(??_display_labels+1)& (0+255),w,b
  9918  004C5A  6E25               	movwf	wr8s@addr+1,c
  9919  004C5C  0E10               	movlw	16
  9920  004C5E  0100               	movlb	0	; () banked
  9921  004C60  2166               	addwfc	(??_display_labels+2)& (0+255),w,b
  9922  004C62  6E26               	movwf	wr8s@addr+2,c
  9923  004C64  0E10               	movlw	low STR_12
  9924  004C66  6E27               	movwf	wr8s@s,c
  9925  004C68  0E0F               	movlw	high STR_12
  9926  004C6A  6E28               	movwf	wr8s@s+1,c
  9927  004C6C  EC04  F038         	call	_wr8s	;wreg free
  9928  004C70  ECA2  F03A         	call	_cmd_incrementn
  9929                           
  9930                           ;display.c: 48: cmd(4294967052UL);wr16(1081344UL+cmd_offset, 360);cmd_incrementn(2);wr16
      +                          (1081344UL+cmd_offset, 130 + 15);cmd_incrementn(2);wr16(1081344UL+cmd_offset, 26);cmd_in
      +                          crementn(2);wr16(1081344UL+cmd_offset, 0);cmd_incrementn(2);cmd_incrementn(wr8s(1081344U
      +                          L+
  9931  004C74  0E0C               	movlw	12
  9932  004C76  0100               	movlb	0	; () banked
  9933  004C78  6F60               	movwf	cmd@command& (0+255),b
  9934  004C7A  0EFF               	movlw	255
  9935  004C7C  6F61               	movwf	(cmd@command+1)& (0+255),b
  9936  004C7E  0EFF               	movlw	255
  9937  004C80  6F62               	movwf	(cmd@command+2)& (0+255),b
  9938  004C82  0EFF               	movlw	255
  9939  004C84  6F63               	movwf	(cmd@command+3)& (0+255),b
  9940  004C86  EC4F  F03A         	call	_cmd	;wreg free
  9941  004C8A  C03E  F064         	movff	_cmd_offset,??_display_labels
  9942  004C8E  C03F  F065         	movff	_cmd_offset+1,??_display_labels+1
  9943  004C92  0100               	movlb	0	; () banked
  9944  004C94  6B66               	clrf	(??_display_labels+2)& (0+255),b
  9945  004C96  0E00               	movlw	0
  9946  004C98  0100               	movlb	0	; () banked
  9947  004C9A  2564               	addwf	??_display_labels& (0+255),w,b
  9948  004C9C  6E1F               	movwf	wr16@addr,c
  9949  004C9E  0E80               	movlw	128
  9950  004CA0  0100               	movlb	0	; () banked
  9951  004CA2  2165               	addwfc	(??_display_labels+1)& (0+255),w,b
  9952  004CA4  6E20               	movwf	wr16@addr+1,c
  9953  004CA6  0E10               	movlw	16
  9954  004CA8  0100               	movlb	0	; () banked
  9955  004CAA  2166               	addwfc	(??_display_labels+2)& (0+255),w,b
  9956  004CAC  6E21               	movwf	wr16@addr+2,c
  9957  004CAE  0E01               	movlw	1
  9958  004CB0  6E23               	movwf	wr16@value+1,c
  9959  004CB2  0E68               	movlw	104
  9960  004CB4  6E22               	movwf	wr16@value,c
  9961  004CB6  EC31  F03A         	call	_wr16	;wreg free
  9962  004CBA  0E02               	movlw	2
  9963  004CBC  ECA2  F03A         	call	_cmd_incrementn
  9964  004CC0  C03E  F064         	movff	_cmd_offset,??_display_labels
  9965  004CC4  C03F  F065         	movff	_cmd_offset+1,??_display_labels+1
  9966  004CC8  0100               	movlb	0	; () banked
  9967  004CCA  6B66               	clrf	(??_display_labels+2)& (0+255),b
  9968  004CCC  0E00               	movlw	0
  9969  004CCE  0100               	movlb	0	; () banked
  9970  004CD0  2564               	addwf	??_display_labels& (0+255),w,b
  9971  004CD2  6E1F               	movwf	wr16@addr,c
  9972  004CD4  0E80               	movlw	128
  9973  004CD6  0100               	movlb	0	; () banked
  9974  004CD8  2165               	addwfc	(??_display_labels+1)& (0+255),w,b
  9975  004CDA  6E20               	movwf	wr16@addr+1,c
  9976  004CDC  0E10               	movlw	16
  9977  004CDE  0100               	movlb	0	; () banked
  9978  004CE0  2166               	addwfc	(??_display_labels+2)& (0+255),w,b
  9979  004CE2  6E21               	movwf	wr16@addr+2,c
  9980  004CE4  0E00               	movlw	0
  9981  004CE6  6E23               	movwf	wr16@value+1,c
  9982  004CE8  0E91               	movlw	145
  9983  004CEA  6E22               	movwf	wr16@value,c
  9984  004CEC  EC31  F03A         	call	_wr16	;wreg free
  9985  004CF0  0E02               	movlw	2
  9986  004CF2  ECA2  F03A         	call	_cmd_incrementn
  9987  004CF6  C03E  F064         	movff	_cmd_offset,??_display_labels
  9988  004CFA  C03F  F065         	movff	_cmd_offset+1,??_display_labels+1
  9989  004CFE  0100               	movlb	0	; () banked
  9990  004D00  6B66               	clrf	(??_display_labels+2)& (0+255),b
  9991  004D02  0E00               	movlw	0
  9992  004D04  0100               	movlb	0	; () banked
  9993  004D06  2564               	addwf	??_display_labels& (0+255),w,b
  9994  004D08  6E1F               	movwf	wr16@addr,c
  9995  004D0A  0E80               	movlw	128
  9996  004D0C  0100               	movlb	0	; () banked
  9997  004D0E  2165               	addwfc	(??_display_labels+1)& (0+255),w,b
  9998  004D10  6E20               	movwf	wr16@addr+1,c
  9999  004D12  0E10               	movlw	16
 10000  004D14  0100               	movlb	0	; () banked
 10001  004D16  2166               	addwfc	(??_display_labels+2)& (0+255),w,b
 10002  004D18  6E21               	movwf	wr16@addr+2,c
 10003  004D1A  0E00               	movlw	0
 10004  004D1C  6E23               	movwf	wr16@value+1,c
 10005  004D1E  0E1A               	movlw	26
 10006  004D20  6E22               	movwf	wr16@value,c
 10007  004D22  EC31  F03A         	call	_wr16	;wreg free
 10008  004D26  0E02               	movlw	2
 10009  004D28  ECA2  F03A         	call	_cmd_incrementn
 10010  004D2C  C03E  F064         	movff	_cmd_offset,??_display_labels
 10011  004D30  C03F  F065         	movff	_cmd_offset+1,??_display_labels+1
 10012  004D34  0100               	movlb	0	; () banked
 10013  004D36  6B66               	clrf	(??_display_labels+2)& (0+255),b
 10014  004D38  0E00               	movlw	0
 10015  004D3A  0100               	movlb	0	; () banked
 10016  004D3C  2564               	addwf	??_display_labels& (0+255),w,b
 10017  004D3E  6E1F               	movwf	wr16@addr,c
 10018  004D40  0E80               	movlw	128
 10019  004D42  0100               	movlb	0	; () banked
 10020  004D44  2165               	addwfc	(??_display_labels+1)& (0+255),w,b
 10021  004D46  6E20               	movwf	wr16@addr+1,c
 10022  004D48  0E10               	movlw	16
 10023  004D4A  0100               	movlb	0	; () banked
 10024  004D4C  2166               	addwfc	(??_display_labels+2)& (0+255),w,b
 10025  004D4E  6E21               	movwf	wr16@addr+2,c
 10026  004D50  0E00               	movlw	0
 10027  004D52  6E23               	movwf	wr16@value+1,c
 10028  004D54  0E00               	movlw	0
 10029  004D56  6E22               	movwf	wr16@value,c
 10030  004D58  EC31  F03A         	call	_wr16	;wreg free
 10031  004D5C  0E02               	movlw	2
 10032  004D5E  ECA2  F03A         	call	_cmd_incrementn
 10033  004D62  C03E  F064         	movff	_cmd_offset,??_display_labels
 10034  004D66  C03F  F065         	movff	_cmd_offset+1,??_display_labels+1
 10035  004D6A  0100               	movlb	0	; () banked
 10036  004D6C  6B66               	clrf	(??_display_labels+2)& (0+255),b
 10037  004D6E  0E00               	movlw	0
 10038  004D70  0100               	movlb	0	; () banked
 10039  004D72  2564               	addwf	??_display_labels& (0+255),w,b
 10040  004D74  6E24               	movwf	wr8s@addr,c
 10041  004D76  0E80               	movlw	128
 10042  004D78  0100               	movlb	0	; () banked
 10043  004D7A  2165               	addwfc	(??_display_labels+1)& (0+255),w,b
 10044  004D7C  6E25               	movwf	wr8s@addr+1,c
 10045  004D7E  0E10               	movlw	16
 10046  004D80  0100               	movlb	0	; () banked
 10047  004D82  2166               	addwfc	(??_display_labels+2)& (0+255),w,b
 10048  004D84  6E26               	movwf	wr8s@addr+2,c
 10049  004D86  0E4C               	movlw	low STR_13
 10050  004D88  6E27               	movwf	wr8s@s,c
 10051  004D8A  0E0F               	movlw	high STR_13
 10052  004D8C  6E28               	movwf	wr8s@s+1,c
 10053  004D8E  EC04  F038         	call	_wr8s	;wreg free
 10054  004D92  ECA2  F03A         	call	_cmd_incrementn
 10055                           
 10056                           ;display.c: 49: cmd(4294967052UL);wr16(1081344UL+cmd_offset, 380);cmd_incrementn(2);wr16
      +                          (1081344UL+cmd_offset, 180);cmd_incrementn(2);wr16(1081344UL+cmd_offset, 26);cmd_increme
      +                          ntn(2);wr16(1081344UL+cmd_offset, 0);cmd_incrementn(2);cmd_incrementn(wr8s(1081344UL+cmd
      +                          _o
 10057  004D96  0E0C               	movlw	12
 10058  004D98  0100               	movlb	0	; () banked
 10059  004D9A  6F60               	movwf	cmd@command& (0+255),b
 10060  004D9C  0EFF               	movlw	255
 10061  004D9E  6F61               	movwf	(cmd@command+1)& (0+255),b
 10062  004DA0  0EFF               	movlw	255
 10063  004DA2  6F62               	movwf	(cmd@command+2)& (0+255),b
 10064  004DA4  0EFF               	movlw	255
 10065  004DA6  6F63               	movwf	(cmd@command+3)& (0+255),b
 10066  004DA8  EC4F  F03A         	call	_cmd	;wreg free
 10067  004DAC  C03E  F064         	movff	_cmd_offset,??_display_labels
 10068  004DB0  C03F  F065         	movff	_cmd_offset+1,??_display_labels+1
 10069  004DB4  0100               	movlb	0	; () banked
 10070  004DB6  6B66               	clrf	(??_display_labels+2)& (0+255),b
 10071  004DB8  0E00               	movlw	0
 10072  004DBA  0100               	movlb	0	; () banked
 10073  004DBC  2564               	addwf	??_display_labels& (0+255),w,b
 10074  004DBE  6E1F               	movwf	wr16@addr,c
 10075  004DC0  0E80               	movlw	128
 10076  004DC2  0100               	movlb	0	; () banked
 10077  004DC4  2165               	addwfc	(??_display_labels+1)& (0+255),w,b
 10078  004DC6  6E20               	movwf	wr16@addr+1,c
 10079  004DC8  0E10               	movlw	16
 10080  004DCA  0100               	movlb	0	; () banked
 10081  004DCC  2166               	addwfc	(??_display_labels+2)& (0+255),w,b
 10082  004DCE  6E21               	movwf	wr16@addr+2,c
 10083  004DD0  0E01               	movlw	1
 10084  004DD2  6E23               	movwf	wr16@value+1,c
 10085  004DD4  0E7C               	movlw	124
 10086  004DD6  6E22               	movwf	wr16@value,c
 10087  004DD8  EC31  F03A         	call	_wr16	;wreg free
 10088  004DDC  0E02               	movlw	2
 10089  004DDE  ECA2  F03A         	call	_cmd_incrementn
 10090  004DE2  C03E  F064         	movff	_cmd_offset,??_display_labels
 10091  004DE6  C03F  F065         	movff	_cmd_offset+1,??_display_labels+1
 10092  004DEA  0100               	movlb	0	; () banked
 10093  004DEC  6B66               	clrf	(??_display_labels+2)& (0+255),b
 10094  004DEE  0E00               	movlw	0
 10095  004DF0  0100               	movlb	0	; () banked
 10096  004DF2  2564               	addwf	??_display_labels& (0+255),w,b
 10097  004DF4  6E1F               	movwf	wr16@addr,c
 10098  004DF6  0E80               	movlw	128
 10099  004DF8  0100               	movlb	0	; () banked
 10100  004DFA  2165               	addwfc	(??_display_labels+1)& (0+255),w,b
 10101  004DFC  6E20               	movwf	wr16@addr+1,c
 10102  004DFE  0E10               	movlw	16
 10103  004E00  0100               	movlb	0	; () banked
 10104  004E02  2166               	addwfc	(??_display_labels+2)& (0+255),w,b
 10105  004E04  6E21               	movwf	wr16@addr+2,c
 10106  004E06  0E00               	movlw	0
 10107  004E08  6E23               	movwf	wr16@value+1,c
 10108  004E0A  0EB4               	movlw	180
 10109  004E0C  6E22               	movwf	wr16@value,c
 10110  004E0E  EC31  F03A         	call	_wr16	;wreg free
 10111  004E12  0E02               	movlw	2
 10112  004E14  ECA2  F03A         	call	_cmd_incrementn
 10113  004E18  C03E  F064         	movff	_cmd_offset,??_display_labels
 10114  004E1C  C03F  F065         	movff	_cmd_offset+1,??_display_labels+1
 10115  004E20  0100               	movlb	0	; () banked
 10116  004E22  6B66               	clrf	(??_display_labels+2)& (0+255),b
 10117  004E24  0E00               	movlw	0
 10118  004E26  0100               	movlb	0	; () banked
 10119  004E28  2564               	addwf	??_display_labels& (0+255),w,b
 10120  004E2A  6E1F               	movwf	wr16@addr,c
 10121  004E2C  0E80               	movlw	128
 10122  004E2E  0100               	movlb	0	; () banked
 10123  004E30  2165               	addwfc	(??_display_labels+1)& (0+255),w,b
 10124  004E32  6E20               	movwf	wr16@addr+1,c
 10125  004E34  0E10               	movlw	16
 10126  004E36  0100               	movlb	0	; () banked
 10127  004E38  2166               	addwfc	(??_display_labels+2)& (0+255),w,b
 10128  004E3A  6E21               	movwf	wr16@addr+2,c
 10129  004E3C  0E00               	movlw	0
 10130  004E3E  6E23               	movwf	wr16@value+1,c
 10131  004E40  0E1A               	movlw	26
 10132  004E42  6E22               	movwf	wr16@value,c
 10133  004E44  EC31  F03A         	call	_wr16	;wreg free
 10134  004E48  0E02               	movlw	2
 10135  004E4A  ECA2  F03A         	call	_cmd_incrementn
 10136  004E4E  C03E  F064         	movff	_cmd_offset,??_display_labels
 10137  004E52  C03F  F065         	movff	_cmd_offset+1,??_display_labels+1
 10138  004E56  0100               	movlb	0	; () banked
 10139  004E58  6B66               	clrf	(??_display_labels+2)& (0+255),b
 10140  004E5A  0E00               	movlw	0
 10141  004E5C  0100               	movlb	0	; () banked
 10142  004E5E  2564               	addwf	??_display_labels& (0+255),w,b
 10143  004E60  6E1F               	movwf	wr16@addr,c
 10144  004E62  0E80               	movlw	128
 10145  004E64  0100               	movlb	0	; () banked
 10146  004E66  2165               	addwfc	(??_display_labels+1)& (0+255),w,b
 10147  004E68  6E20               	movwf	wr16@addr+1,c
 10148  004E6A  0E10               	movlw	16
 10149  004E6C  0100               	movlb	0	; () banked
 10150  004E6E  2166               	addwfc	(??_display_labels+2)& (0+255),w,b
 10151  004E70  6E21               	movwf	wr16@addr+2,c
 10152  004E72  0E00               	movlw	0
 10153  004E74  6E23               	movwf	wr16@value+1,c
 10154  004E76  0E00               	movlw	0
 10155  004E78  6E22               	movwf	wr16@value,c
 10156  004E7A  EC31  F03A         	call	_wr16	;wreg free
 10157  004E7E  0E02               	movlw	2
 10158  004E80  ECA2  F03A         	call	_cmd_incrementn
 10159  004E84  C03E  F064         	movff	_cmd_offset,??_display_labels
 10160  004E88  C03F  F065         	movff	_cmd_offset+1,??_display_labels+1
 10161  004E8C  0100               	movlb	0	; () banked
 10162  004E8E  6B66               	clrf	(??_display_labels+2)& (0+255),b
 10163  004E90  0E00               	movlw	0
 10164  004E92  0100               	movlb	0	; () banked
 10165  004E94  2564               	addwf	??_display_labels& (0+255),w,b
 10166  004E96  6E24               	movwf	wr8s@addr,c
 10167  004E98  0E80               	movlw	128
 10168  004E9A  0100               	movlb	0	; () banked
 10169  004E9C  2165               	addwfc	(??_display_labels+1)& (0+255),w,b
 10170  004E9E  6E25               	movwf	wr8s@addr+1,c
 10171  004EA0  0E10               	movlw	16
 10172  004EA2  0100               	movlb	0	; () banked
 10173  004EA4  2166               	addwfc	(??_display_labels+2)& (0+255),w,b
 10174  004EA6  6E26               	movwf	wr8s@addr+2,c
 10175  004EA8  0E65               	movlw	low STR_14
 10176  004EAA  6E27               	movwf	wr8s@s,c
 10177  004EAC  0E0F               	movlw	high STR_14
 10178  004EAE  6E28               	movwf	wr8s@s+1,c
 10179  004EB0  EC04  F038         	call	_wr8s	;wreg free
 10180  004EB4  ECA2  F03A         	call	_cmd_incrementn
 10181                           
 10182                           ;display.c: 50: cmd(4294967052UL);wr16(1081344UL+cmd_offset, 459);cmd_incrementn(2);wr16
      +                          (1081344UL+cmd_offset, 174);cmd_incrementn(2);wr16(1081344UL+cmd_offset, 28);cmd_increme
      +                          ntn(2);wr16(1081344UL+cmd_offset, 0);cmd_incrementn(2);cmd_incrementn(wr8s(1081344UL+cmd
      +                          _o
 10183  004EB8  0E0C               	movlw	12
 10184  004EBA  0100               	movlb	0	; () banked
 10185  004EBC  6F60               	movwf	cmd@command& (0+255),b
 10186  004EBE  0EFF               	movlw	255
 10187  004EC0  6F61               	movwf	(cmd@command+1)& (0+255),b
 10188  004EC2  0EFF               	movlw	255
 10189  004EC4  6F62               	movwf	(cmd@command+2)& (0+255),b
 10190  004EC6  0EFF               	movlw	255
 10191  004EC8  6F63               	movwf	(cmd@command+3)& (0+255),b
 10192  004ECA  EC4F  F03A         	call	_cmd	;wreg free
 10193  004ECE  C03E  F064         	movff	_cmd_offset,??_display_labels
 10194  004ED2  C03F  F065         	movff	_cmd_offset+1,??_display_labels+1
 10195  004ED6  0100               	movlb	0	; () banked
 10196  004ED8  6B66               	clrf	(??_display_labels+2)& (0+255),b
 10197  004EDA  0E00               	movlw	0
 10198  004EDC  0100               	movlb	0	; () banked
 10199  004EDE  2564               	addwf	??_display_labels& (0+255),w,b
 10200  004EE0  6E1F               	movwf	wr16@addr,c
 10201  004EE2  0E80               	movlw	128
 10202  004EE4  0100               	movlb	0	; () banked
 10203  004EE6  2165               	addwfc	(??_display_labels+1)& (0+255),w,b
 10204  004EE8  6E20               	movwf	wr16@addr+1,c
 10205  004EEA  0E10               	movlw	16
 10206  004EEC  0100               	movlb	0	; () banked
 10207  004EEE  2166               	addwfc	(??_display_labels+2)& (0+255),w,b
 10208  004EF0  6E21               	movwf	wr16@addr+2,c
 10209  004EF2  0E01               	movlw	1
 10210  004EF4  6E23               	movwf	wr16@value+1,c
 10211  004EF6  0ECB               	movlw	203
 10212  004EF8  6E22               	movwf	wr16@value,c
 10213  004EFA  EC31  F03A         	call	_wr16	;wreg free
 10214  004EFE  0E02               	movlw	2
 10215  004F00  ECA2  F03A         	call	_cmd_incrementn
 10216  004F04  C03E  F064         	movff	_cmd_offset,??_display_labels
 10217  004F08  C03F  F065         	movff	_cmd_offset+1,??_display_labels+1
 10218  004F0C  0100               	movlb	0	; () banked
 10219  004F0E  6B66               	clrf	(??_display_labels+2)& (0+255),b
 10220  004F10  0E00               	movlw	0
 10221  004F12  0100               	movlb	0	; () banked
 10222  004F14  2564               	addwf	??_display_labels& (0+255),w,b
 10223  004F16  6E1F               	movwf	wr16@addr,c
 10224  004F18  0E80               	movlw	128
 10225  004F1A  0100               	movlb	0	; () banked
 10226  004F1C  2165               	addwfc	(??_display_labels+1)& (0+255),w,b
 10227  004F1E  6E20               	movwf	wr16@addr+1,c
 10228  004F20  0E10               	movlw	16
 10229  004F22  0100               	movlb	0	; () banked
 10230  004F24  2166               	addwfc	(??_display_labels+2)& (0+255),w,b
 10231  004F26  6E21               	movwf	wr16@addr+2,c
 10232  004F28  0E00               	movlw	0
 10233  004F2A  6E23               	movwf	wr16@value+1,c
 10234  004F2C  0EAE               	movlw	174
 10235  004F2E  6E22               	movwf	wr16@value,c
 10236  004F30  EC31  F03A         	call	_wr16	;wreg free
 10237  004F34  0E02               	movlw	2
 10238  004F36  ECA2  F03A         	call	_cmd_incrementn
 10239  004F3A  C03E  F064         	movff	_cmd_offset,??_display_labels
 10240  004F3E  C03F  F065         	movff	_cmd_offset+1,??_display_labels+1
 10241  004F42  0100               	movlb	0	; () banked
 10242  004F44  6B66               	clrf	(??_display_labels+2)& (0+255),b
 10243  004F46  0E00               	movlw	0
 10244  004F48  0100               	movlb	0	; () banked
 10245  004F4A  2564               	addwf	??_display_labels& (0+255),w,b
 10246  004F4C  6E1F               	movwf	wr16@addr,c
 10247  004F4E  0E80               	movlw	128
 10248  004F50  0100               	movlb	0	; () banked
 10249  004F52  2165               	addwfc	(??_display_labels+1)& (0+255),w,b
 10250  004F54  6E20               	movwf	wr16@addr+1,c
 10251  004F56  0E10               	movlw	16
 10252  004F58  0100               	movlb	0	; () banked
 10253  004F5A  2166               	addwfc	(??_display_labels+2)& (0+255),w,b
 10254  004F5C  6E21               	movwf	wr16@addr+2,c
 10255  004F5E  0E00               	movlw	0
 10256  004F60  6E23               	movwf	wr16@value+1,c
 10257  004F62  0E1C               	movlw	28
 10258  004F64  6E22               	movwf	wr16@value,c
 10259  004F66  EC31  F03A         	call	_wr16	;wreg free
 10260  004F6A  0E02               	movlw	2
 10261  004F6C  ECA2  F03A         	call	_cmd_incrementn
 10262  004F70  C03E  F064         	movff	_cmd_offset,??_display_labels
 10263  004F74  C03F  F065         	movff	_cmd_offset+1,??_display_labels+1
 10264  004F78  0100               	movlb	0	; () banked
 10265  004F7A  6B66               	clrf	(??_display_labels+2)& (0+255),b
 10266  004F7C  0E00               	movlw	0
 10267  004F7E  0100               	movlb	0	; () banked
 10268  004F80  2564               	addwf	??_display_labels& (0+255),w,b
 10269  004F82  6E1F               	movwf	wr16@addr,c
 10270  004F84  0E80               	movlw	128
 10271  004F86  0100               	movlb	0	; () banked
 10272  004F88  2165               	addwfc	(??_display_labels+1)& (0+255),w,b
 10273  004F8A  6E20               	movwf	wr16@addr+1,c
 10274  004F8C  0E10               	movlw	16
 10275  004F8E  0100               	movlb	0	; () banked
 10276  004F90  2166               	addwfc	(??_display_labels+2)& (0+255),w,b
 10277  004F92  6E21               	movwf	wr16@addr+2,c
 10278  004F94  0E00               	movlw	0
 10279  004F96  6E23               	movwf	wr16@value+1,c
 10280  004F98  0E00               	movlw	0
 10281  004F9A  6E22               	movwf	wr16@value,c
 10282  004F9C  EC31  F03A         	call	_wr16	;wreg free
 10283  004FA0  0E02               	movlw	2
 10284  004FA2  ECA2  F03A         	call	_cmd_incrementn
 10285  004FA6  C03E  F064         	movff	_cmd_offset,??_display_labels
 10286  004FAA  C03F  F065         	movff	_cmd_offset+1,??_display_labels+1
 10287  004FAE  0100               	movlb	0	; () banked
 10288  004FB0  6B66               	clrf	(??_display_labels+2)& (0+255),b
 10289  004FB2  0E00               	movlw	0
 10290  004FB4  0100               	movlb	0	; () banked
 10291  004FB6  2564               	addwf	??_display_labels& (0+255),w,b
 10292  004FB8  6E24               	movwf	wr8s@addr,c
 10293  004FBA  0E80               	movlw	128
 10294  004FBC  0100               	movlb	0	; () banked
 10295  004FBE  2165               	addwfc	(??_display_labels+1)& (0+255),w,b
 10296  004FC0  6E25               	movwf	wr8s@addr+1,c
 10297  004FC2  0E10               	movlw	16
 10298  004FC4  0100               	movlb	0	; () banked
 10299  004FC6  2166               	addwfc	(??_display_labels+2)& (0+255),w,b
 10300  004FC8  6E26               	movwf	wr8s@addr+2,c
 10301  004FCA  0E68               	movlw	low STR_15
 10302  004FCC  6E27               	movwf	wr8s@s,c
 10303  004FCE  0E0F               	movlw	high STR_15
 10304  004FD0  6E28               	movwf	wr8s@s+1,c
 10305  004FD2  EC04  F038         	call	_wr8s	;wreg free
 10306  004FD6  ECA2  F03A         	call	_cmd_incrementn
 10307                           
 10308                           ;display.c: 54: cmd(((31UL<<24)|(((2UL)&15UL)<<0)));
 10309  004FDA  0E02               	movlw	2
 10310  004FDC  0100               	movlb	0	; () banked
 10311  004FDE  6F60               	movwf	cmd@command& (0+255),b
 10312  004FE0  0E00               	movlw	0
 10313  004FE2  6F61               	movwf	(cmd@command+1)& (0+255),b
 10314  004FE4  0E00               	movlw	0
 10315  004FE6  6F62               	movwf	(cmd@command+2)& (0+255),b
 10316  004FE8  0E1F               	movlw	31
 10317  004FEA  6F63               	movwf	(cmd@command+3)& (0+255),b
 10318  004FEC  EC4F  F03A         	call	_cmd	;wreg free
 10319                           
 10320                           ;display.c: 55: cmd(((4UL<<24)|(((20)&255UL)<<16)|(((20)&255UL)<<8)|(((20)&255UL)<<0)));
 10321  004FF0  0E14               	movlw	20
 10322  004FF2  0100               	movlb	0	; () banked
 10323  004FF4  6F60               	movwf	cmd@command& (0+255),b
 10324  004FF6  0E14               	movlw	20
 10325  004FF8  6F61               	movwf	(cmd@command+1)& (0+255),b
 10326  004FFA  0E14               	movlw	20
 10327  004FFC  6F62               	movwf	(cmd@command+2)& (0+255),b
 10328  004FFE  0E04               	movlw	4
 10329  005000  6F63               	movwf	(cmd@command+3)& (0+255),b
 10330  005002  EC4F  F03A         	call	_cmd	;wreg free
 10331                           
 10332                           ;display.c: 56: cmd(((13UL<<24)|(((1750)&8191UL)<<0)));
 10333  005006  0ED6               	movlw	214
 10334  005008  0100               	movlb	0	; () banked
 10335  00500A  6F60               	movwf	cmd@command& (0+255),b
 10336  00500C  0E06               	movlw	6
 10337  00500E  6F61               	movwf	(cmd@command+1)& (0+255),b
 10338  005010  0E00               	movlw	0
 10339  005012  6F62               	movwf	(cmd@command+2)& (0+255),b
 10340  005014  0E0D               	movlw	13
 10341  005016  6F63               	movwf	(cmd@command+3)& (0+255),b
 10342  005018  EC4F  F03A         	call	_cmd	;wreg free
 10343                           
 10344                           ;display.c: 57: cmd(((2UL<<30)|(((240)&511UL)<<21)|(((115)&511UL)<<12)|(((0)&31UL)<<7)|(
      +                          ((0)&127UL)<<0)));
 10345  00501C  0E00               	movlw	0
 10346  00501E  0100               	movlb	0	; () banked
 10347  005020  6F60               	movwf	cmd@command& (0+255),b
 10348  005022  0E30               	movlw	48
 10349  005024  6F61               	movwf	(cmd@command+1)& (0+255),b
 10350  005026  0E07               	movlw	7
 10351  005028  6F62               	movwf	(cmd@command+2)& (0+255),b
 10352  00502A  0E9E               	movlw	158
 10353  00502C  6F63               	movwf	(cmd@command+3)& (0+255),b
 10354  00502E  EC4F  F03A         	call	_cmd	;wreg free
 10355                           
 10356                           ;display.c: 58: cmd(((4UL<<24)|(((60)&255UL)<<16)|(((60)&255UL)<<8)|(((60)&255UL)<<0)));
 10357  005032  0E3C               	movlw	60
 10358  005034  0100               	movlb	0	; () banked
 10359  005036  6F60               	movwf	cmd@command& (0+255),b
 10360  005038  0E3C               	movlw	60
 10361  00503A  6F61               	movwf	(cmd@command+1)& (0+255),b
 10362  00503C  0E3C               	movlw	60
 10363  00503E  6F62               	movwf	(cmd@command+2)& (0+255),b
 10364  005040  0E04               	movlw	4
 10365  005042  6F63               	movwf	(cmd@command+3)& (0+255),b
 10366  005044  EC4F  F03A         	call	_cmd	;wreg free
 10367                           
 10368                           ;display.c: 59: cmd(((13UL<<24)|(((1650)&8191UL)<<0)));
 10369  005048  0E72               	movlw	114
 10370  00504A  0100               	movlb	0	; () banked
 10371  00504C  6F60               	movwf	cmd@command& (0+255),b
 10372  00504E  0E06               	movlw	6
 10373  005050  6F61               	movwf	(cmd@command+1)& (0+255),b
 10374  005052  0E00               	movlw	0
 10375  005054  6F62               	movwf	(cmd@command+2)& (0+255),b
 10376  005056  0E0D               	movlw	13
 10377  005058  6F63               	movwf	(cmd@command+3)& (0+255),b
 10378  00505A  EC4F  F03A         	call	_cmd	;wreg free
 10379                           
 10380                           ;display.c: 60: cmd(((2UL<<30)|(((240)&511UL)<<21)|(((115)&511UL)<<12)|(((0)&31UL)<<7)|(
      +                          ((0)&127UL)<<0)));
 10381  00505E  0E00               	movlw	0
 10382  005060  0100               	movlb	0	; () banked
 10383  005062  6F60               	movwf	cmd@command& (0+255),b
 10384  005064  0E30               	movlw	48
 10385  005066  6F61               	movwf	(cmd@command+1)& (0+255),b
 10386  005068  0E07               	movlw	7
 10387  00506A  6F62               	movwf	(cmd@command+2)& (0+255),b
 10388  00506C  0E9E               	movlw	158
 10389  00506E  6F63               	movwf	(cmd@command+3)& (0+255),b
 10390  005070  EC4F  F03A         	call	_cmd	;wreg free
 10391  005074  0012               	return		;funcret
 10392  005076                     __end_of_display_labels:
 10393                           	opt stack 0
 10394                           tblptru	equ	0xFF8
 10395                           postinc0	equ	0xFEE
 10396                           wreg	equ	0xFE8
 10397                           status	equ	0xFD8
 10398                           
 10399 ;; *************** function _display_gear *****************
 10400 ;; Defined at:
 10401 ;;		line 192 in file "display.c"
 10402 ;; Parameters:    Size  Location     Type
 10403 ;;  gear            2    4[BANK0 ] int 
 10404 ;; Auto vars:     Size  Location     Type
 10405 ;;		None
 10406 ;; Return value:  Size  Location     Type
 10407 ;;                  1    wreg      void 
 10408 ;; Registers used:
 10409 ;;		wreg, status,2, status,0, cstack
 10410 ;; Tracked objects:
 10411 ;;		On entry : 0/0
 10412 ;;		On exit  : 0/0
 10413 ;;		Unchanged: 0/0
 10414 ;; Data sizes:     COMRAM   BANK0   BANK1   BANK2   BANK3   BANK4   BANK5   BANK6   BANK7   BANK8   BANK9  BANK10  BANK1
      +1  BANK12  BANK13  BANK14
 10415 ;;      Params:         0       2       0       0       0       0       0       0       0       0       0       0       
      +0       0       0       0
 10416 ;;      Locals:         0       0       0       0       0       0       0       0       0       0       0       0       
      +0       0       0       0
 10417 ;;      Temps:          0       2       0       0       0       0       0       0       0       0       0       0       
      +0       0       0       0
 10418 ;;      Totals:         0       4       0       0       0       0       0       0       0       0       0       0       
      +0       0       0       0
 10419 ;;Total ram usage:        4 bytes
 10420 ;; Hardware stack levels used:    1
 10421 ;; Hardware stack levels required when called:    5
 10422 ;; This function calls:
 10423 ;;		_cmd
 10424 ;; This function is called by:
 10425 ;;		_display
 10426 ;; This function uses a non-reentrant model
 10427 ;;
 10428                           
 10429                           	psect	text14
 10430  005076                     __ptext14:
 10431                           	opt stack 0
 10432  005076                     _display_gear:
 10433                           	opt stack 24
 10434                           
 10435                           ;display.c: 193: cmd(((14UL<<24)|(((96)&4095UL)<<0)));
 10436                           
 10437                           ;incstack = 0
 10438  005076  0E60               	movlw	96
 10439  005078  0100               	movlb	0	; () banked
 10440  00507A  6F60               	movwf	cmd@command& (0+255),b
 10441  00507C  0E00               	movlw	0
 10442  00507E  6F61               	movwf	(cmd@command+1)& (0+255),b
 10443  005080  0E00               	movlw	0
 10444  005082  6F62               	movwf	(cmd@command+2)& (0+255),b
 10445  005084  0E0E               	movlw	14
 10446  005086  6F63               	movwf	(cmd@command+3)& (0+255),b
 10447  005088  EC4F  F03A         	call	_cmd	;wreg free
 10448                           
 10449                           ;display.c: 194: cmd(((4UL<<24)|(((202)&255UL)<<16)|(((125)&255UL)<<8)|(((0)&255UL)<<0))
      +                          );
 10450  00508C  0E00               	movlw	0
 10451  00508E  0100               	movlb	0	; () banked
 10452  005090  6F60               	movwf	cmd@command& (0+255),b
 10453  005092  0E7D               	movlw	125
 10454  005094  6F61               	movwf	(cmd@command+1)& (0+255),b
 10455  005096  0ECA               	movlw	202
 10456  005098  6F62               	movwf	(cmd@command+2)& (0+255),b
 10457  00509A  0E04               	movlw	4
 10458  00509C  6F63               	movwf	(cmd@command+3)& (0+255),b
 10459  00509E  EC4F  F03A         	call	_cmd	;wreg free
 10460                           
 10461                           ;display.c: 195: cmd(((31UL<<24)|(((3UL)&15UL)<<0)));
 10462  0050A2  0E03               	movlw	3
 10463  0050A4  0100               	movlb	0	; () banked
 10464  0050A6  6F60               	movwf	cmd@command& (0+255),b
 10465  0050A8  0E00               	movlw	0
 10466  0050AA  6F61               	movwf	(cmd@command+1)& (0+255),b
 10467  0050AC  0E00               	movlw	0
 10468  0050AE  6F62               	movwf	(cmd@command+2)& (0+255),b
 10469  0050B0  0E1F               	movlw	31
 10470  0050B2  6F63               	movwf	(cmd@command+3)& (0+255),b
 10471  0050B4  EC4F  F03A         	call	_cmd	;wreg free
 10472                           
 10473                           ;display.c: 196: switch (gear) {
 10474  0050B8  D26F               	goto	l5408
 10475  0050BA                     l5392:
 10476                           
 10477                           ;display.c: 198: cmd(((2UL<<30)|(((380)&511UL)<<21)|(((0+15)&511UL)<<12)|(((0)&31UL)<<7)
      +                          |(((0)&127UL)<<0)));
 10478  0050BA  0E00               	movlw	0
 10479  0050BC  0100               	movlb	0	; () banked
 10480  0050BE  6F60               	movwf	cmd@command& (0+255),b
 10481  0050C0  0EF0               	movlw	240
 10482  0050C2  6F61               	movwf	(cmd@command+1)& (0+255),b
 10483  0050C4  0E80               	movlw	128
 10484  0050C6  6F62               	movwf	(cmd@command+2)& (0+255),b
 10485  0050C8  0EAF               	movlw	175
 10486  0050CA  6F63               	movwf	(cmd@command+3)& (0+255),b
 10487  0050CC  EC4F  F03A         	call	_cmd	;wreg free
 10488                           
 10489                           ;display.c: 199: cmd(((2UL<<30)|(((380)&511UL)<<21)|(((0+115)&511UL)<<12)|(((0)&31UL)<<7
      +                          )|(((0)&127UL)<<0)));
 10490  0050D0  0E00               	movlw	0
 10491  0050D2  0100               	movlb	0	; () banked
 10492  0050D4  6F60               	movwf	cmd@command& (0+255),b
 10493  0050D6  0E30               	movlw	48
 10494  0050D8  6F61               	movwf	(cmd@command+1)& (0+255),b
 10495  0050DA  0E87               	movlw	135
 10496  0050DC  6F62               	movwf	(cmd@command+2)& (0+255),b
 10497  0050DE  0EAF               	movlw	175
 10498  0050E0  6F63               	movwf	(cmd@command+3)& (0+255),b
 10499  0050E2  EC4F  F03A         	call	_cmd	;wreg free
 10500                           
 10501                           ;display.c: 200: cmd(((2UL<<30)|(((380)&511UL)<<21)|(((0+15)&511UL)<<12)|(((0)&31UL)<<7)
      +                          |(((0)&127UL)<<0)));
 10502  0050E6  0E00               	movlw	0
 10503  0050E8  0100               	movlb	0	; () banked
 10504  0050EA  6F60               	movwf	cmd@command& (0+255),b
 10505  0050EC  0EF0               	movlw	240
 10506  0050EE  6F61               	movwf	(cmd@command+1)& (0+255),b
 10507  0050F0  0E80               	movlw	128
 10508  0050F2  6F62               	movwf	(cmd@command+2)& (0+255),b
 10509  0050F4  0EAF               	movlw	175
 10510  0050F6  6F63               	movwf	(cmd@command+3)& (0+255),b
 10511  0050F8  EC4F  F03A         	call	_cmd	;wreg free
 10512                           
 10513                           ;display.c: 201: cmd(((2UL<<30)|(((380+80)&511UL)<<21)|(((0+115)&511UL)<<12)|(((0)&31UL)
      +                          <<7)|(((0)&127UL)<<0)));
 10514  0050FC  0E00               	movlw	0
 10515  0050FE  0100               	movlb	0	; () banked
 10516  005100  6F60               	movwf	cmd@command& (0+255),b
 10517  005102  0E30               	movlw	48
 10518  005104  6F61               	movwf	(cmd@command+1)& (0+255),b
 10519  005106  0E87               	movlw	135
 10520  005108  6F62               	movwf	(cmd@command+2)& (0+255),b
 10521  00510A  0EB9               	movlw	185
 10522  00510C  6F63               	movwf	(cmd@command+3)& (0+255),b
 10523  00510E  EC4F  F03A         	call	_cmd	;wreg free
 10524                           
 10525                           ;display.c: 202: cmd(((2UL<<30)|(((380+80)&511UL)<<21)|(((0+116)&511UL)<<12)|(((0)&31UL)
      +                          <<7)|(((0)&127UL)<<0)));
 10526  005112  0E00               	movlw	0
 10527  005114  0100               	movlb	0	; () banked
 10528  005116  6F60               	movwf	cmd@command& (0+255),b
 10529  005118  0E40               	movlw	64
 10530  00511A  6F61               	movwf	(cmd@command+1)& (0+255),b
 10531  00511C  0E87               	movlw	135
 10532  00511E  6F62               	movwf	(cmd@command+2)& (0+255),b
 10533  005120  0EB9               	movlw	185
 10534  005122  6F63               	movwf	(cmd@command+3)& (0+255),b
 10535  005124  EC4F  F03A         	call	_cmd	;wreg free
 10536                           
 10537                           ;display.c: 203: cmd(((2UL<<30)|(((380+80)&511UL)<<21)|(((0+15)&511UL)<<12)|(((0)&31UL)<
      +                          <7)|(((0)&127UL)<<0)));
 10538  005128  0E00               	movlw	0
 10539  00512A  0100               	movlb	0	; () banked
 10540  00512C  6F60               	movwf	cmd@command& (0+255),b
 10541  00512E  0EF0               	movlw	240
 10542  005130  6F61               	movwf	(cmd@command+1)& (0+255),b
 10543  005132  0E80               	movlw	128
 10544  005134  6F62               	movwf	(cmd@command+2)& (0+255),b
 10545  005136  0EB9               	movlw	185
 10546  005138  6F63               	movwf	(cmd@command+3)& (0+255),b
 10547  00513A  EC4F  F03A         	call	_cmd	;wreg free
 10548                           
 10549                           ;display.c: 204: break;
 10550  00513E  0012               	return	
 10551  005140                     l5394:
 10552                           
 10553                           ;display.c: 206: cmd(((2UL<<30)|(((380+40)&511UL)<<21)|(((0+15)&511UL)<<12)|(((0)&31UL)<
      +                          <7)|(((0)&127UL)<<0)));
 10554  005140  0E00               	movlw	0
 10555  005142  0100               	movlb	0	; () banked
 10556  005144  6F60               	movwf	cmd@command& (0+255),b
 10557  005146  0EF0               	movlw	240
 10558  005148  6F61               	movwf	(cmd@command+1)& (0+255),b
 10559  00514A  0E80               	movlw	128
 10560  00514C  6F62               	movwf	(cmd@command+2)& (0+255),b
 10561  00514E  0EB4               	movlw	180
 10562  005150  6F63               	movwf	(cmd@command+3)& (0+255),b
 10563  005152  EC4F  F03A         	call	_cmd	;wreg free
 10564                           
 10565                           ;display.c: 207: cmd(((2UL<<30)|(((380+40)&511UL)<<21)|(((0+115)&511UL)<<12)|(((0)&31UL)
      +                          <<7)|(((0)&127UL)<<0)));
 10566  005156  0E00               	movlw	0
 10567  005158  0100               	movlb	0	; () banked
 10568  00515A  6F60               	movwf	cmd@command& (0+255),b
 10569  00515C  0E30               	movlw	48
 10570  00515E  6F61               	movwf	(cmd@command+1)& (0+255),b
 10571  005160  0E87               	movlw	135
 10572  005162  6F62               	movwf	(cmd@command+2)& (0+255),b
 10573  005164  0EB4               	movlw	180
 10574  005166  6F63               	movwf	(cmd@command+3)& (0+255),b
 10575  005168  EC4F  F03A         	call	_cmd	;wreg free
 10576                           
 10577                           ;display.c: 208: cmd(((2UL<<30)|(((380+39)&511UL)<<21)|(((0+15)&511UL)<<12)|(((0)&31UL)<
      +                          <7)|(((0)&127UL)<<0)));
 10578  00516C  0E00               	movlw	0
 10579  00516E  0100               	movlb	0	; () banked
 10580  005170  6F60               	movwf	cmd@command& (0+255),b
 10581  005172  0EF0               	movlw	240
 10582  005174  6F61               	movwf	(cmd@command+1)& (0+255),b
 10583  005176  0E60               	movlw	96
 10584  005178  6F62               	movwf	(cmd@command+2)& (0+255),b
 10585  00517A  0EB4               	movlw	180
 10586  00517C  6F63               	movwf	(cmd@command+3)& (0+255),b
 10587  00517E  EC4F  F03A         	call	_cmd	;wreg free
 10588                           
 10589                           ;display.c: 209: cmd(((2UL<<30)|(((380+20)&511UL)<<21)|(((0+30)&511UL)<<12)|(((0)&31UL)<
      +                          <7)|(((0)&127UL)<<0)));
 10590  005182  0E00               	movlw	0
 10591  005184  0100               	movlb	0	; () banked
 10592  005186  6F60               	movwf	cmd@command& (0+255),b
 10593  005188  0EE0               	movlw	224
 10594  00518A  6F61               	movwf	(cmd@command+1)& (0+255),b
 10595  00518C  0E01               	movlw	1
 10596  00518E  6F62               	movwf	(cmd@command+2)& (0+255),b
 10597  005190  0EB2               	movlw	178
 10598  005192  6F63               	movwf	(cmd@command+3)& (0+255),b
 10599  005194  EC4F  F03A         	call	_cmd	;wreg free
 10600                           
 10601                           ;display.c: 210: cmd(((2UL<<30)|(((380+25)&511UL)<<21)|(((0+116)&511UL)<<12)|(((0)&31UL)
      +                          <<7)|(((0)&127UL)<<0)));
 10602  005198  0E00               	movlw	0
 10603  00519A  0100               	movlb	0	; () banked
 10604  00519C  6F60               	movwf	cmd@command& (0+255),b
 10605  00519E  0E40               	movlw	64
 10606  0051A0  6F61               	movwf	(cmd@command+1)& (0+255),b
 10607  0051A2  0EA7               	movlw	167
 10608  0051A4  6F62               	movwf	(cmd@command+2)& (0+255),b
 10609  0051A6  0EB2               	movlw	178
 10610  0051A8  6F63               	movwf	(cmd@command+3)& (0+255),b
 10611  0051AA  EC4F  F03A         	call	_cmd	;wreg free
 10612                           
 10613                           ;display.c: 211: cmd(((2UL<<30)|(((380+55)&511UL)<<21)|(((0+116)&511UL)<<12)|(((0)&31UL)
      +                          <<7)|(((0)&127UL)<<0)));
 10614  0051AE  0E00               	movlw	0
 10615  0051B0  0100               	movlb	0	; () banked
 10616  0051B2  6F60               	movwf	cmd@command& (0+255),b
 10617  0051B4  0E40               	movlw	64
 10618  0051B6  6F61               	movwf	(cmd@command+1)& (0+255),b
 10619  0051B8  0E67               	movlw	103
 10620  0051BA  6F62               	movwf	(cmd@command+2)& (0+255),b
 10621  0051BC  0EB6               	movlw	182
 10622  0051BE  6F63               	movwf	(cmd@command+3)& (0+255),b
 10623  0051C0  EC4F  F03A         	call	_cmd	;wreg free
 10624                           
 10625                           ;display.c: 212: break;
 10626  0051C4  0012               	return	
 10627  0051C6                     l5396:
 10628                           
 10629                           ;display.c: 214: cmd(((2UL<<30)|(((380)&511UL)<<21)|(((0+15)&511UL)<<12)|(((0)&31UL)<<7)
      +                          |(((0)&127UL)<<0)));
 10630  0051C6  0E00               	movlw	0
 10631  0051C8  0100               	movlb	0	; () banked
 10632  0051CA  6F60               	movwf	cmd@command& (0+255),b
 10633  0051CC  0EF0               	movlw	240
 10634  0051CE  6F61               	movwf	(cmd@command+1)& (0+255),b
 10635  0051D0  0E80               	movlw	128
 10636  0051D2  6F62               	movwf	(cmd@command+2)& (0+255),b
 10637  0051D4  0EAF               	movlw	175
 10638  0051D6  6F63               	movwf	(cmd@command+3)& (0+255),b
 10639  0051D8  EC4F  F03A         	call	_cmd	;wreg free
 10640                           
 10641                           ;display.c: 215: cmd(((2UL<<30)|(((380+80)&511UL)<<21)|(((0+15)&511UL)<<12)|(((0)&31UL)<
      +                          <7)|(((0)&127UL)<<0)));
 10642  0051DC  0E00               	movlw	0
 10643  0051DE  0100               	movlb	0	; () banked
 10644  0051E0  6F60               	movwf	cmd@command& (0+255),b
 10645  0051E2  0EF0               	movlw	240
 10646  0051E4  6F61               	movwf	(cmd@command+1)& (0+255),b
 10647  0051E6  0E80               	movlw	128
 10648  0051E8  6F62               	movwf	(cmd@command+2)& (0+255),b
 10649  0051EA  0EB9               	movlw	185
 10650  0051EC  6F63               	movwf	(cmd@command+3)& (0+255),b
 10651  0051EE  EC4F  F03A         	call	_cmd	;wreg free
 10652                           
 10653                           ;display.c: 216: cmd(((2UL<<30)|(((380+80)&511UL)<<21)|(((0+16)&511UL)<<12)|(((0)&31UL)<
      +                          <7)|(((0)&127UL)<<0)));
 10654  0051F2  0E00               	movlw	0
 10655  0051F4  0100               	movlb	0	; () banked
 10656  0051F6  6F60               	movwf	cmd@command& (0+255),b
 10657  0051F8  0E00               	movlw	0
 10658  0051FA  6F61               	movwf	(cmd@command+1)& (0+255),b
 10659  0051FC  0E81               	movlw	129
 10660  0051FE  6F62               	movwf	(cmd@command+2)& (0+255),b
 10661  005200  0EB9               	movlw	185
 10662  005202  6F63               	movwf	(cmd@command+3)& (0+255),b
 10663  005204  EC4F  F03A         	call	_cmd	;wreg free
 10664                           
 10665                           ;display.c: 217: cmd(((2UL<<30)|(((380+80)&511UL)<<21)|(((0+64)&511UL)<<12)|(((0)&31UL)<
      +                          <7)|(((0)&127UL)<<0)));
 10666  005208  0E00               	movlw	0
 10667  00520A  0100               	movlb	0	; () banked
 10668  00520C  6F60               	movwf	cmd@command& (0+255),b
 10669  00520E  0E00               	movlw	0
 10670  005210  6F61               	movwf	(cmd@command+1)& (0+255),b
 10671  005212  0E84               	movlw	132
 10672  005214  6F62               	movwf	(cmd@command+2)& (0+255),b
 10673  005216  0EB9               	movlw	185
 10674  005218  6F63               	movwf	(cmd@command+3)& (0+255),b
 10675  00521A  EC4F  F03A         	call	_cmd	;wreg free
 10676                           
 10677                           ;display.c: 218: cmd(((2UL<<30)|(((380+80)&511UL)<<21)|(((0+65)&511UL)<<12)|(((0)&31UL)<
      +                          <7)|(((0)&127UL)<<0)));
 10678  00521E  0E00               	movlw	0
 10679  005220  0100               	movlb	0	; () banked
 10680  005222  6F60               	movwf	cmd@command& (0+255),b
 10681  005224  0E10               	movlw	16
 10682  005226  6F61               	movwf	(cmd@command+1)& (0+255),b
 10683  005228  0E84               	movlw	132
 10684  00522A  6F62               	movwf	(cmd@command+2)& (0+255),b
 10685  00522C  0EB9               	movlw	185
 10686  00522E  6F63               	movwf	(cmd@command+3)& (0+255),b
 10687  005230  EC4F  F03A         	call	_cmd	;wreg free
 10688                           
 10689                           ;display.c: 219: cmd(((2UL<<30)|(((380)&511UL)<<21)|(((0+65)&511UL)<<12)|(((0)&31UL)<<7)
      +                          |(((0)&127UL)<<0)));
 10690  005234  0E00               	movlw	0
 10691  005236  0100               	movlb	0	; () banked
 10692  005238  6F60               	movwf	cmd@command& (0+255),b
 10693  00523A  0E10               	movlw	16
 10694  00523C  6F61               	movwf	(cmd@command+1)& (0+255),b
 10695  00523E  0E84               	movlw	132
 10696  005240  6F62               	movwf	(cmd@command+2)& (0+255),b
 10697  005242  0EAF               	movlw	175
 10698  005244  6F63               	movwf	(cmd@command+3)& (0+255),b
 10699  005246  EC4F  F03A         	call	_cmd	;wreg free
 10700                           
 10701                           ;display.c: 220: cmd(((2UL<<30)|(((380)&511UL)<<21)|(((0+66)&511UL)<<12)|(((0)&31UL)<<7)
      +                          |(((0)&127UL)<<0)));
 10702  00524A  0E00               	movlw	0
 10703  00524C  0100               	movlb	0	; () banked
 10704  00524E  6F60               	movwf	cmd@command& (0+255),b
 10705  005250  0E20               	movlw	32
 10706  005252  6F61               	movwf	(cmd@command+1)& (0+255),b
 10707  005254  0E84               	movlw	132
 10708  005256  6F62               	movwf	(cmd@command+2)& (0+255),b
 10709  005258  0EAF               	movlw	175
 10710  00525A  6F63               	movwf	(cmd@command+3)& (0+255),b
 10711  00525C  EC4F  F03A         	call	_cmd	;wreg free
 10712                           
 10713                           ;display.c: 221: cmd(((2UL<<30)|(((380)&511UL)<<21)|(((0+115)&511UL)<<12)|(((0)&31UL)<<7
      +                          )|(((0)&127UL)<<0)));
 10714  005260  0E00               	movlw	0
 10715  005262  0100               	movlb	0	; () banked
 10716  005264  6F60               	movwf	cmd@command& (0+255),b
 10717  005266  0E30               	movlw	48
 10718  005268  6F61               	movwf	(cmd@command+1)& (0+255),b
 10719  00526A  0E87               	movlw	135
 10720  00526C  6F62               	movwf	(cmd@command+2)& (0+255),b
 10721  00526E  0EAF               	movlw	175
 10722  005270  6F63               	movwf	(cmd@command+3)& (0+255),b
 10723  005272  EC4F  F03A         	call	_cmd	;wreg free
 10724                           
 10725                           ;display.c: 222: cmd(((2UL<<30)|(((380+1)&511UL)<<21)|(((0+115)&511UL)<<12)|(((0)&31UL)<
      +                          <7)|(((0)&127UL)<<0)));
 10726  005276  0E00               	movlw	0
 10727  005278  0100               	movlb	0	; () banked
 10728  00527A  6F60               	movwf	cmd@command& (0+255),b
 10729  00527C  0E30               	movlw	48
 10730  00527E  6F61               	movwf	(cmd@command+1)& (0+255),b
 10731  005280  0EA7               	movlw	167
 10732  005282  6F62               	movwf	(cmd@command+2)& (0+255),b
 10733  005284  0EAF               	movlw	175
 10734  005286  6F63               	movwf	(cmd@command+3)& (0+255),b
 10735  005288  EC4F  F03A         	call	_cmd	;wreg free
 10736                           
 10737                           ;display.c: 223: cmd(((2UL<<30)|(((380+80)&511UL)<<21)|(((0+115)&511UL)<<12)|(((0)&31UL)
      +                          <<7)|(((0)&127UL)<<0)));
 10738  00528C  0E00               	movlw	0
 10739  00528E  0100               	movlb	0	; () banked
 10740  005290  6F60               	movwf	cmd@command& (0+255),b
 10741  005292  0E30               	movlw	48
 10742  005294  6F61               	movwf	(cmd@command+1)& (0+255),b
 10743  005296  0E87               	movlw	135
 10744  005298  6F62               	movwf	(cmd@command+2)& (0+255),b
 10745  00529A  0EB9               	movlw	185
 10746  00529C  6F63               	movwf	(cmd@command+3)& (0+255),b
 10747  00529E  EC4F  F03A         	call	_cmd	;wreg free
 10748                           
 10749                           ;display.c: 224: break;
 10750  0052A2  0012               	return	
 10751  0052A4                     l5398:
 10752                           
 10753                           ;display.c: 226: cmd(((2UL<<30)|(((380)&511UL)<<21)|(((0+15)&511UL)<<12)|(((0)&31UL)<<7)
      +                          |(((0)&127UL)<<0)));
 10754  0052A4  0E00               	movlw	0
 10755  0052A6  0100               	movlb	0	; () banked
 10756  0052A8  6F60               	movwf	cmd@command& (0+255),b
 10757  0052AA  0EF0               	movlw	240
 10758  0052AC  6F61               	movwf	(cmd@command+1)& (0+255),b
 10759  0052AE  0E80               	movlw	128
 10760  0052B0  6F62               	movwf	(cmd@command+2)& (0+255),b
 10761  0052B2  0EAF               	movlw	175
 10762  0052B4  6F63               	movwf	(cmd@command+3)& (0+255),b
 10763  0052B6  EC4F  F03A         	call	_cmd	;wreg free
 10764                           
 10765                           ;display.c: 227: cmd(((2UL<<30)|(((380+79)&511UL)<<21)|(((0+15)&511UL)<<12)|(((0)&31UL)<
      +                          <7)|(((0)&127UL)<<0)));
 10766  0052BA  0E00               	movlw	0
 10767  0052BC  0100               	movlb	0	; () banked
 10768  0052BE  6F60               	movwf	cmd@command& (0+255),b
 10769  0052C0  0EF0               	movlw	240
 10770  0052C2  6F61               	movwf	(cmd@command+1)& (0+255),b
 10771  0052C4  0E60               	movlw	96
 10772  0052C6  6F62               	movwf	(cmd@command+2)& (0+255),b
 10773  0052C8  0EB9               	movlw	185
 10774  0052CA  6F63               	movwf	(cmd@command+3)& (0+255),b
 10775  0052CC  EC4F  F03A         	call	_cmd	;wreg free
 10776                           
 10777                           ;display.c: 228: cmd(((2UL<<30)|(((380+80)&511UL)<<21)|(((0+16)&511UL)<<12)|(((0)&31UL)<
      +                          <7)|(((0)&127UL)<<0)));
 10778  0052D0  0E00               	movlw	0
 10779  0052D2  0100               	movlb	0	; () banked
 10780  0052D4  6F60               	movwf	cmd@command& (0+255),b
 10781  0052D6  0E00               	movlw	0
 10782  0052D8  6F61               	movwf	(cmd@command+1)& (0+255),b
 10783  0052DA  0E81               	movlw	129
 10784  0052DC  6F62               	movwf	(cmd@command+2)& (0+255),b
 10785  0052DE  0EB9               	movlw	185
 10786  0052E0  6F63               	movwf	(cmd@command+3)& (0+255),b
 10787  0052E2  EC4F  F03A         	call	_cmd	;wreg free
 10788                           
 10789                           ;display.c: 229: cmd(((2UL<<30)|(((380+80)&511UL)<<21)|(((0+115)&511UL)<<12)|(((0)&31UL)
      +                          <<7)|(((0)&127UL)<<0)));
 10790  0052E6  0E00               	movlw	0
 10791  0052E8  0100               	movlb	0	; () banked
 10792  0052EA  6F60               	movwf	cmd@command& (0+255),b
 10793  0052EC  0E30               	movlw	48
 10794  0052EE  6F61               	movwf	(cmd@command+1)& (0+255),b
 10795  0052F0  0E87               	movlw	135
 10796  0052F2  6F62               	movwf	(cmd@command+2)& (0+255),b
 10797  0052F4  0EB9               	movlw	185
 10798  0052F6  6F63               	movwf	(cmd@command+3)& (0+255),b
 10799  0052F8  EC4F  F03A         	call	_cmd	;wreg free
 10800                           
 10801                           ;display.c: 230: cmd(((2UL<<30)|(((380+79)&511UL)<<21)|(((0+65)&511UL)<<12)|(((0)&31UL)<
      +                          <7)|(((0)&127UL)<<0)));
 10802  0052FC  0E00               	movlw	0
 10803  0052FE  0100               	movlb	0	; () banked
 10804  005300  6F60               	movwf	cmd@command& (0+255),b
 10805  005302  0E10               	movlw	16
 10806  005304  6F61               	movwf	(cmd@command+1)& (0+255),b
 10807  005306  0E64               	movlw	100
 10808  005308  6F62               	movwf	(cmd@command+2)& (0+255),b
 10809  00530A  0EB9               	movlw	185
 10810  00530C  6F63               	movwf	(cmd@command+3)& (0+255),b
 10811  00530E  EC4F  F03A         	call	_cmd	;wreg free
 10812                           
 10813                           ;display.c: 231: cmd(((2UL<<30)|(((380)&511UL)<<21)|(((0+65)&511UL)<<12)|(((0)&31UL)<<7)
      +                          |(((0)&127UL)<<0)));
 10814  005312  0E00               	movlw	0
 10815  005314  0100               	movlb	0	; () banked
 10816  005316  6F60               	movwf	cmd@command& (0+255),b
 10817  005318  0E10               	movlw	16
 10818  00531A  6F61               	movwf	(cmd@command+1)& (0+255),b
 10819  00531C  0E84               	movlw	132
 10820  00531E  6F62               	movwf	(cmd@command+2)& (0+255),b
 10821  005320  0EAF               	movlw	175
 10822  005322  6F63               	movwf	(cmd@command+3)& (0+255),b
 10823  005324  EC4F  F03A         	call	_cmd	;wreg free
 10824                           
 10825                           ;display.c: 232: cmd(((2UL<<30)|(((380+1)&511UL)<<21)|(((0+115)&511UL)<<12)|(((0)&31UL)<
      +                          <7)|(((0)&127UL)<<0)));
 10826  005328  0E00               	movlw	0
 10827  00532A  0100               	movlb	0	; () banked
 10828  00532C  6F60               	movwf	cmd@command& (0+255),b
 10829  00532E  0E30               	movlw	48
 10830  005330  6F61               	movwf	(cmd@command+1)& (0+255),b
 10831  005332  0EA7               	movlw	167
 10832  005334  6F62               	movwf	(cmd@command+2)& (0+255),b
 10833  005336  0EAF               	movlw	175
 10834  005338  6F63               	movwf	(cmd@command+3)& (0+255),b
 10835  00533A  EC4F  F03A         	call	_cmd	;wreg free
 10836                           
 10837                           ;display.c: 233: cmd(((2UL<<30)|(((380+79)&511UL)<<21)|(((0+115)&511UL)<<12)|(((0)&31UL)
      +                          <<7)|(((0)&127UL)<<0)));
 10838  00533E  0E00               	movlw	0
 10839  005340  0100               	movlb	0	; () banked
 10840  005342  6F60               	movwf	cmd@command& (0+255),b
 10841  005344  0E30               	movlw	48
 10842  005346  6F61               	movwf	(cmd@command+1)& (0+255),b
 10843  005348  0E67               	movlw	103
 10844  00534A  6F62               	movwf	(cmd@command+2)& (0+255),b
 10845  00534C  0EB9               	movlw	185
 10846  00534E  6F63               	movwf	(cmd@command+3)& (0+255),b
 10847  005350  EC4F  F03A         	call	_cmd	;wreg free
 10848                           
 10849                           ;display.c: 234: break;
 10850  005354  0012               	return	
 10851  005356                     l5400:
 10852                           
 10853                           ;display.c: 236: cmd(((2UL<<30)|(((380)&511UL)<<21)|(((0+15)&511UL)<<12)|(((0)&31UL)<<7)
      +                          |(((0)&127UL)<<0)));
 10854  005356  0E00               	movlw	0
 10855  005358  0100               	movlb	0	; () banked
 10856  00535A  6F60               	movwf	cmd@command& (0+255),b
 10857  00535C  0EF0               	movlw	240
 10858  00535E  6F61               	movwf	(cmd@command+1)& (0+255),b
 10859  005360  0E80               	movlw	128
 10860  005362  6F62               	movwf	(cmd@command+2)& (0+255),b
 10861  005364  0EAF               	movlw	175
 10862  005366  6F63               	movwf	(cmd@command+3)& (0+255),b
 10863  005368  EC4F  F03A         	call	_cmd	;wreg free
 10864                           
 10865                           ;display.c: 237: cmd(((2UL<<30)|(((380)&511UL)<<21)|(((0+64)&511UL)<<12)|(((0)&31UL)<<7)
      +                          |(((0)&127UL)<<0)));
 10866  00536C  0E00               	movlw	0
 10867  00536E  0100               	movlb	0	; () banked
 10868  005370  6F60               	movwf	cmd@command& (0+255),b
 10869  005372  0E00               	movlw	0
 10870  005374  6F61               	movwf	(cmd@command+1)& (0+255),b
 10871  005376  0E84               	movlw	132
 10872  005378  6F62               	movwf	(cmd@command+2)& (0+255),b
 10873  00537A  0EAF               	movlw	175
 10874  00537C  6F63               	movwf	(cmd@command+3)& (0+255),b
 10875  00537E  EC4F  F03A         	call	_cmd	;wreg free
 10876                           
 10877                           ;display.c: 238: cmd(((2UL<<30)|(((380+80)&511UL)<<21)|(((0+16)&511UL)<<12)|(((0)&31UL)<
      +                          <7)|(((0)&127UL)<<0)));
 10878  005382  0E00               	movlw	0
 10879  005384  0100               	movlb	0	; () banked
 10880  005386  6F60               	movwf	cmd@command& (0+255),b
 10881  005388  0E00               	movlw	0
 10882  00538A  6F61               	movwf	(cmd@command+1)& (0+255),b
 10883  00538C  0E81               	movlw	129
 10884  00538E  6F62               	movwf	(cmd@command+2)& (0+255),b
 10885  005390  0EB9               	movlw	185
 10886  005392  6F63               	movwf	(cmd@command+3)& (0+255),b
 10887  005394  EC4F  F03A         	call	_cmd	;wreg free
 10888                           
 10889                           ;display.c: 239: cmd(((2UL<<30)|(((380+80)&511UL)<<21)|(((0+115)&511UL)<<12)|(((0)&31UL)
      +                          <<7)|(((0)&127UL)<<0)));
 10890  005398  0E00               	movlw	0
 10891  00539A  0100               	movlb	0	; () banked
 10892  00539C  6F60               	movwf	cmd@command& (0+255),b
 10893  00539E  0E30               	movlw	48
 10894  0053A0  6F61               	movwf	(cmd@command+1)& (0+255),b
 10895  0053A2  0E87               	movlw	135
 10896  0053A4  6F62               	movwf	(cmd@command+2)& (0+255),b
 10897  0053A6  0EB9               	movlw	185
 10898  0053A8  6F63               	movwf	(cmd@command+3)& (0+255),b
 10899  0053AA  EC4F  F03A         	call	_cmd	;wreg free
 10900                           
 10901                           ;display.c: 240: cmd(((2UL<<30)|(((380+77)&511UL)<<21)|(((0+65)&511UL)<<12)|(((0)&31UL)<
      +                          <7)|(((0)&127UL)<<0)));
 10902  0053AE  0E00               	movlw	0
 10903  0053B0  0100               	movlb	0	; () banked
 10904  0053B2  6F60               	movwf	cmd@command& (0+255),b
 10905  0053B4  0E10               	movlw	16
 10906  0053B6  6F61               	movwf	(cmd@command+1)& (0+255),b
 10907  0053B8  0E24               	movlw	36
 10908  0053BA  6F62               	movwf	(cmd@command+2)& (0+255),b
 10909  0053BC  0EB9               	movlw	185
 10910  0053BE  6F63               	movwf	(cmd@command+3)& (0+255),b
 10911  0053C0  EC4F  F03A         	call	_cmd	;wreg free
 10912                           
 10913                           ;display.c: 241: cmd(((2UL<<30)|(((380+1)&511UL)<<21)|(((0+65)&511UL)<<12)|(((0)&31UL)<<
      +                          7)|(((0)&127UL)<<0)));
 10914  0053C4  0E00               	movlw	0
 10915  0053C6  0100               	movlb	0	; () banked
 10916  0053C8  6F60               	movwf	cmd@command& (0+255),b
 10917  0053CA  0E10               	movlw	16
 10918  0053CC  6F61               	movwf	(cmd@command+1)& (0+255),b
 10919  0053CE  0EA4               	movlw	164
 10920  0053D0  6F62               	movwf	(cmd@command+2)& (0+255),b
 10921  0053D2  0EAF               	movlw	175
 10922  0053D4  6F63               	movwf	(cmd@command+3)& (0+255),b
 10923  0053D6  EC4F  F03A         	call	_cmd	;wreg free
 10924                           
 10925                           ;display.c: 242: break;
 10926  0053DA  0012               	return	
 10927  0053DC                     l5402:
 10928                           
 10929                           ;display.c: 244: cmd(((2UL<<30)|(((380)&511UL)<<21)|(((0+15)&511UL)<<12)|(((0)&31UL)<<7)
      +                          |(((0)&127UL)<<0)));
 10930  0053DC  0E00               	movlw	0
 10931  0053DE  0100               	movlb	0	; () banked
 10932  0053E0  6F60               	movwf	cmd@command& (0+255),b
 10933  0053E2  0EF0               	movlw	240
 10934  0053E4  6F61               	movwf	(cmd@command+1)& (0+255),b
 10935  0053E6  0E80               	movlw	128
 10936  0053E8  6F62               	movwf	(cmd@command+2)& (0+255),b
 10937  0053EA  0EAF               	movlw	175
 10938  0053EC  6F63               	movwf	(cmd@command+3)& (0+255),b
 10939  0053EE  EC4F  F03A         	call	_cmd	;wreg free
 10940                           
 10941                           ;display.c: 245: cmd(((2UL<<30)|(((380+79)&511UL)<<21)|(((0+15)&511UL)<<12)|(((0)&31UL)<
      +                          <7)|(((0)&127UL)<<0)));
 10942  0053F2  0E00               	movlw	0
 10943  0053F4  0100               	movlb	0	; () banked
 10944  0053F6  6F60               	movwf	cmd@command& (0+255),b
 10945  0053F8  0EF0               	movlw	240
 10946  0053FA  6F61               	movwf	(cmd@command+1)& (0+255),b
 10947  0053FC  0E60               	movlw	96
 10948  0053FE  6F62               	movwf	(cmd@command+2)& (0+255),b
 10949  005400  0EB9               	movlw	185
 10950  005402  6F63               	movwf	(cmd@command+3)& (0+255),b
 10951  005404  EC4F  F03A         	call	_cmd	;wreg free
 10952                           
 10953                           ;display.c: 246: cmd(((2UL<<30)|(((380)&511UL)<<21)|(((0+16)&511UL)<<12)|(((0)&31UL)<<7)
      +                          |(((0)&127UL)<<0)));
 10954  005408  0E00               	movlw	0
 10955  00540A  0100               	movlb	0	; () banked
 10956  00540C  6F60               	movwf	cmd@command& (0+255),b
 10957  00540E  0E00               	movlw	0
 10958  005410  6F61               	movwf	(cmd@command+1)& (0+255),b
 10959  005412  0E81               	movlw	129
 10960  005414  6F62               	movwf	(cmd@command+2)& (0+255),b
 10961  005416  0EAF               	movlw	175
 10962  005418  6F63               	movwf	(cmd@command+3)& (0+255),b
 10963  00541A  EC4F  F03A         	call	_cmd	;wreg free
 10964                           
 10965                           ;display.c: 247: cmd(((2UL<<30)|(((380)&511UL)<<21)|(((0+64)&511UL)<<12)|(((0)&31UL)<<7)
      +                          |(((0)&127UL)<<0)));
 10966  00541E  0E00               	movlw	0
 10967  005420  0100               	movlb	0	; () banked
 10968  005422  6F60               	movwf	cmd@command& (0+255),b
 10969  005424  0E00               	movlw	0
 10970  005426  6F61               	movwf	(cmd@command+1)& (0+255),b
 10971  005428  0E84               	movlw	132
 10972  00542A  6F62               	movwf	(cmd@command+2)& (0+255),b
 10973  00542C  0EAF               	movlw	175
 10974  00542E  6F63               	movwf	(cmd@command+3)& (0+255),b
 10975  005430  EC4F  F03A         	call	_cmd	;wreg free
 10976                           
 10977                           ;display.c: 248: cmd(((2UL<<30)|(((380+80)&511UL)<<21)|(((0+65)&511UL)<<12)|(((0)&31UL)<
      +                          <7)|(((0)&127UL)<<0)));
 10978  005434  0E00               	movlw	0
 10979  005436  0100               	movlb	0	; () banked
 10980  005438  6F60               	movwf	cmd@command& (0+255),b
 10981  00543A  0E10               	movlw	16
 10982  00543C  6F61               	movwf	(cmd@command+1)& (0+255),b
 10983  00543E  0E84               	movlw	132
 10984  005440  6F62               	movwf	(cmd@command+2)& (0+255),b
 10985  005442  0EB9               	movlw	185
 10986  005444  6F63               	movwf	(cmd@command+3)& (0+255),b
 10987  005446  EC4F  F03A         	call	_cmd	;wreg free
 10988                           
 10989                           ;display.c: 249: cmd(((2UL<<30)|(((380+80)&511UL)<<21)|(((0+114)&511UL)<<12)|(((0)&31UL)
      +                          <<7)|(((0)&127UL)<<0)));
 10990  00544A  0E00               	movlw	0
 10991  00544C  0100               	movlb	0	; () banked
 10992  00544E  6F60               	movwf	cmd@command& (0+255),b
 10993  005450  0E20               	movlw	32
 10994  005452  6F61               	movwf	(cmd@command+1)& (0+255),b
 10995  005454  0E87               	movlw	135
 10996  005456  6F62               	movwf	(cmd@command+2)& (0+255),b
 10997  005458  0EB9               	movlw	185
 10998  00545A  6F63               	movwf	(cmd@command+3)& (0+255),b
 10999  00545C  EC4F  F03A         	call	_cmd	;wreg free
 11000                           
 11001                           ;display.c: 250: cmd(((2UL<<30)|(((380+77)&511UL)<<21)|(((0+65)&511UL)<<12)|(((0)&31UL)<
      +                          <7)|(((0)&127UL)<<0)));
 11002  005460  0E00               	movlw	0
 11003  005462  0100               	movlb	0	; () banked
 11004  005464  6F60               	movwf	cmd@command& (0+255),b
 11005  005466  0E10               	movlw	16
 11006  005468  6F61               	movwf	(cmd@command+1)& (0+255),b
 11007  00546A  0E24               	movlw	36
 11008  00546C  6F62               	movwf	(cmd@command+2)& (0+255),b
 11009  00546E  0EB9               	movlw	185
 11010  005470  6F63               	movwf	(cmd@command+3)& (0+255),b
 11011  005472  EC4F  F03A         	call	_cmd	;wreg free
 11012                           
 11013                           ;display.c: 251: cmd(((2UL<<30)|(((380+1)&511UL)<<21)|(((0+65)&511UL)<<12)|(((0)&31UL)<<
      +                          7)|(((0)&127UL)<<0)));
 11014  005476  0E00               	movlw	0
 11015  005478  0100               	movlb	0	; () banked
 11016  00547A  6F60               	movwf	cmd@command& (0+255),b
 11017  00547C  0E10               	movlw	16
 11018  00547E  6F61               	movwf	(cmd@command+1)& (0+255),b
 11019  005480  0EA4               	movlw	164
 11020  005482  6F62               	movwf	(cmd@command+2)& (0+255),b
 11021  005484  0EAF               	movlw	175
 11022  005486  6F63               	movwf	(cmd@command+3)& (0+255),b
 11023  005488  EC4F  F03A         	call	_cmd	;wreg free
 11024                           
 11025                           ;display.c: 252: cmd(((2UL<<30)|(((380+1)&511UL)<<21)|(((0+115)&511UL)<<12)|(((0)&31UL)<
      +                          <7)|(((0)&127UL)<<0)));
 11026  00548C  0E00               	movlw	0
 11027  00548E  0100               	movlb	0	; () banked
 11028  005490  6F60               	movwf	cmd@command& (0+255),b
 11029  005492  0E30               	movlw	48
 11030  005494  6F61               	movwf	(cmd@command+1)& (0+255),b
 11031  005496  0EA7               	movlw	167
 11032  005498  6F62               	movwf	(cmd@command+2)& (0+255),b
 11033  00549A  0EAF               	movlw	175
 11034  00549C  6F63               	movwf	(cmd@command+3)& (0+255),b
 11035  00549E  EC4F  F03A         	call	_cmd	;wreg free
 11036                           
 11037                           ;display.c: 253: cmd(((2UL<<30)|(((380+79)&511UL)<<21)|(((0+115)&511UL)<<12)|(((0)&31UL)
      +                          <<7)|(((0)&127UL)<<0)));
 11038  0054A2  0E00               	movlw	0
 11039  0054A4  0100               	movlb	0	; () banked
 11040  0054A6  6F60               	movwf	cmd@command& (0+255),b
 11041  0054A8  0E30               	movlw	48
 11042  0054AA  6F61               	movwf	(cmd@command+1)& (0+255),b
 11043  0054AC  0E67               	movlw	103
 11044  0054AE  6F62               	movwf	(cmd@command+2)& (0+255),b
 11045  0054B0  0EB9               	movlw	185
 11046  0054B2  6F63               	movwf	(cmd@command+3)& (0+255),b
 11047  0054B4  EC4F  F03A         	call	_cmd	;wreg free
 11048                           
 11049                           ;display.c: 254: break;
 11050  0054B8  0012               	return	
 11051  0054BA                     l5404:
 11052                           
 11053                           ;display.c: 256: cmd(((2UL<<30)|(((380)&511UL)<<21)|(((0+15)&511UL)<<12)|(((0)&31UL)<<7)
      +                          |(((0)&127UL)<<0)));
 11054  0054BA  0E00               	movlw	0
 11055  0054BC  0100               	movlb	0	; () banked
 11056  0054BE  6F60               	movwf	cmd@command& (0+255),b
 11057  0054C0  0EF0               	movlw	240
 11058  0054C2  6F61               	movwf	(cmd@command+1)& (0+255),b
 11059  0054C4  0E80               	movlw	128
 11060  0054C6  6F62               	movwf	(cmd@command+2)& (0+255),b
 11061  0054C8  0EAF               	movlw	175
 11062  0054CA  6F63               	movwf	(cmd@command+3)& (0+255),b
 11063  0054CC  EC4F  F03A         	call	_cmd	;wreg free
 11064                           
 11065                           ;display.c: 257: cmd(((2UL<<30)|(((380+79)&511UL)<<21)|(((0+15)&511UL)<<12)|(((0)&31UL)<
      +                          <7)|(((0)&127UL)<<0)));
 11066  0054D0  0E00               	movlw	0
 11067  0054D2  0100               	movlb	0	; () banked
 11068  0054D4  6F60               	movwf	cmd@command& (0+255),b
 11069  0054D6  0EF0               	movlw	240
 11070  0054D8  6F61               	movwf	(cmd@command+1)& (0+255),b
 11071  0054DA  0E60               	movlw	96
 11072  0054DC  6F62               	movwf	(cmd@command+2)& (0+255),b
 11073  0054DE  0EB9               	movlw	185
 11074  0054E0  6F63               	movwf	(cmd@command+3)& (0+255),b
 11075  0054E2  EC4F  F03A         	call	_cmd	;wreg free
 11076                           
 11077                           ;display.c: 258: cmd(((2UL<<30)|(((380)&511UL)<<21)|(((0+16)&511UL)<<12)|(((0)&31UL)<<7)
      +                          |(((0)&127UL)<<0)));
 11078  0054E6  0E00               	movlw	0
 11079  0054E8  0100               	movlb	0	; () banked
 11080  0054EA  6F60               	movwf	cmd@command& (0+255),b
 11081  0054EC  0E00               	movlw	0
 11082  0054EE  6F61               	movwf	(cmd@command+1)& (0+255),b
 11083  0054F0  0E81               	movlw	129
 11084  0054F2  6F62               	movwf	(cmd@command+2)& (0+255),b
 11085  0054F4  0EAF               	movlw	175
 11086  0054F6  6F63               	movwf	(cmd@command+3)& (0+255),b
 11087  0054F8  EC4F  F03A         	call	_cmd	;wreg free
 11088                           
 11089                           ;display.c: 259: cmd(((2UL<<30)|(((380)&511UL)<<21)|(((0+115)&511UL)<<12)|(((0)&31UL)<<7
      +                          )|(((0)&127UL)<<0)));
 11090  0054FC  0E00               	movlw	0
 11091  0054FE  0100               	movlb	0	; () banked
 11092  005500  6F60               	movwf	cmd@command& (0+255),b
 11093  005502  0E30               	movlw	48
 11094  005504  6F61               	movwf	(cmd@command+1)& (0+255),b
 11095  005506  0E87               	movlw	135
 11096  005508  6F62               	movwf	(cmd@command+2)& (0+255),b
 11097  00550A  0EAF               	movlw	175
 11098  00550C  6F63               	movwf	(cmd@command+3)& (0+255),b
 11099  00550E  EC4F  F03A         	call	_cmd	;wreg free
 11100                           
 11101                           ;display.c: 260: cmd(((2UL<<30)|(((380+80)&511UL)<<21)|(((0+65)&511UL)<<12)|(((0)&31UL)<
      +                          <7)|(((0)&127UL)<<0)));
 11102  005512  0E00               	movlw	0
 11103  005514  0100               	movlb	0	; () banked
 11104  005516  6F60               	movwf	cmd@command& (0+255),b
 11105  005518  0E10               	movlw	16
 11106  00551A  6F61               	movwf	(cmd@command+1)& (0+255),b
 11107  00551C  0E84               	movlw	132
 11108  00551E  6F62               	movwf	(cmd@command+2)& (0+255),b
 11109  005520  0EB9               	movlw	185
 11110  005522  6F63               	movwf	(cmd@command+3)& (0+255),b
 11111  005524  EC4F  F03A         	call	_cmd	;wreg free
 11112                           
 11113                           ;display.c: 261: cmd(((2UL<<30)|(((380+80)&511UL)<<21)|(((0+114)&511UL)<<12)|(((0)&31UL)
      +                          <<7)|(((0)&127UL)<<0)));
 11114  005528  0E00               	movlw	0
 11115  00552A  0100               	movlb	0	; () banked
 11116  00552C  6F60               	movwf	cmd@command& (0+255),b
 11117  00552E  0E20               	movlw	32
 11118  005530  6F61               	movwf	(cmd@command+1)& (0+255),b
 11119  005532  0E87               	movlw	135
 11120  005534  6F62               	movwf	(cmd@command+2)& (0+255),b
 11121  005536  0EB9               	movlw	185
 11122  005538  6F63               	movwf	(cmd@command+3)& (0+255),b
 11123  00553A  EC4F  F03A         	call	_cmd	;wreg free
 11124                           
 11125                           ;display.c: 262: cmd(((2UL<<30)|(((380+77)&511UL)<<21)|(((0+65)&511UL)<<12)|(((0)&31UL)<
      +                          <7)|(((0)&127UL)<<0)));
 11126  00553E  0E00               	movlw	0
 11127  005540  0100               	movlb	0	; () banked
 11128  005542  6F60               	movwf	cmd@command& (0+255),b
 11129  005544  0E10               	movlw	16
 11130  005546  6F61               	movwf	(cmd@command+1)& (0+255),b
 11131  005548  0E24               	movlw	36
 11132  00554A  6F62               	movwf	(cmd@command+2)& (0+255),b
 11133  00554C  0EB9               	movlw	185
 11134  00554E  6F63               	movwf	(cmd@command+3)& (0+255),b
 11135  005550  EC4F  F03A         	call	_cmd	;wreg free
 11136                           
 11137                           ;display.c: 263: cmd(((2UL<<30)|(((380+1)&511UL)<<21)|(((0+65)&511UL)<<12)|(((0)&31UL)<<
      +                          7)|(((0)&127UL)<<0)));
 11138  005554  0E00               	movlw	0
 11139  005556  0100               	movlb	0	; () banked
 11140  005558  6F60               	movwf	cmd@command& (0+255),b
 11141  00555A  0E10               	movlw	16
 11142  00555C  6F61               	movwf	(cmd@command+1)& (0+255),b
 11143  00555E  0EA4               	movlw	164
 11144  005560  6F62               	movwf	(cmd@command+2)& (0+255),b
 11145  005562  0EAF               	movlw	175
 11146  005564  6F63               	movwf	(cmd@command+3)& (0+255),b
 11147  005566  EC4F  F03A         	call	_cmd	;wreg free
 11148                           
 11149                           ;display.c: 264: cmd(((2UL<<30)|(((380+1)&511UL)<<21)|(((0+115)&511UL)<<12)|(((0)&31UL)<
      +                          <7)|(((0)&127UL)<<0)));
 11150  00556A  0E00               	movlw	0
 11151  00556C  0100               	movlb	0	; () banked
 11152  00556E  6F60               	movwf	cmd@command& (0+255),b
 11153  005570  0E30               	movlw	48
 11154  005572  6F61               	movwf	(cmd@command+1)& (0+255),b
 11155  005574  0EA7               	movlw	167
 11156  005576  6F62               	movwf	(cmd@command+2)& (0+255),b
 11157  005578  0EAF               	movlw	175
 11158  00557A  6F63               	movwf	(cmd@command+3)& (0+255),b
 11159  00557C  EC4F  F03A         	call	_cmd	;wreg free
 11160                           
 11161                           ;display.c: 265: cmd(((2UL<<30)|(((380+79)&511UL)<<21)|(((0+115)&511UL)<<12)|(((0)&31UL)
      +                          <<7)|(((0)&127UL)<<0)));
 11162  005580  0E00               	movlw	0
 11163  005582  0100               	movlb	0	; () banked
 11164  005584  6F60               	movwf	cmd@command& (0+255),b
 11165  005586  0E30               	movlw	48
 11166  005588  6F61               	movwf	(cmd@command+1)& (0+255),b
 11167  00558A  0E67               	movlw	103
 11168  00558C  6F62               	movwf	(cmd@command+2)& (0+255),b
 11169  00558E  0EB9               	movlw	185
 11170  005590  6F63               	movwf	(cmd@command+3)& (0+255),b
 11171  005592  EC4F  F03A         	call	_cmd	;wreg free
 11172                           
 11173                           ;display.c: 270: }
 11174                           
 11175                           ;display.c: 269: break;
 11176                           
 11177                           ;display.c: 267: default:
 11178                           
 11179                           ;display.c: 266: break;
 11180  005596  0012               	return	
 11181  005598                     l5408:
 11182  005598  C064  F066         	movff	display_gear@gear,??_display_gear
 11183  00559C  C065  F067         	movff	display_gear@gear+1,??_display_gear+1
 11184                           
 11185                           ; Switch on 2 bytes has been partitioned into a top level switch of size 1, and 1 sub-sw
      +                          itches
 11186                           ; Switch size 1, requested type "space"
 11187                           ; Number of cases is 1, Range of values is 0 to 0
 11188                           ; switch strategies available:
 11189                           ; Name         Instructions Cycles
 11190                           ; simple_byte            4     3 (average)
 11191                           ;	Chosen strategy is simple_byte
 11192  0055A0  0100               	movlb	0	; () banked
 11193  0055A2  5167               	movf	(??_display_gear+1)& (0+255),w,b
 11194  0055A4  0A00               	xorlw	0	; case 0
 11195  0055A6  A4D8               	btfss	status,2,c
 11196  0055A8  0012               	return	
 11197                           
 11198                           ; BSR set to: 0
 11199                           ; Switch size 1, requested type "space"
 11200                           ; Number of cases is 7, Range of values is 0 to 6
 11201                           ; switch strategies available:
 11202                           ; Name         Instructions Cycles
 11203                           ; simple_byte           22    12 (average)
 11204                           ;	Chosen strategy is simple_byte
 11205  0055AA  0100               	movlb	0	; () banked
 11206  0055AC  5166               	movf	??_display_gear& (0+255),w,b
 11207  0055AE  0A00               	xorlw	0	; case 0
 11208  0055B0  B4D8               	btfsc	status,2,c
 11209  0055B2  D583               	goto	l5392
 11210  0055B4  0A01               	xorlw	1	; case 1
 11211  0055B6  B4D8               	btfsc	status,2,c
 11212  0055B8  D5C3               	goto	l5394
 11213  0055BA  0A03               	xorlw	3	; case 2
 11214  0055BC  B4D8               	btfsc	status,2,c
 11215  0055BE  D603               	goto	l5396
 11216  0055C0  0A01               	xorlw	1	; case 3
 11217  0055C2  B4D8               	btfsc	status,2,c
 11218  0055C4  D66F               	goto	l5398
 11219  0055C6  0A07               	xorlw	7	; case 4
 11220  0055C8  B4D8               	btfsc	status,2,c
 11221  0055CA  D6C5               	goto	l5400
 11222  0055CC  0A01               	xorlw	1	; case 5
 11223  0055CE  B4D8               	btfsc	status,2,c
 11224  0055D0  D705               	goto	l5402
 11225  0055D2  0A03               	xorlw	3	; case 6
 11226  0055D4  A4D8               	btfss	status,2,c
 11227  0055D6  0012               	return	
 11228  0055D8  D770               	goto	l5404
 11229  0055DA                     __end_of_display_gear:
 11230                           	opt stack 0
 11231                           tblptru	equ	0xFF8
 11232                           postinc0	equ	0xFEE
 11233                           wreg	equ	0xFE8
 11234                           status	equ	0xFD8
 11235                           
 11236 ;; *************** function _display_fuel *****************
 11237 ;; Defined at:
 11238 ;;		line 133 in file "display.c"
 11239 ;; Parameters:    Size  Location     Type
 11240 ;;  level           2    4[BANK0 ] int 
 11241 ;; Auto vars:     Size  Location     Type
 11242 ;;		None
 11243 ;; Return value:  Size  Location     Type
 11244 ;;                  1    wreg      void 
 11245 ;; Registers used:
 11246 ;;		wreg, status,2, status,0, tblptrl, tblptrh, tblptru, prodl, prodh, cstack
 11247 ;; Tracked objects:
 11248 ;;		On entry : 0/0
 11249 ;;		On exit  : 0/0
 11250 ;;		Unchanged: 0/0
 11251 ;; Data sizes:     COMRAM   BANK0   BANK1   BANK2   BANK3   BANK4   BANK5   BANK6   BANK7   BANK8   BANK9  BANK10  BANK1
      +1  BANK12  BANK13  BANK14
 11252 ;;      Params:         0       2       0       0       0       0       0       0       0       0       0       0       
      +0       0       0       0
 11253 ;;      Locals:         0       0       0       0       0       0       0       0       0       0       0       0       
      +0       0       0       0
 11254 ;;      Temps:          0       3       0       0       0       0       0       0       0       0       0       0       
      +0       0       0       0
 11255 ;;      Totals:         0       5       0       0       0       0       0       0       0       0       0       0       
      +0       0       0       0
 11256 ;;Total ram usage:        5 bytes
 11257 ;; Hardware stack levels used:    1
 11258 ;; Hardware stack levels required when called:    5
 11259 ;; This function calls:
 11260 ;;		_cmd
 11261 ;;		_cmd_incrementn
 11262 ;;		_wr16
 11263 ;;		_wr8s
 11264 ;; This function is called by:
 11265 ;;		_display
 11266 ;; This function uses a non-reentrant model
 11267 ;;
 11268                           
 11269                           	psect	text15
 11270  005932                     __ptext15:
 11271                           	opt stack 0
 11272  005932                     _display_fuel:
 11273                           	opt stack 24
 11274                           
 11275                           ;display.c: 134: cmd(4294967086UL);wr16(1081344UL+cmd_offset, 66);cmd_incrementn(2);wr16
      +                          (1081344UL+cmd_offset, 89);cmd_incrementn(2);wr16(1081344UL+cmd_offset, 28);cmd_incremen
      +                          tn(2);wr16(1081344UL+cmd_offset, 0);cmd_incrementn(2);cmd(3);
 11276                           
 11277                           ;incstack = 0
 11278  005932  0E2E               	movlw	46
 11279  005934  0100               	movlb	0	; () banked
 11280  005936  6F60               	movwf	cmd@command& (0+255),b
 11281  005938  0EFF               	movlw	255
 11282  00593A  6F61               	movwf	(cmd@command+1)& (0+255),b
 11283  00593C  0EFF               	movlw	255
 11284  00593E  6F62               	movwf	(cmd@command+2)& (0+255),b
 11285  005940  0EFF               	movlw	255
 11286  005942  6F63               	movwf	(cmd@command+3)& (0+255),b
 11287  005944  EC4F  F03A         	call	_cmd	;wreg free
 11288  005948  C03E  F066         	movff	_cmd_offset,??_display_fuel
 11289  00594C  C03F  F067         	movff	_cmd_offset+1,??_display_fuel+1
 11290  005950  0100               	movlb	0	; () banked
 11291  005952  6B68               	clrf	(??_display_fuel+2)& (0+255),b
 11292  005954  0E00               	movlw	0
 11293  005956  0100               	movlb	0	; () banked
 11294  005958  2566               	addwf	??_display_fuel& (0+255),w,b
 11295  00595A  6E1F               	movwf	wr16@addr,c
 11296  00595C  0E80               	movlw	128
 11297  00595E  0100               	movlb	0	; () banked
 11298  005960  2167               	addwfc	(??_display_fuel+1)& (0+255),w,b
 11299  005962  6E20               	movwf	wr16@addr+1,c
 11300  005964  0E10               	movlw	16
 11301  005966  0100               	movlb	0	; () banked
 11302  005968  2168               	addwfc	(??_display_fuel+2)& (0+255),w,b
 11303  00596A  6E21               	movwf	wr16@addr+2,c
 11304  00596C  0E00               	movlw	0
 11305  00596E  6E23               	movwf	wr16@value+1,c
 11306  005970  0E42               	movlw	66
 11307  005972  6E22               	movwf	wr16@value,c
 11308  005974  EC31  F03A         	call	_wr16	;wreg free
 11309  005978  0E02               	movlw	2
 11310  00597A  ECA2  F03A         	call	_cmd_incrementn
 11311  00597E  C03E  F066         	movff	_cmd_offset,??_display_fuel
 11312  005982  C03F  F067         	movff	_cmd_offset+1,??_display_fuel+1
 11313  005986  0100               	movlb	0	; () banked
 11314  005988  6B68               	clrf	(??_display_fuel+2)& (0+255),b
 11315  00598A  0E00               	movlw	0
 11316  00598C  0100               	movlb	0	; () banked
 11317  00598E  2566               	addwf	??_display_fuel& (0+255),w,b
 11318  005990  6E1F               	movwf	wr16@addr,c
 11319  005992  0E80               	movlw	128
 11320  005994  0100               	movlb	0	; () banked
 11321  005996  2167               	addwfc	(??_display_fuel+1)& (0+255),w,b
 11322  005998  6E20               	movwf	wr16@addr+1,c
 11323  00599A  0E10               	movlw	16
 11324  00599C  0100               	movlb	0	; () banked
 11325  00599E  2168               	addwfc	(??_display_fuel+2)& (0+255),w,b
 11326  0059A0  6E21               	movwf	wr16@addr+2,c
 11327  0059A2  0E00               	movlw	0
 11328  0059A4  6E23               	movwf	wr16@value+1,c
 11329  0059A6  0E59               	movlw	89
 11330  0059A8  6E22               	movwf	wr16@value,c
 11331  0059AA  EC31  F03A         	call	_wr16	;wreg free
 11332  0059AE  0E02               	movlw	2
 11333  0059B0  ECA2  F03A         	call	_cmd_incrementn
 11334  0059B4  C03E  F066         	movff	_cmd_offset,??_display_fuel
 11335  0059B8  C03F  F067         	movff	_cmd_offset+1,??_display_fuel+1
 11336  0059BC  0100               	movlb	0	; () banked
 11337  0059BE  6B68               	clrf	(??_display_fuel+2)& (0+255),b
 11338  0059C0  0E00               	movlw	0
 11339  0059C2  0100               	movlb	0	; () banked
 11340  0059C4  2566               	addwf	??_display_fuel& (0+255),w,b
 11341  0059C6  6E1F               	movwf	wr16@addr,c
 11342  0059C8  0E80               	movlw	128
 11343  0059CA  0100               	movlb	0	; () banked
 11344  0059CC  2167               	addwfc	(??_display_fuel+1)& (0+255),w,b
 11345  0059CE  6E20               	movwf	wr16@addr+1,c
 11346  0059D0  0E10               	movlw	16
 11347  0059D2  0100               	movlb	0	; () banked
 11348  0059D4  2168               	addwfc	(??_display_fuel+2)& (0+255),w,b
 11349  0059D6  6E21               	movwf	wr16@addr+2,c
 11350  0059D8  0E00               	movlw	0
 11351  0059DA  6E23               	movwf	wr16@value+1,c
 11352  0059DC  0E1C               	movlw	28
 11353  0059DE  6E22               	movwf	wr16@value,c
 11354  0059E0  EC31  F03A         	call	_wr16	;wreg free
 11355  0059E4  0E02               	movlw	2
 11356  0059E6  ECA2  F03A         	call	_cmd_incrementn
 11357  0059EA  C03E  F066         	movff	_cmd_offset,??_display_fuel
 11358  0059EE  C03F  F067         	movff	_cmd_offset+1,??_display_fuel+1
 11359  0059F2  0100               	movlb	0	; () banked
 11360  0059F4  6B68               	clrf	(??_display_fuel+2)& (0+255),b
 11361  0059F6  0E00               	movlw	0
 11362  0059F8  0100               	movlb	0	; () banked
 11363  0059FA  2566               	addwf	??_display_fuel& (0+255),w,b
 11364  0059FC  6E1F               	movwf	wr16@addr,c
 11365  0059FE  0E80               	movlw	128
 11366  005A00  0100               	movlb	0	; () banked
 11367  005A02  2167               	addwfc	(??_display_fuel+1)& (0+255),w,b
 11368  005A04  6E20               	movwf	wr16@addr+1,c
 11369  005A06  0E10               	movlw	16
 11370  005A08  0100               	movlb	0	; () banked
 11371  005A0A  2168               	addwfc	(??_display_fuel+2)& (0+255),w,b
 11372  005A0C  6E21               	movwf	wr16@addr+2,c
 11373  005A0E  0E00               	movlw	0
 11374  005A10  6E23               	movwf	wr16@value+1,c
 11375  005A12  0E00               	movlw	0
 11376  005A14  6E22               	movwf	wr16@value,c
 11377  005A16  EC31  F03A         	call	_wr16	;wreg free
 11378  005A1A  0E02               	movlw	2
 11379  005A1C  ECA2  F03A         	call	_cmd_incrementn
 11380  005A20  0E03               	movlw	3
 11381  005A22  0100               	movlb	0	; () banked
 11382  005A24  6F60               	movwf	cmd@command& (0+255),b
 11383  005A26  0E00               	movlw	0
 11384  005A28  6F61               	movwf	(cmd@command+1)& (0+255),b
 11385  005A2A  0E00               	movlw	0
 11386  005A2C  6F62               	movwf	(cmd@command+2)& (0+255),b
 11387  005A2E  0E00               	movlw	0
 11388  005A30  6F63               	movwf	(cmd@command+3)& (0+255),b
 11389  005A32  EC4F  F03A         	call	_cmd	;wreg free
 11390                           
 11391                           ;display.c: 135: cmd(4294967052UL);wr16(1081344UL+cmd_offset, 78);cmd_incrementn(2);wr16
      +                          (1081344UL+cmd_offset, 90);cmd_incrementn(2);wr16(1081344UL+cmd_offset, 28);cmd_incremen
      +                          tn(2);wr16(1081344UL+cmd_offset, 0);cmd_incrementn(2);cmd_incrementn(wr8s(1081344UL+cmd_
      +                          off
 11392  005A36  0E0C               	movlw	12
 11393  005A38  0100               	movlb	0	; () banked
 11394  005A3A  6F60               	movwf	cmd@command& (0+255),b
 11395  005A3C  0EFF               	movlw	255
 11396  005A3E  6F61               	movwf	(cmd@command+1)& (0+255),b
 11397  005A40  0EFF               	movlw	255
 11398  005A42  6F62               	movwf	(cmd@command+2)& (0+255),b
 11399  005A44  0EFF               	movlw	255
 11400  005A46  6F63               	movwf	(cmd@command+3)& (0+255),b
 11401  005A48  EC4F  F03A         	call	_cmd	;wreg free
 11402  005A4C  C03E  F066         	movff	_cmd_offset,??_display_fuel
 11403  005A50  C03F  F067         	movff	_cmd_offset+1,??_display_fuel+1
 11404  005A54  0100               	movlb	0	; () banked
 11405  005A56  6B68               	clrf	(??_display_fuel+2)& (0+255),b
 11406  005A58  0E00               	movlw	0
 11407  005A5A  0100               	movlb	0	; () banked
 11408  005A5C  2566               	addwf	??_display_fuel& (0+255),w,b
 11409  005A5E  6E1F               	movwf	wr16@addr,c
 11410  005A60  0E80               	movlw	128
 11411  005A62  0100               	movlb	0	; () banked
 11412  005A64  2167               	addwfc	(??_display_fuel+1)& (0+255),w,b
 11413  005A66  6E20               	movwf	wr16@addr+1,c
 11414  005A68  0E10               	movlw	16
 11415  005A6A  0100               	movlb	0	; () banked
 11416  005A6C  2168               	addwfc	(??_display_fuel+2)& (0+255),w,b
 11417  005A6E  6E21               	movwf	wr16@addr+2,c
 11418  005A70  0E00               	movlw	0
 11419  005A72  6E23               	movwf	wr16@value+1,c
 11420  005A74  0E4E               	movlw	78
 11421  005A76  6E22               	movwf	wr16@value,c
 11422  005A78  EC31  F03A         	call	_wr16	;wreg free
 11423  005A7C  0E02               	movlw	2
 11424  005A7E  ECA2  F03A         	call	_cmd_incrementn
 11425  005A82  C03E  F066         	movff	_cmd_offset,??_display_fuel
 11426  005A86  C03F  F067         	movff	_cmd_offset+1,??_display_fuel+1
 11427  005A8A  0100               	movlb	0	; () banked
 11428  005A8C  6B68               	clrf	(??_display_fuel+2)& (0+255),b
 11429  005A8E  0E00               	movlw	0
 11430  005A90  0100               	movlb	0	; () banked
 11431  005A92  2566               	addwf	??_display_fuel& (0+255),w,b
 11432  005A94  6E1F               	movwf	wr16@addr,c
 11433  005A96  0E80               	movlw	128
 11434  005A98  0100               	movlb	0	; () banked
 11435  005A9A  2167               	addwfc	(??_display_fuel+1)& (0+255),w,b
 11436  005A9C  6E20               	movwf	wr16@addr+1,c
 11437  005A9E  0E10               	movlw	16
 11438  005AA0  0100               	movlb	0	; () banked
 11439  005AA2  2168               	addwfc	(??_display_fuel+2)& (0+255),w,b
 11440  005AA4  6E21               	movwf	wr16@addr+2,c
 11441  005AA6  0E00               	movlw	0
 11442  005AA8  6E23               	movwf	wr16@value+1,c
 11443  005AAA  0E5A               	movlw	90
 11444  005AAC  6E22               	movwf	wr16@value,c
 11445  005AAE  EC31  F03A         	call	_wr16	;wreg free
 11446  005AB2  0E02               	movlw	2
 11447  005AB4  ECA2  F03A         	call	_cmd_incrementn
 11448  005AB8  C03E  F066         	movff	_cmd_offset,??_display_fuel
 11449  005ABC  C03F  F067         	movff	_cmd_offset+1,??_display_fuel+1
 11450  005AC0  0100               	movlb	0	; () banked
 11451  005AC2  6B68               	clrf	(??_display_fuel+2)& (0+255),b
 11452  005AC4  0E00               	movlw	0
 11453  005AC6  0100               	movlb	0	; () banked
 11454  005AC8  2566               	addwf	??_display_fuel& (0+255),w,b
 11455  005ACA  6E1F               	movwf	wr16@addr,c
 11456  005ACC  0E80               	movlw	128
 11457  005ACE  0100               	movlb	0	; () banked
 11458  005AD0  2167               	addwfc	(??_display_fuel+1)& (0+255),w,b
 11459  005AD2  6E20               	movwf	wr16@addr+1,c
 11460  005AD4  0E10               	movlw	16
 11461  005AD6  0100               	movlb	0	; () banked
 11462  005AD8  2168               	addwfc	(??_display_fuel+2)& (0+255),w,b
 11463  005ADA  6E21               	movwf	wr16@addr+2,c
 11464  005ADC  0E00               	movlw	0
 11465  005ADE  6E23               	movwf	wr16@value+1,c
 11466  005AE0  0E1C               	movlw	28
 11467  005AE2  6E22               	movwf	wr16@value,c
 11468  005AE4  EC31  F03A         	call	_wr16	;wreg free
 11469  005AE8  0E02               	movlw	2
 11470  005AEA  ECA2  F03A         	call	_cmd_incrementn
 11471  005AEE  C03E  F066         	movff	_cmd_offset,??_display_fuel
 11472  005AF2  C03F  F067         	movff	_cmd_offset+1,??_display_fuel+1
 11473  005AF6  0100               	movlb	0	; () banked
 11474  005AF8  6B68               	clrf	(??_display_fuel+2)& (0+255),b
 11475  005AFA  0E00               	movlw	0
 11476  005AFC  0100               	movlb	0	; () banked
 11477  005AFE  2566               	addwf	??_display_fuel& (0+255),w,b
 11478  005B00  6E1F               	movwf	wr16@addr,c
 11479  005B02  0E80               	movlw	128
 11480  005B04  0100               	movlb	0	; () banked
 11481  005B06  2167               	addwfc	(??_display_fuel+1)& (0+255),w,b
 11482  005B08  6E20               	movwf	wr16@addr+1,c
 11483  005B0A  0E10               	movlw	16
 11484  005B0C  0100               	movlb	0	; () banked
 11485  005B0E  2168               	addwfc	(??_display_fuel+2)& (0+255),w,b
 11486  005B10  6E21               	movwf	wr16@addr+2,c
 11487  005B12  0E00               	movlw	0
 11488  005B14  6E23               	movwf	wr16@value+1,c
 11489  005B16  0E00               	movlw	0
 11490  005B18  6E22               	movwf	wr16@value,c
 11491  005B1A  EC31  F03A         	call	_wr16	;wreg free
 11492  005B1E  0E02               	movlw	2
 11493  005B20  ECA2  F03A         	call	_cmd_incrementn
 11494  005B24  C03E  F066         	movff	_cmd_offset,??_display_fuel
 11495  005B28  C03F  F067         	movff	_cmd_offset+1,??_display_fuel+1
 11496  005B2C  0100               	movlb	0	; () banked
 11497  005B2E  6B68               	clrf	(??_display_fuel+2)& (0+255),b
 11498  005B30  0E00               	movlw	0
 11499  005B32  0100               	movlb	0	; () banked
 11500  005B34  2566               	addwf	??_display_fuel& (0+255),w,b
 11501  005B36  6E24               	movwf	wr8s@addr,c
 11502  005B38  0E80               	movlw	128
 11503  005B3A  0100               	movlb	0	; () banked
 11504  005B3C  2167               	addwfc	(??_display_fuel+1)& (0+255),w,b
 11505  005B3E  6E25               	movwf	wr8s@addr+1,c
 11506  005B40  0E10               	movlw	16
 11507  005B42  0100               	movlb	0	; () banked
 11508  005B44  2168               	addwfc	(??_display_fuel+2)& (0+255),w,b
 11509  005B46  6E26               	movwf	wr8s@addr+2,c
 11510  005B48  0E6A               	movlw	low STR_26
 11511  005B4A  6E27               	movwf	wr8s@s,c
 11512  005B4C  0E0F               	movlw	high STR_26
 11513  005B4E  6E28               	movwf	wr8s@s+1,c
 11514  005B50  EC04  F038         	call	_wr8s	;wreg free
 11515  005B54  ECA2  F03A         	call	_cmd_incrementn
 11516                           
 11517                           ;display.c: 136: cmd(4294967086UL);wr16(1081344UL+cmd_offset, 83);cmd_incrementn(2);wr16
      +                          (1081344UL+cmd_offset, 89);cmd_incrementn(2);wr16(1081344UL+cmd_offset, 28);cmd_incremen
      +                          tn(2);wr16(1081344UL+cmd_offset, 0);cmd_incrementn(2);cmd(3);
 11518  005B58  0E2E               	movlw	46
 11519  005B5A  0100               	movlb	0	; () banked
 11520  005B5C  6F60               	movwf	cmd@command& (0+255),b
 11521  005B5E  0EFF               	movlw	255
 11522  005B60  6F61               	movwf	(cmd@command+1)& (0+255),b
 11523  005B62  0EFF               	movlw	255
 11524  005B64  6F62               	movwf	(cmd@command+2)& (0+255),b
 11525  005B66  0EFF               	movlw	255
 11526  005B68  6F63               	movwf	(cmd@command+3)& (0+255),b
 11527  005B6A  EC4F  F03A         	call	_cmd	;wreg free
 11528  005B6E  C03E  F066         	movff	_cmd_offset,??_display_fuel
 11529  005B72  C03F  F067         	movff	_cmd_offset+1,??_display_fuel+1
 11530  005B76  0100               	movlb	0	; () banked
 11531  005B78  6B68               	clrf	(??_display_fuel+2)& (0+255),b
 11532  005B7A  0E00               	movlw	0
 11533  005B7C  0100               	movlb	0	; () banked
 11534  005B7E  2566               	addwf	??_display_fuel& (0+255),w,b
 11535  005B80  6E1F               	movwf	wr16@addr,c
 11536  005B82  0E80               	movlw	128
 11537  005B84  0100               	movlb	0	; () banked
 11538  005B86  2167               	addwfc	(??_display_fuel+1)& (0+255),w,b
 11539  005B88  6E20               	movwf	wr16@addr+1,c
 11540  005B8A  0E10               	movlw	16
 11541  005B8C  0100               	movlb	0	; () banked
 11542  005B8E  2168               	addwfc	(??_display_fuel+2)& (0+255),w,b
 11543  005B90  6E21               	movwf	wr16@addr+2,c
 11544  005B92  0E00               	movlw	0
 11545  005B94  6E23               	movwf	wr16@value+1,c
 11546  005B96  0E53               	movlw	83
 11547  005B98  6E22               	movwf	wr16@value,c
 11548  005B9A  EC31  F03A         	call	_wr16	;wreg free
 11549  005B9E  0E02               	movlw	2
 11550  005BA0  ECA2  F03A         	call	_cmd_incrementn
 11551  005BA4  C03E  F066         	movff	_cmd_offset,??_display_fuel
 11552  005BA8  C03F  F067         	movff	_cmd_offset+1,??_display_fuel+1
 11553  005BAC  0100               	movlb	0	; () banked
 11554  005BAE  6B68               	clrf	(??_display_fuel+2)& (0+255),b
 11555  005BB0  0E00               	movlw	0
 11556  005BB2  0100               	movlb	0	; () banked
 11557  005BB4  2566               	addwf	??_display_fuel& (0+255),w,b
 11558  005BB6  6E1F               	movwf	wr16@addr,c
 11559  005BB8  0E80               	movlw	128
 11560  005BBA  0100               	movlb	0	; () banked
 11561  005BBC  2167               	addwfc	(??_display_fuel+1)& (0+255),w,b
 11562  005BBE  6E20               	movwf	wr16@addr+1,c
 11563  005BC0  0E10               	movlw	16
 11564  005BC2  0100               	movlb	0	; () banked
 11565  005BC4  2168               	addwfc	(??_display_fuel+2)& (0+255),w,b
 11566  005BC6  6E21               	movwf	wr16@addr+2,c
 11567  005BC8  0E00               	movlw	0
 11568  005BCA  6E23               	movwf	wr16@value+1,c
 11569  005BCC  0E59               	movlw	89
 11570  005BCE  6E22               	movwf	wr16@value,c
 11571  005BD0  EC31  F03A         	call	_wr16	;wreg free
 11572  005BD4  0E02               	movlw	2
 11573  005BD6  ECA2  F03A         	call	_cmd_incrementn
 11574  005BDA  C03E  F066         	movff	_cmd_offset,??_display_fuel
 11575  005BDE  C03F  F067         	movff	_cmd_offset+1,??_display_fuel+1
 11576  005BE2  0100               	movlb	0	; () banked
 11577  005BE4  6B68               	clrf	(??_display_fuel+2)& (0+255),b
 11578  005BE6  0E00               	movlw	0
 11579  005BE8  0100               	movlb	0	; () banked
 11580  005BEA  2566               	addwf	??_display_fuel& (0+255),w,b
 11581  005BEC  6E1F               	movwf	wr16@addr,c
 11582  005BEE  0E80               	movlw	128
 11583  005BF0  0100               	movlb	0	; () banked
 11584  005BF2  2167               	addwfc	(??_display_fuel+1)& (0+255),w,b
 11585  005BF4  6E20               	movwf	wr16@addr+1,c
 11586  005BF6  0E10               	movlw	16
 11587  005BF8  0100               	movlb	0	; () banked
 11588  005BFA  2168               	addwfc	(??_display_fuel+2)& (0+255),w,b
 11589  005BFC  6E21               	movwf	wr16@addr+2,c
 11590  005BFE  0E00               	movlw	0
 11591  005C00  6E23               	movwf	wr16@value+1,c
 11592  005C02  0E1C               	movlw	28
 11593  005C04  6E22               	movwf	wr16@value,c
 11594  005C06  EC31  F03A         	call	_wr16	;wreg free
 11595  005C0A  0E02               	movlw	2
 11596  005C0C  ECA2  F03A         	call	_cmd_incrementn
 11597  005C10  C03E  F066         	movff	_cmd_offset,??_display_fuel
 11598  005C14  C03F  F067         	movff	_cmd_offset+1,??_display_fuel+1
 11599  005C18  0100               	movlb	0	; () banked
 11600  005C1A  6B68               	clrf	(??_display_fuel+2)& (0+255),b
 11601  005C1C  0E00               	movlw	0
 11602  005C1E  0100               	movlb	0	; () banked
 11603  005C20  2566               	addwf	??_display_fuel& (0+255),w,b
 11604  005C22  6E1F               	movwf	wr16@addr,c
 11605  005C24  0E80               	movlw	128
 11606  005C26  0100               	movlb	0	; () banked
 11607  005C28  2167               	addwfc	(??_display_fuel+1)& (0+255),w,b
 11608  005C2A  6E20               	movwf	wr16@addr+1,c
 11609  005C2C  0E10               	movlw	16
 11610  005C2E  0100               	movlb	0	; () banked
 11611  005C30  2168               	addwfc	(??_display_fuel+2)& (0+255),w,b
 11612  005C32  6E21               	movwf	wr16@addr+2,c
 11613  005C34  0E00               	movlw	0
 11614  005C36  6E23               	movwf	wr16@value+1,c
 11615  005C38  0E00               	movlw	0
 11616  005C3A  6E22               	movwf	wr16@value,c
 11617  005C3C  EC31  F03A         	call	_wr16	;wreg free
 11618  005C40  0E02               	movlw	2
 11619  005C42  ECA2  F03A         	call	_cmd_incrementn
 11620  005C46  0E03               	movlw	3
 11621  005C48  0100               	movlb	0	; () banked
 11622  005C4A  6F60               	movwf	cmd@command& (0+255),b
 11623  005C4C  0E00               	movlw	0
 11624  005C4E  6F61               	movwf	(cmd@command+1)& (0+255),b
 11625  005C50  0E00               	movlw	0
 11626  005C52  6F62               	movwf	(cmd@command+2)& (0+255),b
 11627  005C54  0E00               	movlw	0
 11628  005C56  6F63               	movwf	(cmd@command+3)& (0+255),b
 11629  005C58  EC4F  F03A         	call	_cmd	;wreg free
 11630  005C5C  0012               	return		;funcret
 11631  005C5E                     __end_of_display_fuel:
 11632                           	opt stack 0
 11633                           tblptru	equ	0xFF8
 11634                           postinc0	equ	0xFEE
 11635                           wreg	equ	0xFE8
 11636                           status	equ	0xFD8
 11637                           
 11638 ;; *************** function _display_end *****************
 11639 ;; Defined at:
 11640 ;;		line 26 in file "display.c"
 11641 ;; Parameters:    Size  Location     Type
 11642 ;;		None
 11643 ;; Auto vars:     Size  Location     Type
 11644 ;;		None
 11645 ;; Return value:  Size  Location     Type
 11646 ;;                  1    wreg      void 
 11647 ;; Registers used:
 11648 ;;		wreg, status,2, status,0, cstack
 11649 ;; Tracked objects:
 11650 ;;		On entry : 0/0
 11651 ;;		On exit  : 0/0
 11652 ;;		Unchanged: 0/0
 11653 ;; Data sizes:     COMRAM   BANK0   BANK1   BANK2   BANK3   BANK4   BANK5   BANK6   BANK7   BANK8   BANK9  BANK10  BANK1
      +1  BANK12  BANK13  BANK14
 11654 ;;      Params:         0       0       0       0       0       0       0       0       0       0       0       0       
      +0       0       0       0
 11655 ;;      Locals:         0       0       0       0       0       0       0       0       0       0       0       0       
      +0       0       0       0
 11656 ;;      Temps:          0       0       0       0       0       0       0       0       0       0       0       0       
      +0       0       0       0
 11657 ;;      Totals:         0       0       0       0       0       0       0       0       0       0       0       0       
      +0       0       0       0
 11658 ;;Total ram usage:        0 bytes
 11659 ;; Hardware stack levels used:    1
 11660 ;; Hardware stack levels required when called:    5
 11661 ;; This function calls:
 11662 ;;		_cmd
 11663 ;;		_wr16
 11664 ;; This function is called by:
 11665 ;;		_main
 11666 ;;		_display
 11667 ;; This function uses a non-reentrant model
 11668 ;;
 11669                           
 11670                           	psect	text16
 11671  00735C                     __ptext16:
 11672                           	opt stack 0
 11673  00735C                     _display_end:
 11674                           	opt stack 25
 11675                           
 11676                           ;display.c: 27: cmd(((0UL<<24)));
 11677                           
 11678                           ;incstack = 0
 11679  00735C  0E00               	movlw	0
 11680  00735E  0100               	movlb	0	; () banked
 11681  007360  6F60               	movwf	cmd@command& (0+255),b
 11682  007362  0E00               	movlw	0
 11683  007364  6F61               	movwf	(cmd@command+1)& (0+255),b
 11684  007366  0E00               	movlw	0
 11685  007368  6F62               	movwf	(cmd@command+2)& (0+255),b
 11686  00736A  0E00               	movlw	0
 11687  00736C  6F63               	movwf	(cmd@command+3)& (0+255),b
 11688  00736E  EC4F  F03A         	call	_cmd	;wreg free
 11689                           
 11690                           ;display.c: 28: cmd(4294967041UL);
 11691  007372  0E01               	movlw	1
 11692  007374  0100               	movlb	0	; () banked
 11693  007376  6F60               	movwf	cmd@command& (0+255),b
 11694  007378  0EFF               	movlw	255
 11695  00737A  6F61               	movwf	(cmd@command+1)& (0+255),b
 11696  00737C  0EFF               	movlw	255
 11697  00737E  6F62               	movwf	(cmd@command+2)& (0+255),b
 11698  007380  0EFF               	movlw	255
 11699  007382  6F63               	movwf	(cmd@command+3)& (0+255),b
 11700  007384  EC4F  F03A         	call	_cmd	;wreg free
 11701                           
 11702                           ;display.c: 29: wr16(1058024UL, cmd_offset);
 11703  007388  0EE8               	movlw	232
 11704  00738A  6E1F               	movwf	wr16@addr,c
 11705  00738C  0E24               	movlw	36
 11706  00738E  6E20               	movwf	wr16@addr+1,c
 11707  007390  0E10               	movlw	16
 11708  007392  6E21               	movwf	wr16@addr+2,c
 11709  007394  C03E  F022         	movff	_cmd_offset,wr16@value
 11710  007398  C03F  F023         	movff	_cmd_offset+1,wr16@value+1
 11711  00739C  EC31  F03A         	call	_wr16	;wreg free
 11712  0073A0  0012               	return		;funcret
 11713  0073A2                     __end_of_display_end:
 11714                           	opt stack 0
 11715                           tblptru	equ	0xFF8
 11716                           postinc0	equ	0xFEE
 11717                           wreg	equ	0xFE8
 11718                           status	equ	0xFD8
 11719                           
 11720 ;; *************** function _display_battery *****************
 11721 ;; Defined at:
 11722 ;;		line 139 in file "display.c"
 11723 ;; Parameters:    Size  Location     Type
 11724 ;;  volts           2    4[BANK0 ] int 
 11725 ;; Auto vars:     Size  Location     Type
 11726 ;;		None
 11727 ;; Return value:  Size  Location     Type
 11728 ;;                  1    wreg      void 
 11729 ;; Registers used:
 11730 ;;		wreg, status,2, status,0, tblptrl, tblptrh, tblptru, prodl, prodh, cstack
 11731 ;; Tracked objects:
 11732 ;;		On entry : 0/0
 11733 ;;		On exit  : 0/0
 11734 ;;		Unchanged: 0/0
 11735 ;; Data sizes:     COMRAM   BANK0   BANK1   BANK2   BANK3   BANK4   BANK5   BANK6   BANK7   BANK8   BANK9  BANK10  BANK1
      +1  BANK12  BANK13  BANK14
 11736 ;;      Params:         0       2       0       0       0       0       0       0       0       0       0       0       
      +0       0       0       0
 11737 ;;      Locals:         0       0       0       0       0       0       0       0       0       0       0       0       
      +0       0       0       0
 11738 ;;      Temps:          0       3       0       0       0       0       0       0       0       0       0       0       
      +0       0       0       0
 11739 ;;      Totals:         0       5       0       0       0       0       0       0       0       0       0       0       
      +0       0       0       0
 11740 ;;Total ram usage:        5 bytes
 11741 ;; Hardware stack levels used:    1
 11742 ;; Hardware stack levels required when called:    5
 11743 ;; This function calls:
 11744 ;;		___awdiv
 11745 ;;		___awmod
 11746 ;;		_cmd
 11747 ;;		_cmd_incrementn
 11748 ;;		_wr16
 11749 ;;		_wr8s
 11750 ;; This function is called by:
 11751 ;;		_display
 11752 ;; This function uses a non-reentrant model
 11753 ;;
 11754                           
 11755                           	psect	text17
 11756  0055DA                     __ptext17:
 11757                           	opt stack 0
 11758  0055DA                     _display_battery:
 11759                           	opt stack 24
 11760                           
 11761                           ;display.c: 140: cmd(4294967086UL);wr16(1081344UL+cmd_offset, 66);cmd_incrementn(2);wr16
      +                          (1081344UL+cmd_offset, 130);cmd_incrementn(2);wr16(1081344UL+cmd_offset, 28);cmd_increme
      +                          ntn(2);wr16(1081344UL+cmd_offset, 0);cmd_incrementn(2);cmd(volts/10);
 11762                           
 11763                           ;incstack = 0
 11764  0055DA  0E2E               	movlw	46
 11765  0055DC  0100               	movlb	0	; () banked
 11766  0055DE  6F60               	movwf	cmd@command& (0+255),b
 11767  0055E0  0EFF               	movlw	255
 11768  0055E2  6F61               	movwf	(cmd@command+1)& (0+255),b
 11769  0055E4  0EFF               	movlw	255
 11770  0055E6  6F62               	movwf	(cmd@command+2)& (0+255),b
 11771  0055E8  0EFF               	movlw	255
 11772  0055EA  6F63               	movwf	(cmd@command+3)& (0+255),b
 11773  0055EC  EC4F  F03A         	call	_cmd	;wreg free
 11774  0055F0  C03E  F066         	movff	_cmd_offset,??_display_battery
 11775  0055F4  C03F  F067         	movff	_cmd_offset+1,??_display_battery+1
 11776  0055F8  0100               	movlb	0	; () banked
 11777  0055FA  6B68               	clrf	(??_display_battery+2)& (0+255),b
 11778  0055FC  0E00               	movlw	0
 11779  0055FE  0100               	movlb	0	; () banked
 11780  005600  2566               	addwf	??_display_battery& (0+255),w,b
 11781  005602  6E1F               	movwf	wr16@addr,c
 11782  005604  0E80               	movlw	128
 11783  005606  0100               	movlb	0	; () banked
 11784  005608  2167               	addwfc	(??_display_battery+1)& (0+255),w,b
 11785  00560A  6E20               	movwf	wr16@addr+1,c
 11786  00560C  0E10               	movlw	16
 11787  00560E  0100               	movlb	0	; () banked
 11788  005610  2168               	addwfc	(??_display_battery+2)& (0+255),w,b
 11789  005612  6E21               	movwf	wr16@addr+2,c
 11790  005614  0E00               	movlw	0
 11791  005616  6E23               	movwf	wr16@value+1,c
 11792  005618  0E42               	movlw	66
 11793  00561A  6E22               	movwf	wr16@value,c
 11794  00561C  EC31  F03A         	call	_wr16	;wreg free
 11795  005620  0E02               	movlw	2
 11796  005622  ECA2  F03A         	call	_cmd_incrementn
 11797  005626  C03E  F066         	movff	_cmd_offset,??_display_battery
 11798  00562A  C03F  F067         	movff	_cmd_offset+1,??_display_battery+1
 11799  00562E  0100               	movlb	0	; () banked
 11800  005630  6B68               	clrf	(??_display_battery+2)& (0+255),b
 11801  005632  0E00               	movlw	0
 11802  005634  0100               	movlb	0	; () banked
 11803  005636  2566               	addwf	??_display_battery& (0+255),w,b
 11804  005638  6E1F               	movwf	wr16@addr,c
 11805  00563A  0E80               	movlw	128
 11806  00563C  0100               	movlb	0	; () banked
 11807  00563E  2167               	addwfc	(??_display_battery+1)& (0+255),w,b
 11808  005640  6E20               	movwf	wr16@addr+1,c
 11809  005642  0E10               	movlw	16
 11810  005644  0100               	movlb	0	; () banked
 11811  005646  2168               	addwfc	(??_display_battery+2)& (0+255),w,b
 11812  005648  6E21               	movwf	wr16@addr+2,c
 11813  00564A  0E00               	movlw	0
 11814  00564C  6E23               	movwf	wr16@value+1,c
 11815  00564E  0E82               	movlw	130
 11816  005650  6E22               	movwf	wr16@value,c
 11817  005652  EC31  F03A         	call	_wr16	;wreg free
 11818  005656  0E02               	movlw	2
 11819  005658  ECA2  F03A         	call	_cmd_incrementn
 11820  00565C  C03E  F066         	movff	_cmd_offset,??_display_battery
 11821  005660  C03F  F067         	movff	_cmd_offset+1,??_display_battery+1
 11822  005664  0100               	movlb	0	; () banked
 11823  005666  6B68               	clrf	(??_display_battery+2)& (0+255),b
 11824  005668  0E00               	movlw	0
 11825  00566A  0100               	movlb	0	; () banked
 11826  00566C  2566               	addwf	??_display_battery& (0+255),w,b
 11827  00566E  6E1F               	movwf	wr16@addr,c
 11828  005670  0E80               	movlw	128
 11829  005672  0100               	movlb	0	; () banked
 11830  005674  2167               	addwfc	(??_display_battery+1)& (0+255),w,b
 11831  005676  6E20               	movwf	wr16@addr+1,c
 11832  005678  0E10               	movlw	16
 11833  00567A  0100               	movlb	0	; () banked
 11834  00567C  2168               	addwfc	(??_display_battery+2)& (0+255),w,b
 11835  00567E  6E21               	movwf	wr16@addr+2,c
 11836  005680  0E00               	movlw	0
 11837  005682  6E23               	movwf	wr16@value+1,c
 11838  005684  0E1C               	movlw	28
 11839  005686  6E22               	movwf	wr16@value,c
 11840  005688  EC31  F03A         	call	_wr16	;wreg free
 11841  00568C  0E02               	movlw	2
 11842  00568E  ECA2  F03A         	call	_cmd_incrementn
 11843  005692  C03E  F066         	movff	_cmd_offset,??_display_battery
 11844  005696  C03F  F067         	movff	_cmd_offset+1,??_display_battery+1
 11845  00569A  0100               	movlb	0	; () banked
 11846  00569C  6B68               	clrf	(??_display_battery+2)& (0+255),b
 11847  00569E  0E00               	movlw	0
 11848  0056A0  0100               	movlb	0	; () banked
 11849  0056A2  2566               	addwf	??_display_battery& (0+255),w,b
 11850  0056A4  6E1F               	movwf	wr16@addr,c
 11851  0056A6  0E80               	movlw	128
 11852  0056A8  0100               	movlb	0	; () banked
 11853  0056AA  2167               	addwfc	(??_display_battery+1)& (0+255),w,b
 11854  0056AC  6E20               	movwf	wr16@addr+1,c
 11855  0056AE  0E10               	movlw	16
 11856  0056B0  0100               	movlb	0	; () banked
 11857  0056B2  2168               	addwfc	(??_display_battery+2)& (0+255),w,b
 11858  0056B4  6E21               	movwf	wr16@addr+2,c
 11859  0056B6  0E00               	movlw	0
 11860  0056B8  6E23               	movwf	wr16@value+1,c
 11861  0056BA  0E00               	movlw	0
 11862  0056BC  6E22               	movwf	wr16@value,c
 11863  0056BE  EC31  F03A         	call	_wr16	;wreg free
 11864  0056C2  0E02               	movlw	2
 11865  0056C4  ECA2  F03A         	call	_cmd_incrementn
 11866  0056C8  C064  F01E         	movff	display_battery@volts,___awdiv@dividend
 11867  0056CC  C065  F01F         	movff	display_battery@volts+1,___awdiv@dividend+1
 11868  0056D0  0E00               	movlw	0
 11869  0056D2  6E21               	movwf	___awdiv@divisor+1,c
 11870  0056D4  0E0A               	movlw	10
 11871  0056D6  6E20               	movwf	___awdiv@divisor,c
 11872  0056D8  ECD0  F038         	call	___awdiv	;wreg free
 11873  0056DC  C01E  F060         	movff	?___awdiv,cmd@command
 11874  0056E0  C01F  F061         	movff	?___awdiv+1,cmd@command+1
 11875  0056E4  0100               	movlb	0	; () banked
 11876  0056E6  0E00               	movlw	0
 11877  0056E8  BF61               	btfsc	(cmd@command+1)& (0+255),7,b
 11878  0056EA  0EFF               	movlw	-1
 11879  0056EC  6F62               	movwf	(cmd@command+2)& (0+255),b
 11880  0056EE  6F63               	movwf	(cmd@command+3)& (0+255),b
 11881  0056F0  EC4F  F03A         	call	_cmd	;wreg free
 11882                           
 11883                           ;display.c: 141: cmd(4294967052UL);wr16(1081344UL+cmd_offset, 90);cmd_incrementn(2);wr16
      +                          (1081344UL+cmd_offset, 131);cmd_incrementn(2);wr16(1081344UL+cmd_offset, 28);cmd_increme
      +                          ntn(2);wr16(1081344UL+cmd_offset, 0);cmd_incrementn(2);cmd_incrementn(wr8s(1081344UL+cmd
      +                          _of
 11884  0056F4  0E0C               	movlw	12
 11885  0056F6  0100               	movlb	0	; () banked
 11886  0056F8  6F60               	movwf	cmd@command& (0+255),b
 11887  0056FA  0EFF               	movlw	255
 11888  0056FC  6F61               	movwf	(cmd@command+1)& (0+255),b
 11889  0056FE  0EFF               	movlw	255
 11890  005700  6F62               	movwf	(cmd@command+2)& (0+255),b
 11891  005702  0EFF               	movlw	255
 11892  005704  6F63               	movwf	(cmd@command+3)& (0+255),b
 11893  005706  EC4F  F03A         	call	_cmd	;wreg free
 11894  00570A  C03E  F066         	movff	_cmd_offset,??_display_battery
 11895  00570E  C03F  F067         	movff	_cmd_offset+1,??_display_battery+1
 11896  005712  0100               	movlb	0	; () banked
 11897  005714  6B68               	clrf	(??_display_battery+2)& (0+255),b
 11898  005716  0E00               	movlw	0
 11899  005718  0100               	movlb	0	; () banked
 11900  00571A  2566               	addwf	??_display_battery& (0+255),w,b
 11901  00571C  6E1F               	movwf	wr16@addr,c
 11902  00571E  0E80               	movlw	128
 11903  005720  0100               	movlb	0	; () banked
 11904  005722  2167               	addwfc	(??_display_battery+1)& (0+255),w,b
 11905  005724  6E20               	movwf	wr16@addr+1,c
 11906  005726  0E10               	movlw	16
 11907  005728  0100               	movlb	0	; () banked
 11908  00572A  2168               	addwfc	(??_display_battery+2)& (0+255),w,b
 11909  00572C  6E21               	movwf	wr16@addr+2,c
 11910  00572E  0E00               	movlw	0
 11911  005730  6E23               	movwf	wr16@value+1,c
 11912  005732  0E5A               	movlw	90
 11913  005734  6E22               	movwf	wr16@value,c
 11914  005736  EC31  F03A         	call	_wr16	;wreg free
 11915  00573A  0E02               	movlw	2
 11916  00573C  ECA2  F03A         	call	_cmd_incrementn
 11917  005740  C03E  F066         	movff	_cmd_offset,??_display_battery
 11918  005744  C03F  F067         	movff	_cmd_offset+1,??_display_battery+1
 11919  005748  0100               	movlb	0	; () banked
 11920  00574A  6B68               	clrf	(??_display_battery+2)& (0+255),b
 11921  00574C  0E00               	movlw	0
 11922  00574E  0100               	movlb	0	; () banked
 11923  005750  2566               	addwf	??_display_battery& (0+255),w,b
 11924  005752  6E1F               	movwf	wr16@addr,c
 11925  005754  0E80               	movlw	128
 11926  005756  0100               	movlb	0	; () banked
 11927  005758  2167               	addwfc	(??_display_battery+1)& (0+255),w,b
 11928  00575A  6E20               	movwf	wr16@addr+1,c
 11929  00575C  0E10               	movlw	16
 11930  00575E  0100               	movlb	0	; () banked
 11931  005760  2168               	addwfc	(??_display_battery+2)& (0+255),w,b
 11932  005762  6E21               	movwf	wr16@addr+2,c
 11933  005764  0E00               	movlw	0
 11934  005766  6E23               	movwf	wr16@value+1,c
 11935  005768  0E83               	movlw	131
 11936  00576A  6E22               	movwf	wr16@value,c
 11937  00576C  EC31  F03A         	call	_wr16	;wreg free
 11938  005770  0E02               	movlw	2
 11939  005772  ECA2  F03A         	call	_cmd_incrementn
 11940  005776  C03E  F066         	movff	_cmd_offset,??_display_battery
 11941  00577A  C03F  F067         	movff	_cmd_offset+1,??_display_battery+1
 11942  00577E  0100               	movlb	0	; () banked
 11943  005780  6B68               	clrf	(??_display_battery+2)& (0+255),b
 11944  005782  0E00               	movlw	0
 11945  005784  0100               	movlb	0	; () banked
 11946  005786  2566               	addwf	??_display_battery& (0+255),w,b
 11947  005788  6E1F               	movwf	wr16@addr,c
 11948  00578A  0E80               	movlw	128
 11949  00578C  0100               	movlb	0	; () banked
 11950  00578E  2167               	addwfc	(??_display_battery+1)& (0+255),w,b
 11951  005790  6E20               	movwf	wr16@addr+1,c
 11952  005792  0E10               	movlw	16
 11953  005794  0100               	movlb	0	; () banked
 11954  005796  2168               	addwfc	(??_display_battery+2)& (0+255),w,b
 11955  005798  6E21               	movwf	wr16@addr+2,c
 11956  00579A  0E00               	movlw	0
 11957  00579C  6E23               	movwf	wr16@value+1,c
 11958  00579E  0E1C               	movlw	28
 11959  0057A0  6E22               	movwf	wr16@value,c
 11960  0057A2  EC31  F03A         	call	_wr16	;wreg free
 11961  0057A6  0E02               	movlw	2
 11962  0057A8  ECA2  F03A         	call	_cmd_incrementn
 11963  0057AC  C03E  F066         	movff	_cmd_offset,??_display_battery
 11964  0057B0  C03F  F067         	movff	_cmd_offset+1,??_display_battery+1
 11965  0057B4  0100               	movlb	0	; () banked
 11966  0057B6  6B68               	clrf	(??_display_battery+2)& (0+255),b
 11967  0057B8  0E00               	movlw	0
 11968  0057BA  0100               	movlb	0	; () banked
 11969  0057BC  2566               	addwf	??_display_battery& (0+255),w,b
 11970  0057BE  6E1F               	movwf	wr16@addr,c
 11971  0057C0  0E80               	movlw	128
 11972  0057C2  0100               	movlb	0	; () banked
 11973  0057C4  2167               	addwfc	(??_display_battery+1)& (0+255),w,b
 11974  0057C6  6E20               	movwf	wr16@addr+1,c
 11975  0057C8  0E10               	movlw	16
 11976  0057CA  0100               	movlb	0	; () banked
 11977  0057CC  2168               	addwfc	(??_display_battery+2)& (0+255),w,b
 11978  0057CE  6E21               	movwf	wr16@addr+2,c
 11979  0057D0  0E00               	movlw	0
 11980  0057D2  6E23               	movwf	wr16@value+1,c
 11981  0057D4  0E00               	movlw	0
 11982  0057D6  6E22               	movwf	wr16@value,c
 11983  0057D8  EC31  F03A         	call	_wr16	;wreg free
 11984  0057DC  0E02               	movlw	2
 11985  0057DE  ECA2  F03A         	call	_cmd_incrementn
 11986  0057E2  C03E  F066         	movff	_cmd_offset,??_display_battery
 11987  0057E6  C03F  F067         	movff	_cmd_offset+1,??_display_battery+1
 11988  0057EA  0100               	movlb	0	; () banked
 11989  0057EC  6B68               	clrf	(??_display_battery+2)& (0+255),b
 11990  0057EE  0E00               	movlw	0
 11991  0057F0  0100               	movlb	0	; () banked
 11992  0057F2  2566               	addwf	??_display_battery& (0+255),w,b
 11993  0057F4  6E24               	movwf	wr8s@addr,c
 11994  0057F6  0E80               	movlw	128
 11995  0057F8  0100               	movlb	0	; () banked
 11996  0057FA  2167               	addwfc	(??_display_battery+1)& (0+255),w,b
 11997  0057FC  6E25               	movwf	wr8s@addr+1,c
 11998  0057FE  0E10               	movlw	16
 11999  005800  0100               	movlb	0	; () banked
 12000  005802  2168               	addwfc	(??_display_battery+2)& (0+255),w,b
 12001  005804  6E26               	movwf	wr8s@addr+2,c
 12002  005806  0E6A               	movlw	low STR_26
 12003  005808  6E27               	movwf	wr8s@s,c
 12004  00580A  0E0F               	movlw	high STR_26
 12005  00580C  6E28               	movwf	wr8s@s+1,c
 12006  00580E  EC04  F038         	call	_wr8s	;wreg free
 12007  005812  ECA2  F03A         	call	_cmd_incrementn
 12008                           
 12009                           ;display.c: 142: cmd(4294967086UL);wr16(1081344UL+cmd_offset, 96);cmd_incrementn(2);wr16
      +                          (1081344UL+cmd_offset, 130);cmd_incrementn(2);wr16(1081344UL+cmd_offset, 28);cmd_increme
      +                          ntn(2);wr16(1081344UL+cmd_offset, 0);cmd_incrementn(2);cmd(volts%10);
 12010  005816  0E2E               	movlw	46
 12011  005818  0100               	movlb	0	; () banked
 12012  00581A  6F60               	movwf	cmd@command& (0+255),b
 12013  00581C  0EFF               	movlw	255
 12014  00581E  6F61               	movwf	(cmd@command+1)& (0+255),b
 12015  005820  0EFF               	movlw	255
 12016  005822  6F62               	movwf	(cmd@command+2)& (0+255),b
 12017  005824  0EFF               	movlw	255
 12018  005826  6F63               	movwf	(cmd@command+3)& (0+255),b
 12019  005828  EC4F  F03A         	call	_cmd	;wreg free
 12020  00582C  C03E  F066         	movff	_cmd_offset,??_display_battery
 12021  005830  C03F  F067         	movff	_cmd_offset+1,??_display_battery+1
 12022  005834  0100               	movlb	0	; () banked
 12023  005836  6B68               	clrf	(??_display_battery+2)& (0+255),b
 12024  005838  0E00               	movlw	0
 12025  00583A  0100               	movlb	0	; () banked
 12026  00583C  2566               	addwf	??_display_battery& (0+255),w,b
 12027  00583E  6E1F               	movwf	wr16@addr,c
 12028  005840  0E80               	movlw	128
 12029  005842  0100               	movlb	0	; () banked
 12030  005844  2167               	addwfc	(??_display_battery+1)& (0+255),w,b
 12031  005846  6E20               	movwf	wr16@addr+1,c
 12032  005848  0E10               	movlw	16
 12033  00584A  0100               	movlb	0	; () banked
 12034  00584C  2168               	addwfc	(??_display_battery+2)& (0+255),w,b
 12035  00584E  6E21               	movwf	wr16@addr+2,c
 12036  005850  0E00               	movlw	0
 12037  005852  6E23               	movwf	wr16@value+1,c
 12038  005854  0E60               	movlw	96
 12039  005856  6E22               	movwf	wr16@value,c
 12040  005858  EC31  F03A         	call	_wr16	;wreg free
 12041  00585C  0E02               	movlw	2
 12042  00585E  ECA2  F03A         	call	_cmd_incrementn
 12043  005862  C03E  F066         	movff	_cmd_offset,??_display_battery
 12044  005866  C03F  F067         	movff	_cmd_offset+1,??_display_battery+1
 12045  00586A  0100               	movlb	0	; () banked
 12046  00586C  6B68               	clrf	(??_display_battery+2)& (0+255),b
 12047  00586E  0E00               	movlw	0
 12048  005870  0100               	movlb	0	; () banked
 12049  005872  2566               	addwf	??_display_battery& (0+255),w,b
 12050  005874  6E1F               	movwf	wr16@addr,c
 12051  005876  0E80               	movlw	128
 12052  005878  0100               	movlb	0	; () banked
 12053  00587A  2167               	addwfc	(??_display_battery+1)& (0+255),w,b
 12054  00587C  6E20               	movwf	wr16@addr+1,c
 12055  00587E  0E10               	movlw	16
 12056  005880  0100               	movlb	0	; () banked
 12057  005882  2168               	addwfc	(??_display_battery+2)& (0+255),w,b
 12058  005884  6E21               	movwf	wr16@addr+2,c
 12059  005886  0E00               	movlw	0
 12060  005888  6E23               	movwf	wr16@value+1,c
 12061  00588A  0E82               	movlw	130
 12062  00588C  6E22               	movwf	wr16@value,c
 12063  00588E  EC31  F03A         	call	_wr16	;wreg free
 12064  005892  0E02               	movlw	2
 12065  005894  ECA2  F03A         	call	_cmd_incrementn
 12066  005898  C03E  F066         	movff	_cmd_offset,??_display_battery
 12067  00589C  C03F  F067         	movff	_cmd_offset+1,??_display_battery+1
 12068  0058A0  0100               	movlb	0	; () banked
 12069  0058A2  6B68               	clrf	(??_display_battery+2)& (0+255),b
 12070  0058A4  0E00               	movlw	0
 12071  0058A6  0100               	movlb	0	; () banked
 12072  0058A8  2566               	addwf	??_display_battery& (0+255),w,b
 12073  0058AA  6E1F               	movwf	wr16@addr,c
 12074  0058AC  0E80               	movlw	128
 12075  0058AE  0100               	movlb	0	; () banked
 12076  0058B0  2167               	addwfc	(??_display_battery+1)& (0+255),w,b
 12077  0058B2  6E20               	movwf	wr16@addr+1,c
 12078  0058B4  0E10               	movlw	16
 12079  0058B6  0100               	movlb	0	; () banked
 12080  0058B8  2168               	addwfc	(??_display_battery+2)& (0+255),w,b
 12081  0058BA  6E21               	movwf	wr16@addr+2,c
 12082  0058BC  0E00               	movlw	0
 12083  0058BE  6E23               	movwf	wr16@value+1,c
 12084  0058C0  0E1C               	movlw	28
 12085  0058C2  6E22               	movwf	wr16@value,c
 12086  0058C4  EC31  F03A         	call	_wr16	;wreg free
 12087  0058C8  0E02               	movlw	2
 12088  0058CA  ECA2  F03A         	call	_cmd_incrementn
 12089  0058CE  C03E  F066         	movff	_cmd_offset,??_display_battery
 12090  0058D2  C03F  F067         	movff	_cmd_offset+1,??_display_battery+1
 12091  0058D6  0100               	movlb	0	; () banked
 12092  0058D8  6B68               	clrf	(??_display_battery+2)& (0+255),b
 12093  0058DA  0E00               	movlw	0
 12094  0058DC  0100               	movlb	0	; () banked
 12095  0058DE  2566               	addwf	??_display_battery& (0+255),w,b
 12096  0058E0  6E1F               	movwf	wr16@addr,c
 12097  0058E2  0E80               	movlw	128
 12098  0058E4  0100               	movlb	0	; () banked
 12099  0058E6  2167               	addwfc	(??_display_battery+1)& (0+255),w,b
 12100  0058E8  6E20               	movwf	wr16@addr+1,c
 12101  0058EA  0E10               	movlw	16
 12102  0058EC  0100               	movlb	0	; () banked
 12103  0058EE  2168               	addwfc	(??_display_battery+2)& (0+255),w,b
 12104  0058F0  6E21               	movwf	wr16@addr+2,c
 12105  0058F2  0E00               	movlw	0
 12106  0058F4  6E23               	movwf	wr16@value+1,c
 12107  0058F6  0E00               	movlw	0
 12108  0058F8  6E22               	movwf	wr16@value,c
 12109  0058FA  EC31  F03A         	call	_wr16	;wreg free
 12110  0058FE  0E02               	movlw	2
 12111  005900  ECA2  F03A         	call	_cmd_incrementn
 12112  005904  C064  F026         	movff	display_battery@volts,___awmod@dividend
 12113  005908  C065  F027         	movff	display_battery@volts+1,___awmod@dividend+1
 12114  00590C  0E00               	movlw	0
 12115  00590E  6E29               	movwf	___awmod@divisor+1,c
 12116  005910  0E0A               	movlw	10
 12117  005912  6E28               	movwf	___awmod@divisor,c
 12118  005914  EC4E  F039         	call	___awmod	;wreg free
 12119  005918  C026  F060         	movff	?___awmod,cmd@command
 12120  00591C  C027  F061         	movff	?___awmod+1,cmd@command+1
 12121  005920  0100               	movlb	0	; () banked
 12122  005922  0E00               	movlw	0
 12123  005924  BF61               	btfsc	(cmd@command+1)& (0+255),7,b
 12124  005926  0EFF               	movlw	-1
 12125  005928  6F62               	movwf	(cmd@command+2)& (0+255),b
 12126  00592A  6F63               	movwf	(cmd@command+3)& (0+255),b
 12127  00592C  EC4F  F03A         	call	_cmd	;wreg free
 12128  005930  0012               	return		;funcret
 12129  005932                     __end_of_display_battery:
 12130                           	opt stack 0
 12131                           tblptru	equ	0xFF8
 12132                           postinc0	equ	0xFEE
 12133                           wreg	equ	0xFE8
 12134                           status	equ	0xFD8
 12135                           
 12136 ;; *************** function _wr8s *****************
 12137 ;; Defined at:
 12138 ;;		line 43 in file "Gue/FT800.c"
 12139 ;; Parameters:    Size  Location     Type
 12140 ;;  addr            3   35[COMRAM] unsigned um
 12141 ;;  s               2   38[COMRAM] PTR const unsigned char 
 12142 ;;		 -> STR_41(4), STR_40(2), STR_39(2), STR_38(3), 
 12143 ;;		 -> STR_37(3), STR_36(3), STR_35(2), STR_34(2), 
 12144 ;;		 -> STR_33(2), STR_32(2), STR_31(2), STR_30(2), 
 12145 ;;		 -> STR_29(2), STR_28(2), STR_27(2), STR_26(2), 
 12146 ;;		 -> STR_25(2), STR_24(2), STR_23(2), STR_22(2), 
 12147 ;;		 -> STR_21(2), STR_20(2), STR_19(4), STR_18(5), 
 12148 ;;		 -> STR_17(5), STR_16(15), STR_15(2), STR_14(3), 
 12149 ;;		 -> STR_13(4), STR_12(6), STR_11(6), STR_10(4), 
 12150 ;;		 -> STR_9(6), STR_8(5), STR_7(5), STR_6(5), 
 12151 ;;		 -> STR_5(5), STR_4(4), STR_3(5), STR_2(6), 
 12152 ;; Auto vars:     Size  Location     Type
 12153 ;;  i               1   44[COMRAM] unsigned char 
 12154 ;;  l               1   43[COMRAM] unsigned char 
 12155 ;; Return value:  Size  Location     Type
 12156 ;;                  1    wreg      unsigned char 
 12157 ;; Registers used:
 12158 ;;		wreg, status,2, status,0, tblptrl, tblptrh, tblptru, prodl, prodh, cstack
 12159 ;; Tracked objects:
 12160 ;;		On entry : 0/0
 12161 ;;		On exit  : 0/0
 12162 ;;		Unchanged: 0/0
 12163 ;; Data sizes:     COMRAM   BANK0   BANK1   BANK2   BANK3   BANK4   BANK5   BANK6   BANK7   BANK8   BANK9  BANK10  BANK1
      +1  BANK12  BANK13  BANK14
 12164 ;;      Params:         5       0       0       0       0       0       0       0       0       0       0       0       
      +0       0       0       0
 12165 ;;      Locals:         2       0       0       0       0       0       0       0       0       0       0       0       
      +0       0       0       0
 12166 ;;      Temps:          3       0       0       0       0       0       0       0       0       0       0       0       
      +0       0       0       0
 12167 ;;      Totals:        10       0       0       0       0       0       0       0       0       0       0       0       
      +0       0       0       0
 12168 ;;Total ram usage:       10 bytes
 12169 ;; Hardware stack levels used:    1
 12170 ;; Hardware stack levels required when called:    3
 12171 ;; This function calls:
 12172 ;;		_SPI_Exchange8bit
 12173 ;;		_strlen
 12174 ;; This function is called by:
 12175 ;;		_display_labels
 12176 ;;		_display_message
 12177 ;;		_display_laptime
 12178 ;;		_display_fuel
 12179 ;;		_display_battery
 12180 ;;		_display_rpm
 12181 ;; This function uses a non-reentrant model
 12182 ;;
 12183                           
 12184                           	psect	text18
 12185  007008                     __ptext18:
 12186                           	opt stack 0
 12187  007008                     _wr8s:
 12188                           	opt stack 25
 12189                           
 12190                           ;FT800.c: 45: LATDbits.LATD0 = 0;
 12191                           
 12192                           ;incstack = 0
 12193  007008  908C               	bcf	3980,0,c	;volatile
 12194                           
 12195                           ;FT800.c: 46: SPI_Exchange8bit(0x80 | (addr >> 16));
 12196  00700A  5026               	movf	wr8s@addr+2,w,c
 12197  00700C  0980               	iorlw	128
 12198  00700E  EC03  F03B         	call	_SPI_Exchange8bit
 12199                           
 12200                           ;FT800.c: 47: SPI_Exchange8bit(addr >> 8);
 12201  007012  C024  F029         	movff	wr8s@addr,??_wr8s
 12202  007016  C025  F02A         	movff	wr8s@addr+1,??_wr8s+1
 12203  00701A  C026  F02B         	movff	wr8s@addr+2,??_wr8s+2
 12204  00701E  C02A  F029         	movff	??_wr8s+1,??_wr8s
 12205  007022  C02B  F02A         	movff	??_wr8s+2,??_wr8s+1
 12206  007026  6A2B               	clrf	??_wr8s+2,c
 12207  007028  5029               	movf	??_wr8s,w,c
 12208  00702A  EC03  F03B         	call	_SPI_Exchange8bit
 12209                           
 12210                           ;FT800.c: 48: SPI_Exchange8bit(addr);
 12211  00702E  5024               	movf	wr8s@addr,w,c
 12212  007030  EC03  F03B         	call	_SPI_Exchange8bit
 12213                           
 12214                           ;FT800.c: 49: ft_uint8_t l = strlen(s);
 12215  007034  C027  F01E         	movff	wr8s@s,strlen@s
 12216  007038  C028  F01F         	movff	wr8s@s+1,strlen@s+1
 12217  00703C  ECF3  F039         	call	_strlen	;wreg free
 12218  007040  501E               	movf	?_strlen,w,c
 12219  007042  6E2C               	movwf	wr8s@l,c
 12220                           
 12221                           ;FT800.c: 50: ft_uint8_t i;
 12222                           ;FT800.c: 51: for(i=0;i<=l;i++){
 12223  007044  0E00               	movlw	0
 12224  007046  6E2D               	movwf	wr8s@i,c
 12225  007048  D013               	goto	l4888
 12226  00704A                     l4884:
 12227                           
 12228                           ;FT800.c: 52: SPI_Exchange8bit(s[i]);
 12229  00704A  502D               	movf	wr8s@i,w,c
 12230  00704C  0D01               	mullw	1
 12231  00704E  C027  F029         	movff	wr8s@s,??_wr8s
 12232  007052  C028  F02A         	movff	wr8s@s+1,??_wr8s+1
 12233  007056  50F3               	movf	prodl,w,c
 12234  007058  2629               	addwf	??_wr8s,f,c
 12235  00705A  50F4               	movf	prodh,w,c
 12236  00705C  222A               	addwfc	??_wr8s+1,f,c
 12237  00705E  C029  FFF6         	movff	??_wr8s,tblptrl
 12238  007062  C02A  FFF7         	movff	??_wr8s+1,tblptrh
 12239  007066                     	if	0	;tblptru may be non-zero
 12240  007066                     	endif
 12241  007066                     	if	0	;tblptru may be non-zero
 12242  007066                     	endif
 12243  007066  0008               	tblrd		*
 12244  007068  50F5               	movf	tablat,w,c
 12245  00706A  EC03  F03B         	call	_SPI_Exchange8bit
 12246  00706E  2A2D               	incf	wr8s@i,f,c
 12247  007070                     l4888:
 12248  007070  502D               	movf	wr8s@i,w,c
 12249  007072  5C2C               	subwf	wr8s@l,w,c
 12250  007074  A0D8               	btfss	status,0,c
 12251  007076  D005               	goto	l4894
 12252  007078  D7E8               	goto	l4884
 12253  00707A                     l4890:
 12254                           
 12255                           ;FT800.c: 55: SPI_Exchange8bit(0);
 12256  00707A  0E00               	movlw	0
 12257  00707C  EC03  F03B         	call	_SPI_Exchange8bit
 12258  007080  2A2D               	incf	wr8s@i,f,c
 12259  007082                     l4894:
 12260  007082  C02D  F029         	movff	wr8s@i,??_wr8s
 12261  007086  0E03               	movlw	3
 12262  007088  1629               	andwf	??_wr8s,f,c
 12263  00708A  A4D8               	btfss	status,2,c
 12264  00708C  D7F6               	goto	l4890
 12265                           
 12266                           ;FT800.c: 56: }
 12267                           ;FT800.c: 57: LATDbits.LATD0 = 1;
 12268  00708E  808C               	bsf	3980,0,c	;volatile
 12269                           
 12270                           ;FT800.c: 58: return i;
 12271  007090  502D               	movf	wr8s@i,w,c
 12272  007092  0012               	return	
 12273  007094                     __end_of_wr8s:
 12274                           	opt stack 0
 12275                           tblptru	equ	0xFF8
 12276                           tblptrh	equ	0xFF7
 12277                           tblptrl	equ	0xFF6
 12278                           tablat	equ	0xFF5
 12279                           prodh	equ	0xFF4
 12280                           prodl	equ	0xFF3
 12281                           postinc0	equ	0xFEE
 12282                           wreg	equ	0xFE8
 12283                           status	equ	0xFD8
 12284                           
 12285 ;; *************** function _strlen *****************
 12286 ;; Defined at:
 12287 ;;		line 4 in file "C:\Program Files (x86)\Microchip\xc8\v1.42\sources\common\strlen.c"
 12288 ;; Parameters:    Size  Location     Type
 12289 ;;  s               2   29[COMRAM] PTR const unsigned char 
 12290 ;;		 -> STR_41(4), STR_40(2), STR_39(2), STR_38(3), 
 12291 ;;		 -> STR_37(3), STR_36(3), STR_35(2), STR_34(2), 
 12292 ;;		 -> STR_33(2), STR_32(2), STR_31(2), STR_30(2), 
 12293 ;;		 -> STR_29(2), STR_28(2), STR_27(2), STR_26(2), 
 12294 ;;		 -> STR_25(2), STR_24(2), STR_23(2), STR_22(2), 
 12295 ;;		 -> STR_21(2), STR_20(2), STR_19(4), STR_18(5), 
 12296 ;;		 -> STR_17(5), STR_16(15), STR_15(2), STR_14(3), 
 12297 ;;		 -> STR_13(4), STR_12(6), STR_11(6), STR_10(4), 
 12298 ;;		 -> STR_9(6), STR_8(5), STR_7(5), STR_6(5), 
 12299 ;;		 -> STR_5(5), STR_4(4), STR_3(5), STR_2(6), 
 12300 ;; Auto vars:     Size  Location     Type
 12301 ;;  cp              2   33[COMRAM] PTR const unsigned char 
 12302 ;;		 -> STR_41(4), STR_40(2), STR_39(2), STR_38(3), 
 12303 ;;		 -> STR_37(3), STR_36(3), STR_35(2), STR_34(2), 
 12304 ;;		 -> STR_33(2), STR_32(2), STR_31(2), STR_30(2), 
 12305 ;;		 -> STR_29(2), STR_28(2), STR_27(2), STR_26(2), 
 12306 ;;		 -> STR_25(2), STR_24(2), STR_23(2), STR_22(2), 
 12307 ;;		 -> STR_21(2), STR_20(2), STR_19(4), STR_18(5), 
 12308 ;;		 -> STR_17(5), STR_16(15), STR_15(2), STR_14(3), 
 12309 ;;		 -> STR_13(4), STR_12(6), STR_11(6), STR_10(4), 
 12310 ;;		 -> STR_9(6), STR_8(5), STR_7(5), STR_6(5), 
 12311 ;;		 -> STR_5(5), STR_4(4), STR_3(5), STR_2(6), 
 12312 ;; Return value:  Size  Location     Type
 12313 ;;                  2   29[COMRAM] unsigned int 
 12314 ;; Registers used:
 12315 ;;		wreg, status,2, status,0, tblptrl, tblptrh, tblptru
 12316 ;; Tracked objects:
 12317 ;;		On entry : 0/0
 12318 ;;		On exit  : 0/0
 12319 ;;		Unchanged: 0/0
 12320 ;; Data sizes:     COMRAM   BANK0   BANK1   BANK2   BANK3   BANK4   BANK5   BANK6   BANK7   BANK8   BANK9  BANK10  BANK1
      +1  BANK12  BANK13  BANK14
 12321 ;;      Params:         2       0       0       0       0       0       0       0       0       0       0       0       
      +0       0       0       0
 12322 ;;      Locals:         2       0       0       0       0       0       0       0       0       0       0       0       
      +0       0       0       0
 12323 ;;      Temps:          2       0       0       0       0       0       0       0       0       0       0       0       
      +0       0       0       0
 12324 ;;      Totals:         6       0       0       0       0       0       0       0       0       0       0       0       
      +0       0       0       0
 12325 ;;Total ram usage:        6 bytes
 12326 ;; Hardware stack levels used:    1
 12327 ;; Hardware stack levels required when called:    2
 12328 ;; This function calls:
 12329 ;;		Nothing
 12330 ;; This function is called by:
 12331 ;;		_wr8s
 12332 ;; This function uses a non-reentrant model
 12333 ;;
 12334                           
 12335                           	psect	text19
 12336  0073E6                     __ptext19:
 12337                           	opt stack 0
 12338  0073E6                     _strlen:
 12339                           	opt stack 25
 12340                           
 12341                           ;incstack = 0
 12342  0073E6  C01E  F022         	movff	strlen@s,strlen@cp
 12343  0073EA  C01F  F023         	movff	strlen@s+1,strlen@cp+1
 12344  0073EE  D002               	goto	l4848
 12345  0073F0                     l4846:
 12346  0073F0  4A22               	infsnz	strlen@cp,f,c
 12347  0073F2  2A23               	incf	strlen@cp+1,f,c
 12348  0073F4                     l4848:
 12349  0073F4  C022  FFF6         	movff	strlen@cp,tblptrl
 12350  0073F8  C023  FFF7         	movff	strlen@cp+1,tblptrh
 12351  0073FC                     	if	0	;tblptru may be non-zero
 12352  0073FC                     	endif
 12353  0073FC                     	if	0	;tblptru may be non-zero
 12354  0073FC                     	endif
 12355  0073FC  0008               	tblrd		*
 12356  0073FE  50F5               	movf	tablat,w,c
 12357  007400  0900               	iorlw	0
 12358  007402  A4D8               	btfss	status,2,c
 12359  007404  D7F5               	goto	l4846
 12360  007406  C01E  F020         	movff	strlen@s,??_strlen
 12361  00740A  C01F  F021         	movff	strlen@s+1,??_strlen+1
 12362  00740E  1E20               	comf	??_strlen,f,c
 12363  007410  1E21               	comf	??_strlen+1,f,c
 12364  007412  4A20               	infsnz	??_strlen,f,c
 12365  007414  2A21               	incf	??_strlen+1,f,c
 12366  007416  5022               	movf	strlen@cp,w,c
 12367  007418  2420               	addwf	??_strlen,w,c
 12368  00741A  6E1E               	movwf	?_strlen,c
 12369  00741C  5023               	movf	strlen@cp+1,w,c
 12370  00741E  2021               	addwfc	??_strlen+1,w,c
 12371  007420  6E1F               	movwf	?_strlen+1,c
 12372  007422  0012               	return	
 12373  007424                     __end_of_strlen:
 12374                           	opt stack 0
 12375                           tblptru	equ	0xFF8
 12376                           tblptrh	equ	0xFF7
 12377                           tblptrl	equ	0xFF6
 12378                           tablat	equ	0xFF5
 12379                           prodh	equ	0xFF4
 12380                           prodl	equ	0xFF3
 12381                           postinc0	equ	0xFEE
 12382                           wreg	equ	0xFE8
 12383                           status	equ	0xFD8
 12384                           
 12385 ;; *************** function _cmd *****************
 12386 ;; Defined at:
 12387 ;;		line 126 in file "Gue/FT800.c"
 12388 ;; Parameters:    Size  Location     Type
 12389 ;;  command         4    0[BANK0 ] unsigned long 
 12390 ;; Auto vars:     Size  Location     Type
 12391 ;;		None
 12392 ;; Return value:  Size  Location     Type
 12393 ;;                  1    wreg      void 
 12394 ;; Registers used:
 12395 ;;		wreg, status,2, status,0, cstack
 12396 ;; Tracked objects:
 12397 ;;		On entry : 0/0
 12398 ;;		On exit  : 0/0
 12399 ;;		Unchanged: 0/0
 12400 ;; Data sizes:     COMRAM   BANK0   BANK1   BANK2   BANK3   BANK4   BANK5   BANK6   BANK7   BANK8   BANK9  BANK10  BANK1
      +1  BANK12  BANK13  BANK14
 12401 ;;      Params:         0       4       0       0       0       0       0       0       0       0       0       0       
      +0       0       0       0
 12402 ;;      Locals:         0       0       0       0       0       0       0       0       0       0       0       0       
      +0       0       0       0
 12403 ;;      Temps:          3       0       0       0       0       0       0       0       0       0       0       0       
      +0       0       0       0
 12404 ;;      Totals:         3       4       0       0       0       0       0       0       0       0       0       0       
      +0       0       0       0
 12405 ;;Total ram usage:        7 bytes
 12406 ;; Hardware stack levels used:    1
 12407 ;; Hardware stack levels required when called:    4
 12408 ;; This function calls:
 12409 ;;		_cmd_incrementn
 12410 ;;		_wr32
 12411 ;; This function is called by:
 12412 ;;		_main
 12413 ;;		_display_start
 12414 ;;		_display_end
 12415 ;;		_display_labels
 12416 ;;		_display_message
 12417 ;;		_display_laptime
 12418 ;;		_display_waterTemp
 12419 ;;		_display_oilTemp
 12420 ;;		_display_fuel
 12421 ;;		_display_battery
 12422 ;;		_display_oilPress
 12423 ;;		_display_tp
 12424 ;;		_display_speed
 12425 ;;		_display_rpm
 12426 ;;		_display_gear
 12427 ;; This function uses a non-reentrant model
 12428 ;;
 12429                           
 12430                           	psect	text20
 12431  00749E                     __ptext20:
 12432                           	opt stack 0
 12433  00749E                     _cmd:
 12434                           	opt stack 25
 12435                           
 12436                           ;FT800.c: 127: wr32(1081344UL + cmd_offset, command);cmd_incrementn(4);
 12437                           
 12438                           ;incstack = 0
 12439  00749E  C03E  F02D         	movff	_cmd_offset,??_cmd
 12440  0074A2  C03F  F02E         	movff	_cmd_offset+1,??_cmd+1
 12441  0074A6  6A2F               	clrf	(??_cmd+2)& (0+255),c
 12442  0074A8  0E00               	movlw	0
 12443  0074AA  242D               	addwf	??_cmd,w,c
 12444  0074AC  6E1F               	movwf	wr32@addr,c
 12445  0074AE  0E80               	movlw	128
 12446  0074B0  202E               	addwfc	??_cmd+1,w,c
 12447  0074B2  6E20               	movwf	wr32@addr+1,c
 12448  0074B4  0E10               	movlw	16
 12449  0074B6  202F               	addwfc	??_cmd+2,w,c
 12450  0074B8  6E21               	movwf	wr32@addr+2,c
 12451  0074BA  C060  F022         	movff	cmd@command,wr32@value
 12452  0074BE  C061  F023         	movff	cmd@command+1,wr32@value+1
 12453  0074C2  C062  F024         	movff	cmd@command+2,wr32@value+2
 12454  0074C6  C063  F025         	movff	cmd@command+3,wr32@value+3
 12455  0074CA  EC12  F039         	call	_wr32	;wreg free
 12456  0074CE  0E04               	movlw	4
 12457  0074D0  ECA2  F03A         	call	_cmd_incrementn
 12458  0074D4  0012               	return		;funcret
 12459  0074D6                     __end_of_cmd:
 12460                           	opt stack 0
 12461                           tblptru	equ	0xFF8
 12462                           tblptrh	equ	0xFF7
 12463                           tblptrl	equ	0xFF6
 12464                           tablat	equ	0xFF5
 12465                           prodh	equ	0xFF4
 12466                           prodl	equ	0xFF3
 12467                           postinc0	equ	0xFEE
 12468                           wreg	equ	0xFE8
 12469                           status	equ	0xFD8
 12470                           
 12471 ;; *************** function _cmd_incrementn *****************
 12472 ;; Defined at:
 12473 ;;		line 122 in file "Gue/FT800.c"
 12474 ;; Parameters:    Size  Location     Type
 12475 ;;  n               1    wreg     unsigned char 
 12476 ;; Auto vars:     Size  Location     Type
 12477 ;;  n               1   31[COMRAM] unsigned char 
 12478 ;; Return value:  Size  Location     Type
 12479 ;;                  1    wreg      void 
 12480 ;; Registers used:
 12481 ;;		wreg, status,2, status,0
 12482 ;; Tracked objects:
 12483 ;;		On entry : 0/0
 12484 ;;		On exit  : 0/0
 12485 ;;		Unchanged: 0/0
 12486 ;; Data sizes:     COMRAM   BANK0   BANK1   BANK2   BANK3   BANK4   BANK5   BANK6   BANK7   BANK8   BANK9  BANK10  BANK1
      +1  BANK12  BANK13  BANK14
 12487 ;;      Params:         0       0       0       0       0       0       0       0       0       0       0       0       
      +0       0       0       0
 12488 ;;      Locals:         1       0       0       0       0       0       0       0       0       0       0       0       
      +0       0       0       0
 12489 ;;      Temps:          2       0       0       0       0       0       0       0       0       0       0       0       
      +0       0       0       0
 12490 ;;      Totals:         3       0       0       0       0       0       0       0       0       0       0       0       
      +0       0       0       0
 12491 ;;Total ram usage:        3 bytes
 12492 ;; Hardware stack levels used:    1
 12493 ;; Hardware stack levels required when called:    2
 12494 ;; This function calls:
 12495 ;;		Nothing
 12496 ;; This function is called by:
 12497 ;;		_cmd
 12498 ;;		_display_labels
 12499 ;;		_display_message
 12500 ;;		_display_laptime
 12501 ;;		_display_waterTemp
 12502 ;;		_display_oilTemp
 12503 ;;		_display_fuel
 12504 ;;		_display_battery
 12505 ;;		_display_oilPress
 12506 ;;		_display_tp
 12507 ;;		_display_speed
 12508 ;;		_display_rpm
 12509 ;; This function uses a non-reentrant model
 12510 ;;
 12511                           
 12512                           	psect	text21
 12513  007544                     __ptext21:
 12514                           	opt stack 0
 12515  007544                     _cmd_incrementn:
 12516                           	opt stack 26
 12517                           
 12518                           ;incstack = 0
 12519                           ;cmd_incrementn@n stored from wreg
 12520  007544  6E20               	movwf	cmd_incrementn@n,c
 12521                           
 12522                           ;FT800.c: 123: cmd_offset=(cmd_offset+n)%4096;
 12523  007546  5020               	movf	cmd_incrementn@n,w,c
 12524  007548  243E               	addwf	_cmd_offset,w,c
 12525  00754A  6E1E               	movwf	??_cmd_incrementn& (0+255),c
 12526  00754C  0E00               	movlw	0
 12527  00754E  203F               	addwfc	_cmd_offset+1,w,c
 12528  007550  6E1F               	movwf	(??_cmd_incrementn+1)& (0+255),c
 12529  007552  0EFF               	movlw	255
 12530  007554  141E               	andwf	??_cmd_incrementn,w,c
 12531  007556  6E3E               	movwf	_cmd_offset,c
 12532  007558  0E0F               	movlw	15
 12533  00755A  141F               	andwf	??_cmd_incrementn+1,w,c
 12534  00755C  6E3F               	movwf	_cmd_offset+1,c
 12535  00755E  0012               	return		;funcret
 12536  007560                     __end_of_cmd_incrementn:
 12537                           	opt stack 0
 12538                           tblptru	equ	0xFF8
 12539                           tblptrh	equ	0xFF7
 12540                           tblptrl	equ	0xFF6
 12541                           tablat	equ	0xFF5
 12542                           prodh	equ	0xFF4
 12543                           prodl	equ	0xFF3
 12544                           postinc0	equ	0xFEE
 12545                           wreg	equ	0xFE8
 12546                           status	equ	0xFD8
 12547                           
 12548 ;; *************** function ___awmod *****************
 12549 ;; Defined at:
 12550 ;;		line 8 in file "C:\Program Files (x86)\Microchip\xc8\v1.42\sources\common\awmod.c"
 12551 ;; Parameters:    Size  Location     Type
 12552 ;;  dividend        2   37[COMRAM] int 
 12553 ;;  divisor         2   39[COMRAM] int 
 12554 ;; Auto vars:     Size  Location     Type
 12555 ;;  sign            1   42[COMRAM] unsigned char 
 12556 ;;  counter         1   41[COMRAM] unsigned char 
 12557 ;; Return value:  Size  Location     Type
 12558 ;;                  2   37[COMRAM] int 
 12559 ;; Registers used:
 12560 ;;		wreg, status,2, status,0
 12561 ;; Tracked objects:
 12562 ;;		On entry : 0/0
 12563 ;;		On exit  : 0/0
 12564 ;;		Unchanged: 0/0
 12565 ;; Data sizes:     COMRAM   BANK0   BANK1   BANK2   BANK3   BANK4   BANK5   BANK6   BANK7   BANK8   BANK9  BANK10  BANK1
      +1  BANK12  BANK13  BANK14
 12566 ;;      Params:         4       0       0       0       0       0       0       0       0       0       0       0       
      +0       0       0       0
 12567 ;;      Locals:         2       0       0       0       0       0       0       0       0       0       0       0       
      +0       0       0       0
 12568 ;;      Temps:          0       0       0       0       0       0       0       0       0       0       0       0       
      +0       0       0       0
 12569 ;;      Totals:         6       0       0       0       0       0       0       0       0       0       0       0       
      +0       0       0       0
 12570 ;;Total ram usage:        6 bytes
 12571 ;; Hardware stack levels used:    1
 12572 ;; Hardware stack levels required when called:    2
 12573 ;; This function calls:
 12574 ;;		Nothing
 12575 ;; This function is called by:
 12576 ;;		_display_battery
 12577 ;;		_display_rpm
 12578 ;; This function uses a non-reentrant model
 12579 ;;
 12580                           
 12581                           	psect	text22
 12582  00729C                     __ptext22:
 12583                           	opt stack 0
 12584  00729C                     ___awmod:
 12585                           	opt stack 26
 12586                           
 12587                           ;incstack = 0
 12588  00729C  0E00               	movlw	0
 12589  00729E  6E2B               	movwf	___awmod@sign,c
 12590  0072A0  AE27               	btfss	___awmod@dividend+1,7,c
 12591  0072A2  D006               	goto	l4952
 12592  0072A4  6C26               	negf	___awmod@dividend,c
 12593  0072A6  1E27               	comf	___awmod@dividend+1,f,c
 12594  0072A8  B0D8               	btfsc	status,0,c
 12595  0072AA  2A27               	incf	___awmod@dividend+1,f,c
 12596  0072AC  0E01               	movlw	1
 12597  0072AE  6E2B               	movwf	___awmod@sign,c
 12598  0072B0                     l4952:
 12599  0072B0  AE29               	btfss	___awmod@divisor+1,7,c
 12600  0072B2  D004               	goto	l4956
 12601  0072B4  6C28               	negf	___awmod@divisor,c
 12602  0072B6  1E29               	comf	___awmod@divisor+1,f,c
 12603  0072B8  B0D8               	btfsc	status,0,c
 12604  0072BA  2A29               	incf	___awmod@divisor+1,f,c
 12605  0072BC                     l4956:
 12606  0072BC  5028               	movf	___awmod@divisor,w,c
 12607  0072BE  1029               	iorwf	___awmod@divisor+1,w,c
 12608  0072C0  B4D8               	btfsc	status,2,c
 12609  0072C2  D018               	goto	l4972
 12610  0072C4  0E01               	movlw	1
 12611  0072C6  6E2A               	movwf	___awmod@counter,c
 12612  0072C8  D004               	goto	l4962
 12613  0072CA                     l4960:
 12614  0072CA  90D8               	bcf	status,0,c
 12615  0072CC  3628               	rlcf	___awmod@divisor,f,c
 12616  0072CE  3629               	rlcf	___awmod@divisor+1,f,c
 12617  0072D0  2A2A               	incf	___awmod@counter,f,c
 12618  0072D2                     l4962:
 12619  0072D2  AE29               	btfss	___awmod@divisor+1,7,c
 12620  0072D4  D7FA               	goto	l4960
 12621  0072D6                     l4964:
 12622  0072D6  5028               	movf	___awmod@divisor,w,c
 12623  0072D8  5C26               	subwf	___awmod@dividend,w,c
 12624  0072DA  5029               	movf	___awmod@divisor+1,w,c
 12625  0072DC  5827               	subwfb	___awmod@dividend+1,w,c
 12626  0072DE  A0D8               	btfss	status,0,c
 12627  0072E0  D004               	goto	l4968
 12628  0072E2  5028               	movf	___awmod@divisor,w,c
 12629  0072E4  5E26               	subwf	___awmod@dividend,f,c
 12630  0072E6  5029               	movf	___awmod@divisor+1,w,c
 12631  0072E8  5A27               	subwfb	___awmod@dividend+1,f,c
 12632  0072EA                     l4968:
 12633  0072EA  90D8               	bcf	status,0,c
 12634  0072EC  3229               	rrcf	___awmod@divisor+1,f,c
 12635  0072EE  3228               	rrcf	___awmod@divisor,f,c
 12636  0072F0  2E2A               	decfsz	___awmod@counter,f,c
 12637  0072F2  D7F1               	goto	l4964
 12638  0072F4                     l4972:
 12639  0072F4  502B               	movf	___awmod@sign,w,c
 12640  0072F6  B4D8               	btfsc	status,2,c
 12641  0072F8  D004               	goto	l4976
 12642  0072FA  6C26               	negf	___awmod@dividend,c
 12643  0072FC  1E27               	comf	___awmod@dividend+1,f,c
 12644  0072FE  B0D8               	btfsc	status,0,c
 12645  007300  2A27               	incf	___awmod@dividend+1,f,c
 12646  007302                     l4976:
 12647  007302  C026  F026         	movff	___awmod@dividend,?___awmod
 12648  007306  C027  F027         	movff	___awmod@dividend+1,?___awmod+1
 12649  00730A  0012               	return	
 12650  00730C                     __end_of___awmod:
 12651                           	opt stack 0
 12652                           tblptru	equ	0xFF8
 12653                           tblptrh	equ	0xFF7
 12654                           tblptrl	equ	0xFF6
 12655                           tablat	equ	0xFF5
 12656                           prodh	equ	0xFF4
 12657                           prodl	equ	0xFF3
 12658                           postinc0	equ	0xFEE
 12659                           wreg	equ	0xFE8
 12660                           status	equ	0xFD8
 12661                           
 12662 ;; *************** function ___awdiv *****************
 12663 ;; Defined at:
 12664 ;;		line 8 in file "C:\Program Files (x86)\Microchip\xc8\v1.42\sources\common\awdiv.c"
 12665 ;; Parameters:    Size  Location     Type
 12666 ;;  dividend        2   29[COMRAM] int 
 12667 ;;  divisor         2   31[COMRAM] int 
 12668 ;; Auto vars:     Size  Location     Type
 12669 ;;  quotient        2   35[COMRAM] int 
 12670 ;;  sign            1   34[COMRAM] unsigned char 
 12671 ;;  counter         1   33[COMRAM] unsigned char 
 12672 ;; Return value:  Size  Location     Type
 12673 ;;                  2   29[COMRAM] int 
 12674 ;; Registers used:
 12675 ;;		wreg, status,2, status,0
 12676 ;; Tracked objects:
 12677 ;;		On entry : 0/0
 12678 ;;		On exit  : 0/0
 12679 ;;		Unchanged: 0/0
 12680 ;; Data sizes:     COMRAM   BANK0   BANK1   BANK2   BANK3   BANK4   BANK5   BANK6   BANK7   BANK8   BANK9  BANK10  BANK1
      +1  BANK12  BANK13  BANK14
 12681 ;;      Params:         4       0       0       0       0       0       0       0       0       0       0       0       
      +0       0       0       0
 12682 ;;      Locals:         4       0       0       0       0       0       0       0       0       0       0       0       
      +0       0       0       0
 12683 ;;      Temps:          0       0       0       0       0       0       0       0       0       0       0       0       
      +0       0       0       0
 12684 ;;      Totals:         8       0       0       0       0       0       0       0       0       0       0       0       
      +0       0       0       0
 12685 ;;Total ram usage:        8 bytes
 12686 ;; Hardware stack levels used:    1
 12687 ;; Hardware stack levels required when called:    2
 12688 ;; This function calls:
 12689 ;;		Nothing
 12690 ;; This function is called by:
 12691 ;;		_main
 12692 ;;		_display_battery
 12693 ;;		_display_rpm
 12694 ;; This function uses a non-reentrant model
 12695 ;;
 12696                           
 12697                           	psect	text23
 12698  0071A0                     __ptext23:
 12699                           	opt stack 0
 12700  0071A0                     ___awdiv:
 12701                           	opt stack 26
 12702                           
 12703                           ;incstack = 0
 12704  0071A0  0E00               	movlw	0
 12705  0071A2  6E23               	movwf	___awdiv@sign,c
 12706  0071A4  AE21               	btfss	___awdiv@divisor+1,7,c
 12707  0071A6  D006               	goto	l4908
 12708  0071A8  6C20               	negf	___awdiv@divisor,c
 12709  0071AA  1E21               	comf	___awdiv@divisor+1,f,c
 12710  0071AC  B0D8               	btfsc	status,0,c
 12711  0071AE  2A21               	incf	___awdiv@divisor+1,f,c
 12712  0071B0  0E01               	movlw	1
 12713  0071B2  6E23               	movwf	___awdiv@sign,c
 12714  0071B4                     l4908:
 12715  0071B4  AE1F               	btfss	___awdiv@dividend+1,7,c
 12716  0071B6  D006               	goto	l4914
 12717  0071B8  6C1E               	negf	___awdiv@dividend,c
 12718  0071BA  1E1F               	comf	___awdiv@dividend+1,f,c
 12719  0071BC  B0D8               	btfsc	status,0,c
 12720  0071BE  2A1F               	incf	___awdiv@dividend+1,f,c
 12721  0071C0  0E01               	movlw	1
 12722  0071C2  1A23               	xorwf	___awdiv@sign,f,c
 12723  0071C4                     l4914:
 12724  0071C4  0E00               	movlw	0
 12725  0071C6  6E25               	movwf	___awdiv@quotient+1,c
 12726  0071C8  0E00               	movlw	0
 12727  0071CA  6E24               	movwf	___awdiv@quotient,c
 12728  0071CC  5020               	movf	___awdiv@divisor,w,c
 12729  0071CE  1021               	iorwf	___awdiv@divisor+1,w,c
 12730  0071D0  B4D8               	btfsc	status,2,c
 12731  0071D2  D01C               	goto	l4936
 12732  0071D4  0E01               	movlw	1
 12733  0071D6  6E22               	movwf	___awdiv@counter,c
 12734  0071D8  D004               	goto	l4922
 12735  0071DA                     l4920:
 12736  0071DA  90D8               	bcf	status,0,c
 12737  0071DC  3620               	rlcf	___awdiv@divisor,f,c
 12738  0071DE  3621               	rlcf	___awdiv@divisor+1,f,c
 12739  0071E0  2A22               	incf	___awdiv@counter,f,c
 12740  0071E2                     l4922:
 12741  0071E2  AE21               	btfss	___awdiv@divisor+1,7,c
 12742  0071E4  D7FA               	goto	l4920
 12743  0071E6                     l4924:
 12744  0071E6  90D8               	bcf	status,0,c
 12745  0071E8  3624               	rlcf	___awdiv@quotient,f,c
 12746  0071EA  3625               	rlcf	___awdiv@quotient+1,f,c
 12747  0071EC  5020               	movf	___awdiv@divisor,w,c
 12748  0071EE  5C1E               	subwf	___awdiv@dividend,w,c
 12749  0071F0  5021               	movf	___awdiv@divisor+1,w,c
 12750  0071F2  581F               	subwfb	___awdiv@dividend+1,w,c
 12751  0071F4  A0D8               	btfss	status,0,c
 12752  0071F6  D005               	goto	l4932
 12753  0071F8  5020               	movf	___awdiv@divisor,w,c
 12754  0071FA  5E1E               	subwf	___awdiv@dividend,f,c
 12755  0071FC  5021               	movf	___awdiv@divisor+1,w,c
 12756  0071FE  5A1F               	subwfb	___awdiv@dividend+1,f,c
 12757  007200  8024               	bsf	___awdiv@quotient,0,c
 12758  007202                     l4932:
 12759  007202  90D8               	bcf	status,0,c
 12760  007204  3221               	rrcf	___awdiv@divisor+1,f,c
 12761  007206  3220               	rrcf	___awdiv@divisor,f,c
 12762  007208  2E22               	decfsz	___awdiv@counter,f,c
 12763  00720A  D7ED               	goto	l4924
 12764  00720C                     l4936:
 12765  00720C  5023               	movf	___awdiv@sign,w,c
 12766  00720E  B4D8               	btfsc	status,2,c
 12767  007210  D004               	goto	l4940
 12768  007212  6C24               	negf	___awdiv@quotient,c
 12769  007214  1E25               	comf	___awdiv@quotient+1,f,c
 12770  007216  B0D8               	btfsc	status,0,c
 12771  007218  2A25               	incf	___awdiv@quotient+1,f,c
 12772  00721A                     l4940:
 12773  00721A  C024  F01E         	movff	___awdiv@quotient,?___awdiv
 12774  00721E  C025  F01F         	movff	___awdiv@quotient+1,?___awdiv+1
 12775  007222  0012               	return	
 12776  007224                     __end_of___awdiv:
 12777                           	opt stack 0
 12778                           tblptru	equ	0xFF8
 12779                           tblptrh	equ	0xFF7
 12780                           tblptrl	equ	0xFF6
 12781                           tablat	equ	0xFF5
 12782                           prodh	equ	0xFF4
 12783                           prodl	equ	0xFF3
 12784                           postinc0	equ	0xFEE
 12785                           wreg	equ	0xFE8
 12786                           status	equ	0xFD8
 12787                           
 12788 ;; *************** function ___awtoft *****************
 12789 ;; Defined at:
 12790 ;;		line 32 in file "C:\Program Files (x86)\Microchip\xc8\v1.42\sources\common\awtoft.c"
 12791 ;; Parameters:    Size  Location     Type
 12792 ;;  c               2   37[COMRAM] int 
 12793 ;; Auto vars:     Size  Location     Type
 12794 ;;  sign            1   40[COMRAM] unsigned char 
 12795 ;; Return value:  Size  Location     Type
 12796 ;;                  3   37[COMRAM] float 
 12797 ;; Registers used:
 12798 ;;		wreg, status,2, status,0, cstack
 12799 ;; Tracked objects:
 12800 ;;		On entry : 0/0
 12801 ;;		On exit  : 0/0
 12802 ;;		Unchanged: 0/0
 12803 ;; Data sizes:     COMRAM   BANK0   BANK1   BANK2   BANK3   BANK4   BANK5   BANK6   BANK7   BANK8   BANK9  BANK10  BANK1
      +1  BANK12  BANK13  BANK14
 12804 ;;      Params:         3       0       0       0       0       0       0       0       0       0       0       0       
      +0       0       0       0
 12805 ;;      Locals:         1       0       0       0       0       0       0       0       0       0       0       0       
      +0       0       0       0
 12806 ;;      Temps:          0       0       0       0       0       0       0       0       0       0       0       0       
      +0       0       0       0
 12807 ;;      Totals:         4       0       0       0       0       0       0       0       0       0       0       0       
      +0       0       0       0
 12808 ;;Total ram usage:        4 bytes
 12809 ;; Hardware stack levels used:    1
 12810 ;; Hardware stack levels required when called:    3
 12811 ;; This function calls:
 12812 ;;		___ftpack
 12813 ;; This function is called by:
 12814 ;;		_display
 12815 ;; This function uses a non-reentrant model
 12816 ;;
 12817                           
 12818                           	psect	text24
 12819  0074D6                     __ptext24:
 12820                           	opt stack 0
 12821  0074D6                     ___awtoft:
 12822                           	opt stack 26
 12823                           
 12824                           ;incstack = 0
 12825  0074D6  0E00               	movlw	0
 12826  0074D8  6E29               	movwf	___awtoft@sign,c
 12827  0074DA  AE27               	btfss	___awtoft@c+1,7,c
 12828  0074DC  D006               	goto	l4414
 12829  0074DE  6C26               	negf	___awtoft@c,c
 12830  0074E0  1E27               	comf	___awtoft@c+1,f,c
 12831  0074E2  B0D8               	btfsc	status,0,c
 12832  0074E4  2A27               	incf	___awtoft@c+1,f,c
 12833  0074E6  0E01               	movlw	1
 12834  0074E8  6E29               	movwf	___awtoft@sign,c
 12835  0074EA                     l4414:
 12836  0074EA  C026  F01E         	movff	___awtoft@c,___ftpack@arg
 12837  0074EE  C027  F01F         	movff	___awtoft@c+1,___ftpack@arg+1
 12838  0074F2  6A20               	clrf	___ftpack@arg+2,c
 12839  0074F4  0E8E               	movlw	142
 12840  0074F6  6E21               	movwf	___ftpack@exp,c
 12841  0074F8  C029  F022         	movff	___awtoft@sign,___ftpack@sign
 12842  0074FC  ECAD  F037         	call	___ftpack	;wreg free
 12843  007500  C01E  F026         	movff	?___ftpack,?___awtoft
 12844  007504  C01F  F027         	movff	?___ftpack+1,?___awtoft+1
 12845  007508  C020  F028         	movff	?___ftpack+2,?___awtoft+2
 12846  00750C  0012               	return	
 12847  00750E                     __end_of___awtoft:
 12848                           	opt stack 0
 12849                           tblptru	equ	0xFF8
 12850                           tblptrh	equ	0xFF7
 12851                           tblptrl	equ	0xFF6
 12852                           tablat	equ	0xFF5
 12853                           prodh	equ	0xFF4
 12854                           prodl	equ	0xFF3
 12855                           postinc0	equ	0xFEE
 12856                           wreg	equ	0xFE8
 12857                           status	equ	0xFD8
 12858                           
 12859 ;; *************** function ___ftpack *****************
 12860 ;; Defined at:
 12861 ;;		line 62 in file "C:\Program Files (x86)\Microchip\xc8\v1.42\sources\common\float.c"
 12862 ;; Parameters:    Size  Location     Type
 12863 ;;  arg             3   29[COMRAM] unsigned um
 12864 ;;  exp             1   32[COMRAM] unsigned char 
 12865 ;;  sign            1   33[COMRAM] unsigned char 
 12866 ;; Auto vars:     Size  Location     Type
 12867 ;;		None
 12868 ;; Return value:  Size  Location     Type
 12869 ;;                  3   29[COMRAM] float 
 12870 ;; Registers used:
 12871 ;;		wreg, status,2, status,0
 12872 ;; Tracked objects:
 12873 ;;		On entry : 0/0
 12874 ;;		On exit  : 0/0
 12875 ;;		Unchanged: 0/0
 12876 ;; Data sizes:     COMRAM   BANK0   BANK1   BANK2   BANK3   BANK4   BANK5   BANK6   BANK7   BANK8   BANK9  BANK10  BANK1
      +1  BANK12  BANK13  BANK14
 12877 ;;      Params:         5       0       0       0       0       0       0       0       0       0       0       0       
      +0       0       0       0
 12878 ;;      Locals:         0       0       0       0       0       0       0       0       0       0       0       0       
      +0       0       0       0
 12879 ;;      Temps:          3       0       0       0       0       0       0       0       0       0       0       0       
      +0       0       0       0
 12880 ;;      Totals:         8       0       0       0       0       0       0       0       0       0       0       0       
      +0       0       0       0
 12881 ;;Total ram usage:        8 bytes
 12882 ;; Hardware stack levels used:    1
 12883 ;; Hardware stack levels required when called:    2
 12884 ;; This function calls:
 12885 ;;		Nothing
 12886 ;; This function is called by:
 12887 ;;		___awtoft
 12888 ;; This function uses a non-reentrant model
 12889 ;;
 12890                           
 12891                           	psect	text25
 12892  006F5A                     __ptext25:
 12893                           	opt stack 0
 12894  006F5A                     ___ftpack:
 12895                           	opt stack 26
 12896                           
 12897                           ;incstack = 0
 12898  006F5A  5021               	movf	___ftpack@exp,w,c
 12899  006F5C  B4D8               	btfsc	status,2,c
 12900  006F5E  D005               	goto	l3286
 12901  006F60  501E               	movf	___ftpack@arg,w,c
 12902  006F62  101F               	iorwf	___ftpack@arg+1,w,c
 12903  006F64  1020               	iorwf	___ftpack@arg+2,w,c
 12904  006F66  A4D8               	btfss	status,2,c
 12905  006F68  D00C               	goto	l3292
 12906  006F6A                     l3286:
 12907  006F6A  0E00               	movlw	0
 12908  006F6C  6E1E               	movwf	?___ftpack,c
 12909  006F6E  0E00               	movlw	0
 12910  006F70  6E1F               	movwf	?___ftpack+1,c
 12911  006F72  0E00               	movlw	0
 12912  006F74  6E20               	movwf	?___ftpack+2,c
 12913  006F76  0012               	return	
 12914  006F78                     l3290:
 12915  006F78  2A21               	incf	___ftpack@exp,f,c
 12916  006F7A  90D8               	bcf	status,0,c
 12917  006F7C  3220               	rrcf	___ftpack@arg+2,f,c
 12918  006F7E  321F               	rrcf	___ftpack@arg+1,f,c
 12919  006F80  321E               	rrcf	___ftpack@arg,f,c
 12920  006F82                     l3292:
 12921  006F82  0E00               	movlw	0
 12922  006F84  141E               	andwf	___ftpack@arg,w,c
 12923  006F86  6E23               	movwf	??___ftpack& (0+255),c
 12924  006F88  0E00               	movlw	0
 12925  006F8A  141F               	andwf	___ftpack@arg+1,w,c
 12926  006F8C  6E24               	movwf	(??___ftpack+1)& (0+255),c
 12927  006F8E  0EFE               	movlw	254
 12928  006F90  1420               	andwf	___ftpack@arg+2,w,c
 12929  006F92  6E25               	movwf	(??___ftpack+2)& (0+255),c
 12930  006F94  5023               	movf	??___ftpack,w,c
 12931  006F96  1024               	iorwf	??___ftpack+1,w,c
 12932  006F98  1025               	iorwf	??___ftpack+2,w,c
 12933  006F9A  B4D8               	btfsc	status,2,c
 12934  006F9C  D00C               	goto	l3298
 12935  006F9E  D7EC               	goto	l3290
 12936  006FA0                     l3294:
 12937  006FA0  2A21               	incf	___ftpack@exp,f,c
 12938  006FA2  0E01               	movlw	1
 12939  006FA4  261E               	addwf	___ftpack@arg,f,c
 12940  006FA6  0E00               	movlw	0
 12941  006FA8  221F               	addwfc	___ftpack@arg+1,f,c
 12942  006FAA  0E00               	movlw	0
 12943  006FAC  2220               	addwfc	___ftpack@arg+2,f,c
 12944  006FAE  90D8               	bcf	status,0,c
 12945  006FB0  3220               	rrcf	___ftpack@arg+2,f,c
 12946  006FB2  321F               	rrcf	___ftpack@arg+1,f,c
 12947  006FB4  321E               	rrcf	___ftpack@arg,f,c
 12948  006FB6                     l3298:
 12949  006FB6  0E00               	movlw	0
 12950  006FB8  141E               	andwf	___ftpack@arg,w,c
 12951  006FBA  6E23               	movwf	??___ftpack& (0+255),c
 12952  006FBC  0E00               	movlw	0
 12953  006FBE  141F               	andwf	___ftpack@arg+1,w,c
 12954  006FC0  6E24               	movwf	(??___ftpack+1)& (0+255),c
 12955  006FC2  0EFF               	movlw	255
 12956  006FC4  1420               	andwf	___ftpack@arg+2,w,c
 12957  006FC6  6E25               	movwf	(??___ftpack+2)& (0+255),c
 12958  006FC8  5023               	movf	??___ftpack,w,c
 12959  006FCA  1024               	iorwf	??___ftpack+1,w,c
 12960  006FCC  1025               	iorwf	??___ftpack+2,w,c
 12961  006FCE  B4D8               	btfsc	status,2,c
 12962  006FD0  D006               	goto	l3302
 12963  006FD2  D7E6               	goto	l3294
 12964  006FD4                     l3300:
 12965  006FD4  0621               	decf	___ftpack@exp,f,c
 12966  006FD6  90D8               	bcf	status,0,c
 12967  006FD8  361E               	rlcf	___ftpack@arg,f,c
 12968  006FDA  361F               	rlcf	___ftpack@arg+1,f,c
 12969  006FDC  3620               	rlcf	___ftpack@arg+2,f,c
 12970  006FDE                     l3302:
 12971  006FDE  BE1F               	btfsc	___ftpack@arg+1,7,c
 12972  006FE0  D003               	goto	l971
 12973  006FE2  0E02               	movlw	2
 12974  006FE4  6021               	cpfslt	___ftpack@exp,c
 12975  006FE6  D7F6               	goto	l3300
 12976  006FE8                     l971:
 12977  006FE8  A021               	btfss	___ftpack@exp,0,c
 12978  006FEA  9E1F               	bcf	___ftpack@arg+1,7,c
 12979  006FEC  90D8               	bcf	status,0,c
 12980  006FEE  3221               	rrcf	___ftpack@exp,f,c
 12981  006FF0  5021               	movf	___ftpack@exp,w,c
 12982  006FF2  1220               	iorwf	___ftpack@arg+2,f,c
 12983  006FF4  5022               	movf	___ftpack@sign,w,c
 12984  006FF6  A4D8               	btfss	status,2,c
 12985  006FF8  8E20               	bsf	___ftpack@arg+2,7,c
 12986  006FFA  C01E  F01E         	movff	___ftpack@arg,?___ftpack
 12987  006FFE  C01F  F01F         	movff	___ftpack@arg+1,?___ftpack+1
 12988  007002  C020  F020         	movff	___ftpack@arg+2,?___ftpack+2
 12989  007006  0012               	return	
 12990  007008                     __end_of___ftpack:
 12991                           	opt stack 0
 12992                           tblptru	equ	0xFF8
 12993                           tblptrh	equ	0xFF7
 12994                           tblptrl	equ	0xFF6
 12995                           tablat	equ	0xFF5
 12996                           prodh	equ	0xFF4
 12997                           prodl	equ	0xFF3
 12998                           postinc0	equ	0xFEE
 12999                           wreg	equ	0xFE8
 13000                           status	equ	0xFD8
 13001                           
 13002 ;; *************** function _SYSTEM_Initialize *****************
 13003 ;; Defined at:
 13004 ;;		line 111 in file "mcc_generated_files/mcc.c"
 13005 ;; Parameters:    Size  Location     Type
 13006 ;;		None
 13007 ;; Auto vars:     Size  Location     Type
 13008 ;;		None
 13009 ;; Return value:  Size  Location     Type
 13010 ;;                  1    wreg      void 
 13011 ;; Registers used:
 13012 ;;		wreg, status,2, status,0, cstack
 13013 ;; Tracked objects:
 13014 ;;		On entry : 0/0
 13015 ;;		On exit  : 0/0
 13016 ;;		Unchanged: 0/0
 13017 ;; Data sizes:     COMRAM   BANK0   BANK1   BANK2   BANK3   BANK4   BANK5   BANK6   BANK7   BANK8   BANK9  BANK10  BANK1
      +1  BANK12  BANK13  BANK14
 13018 ;;      Params:         0       0       0       0       0       0       0       0       0       0       0       0       
      +0       0       0       0
 13019 ;;      Locals:         0       0       0       0       0       0       0       0       0       0       0       0       
      +0       0       0       0
 13020 ;;      Temps:          0       0       0       0       0       0       0       0       0       0       0       0       
      +0       0       0       0
 13021 ;;      Totals:         0       0       0       0       0       0       0       0       0       0       0       0       
      +0       0       0       0
 13022 ;;Total ram usage:        0 bytes
 13023 ;; Hardware stack levels used:    1
 13024 ;; Hardware stack levels required when called:    3
 13025 ;; This function calls:
 13026 ;;		_ECAN_Initialize
 13027 ;;		_EUSART1_Initialize
 13028 ;;		_EUSART2_Initialize
 13029 ;;		_OSCILLATOR_Initialize
 13030 ;;		_PIN_MANAGER_Initialize
 13031 ;;		_SPI_Initialize
 13032 ;; This function is called by:
 13033 ;;		_main
 13034 ;; This function uses a non-reentrant model
 13035 ;;
 13036                           
 13037                           	psect	text26
 13038  007594                     __ptext26:
 13039                           	opt stack 0
 13040  007594                     _SYSTEM_Initialize:
 13041                           	opt stack 27
 13042                           
 13043                           ;mcc.c: 114: PIN_MANAGER_Initialize();
 13044                           
 13045                           ;incstack = 0
 13046  007594  EC12  F03A         	call	_PIN_MANAGER_Initialize	;wreg free
 13047                           
 13048                           ;mcc.c: 115: OSCILLATOR_Initialize();
 13049  007598  ECFA  F03A         	call	_OSCILLATOR_Initialize	;wreg free
 13050                           
 13051                           ;mcc.c: 116: SPI_Initialize();
 13052  00759C  EC0B  F03B         	call	_SPI_Initialize	;wreg free
 13053                           
 13054                           ;mcc.c: 117: EUSART1_Initialize();
 13055  0075A0  ECEF  F03A         	call	_EUSART1_Initialize	;wreg free
 13056                           
 13057                           ;mcc.c: 118: EUSART2_Initialize();
 13058  0075A4  ECE4  F03A         	call	_EUSART2_Initialize	;wreg free
 13059                           
 13060                           ;mcc.c: 119: ECAN_Initialize();
 13061  0075A8  ECCA  F036         	call	_ECAN_Initialize	;wreg free
 13062  0075AC  0012               	return		;funcret
 13063  0075AE                     __end_of_SYSTEM_Initialize:
 13064                           	opt stack 0
 13065                           tblptru	equ	0xFF8
 13066                           tblptrh	equ	0xFF7
 13067                           tblptrl	equ	0xFF6
 13068                           tablat	equ	0xFF5
 13069                           prodh	equ	0xFF4
 13070                           prodl	equ	0xFF3
 13071                           postinc0	equ	0xFEE
 13072                           wreg	equ	0xFE8
 13073                           status	equ	0xFD8
 13074                           
 13075 ;; *************** function _SPI_Initialize *****************
 13076 ;; Defined at:
 13077 ;;		line 63 in file "mcc_generated_files/spi.c"
 13078 ;; Parameters:    Size  Location     Type
 13079 ;;		None
 13080 ;; Auto vars:     Size  Location     Type
 13081 ;;		None
 13082 ;; Return value:  Size  Location     Type
 13083 ;;                  1    wreg      void 
 13084 ;; Registers used:
 13085 ;;		wreg, status,2
 13086 ;; Tracked objects:
 13087 ;;		On entry : 0/0
 13088 ;;		On exit  : 0/0
 13089 ;;		Unchanged: 0/0
 13090 ;; Data sizes:     COMRAM   BANK0   BANK1   BANK2   BANK3   BANK4   BANK5   BANK6   BANK7   BANK8   BANK9  BANK10  BANK1
      +1  BANK12  BANK13  BANK14
 13091 ;;      Params:         0       0       0       0       0       0       0       0       0       0       0       0       
      +0       0       0       0
 13092 ;;      Locals:         0       0       0       0       0       0       0       0       0       0       0       0       
      +0       0       0       0
 13093 ;;      Temps:          0       0       0       0       0       0       0       0       0       0       0       0       
      +0       0       0       0
 13094 ;;      Totals:         0       0       0       0       0       0       0       0       0       0       0       0       
      +0       0       0       0
 13095 ;;Total ram usage:        0 bytes
 13096 ;; Hardware stack levels used:    1
 13097 ;; Hardware stack levels required when called:    2
 13098 ;; This function calls:
 13099 ;;		Nothing
 13100 ;; This function is called by:
 13101 ;;		_SYSTEM_Initialize
 13102 ;; This function uses a non-reentrant model
 13103 ;;
 13104                           
 13105                           	psect	text27
 13106  007616                     __ptext27:
 13107                           	opt stack 0
 13108  007616                     _SPI_Initialize:
 13109                           	opt stack 27
 13110                           
 13111                           ;spi.c: 68: SSPSTAT = 0x00;
 13112                           
 13113                           ;incstack = 0
 13114  007616  0E00               	movlw	0
 13115  007618  6EC7               	movwf	4039,c	;volatile
 13116                           
 13117                           ;spi.c: 71: SSPCON1 = 0x20;
 13118  00761A  0E20               	movlw	32
 13119  00761C  6EC6               	movwf	4038,c	;volatile
 13120                           
 13121                           ;spi.c: 74: SSPADD = 0x00;
 13122  00761E  0E00               	movlw	0
 13123  007620  6EC8               	movwf	4040,c	;volatile
 13124  007622  0012               	return		;funcret
 13125  007624                     __end_of_SPI_Initialize:
 13126                           	opt stack 0
 13127                           tblptru	equ	0xFF8
 13128                           tblptrh	equ	0xFF7
 13129                           tblptrl	equ	0xFF6
 13130                           tablat	equ	0xFF5
 13131                           prodh	equ	0xFF4
 13132                           prodl	equ	0xFF3
 13133                           postinc0	equ	0xFEE
 13134                           wreg	equ	0xFE8
 13135                           status	equ	0xFD8
 13136                           
 13137 ;; *************** function _PIN_MANAGER_Initialize *****************
 13138 ;; Defined at:
 13139 ;;		line 52 in file "mcc_generated_files/pin_manager.c"
 13140 ;; Parameters:    Size  Location     Type
 13141 ;;		None
 13142 ;; Auto vars:     Size  Location     Type
 13143 ;;		None
 13144 ;; Return value:  Size  Location     Type
 13145 ;;                  1    wreg      void 
 13146 ;; Registers used:
 13147 ;;		wreg, status,2
 13148 ;; Tracked objects:
 13149 ;;		On entry : 0/0
 13150 ;;		On exit  : 0/0
 13151 ;;		Unchanged: 0/0
 13152 ;; Data sizes:     COMRAM   BANK0   BANK1   BANK2   BANK3   BANK4   BANK5   BANK6   BANK7   BANK8   BANK9  BANK10  BANK1
      +1  BANK12  BANK13  BANK14
 13153 ;;      Params:         0       0       0       0       0       0       0       0       0       0       0       0       
      +0       0       0       0
 13154 ;;      Locals:         0       0       0       0       0       0       0       0       0       0       0       0       
      +0       0       0       0
 13155 ;;      Temps:          0       0       0       0       0       0       0       0       0       0       0       0       
      +0       0       0       0
 13156 ;;      Totals:         0       0       0       0       0       0       0       0       0       0       0       0       
      +0       0       0       0
 13157 ;;Total ram usage:        0 bytes
 13158 ;; Hardware stack levels used:    1
 13159 ;; Hardware stack levels required when called:    2
 13160 ;; This function calls:
 13161 ;;		Nothing
 13162 ;; This function is called by:
 13163 ;;		_SYSTEM_Initialize
 13164 ;; This function uses a non-reentrant model
 13165 ;;
 13166                           
 13167                           	psect	text28
 13168  007424                     __ptext28:
 13169                           	opt stack 0
 13170  007424                     _PIN_MANAGER_Initialize:
 13171                           	opt stack 27
 13172                           
 13173                           ;pin_manager.c: 57: LATE = 0x00;
 13174                           
 13175                           ;incstack = 0
 13176  007424  0E00               	movlw	0
 13177  007426  6E8D               	movwf	3981,c	;volatile
 13178                           
 13179                           ;pin_manager.c: 58: LATD = 0x00;
 13180  007428  0E00               	movlw	0
 13181  00742A  6E8C               	movwf	3980,c	;volatile
 13182                           
 13183                           ;pin_manager.c: 59: LATA = 0x07;
 13184  00742C  0E07               	movlw	7
 13185  00742E  6E89               	movwf	3977,c	;volatile
 13186                           
 13187                           ;pin_manager.c: 60: LATB = 0x00;
 13188  007430  0E00               	movlw	0
 13189  007432  6E8A               	movwf	3978,c	;volatile
 13190                           
 13191                           ;pin_manager.c: 61: LATC = 0x00;
 13192  007434  0E00               	movlw	0
 13193  007436  6E8B               	movwf	3979,c	;volatile
 13194                           
 13195                           ;pin_manager.c: 66: TRISE = 0x07;
 13196  007438  0E07               	movlw	7
 13197  00743A  6E96               	movwf	3990,c	;volatile
 13198                           
 13199                           ;pin_manager.c: 67: TRISA = 0xEC;
 13200  00743C  0EEC               	movlw	236
 13201  00743E  6E92               	movwf	3986,c	;volatile
 13202                           
 13203                           ;pin_manager.c: 68: TRISB = 0xDB;
 13204  007440  0EDB               	movlw	219
 13205  007442  6E93               	movwf	3987,c	;volatile
 13206                           
 13207                           ;pin_manager.c: 69: TRISC = 0x91;
 13208  007444  0E91               	movlw	145
 13209  007446  6E94               	movwf	3988,c	;volatile
 13210                           
 13211                           ;pin_manager.c: 70: TRISD = 0x84;
 13212  007448  0E84               	movlw	132
 13213  00744A  6E95               	movwf	3989,c	;volatile
 13214                           
 13215                           ;pin_manager.c: 75: ANCON0 = 0xF8;
 13216  00744C  0EF8               	movlw	248
 13217  00744E  010F               	movlb	15	; () banked
 13218  007450  6F5D               	movwf	93,b	;volatile
 13219                           
 13220                           ;pin_manager.c: 76: ANCON1 = 0x65;
 13221  007452  0E65               	movlw	101
 13222  007454  010F               	movlb	15	; () banked
 13223  007456  6F5C               	movwf	92,b	;volatile
 13224                           
 13225                           ; BSR set to: 15
 13226                           ;pin_manager.c: 81: WPUB = 0xFF;
 13227  007458  010F               	movlb	15	; () banked
 13228  00745A  695B               	setf	91,b	;volatile
 13229                           
 13230                           ; BSR set to: 15
 13231                           ;pin_manager.c: 89: IOCBbits.IOCB4 = 1;
 13232  00745C  010F               	movlb	15	; () banked
 13233  00745E  895A               	bsf	90,4,b	;volatile
 13234                           
 13235                           ; BSR set to: 15
 13236  007460  0012               	return		;funcret
 13237  007462                     __end_of_PIN_MANAGER_Initialize:
 13238                           	opt stack 0
 13239                           tblptru	equ	0xFF8
 13240                           tblptrh	equ	0xFF7
 13241                           tblptrl	equ	0xFF6
 13242                           tablat	equ	0xFF5
 13243                           prodh	equ	0xFF4
 13244                           prodl	equ	0xFF3
 13245                           postinc0	equ	0xFEE
 13246                           wreg	equ	0xFE8
 13247                           status	equ	0xFD8
 13248                           
 13249 ;; *************** function _OSCILLATOR_Initialize *****************
 13250 ;; Defined at:
 13251 ;;		line 122 in file "mcc_generated_files/mcc.c"
 13252 ;; Parameters:    Size  Location     Type
 13253 ;;		None
 13254 ;; Auto vars:     Size  Location     Type
 13255 ;;		None
 13256 ;; Return value:  Size  Location     Type
 13257 ;;                  1    wreg      void 
 13258 ;; Registers used:
 13259 ;;		wreg, status,2
 13260 ;; Tracked objects:
 13261 ;;		On entry : 0/0
 13262 ;;		On exit  : 0/0
 13263 ;;		Unchanged: 0/0
 13264 ;; Data sizes:     COMRAM   BANK0   BANK1   BANK2   BANK3   BANK4   BANK5   BANK6   BANK7   BANK8   BANK9  BANK10  BANK1
      +1  BANK12  BANK13  BANK14
 13265 ;;      Params:         0       0       0       0       0       0       0       0       0       0       0       0       
      +0       0       0       0
 13266 ;;      Locals:         0       0       0       0       0       0       0       0       0       0       0       0       
      +0       0       0       0
 13267 ;;      Temps:          0       0       0       0       0       0       0       0       0       0       0       0       
      +0       0       0       0
 13268 ;;      Totals:         0       0       0       0       0       0       0       0       0       0       0       0       
      +0       0       0       0
 13269 ;;Total ram usage:        0 bytes
 13270 ;; Hardware stack levels used:    1
 13271 ;; Hardware stack levels required when called:    2
 13272 ;; This function calls:
 13273 ;;		Nothing
 13274 ;; This function is called by:
 13275 ;;		_SYSTEM_Initialize
 13276 ;; This function uses a non-reentrant model
 13277 ;;
 13278                           
 13279                           	psect	text29
 13280  0075F4                     __ptext29:
 13281                           	opt stack 0
 13282  0075F4                     _OSCILLATOR_Initialize:
 13283                           	opt stack 27
 13284                           
 13285                           ;mcc.c: 125: OSCCON = 0x60;
 13286                           
 13287                           ; BSR set to: 15
 13288                           ;incstack = 0
 13289  0075F4  0E60               	movlw	96
 13290  0075F6  6ED3               	movwf	4051,c	;volatile
 13291                           
 13292                           ;mcc.c: 127: OSCCON2 = 0x00;
 13293  0075F8  0E00               	movlw	0
 13294  0075FA  6ED2               	movwf	4050,c	;volatile
 13295                           
 13296                           ;mcc.c: 129: OSCTUNE = 0x00;
 13297  0075FC  0E00               	movlw	0
 13298  0075FE  6E9B               	movwf	3995,c	;volatile
 13299                           
 13300                           ;mcc.c: 131: REFOCON = 0x00;
 13301  007600  0E00               	movlw	0
 13302  007602  6E9A               	movwf	3994,c	;volatile
 13303  007604  0012               	return		;funcret
 13304  007606                     __end_of_OSCILLATOR_Initialize:
 13305                           	opt stack 0
 13306                           tblptru	equ	0xFF8
 13307                           tblptrh	equ	0xFF7
 13308                           tblptrl	equ	0xFF6
 13309                           tablat	equ	0xFF5
 13310                           prodh	equ	0xFF4
 13311                           prodl	equ	0xFF3
 13312                           postinc0	equ	0xFEE
 13313                           wreg	equ	0xFE8
 13314                           status	equ	0xFD8
 13315                           
 13316 ;; *************** function _EUSART2_Initialize *****************
 13317 ;; Defined at:
 13318 ;;		line 55 in file "mcc_generated_files/eusart2.c"
 13319 ;; Parameters:    Size  Location     Type
 13320 ;;		None
 13321 ;; Auto vars:     Size  Location     Type
 13322 ;;		None
 13323 ;; Return value:  Size  Location     Type
 13324 ;;                  1    wreg      void 
 13325 ;; Registers used:
 13326 ;;		wreg, status,2
 13327 ;; Tracked objects:
 13328 ;;		On entry : 0/0
 13329 ;;		On exit  : 0/0
 13330 ;;		Unchanged: 0/0
 13331 ;; Data sizes:     COMRAM   BANK0   BANK1   BANK2   BANK3   BANK4   BANK5   BANK6   BANK7   BANK8   BANK9  BANK10  BANK1
      +1  BANK12  BANK13  BANK14
 13332 ;;      Params:         0       0       0       0       0       0       0       0       0       0       0       0       
      +0       0       0       0
 13333 ;;      Locals:         0       0       0       0       0       0       0       0       0       0       0       0       
      +0       0       0       0
 13334 ;;      Temps:          0       0       0       0       0       0       0       0       0       0       0       0       
      +0       0       0       0
 13335 ;;      Totals:         0       0       0       0       0       0       0       0       0       0       0       0       
      +0       0       0       0
 13336 ;;Total ram usage:        0 bytes
 13337 ;; Hardware stack levels used:    1
 13338 ;; Hardware stack levels required when called:    2
 13339 ;; This function calls:
 13340 ;;		Nothing
 13341 ;; This function is called by:
 13342 ;;		_SYSTEM_Initialize
 13343 ;; This function uses a non-reentrant model
 13344 ;;
 13345                           
 13346                           	psect	text30
 13347  0075C8                     __ptext30:
 13348                           	opt stack 0
 13349  0075C8                     _EUSART2_Initialize:
 13350                           	opt stack 27
 13351                           
 13352                           ;eusart2.c: 60: BAUDCON2 = 0x08;
 13353                           
 13354                           ;incstack = 0
 13355  0075C8  0E08               	movlw	8
 13356  0075CA  6EB9               	movwf	4025,c	;volatile
 13357                           
 13358                           ;eusart2.c: 63: RCSTA2 = 0x90;
 13359  0075CC  0E90               	movlw	144
 13360  0075CE  6EA6               	movwf	4006,c	;volatile
 13361                           
 13362                           ;eusart2.c: 66: TXSTA2 = 0x26;
 13363  0075D0  0E26               	movlw	38
 13364  0075D2  6EBA               	movwf	4026,c	;volatile
 13365                           
 13366                           ;eusart2.c: 69: SPBRG2 = 0x22;
 13367  0075D4  0E22               	movlw	34
 13368  0075D6  6E7B               	movwf	3963,c	;volatile
 13369                           
 13370                           ;eusart2.c: 72: SPBRGH2 = 0x00;
 13371  0075D8  0E00               	movlw	0
 13372  0075DA  6E7C               	movwf	3964,c	;volatile
 13373  0075DC  0012               	return		;funcret
 13374  0075DE                     __end_of_EUSART2_Initialize:
 13375                           	opt stack 0
 13376                           tblptru	equ	0xFF8
 13377                           tblptrh	equ	0xFF7
 13378                           tblptrl	equ	0xFF6
 13379                           tablat	equ	0xFF5
 13380                           prodh	equ	0xFF4
 13381                           prodl	equ	0xFF3
 13382                           postinc0	equ	0xFEE
 13383                           wreg	equ	0xFE8
 13384                           status	equ	0xFD8
 13385                           
 13386 ;; *************** function _EUSART1_Initialize *****************
 13387 ;; Defined at:
 13388 ;;		line 55 in file "mcc_generated_files/eusart1.c"
 13389 ;; Parameters:    Size  Location     Type
 13390 ;;		None
 13391 ;; Auto vars:     Size  Location     Type
 13392 ;;		None
 13393 ;; Return value:  Size  Location     Type
 13394 ;;                  1    wreg      void 
 13395 ;; Registers used:
 13396 ;;		wreg, status,2
 13397 ;; Tracked objects:
 13398 ;;		On entry : 0/0
 13399 ;;		On exit  : 0/0
 13400 ;;		Unchanged: 0/0
 13401 ;; Data sizes:     COMRAM   BANK0   BANK1   BANK2   BANK3   BANK4   BANK5   BANK6   BANK7   BANK8   BANK9  BANK10  BANK1
      +1  BANK12  BANK13  BANK14
 13402 ;;      Params:         0       0       0       0       0       0       0       0       0       0       0       0       
      +0       0       0       0
 13403 ;;      Locals:         0       0       0       0       0       0       0       0       0       0       0       0       
      +0       0       0       0
 13404 ;;      Temps:          0       0       0       0       0       0       0       0       0       0       0       0       
      +0       0       0       0
 13405 ;;      Totals:         0       0       0       0       0       0       0       0       0       0       0       0       
      +0       0       0       0
 13406 ;;Total ram usage:        0 bytes
 13407 ;; Hardware stack levels used:    1
 13408 ;; Hardware stack levels required when called:    2
 13409 ;; This function calls:
 13410 ;;		Nothing
 13411 ;; This function is called by:
 13412 ;;		_SYSTEM_Initialize
 13413 ;;		_main
 13414 ;; This function uses a non-reentrant model
 13415 ;;
 13416                           
 13417                           	psect	text31
 13418  0075DE                     __ptext31:
 13419                           	opt stack 0
 13420  0075DE                     _EUSART1_Initialize:
 13421                           	opt stack 27
 13422                           
 13423                           ;eusart1.c: 60: BAUDCON1 = 0x08;
 13424                           
 13425                           ;incstack = 0
 13426  0075DE  0E08               	movlw	8
 13427  0075E0  6EA7               	movwf	4007,c	;volatile
 13428                           
 13429                           ;eusart1.c: 63: RCSTA1 = 0x90;
 13430  0075E2  0E90               	movlw	144
 13431  0075E4  6EAB               	movwf	4011,c	;volatile
 13432                           
 13433                           ;eusart1.c: 66: TXSTA1 = 0x24;
 13434  0075E6  0E24               	movlw	36
 13435  0075E8  6EAC               	movwf	4012,c	;volatile
 13436                           
 13437                           ;eusart1.c: 69: SPBRG1 = 0x22;
 13438  0075EA  0E22               	movlw	34
 13439  0075EC  6EAF               	movwf	4015,c	;volatile
 13440                           
 13441                           ;eusart1.c: 72: SPBRGH1 = 0x00;
 13442  0075EE  0E00               	movlw	0
 13443  0075F0  6E7D               	movwf	3965,c	;volatile
 13444  0075F2  0012               	return		;funcret
 13445  0075F4                     __end_of_EUSART1_Initialize:
 13446                           	opt stack 0
 13447                           tblptru	equ	0xFF8
 13448                           tblptrh	equ	0xFF7
 13449                           tblptrl	equ	0xFF6
 13450                           tablat	equ	0xFF5
 13451                           prodh	equ	0xFF4
 13452                           prodl	equ	0xFF3
 13453                           postinc0	equ	0xFEE
 13454                           wreg	equ	0xFE8
 13455                           status	equ	0xFD8
 13456                           
 13457 ;; *************** function _ECAN_Initialize *****************
 13458 ;; Defined at:
 13459 ;;		line 63 in file "mcc_generated_files/ecan.c"
 13460 ;; Parameters:    Size  Location     Type
 13461 ;;		None
 13462 ;; Auto vars:     Size  Location     Type
 13463 ;;		None
 13464 ;; Return value:  Size  Location     Type
 13465 ;;                  1    wreg      void 
 13466 ;; Registers used:
 13467 ;;		wreg, status,2, status,0
 13468 ;; Tracked objects:
 13469 ;;		On entry : 0/0
 13470 ;;		On exit  : 0/0
 13471 ;;		Unchanged: 0/0
 13472 ;; Data sizes:     COMRAM   BANK0   BANK1   BANK2   BANK3   BANK4   BANK5   BANK6   BANK7   BANK8   BANK9  BANK10  BANK1
      +1  BANK12  BANK13  BANK14
 13473 ;;      Params:         0       0       0       0       0       0       0       0       0       0       0       0       
      +0       0       0       0
 13474 ;;      Locals:         0       0       0       0       0       0       0       0       0       0       0       0       
      +0       0       0       0
 13475 ;;      Temps:          1       0       0       0       0       0       0       0       0       0       0       0       
      +0       0       0       0
 13476 ;;      Totals:         1       0       0       0       0       0       0       0       0       0       0       0       
      +0       0       0       0
 13477 ;;Total ram usage:        1 bytes
 13478 ;; Hardware stack levels used:    1
 13479 ;; Hardware stack levels required when called:    2
 13480 ;; This function calls:
 13481 ;;		Nothing
 13482 ;; This function is called by:
 13483 ;;		_SYSTEM_Initialize
 13484 ;; This function uses a non-reentrant model
 13485 ;;
 13486                           
 13487                           	psect	text32
 13488  006D94                     __ptext32:
 13489                           	opt stack 0
 13490  006D94                     _ECAN_Initialize:
 13491                           	opt stack 27
 13492                           
 13493                           ;ecan.c: 65: CANCON = 0x80;
 13494                           
 13495                           ;incstack = 0
 13496  006D94  0E80               	movlw	128
 13497  006D96  6E6F               	movwf	3951,c	;volatile
 13498  006D98                     l3460:
 13499  006D98  506E               	movf	3950,w,c	;volatile
 13500  006D9A  0BE0               	andlw	224
 13501  006D9C  0A80               	xorlw	128
 13502  006D9E  A4D8               	btfss	status,2,c
 13503  006DA0  D7FB               	goto	l3460
 13504                           
 13505                           ;ecan.c: 71: ECANCON = 0x00;
 13506  006DA2  0E00               	movlw	0
 13507  006DA4  6E72               	movwf	3954,c	;volatile
 13508                           
 13509                           ;ecan.c: 85: RXM0EIDH = 0xFF;
 13510  006DA6  010E               	movlb	14	; () banked
 13511  006DA8  69FA               	setf	250,b	;volatile
 13512                           
 13513                           ; BSR set to: 14
 13514                           ;ecan.c: 86: RXM0EIDL = 0xFF;
 13515  006DAA  010E               	movlb	14	; () banked
 13516  006DAC  69FB               	setf	251,b	;volatile
 13517                           
 13518                           ; BSR set to: 14
 13519                           ;ecan.c: 87: RXM0SIDH = 0xFF;
 13520  006DAE  010E               	movlb	14	; () banked
 13521  006DB0  69F8               	setf	248,b	;volatile
 13522                           
 13523                           ; BSR set to: 14
 13524                           ;ecan.c: 88: RXM0SIDL = 0xFF;
 13525  006DB2  010E               	movlb	14	; () banked
 13526  006DB4  69F9               	setf	249,b	;volatile
 13527                           
 13528                           ; BSR set to: 14
 13529                           ;ecan.c: 90: RXM1EIDH = 0xFF;
 13530  006DB6  010E               	movlb	14	; () banked
 13531  006DB8  69FE               	setf	254,b	;volatile
 13532                           
 13533                           ; BSR set to: 14
 13534                           ;ecan.c: 91: RXM1EIDL = 0xFF;
 13535  006DBA  010E               	movlb	14	; () banked
 13536  006DBC  69FF               	setf	255,b	;volatile
 13537                           
 13538                           ; BSR set to: 14
 13539                           ;ecan.c: 92: RXM1SIDH = 0xFF;
 13540  006DBE  010E               	movlb	14	; () banked
 13541  006DC0  69FC               	setf	252,b	;volatile
 13542                           
 13543                           ; BSR set to: 14
 13544                           ;ecan.c: 93: RXM1SIDL = 0xFF;
 13545  006DC2  010E               	movlb	14	; () banked
 13546  006DC4  69FD               	setf	253,b	;volatile
 13547                           
 13548                           ;ecan.c: 99: RXF0EIDH = 0x00;
 13549  006DC6  0E00               	movlw	0
 13550  006DC8  010E               	movlb	14	; () banked
 13551  006DCA  6FE2               	movwf	226,b	;volatile
 13552                           
 13553                           ;ecan.c: 100: RXF0EIDL = 0x00;
 13554  006DCC  0E00               	movlw	0
 13555  006DCE  010E               	movlb	14	; () banked
 13556  006DD0  6FE3               	movwf	227,b	;volatile
 13557                           
 13558                           ;ecan.c: 101: RXF0SIDH = 0x00;
 13559  006DD2  0E00               	movlw	0
 13560  006DD4  010E               	movlb	14	; () banked
 13561  006DD6  6FE0               	movwf	224,b	;volatile
 13562                           
 13563                           ;ecan.c: 102: RXF0SIDL = 0x00;
 13564  006DD8  0E00               	movlw	0
 13565  006DDA  010E               	movlb	14	; () banked
 13566  006DDC  6FE1               	movwf	225,b	;volatile
 13567                           
 13568                           ;ecan.c: 104: RXF1EIDH = 0x00;
 13569  006DDE  0E00               	movlw	0
 13570  006DE0  010E               	movlb	14	; () banked
 13571  006DE2  6FE6               	movwf	230,b	;volatile
 13572                           
 13573                           ;ecan.c: 105: RXF1EIDL = 0x00;
 13574  006DE4  0E00               	movlw	0
 13575  006DE6  010E               	movlb	14	; () banked
 13576  006DE8  6FE7               	movwf	231,b	;volatile
 13577                           
 13578                           ;ecan.c: 106: RXF1SIDH = 0x00;
 13579  006DEA  0E00               	movlw	0
 13580  006DEC  010E               	movlb	14	; () banked
 13581  006DEE  6FE4               	movwf	228,b	;volatile
 13582                           
 13583                           ;ecan.c: 107: RXF1SIDL = 0x00;
 13584  006DF0  0E00               	movlw	0
 13585  006DF2  010E               	movlb	14	; () banked
 13586  006DF4  6FE5               	movwf	229,b	;volatile
 13587                           
 13588                           ;ecan.c: 109: RXF2EIDH = 0x00;
 13589  006DF6  0E00               	movlw	0
 13590  006DF8  010E               	movlb	14	; () banked
 13591  006DFA  6FEA               	movwf	234,b	;volatile
 13592                           
 13593                           ;ecan.c: 110: RXF2EIDL = 0x00;
 13594  006DFC  0E00               	movlw	0
 13595  006DFE  010E               	movlb	14	; () banked
 13596  006E00  6FEB               	movwf	235,b	;volatile
 13597                           
 13598                           ;ecan.c: 111: RXF2SIDH = 0x00;
 13599  006E02  0E00               	movlw	0
 13600  006E04  010E               	movlb	14	; () banked
 13601  006E06  6FE8               	movwf	232,b	;volatile
 13602                           
 13603                           ;ecan.c: 112: RXF2SIDL = 0x00;
 13604  006E08  0E00               	movlw	0
 13605  006E0A  010E               	movlb	14	; () banked
 13606  006E0C  6FE9               	movwf	233,b	;volatile
 13607                           
 13608                           ;ecan.c: 114: RXF3EIDH = 0x00;
 13609  006E0E  0E00               	movlw	0
 13610  006E10  010E               	movlb	14	; () banked
 13611  006E12  6FEE               	movwf	238,b	;volatile
 13612                           
 13613                           ;ecan.c: 115: RXF3EIDL = 0x00;
 13614  006E14  0E00               	movlw	0
 13615  006E16  010E               	movlb	14	; () banked
 13616  006E18  6FEF               	movwf	239,b	;volatile
 13617                           
 13618                           ;ecan.c: 116: RXF3SIDH = 0x00;
 13619  006E1A  0E00               	movlw	0
 13620  006E1C  010E               	movlb	14	; () banked
 13621  006E1E  6FEC               	movwf	236,b	;volatile
 13622                           
 13623                           ;ecan.c: 117: RXF3SIDL = 0x00;
 13624  006E20  0E00               	movlw	0
 13625  006E22  010E               	movlb	14	; () banked
 13626  006E24  6FED               	movwf	237,b	;volatile
 13627                           
 13628                           ;ecan.c: 119: RXF4EIDH = 0x00;
 13629  006E26  0E00               	movlw	0
 13630  006E28  010E               	movlb	14	; () banked
 13631  006E2A  6FF2               	movwf	242,b	;volatile
 13632                           
 13633                           ;ecan.c: 120: RXF4EIDL = 0x00;
 13634  006E2C  0E00               	movlw	0
 13635  006E2E  010E               	movlb	14	; () banked
 13636  006E30  6FF3               	movwf	243,b	;volatile
 13637                           
 13638                           ;ecan.c: 121: RXF4SIDH = 0x00;
 13639  006E32  0E00               	movlw	0
 13640  006E34  010E               	movlb	14	; () banked
 13641  006E36  6FF0               	movwf	240,b	;volatile
 13642                           
 13643                           ;ecan.c: 122: RXF4SIDL = 0x00;
 13644  006E38  0E00               	movlw	0
 13645  006E3A  010E               	movlb	14	; () banked
 13646  006E3C  6FF1               	movwf	241,b	;volatile
 13647                           
 13648                           ;ecan.c: 124: RXF5EIDH = 0x00;
 13649  006E3E  0E00               	movlw	0
 13650  006E40  010E               	movlb	14	; () banked
 13651  006E42  6FF6               	movwf	246,b	;volatile
 13652                           
 13653                           ;ecan.c: 125: RXF5EIDL = 0x00;
 13654  006E44  0E00               	movlw	0
 13655  006E46  010E               	movlb	14	; () banked
 13656  006E48  6FF7               	movwf	247,b	;volatile
 13657                           
 13658                           ;ecan.c: 126: RXF5SIDH = 0x00;
 13659  006E4A  0E00               	movlw	0
 13660  006E4C  010E               	movlb	14	; () banked
 13661  006E4E  6FF4               	movwf	244,b	;volatile
 13662                           
 13663                           ;ecan.c: 127: RXF5SIDL = 0x00;
 13664  006E50  0E00               	movlw	0
 13665  006E52  010E               	movlb	14	; () banked
 13666  006E54  6FF5               	movwf	245,b	;volatile
 13667                           
 13668                           ;ecan.c: 142: BRGCON1 = 0x00;
 13669  006E56  0E00               	movlw	0
 13670  006E58  010E               	movlb	14	; () banked
 13671  006E5A  6F43               	movwf	67,b	;volatile
 13672                           
 13673                           ;ecan.c: 143: BRGCON2 = 0x98;
 13674  006E5C  0E98               	movlw	152
 13675  006E5E  010E               	movlb	14	; () banked
 13676  006E60  6F44               	movwf	68,b	;volatile
 13677                           
 13678                           ;ecan.c: 144: BRGCON3 = 0x01;
 13679  006E62  0E01               	movlw	1
 13680  006E64  010E               	movlb	14	; () banked
 13681  006E66  6F45               	movwf	69,b	;volatile
 13682                           
 13683                           ;ecan.c: 146: CANCON = 0x00;
 13684  006E68  0E00               	movlw	0
 13685  006E6A  6E6F               	movwf	3951,c	;volatile
 13686  006E6C                     l3480:
 13687  006E6C  CF6E F01E          	movff	3950,??_ECAN_Initialize	;volatile
 13688  006E70  0EE0               	movlw	224
 13689  006E72  161E               	andwf	??_ECAN_Initialize,f,c
 13690  006E74  B4D8               	btfsc	status,2,c
 13691  006E76  0012               	return	
 13692  006E78  D7F9               	goto	l3480
 13693  006E7A                     __end_of_ECAN_Initialize:
 13694                           	opt stack 0
 13695                           tblptru	equ	0xFF8
 13696                           tblptrh	equ	0xFF7
 13697                           tblptrl	equ	0xFF6
 13698                           tablat	equ	0xFF5
 13699                           prodh	equ	0xFF4
 13700                           prodl	equ	0xFF3
 13701                           postinc0	equ	0xFEE
 13702                           wreg	equ	0xFE8
 13703                           status	equ	0xFD8
 13704                           
 13705 ;; *************** function _FT800_Init *****************
 13706 ;; Defined at:
 13707 ;;		line 143 in file "Gue/FT800.c"
 13708 ;; Parameters:    Size  Location     Type
 13709 ;;		None
 13710 ;; Auto vars:     Size  Location     Type
 13711 ;;		None
 13712 ;; Return value:  Size  Location     Type
 13713 ;;                  1    wreg      void 
 13714 ;; Registers used:
 13715 ;;		wreg, status,2, status,0, cstack
 13716 ;; Tracked objects:
 13717 ;;		On entry : 0/0
 13718 ;;		On exit  : 0/0
 13719 ;;		Unchanged: 0/0
 13720 ;; Data sizes:     COMRAM   BANK0   BANK1   BANK2   BANK3   BANK4   BANK5   BANK6   BANK7   BANK8   BANK9  BANK10  BANK1
      +1  BANK12  BANK13  BANK14
 13721 ;;      Params:         0       0       0       0       0       0       0       0       0       0       0       0       
      +0       0       0       0
 13722 ;;      Locals:         0       0       0       0       0       0       0       0       0       0       0       0       
      +0       0       0       0
 13723 ;;      Temps:          1       0       0       0       0       0       0       0       0       0       0       0       
      +0       0       0       0
 13724 ;;      Totals:         1       0       0       0       0       0       0       0       0       0       0       0       
      +0       0       0       0
 13725 ;;Total ram usage:        1 bytes
 13726 ;; Hardware stack levels used:    1
 13727 ;; Hardware stack levels required when called:    4
 13728 ;; This function calls:
 13729 ;;		_host_command
 13730 ;;		_rd16
 13731 ;;		_wr16
 13732 ;;		_wr32
 13733 ;;		_wr8
 13734 ;; This function is called by:
 13735 ;;		_main
 13736 ;; This function uses a non-reentrant model
 13737 ;;
 13738                           
 13739                           	psect	text33
 13740  005F76                     __ptext33:
 13741                           	opt stack 0
 13742  005F76                     _FT800_Init:
 13743                           	opt stack 26
 13744                           
 13745                           ;FT800.c: 145: LATCbits.LATC1 = 0;
 13746                           
 13747                           ;incstack = 0
 13748  005F76  928B               	bcf	3979,1,c	;volatile
 13749                           
 13750                           ;FT800.c: 146: _delay((unsigned long)((20)*(16000000/4000.0)));
 13751  005F78  0E68               	movlw	104
 13752  005F7A  6E2A               	movwf	??_FT800_Init& (0+255),c
 13753  005F7C  0EE4               	movlw	228
 13754  005F7E                     u1667:
 13755  005F7E  2EE8               	decfsz	wreg,f,c
 13756  005F80  D7FE               	bra	u1667
 13757  005F82  2E2A               	decfsz	??_FT800_Init& (0+255),f,c
 13758  005F84  D7FC               	bra	u1667
 13759  005F86  D000               	nop2	
 13760                           
 13761                           ;FT800.c: 147: LATCbits.LATC1 = 1;
 13762  005F88  828B               	bsf	3979,1,c	;volatile
 13763                           
 13764                           ;FT800.c: 148: _delay((unsigned long)((20)*(16000000/4000.0)));
 13765  005F8A  0E68               	movlw	104
 13766  005F8C  6E2A               	movwf	??_FT800_Init& (0+255),c
 13767  005F8E  0EE4               	movlw	228
 13768  005F90                     u1677:
 13769  005F90  2EE8               	decfsz	wreg,f,c
 13770  005F92  D7FE               	bra	u1677
 13771  005F94  2E2A               	decfsz	??_FT800_Init& (0+255),f,c
 13772  005F96  D7FC               	bra	u1677
 13773  005F98  D000               	nop2	
 13774                           
 13775                           ;FT800.c: 150: host_command(0x00);
 13776  005F9A  0E00               	movlw	0
 13777  005F9C  ECD7  F03A         	call	_host_command
 13778                           
 13779                           ;FT800.c: 152: host_command(0x44);
 13780  005FA0  0E44               	movlw	68
 13781  005FA2  ECD7  F03A         	call	_host_command
 13782                           
 13783                           ;FT800.c: 154: host_command(0x62);
 13784  005FA6  0E62               	movlw	98
 13785  005FA8  ECD7  F03A         	call	_host_command
 13786                           
 13787                           ;FT800.c: 157: wr16(1057840UL, 480);
 13788  005FAC  0E30               	movlw	48
 13789  005FAE  6E1F               	movwf	wr16@addr,c
 13790  005FB0  0E24               	movlw	36
 13791  005FB2  6E20               	movwf	wr16@addr+1,c
 13792  005FB4  0E10               	movlw	16
 13793  005FB6  6E21               	movwf	wr16@addr+2,c
 13794  005FB8  0E01               	movlw	1
 13795  005FBA  6E23               	movwf	wr16@value+1,c
 13796  005FBC  0EE0               	movlw	224
 13797  005FBE  6E22               	movwf	wr16@value,c
 13798  005FC0  EC31  F03A         	call	_wr16	;wreg free
 13799                           
 13800                           ;FT800.c: 158: wr16(1057860UL, 272);
 13801  005FC4  0E44               	movlw	68
 13802  005FC6  6E1F               	movwf	wr16@addr,c
 13803  005FC8  0E24               	movlw	36
 13804  005FCA  6E20               	movwf	wr16@addr+1,c
 13805  005FCC  0E10               	movlw	16
 13806  005FCE  6E21               	movwf	wr16@addr+2,c
 13807  005FD0  0E01               	movlw	1
 13808  005FD2  6E23               	movwf	wr16@value+1,c
 13809  005FD4  0E10               	movlw	16
 13810  005FD6  6E22               	movwf	wr16@value,c
 13811  005FD8  EC31  F03A         	call	_wr16	;wreg free
 13812                           
 13813                           ;FT800.c: 159: wr16(1057832UL, 525);
 13814  005FDC  0E28               	movlw	40
 13815  005FDE  6E1F               	movwf	wr16@addr,c
 13816  005FE0  0E24               	movlw	36
 13817  005FE2  6E20               	movwf	wr16@addr+1,c
 13818  005FE4  0E10               	movlw	16
 13819  005FE6  6E21               	movwf	wr16@addr+2,c
 13820  005FE8  0E02               	movlw	2
 13821  005FEA  6E23               	movwf	wr16@value+1,c
 13822  005FEC  0E0D               	movlw	13
 13823  005FEE  6E22               	movwf	wr16@value,c
 13824  005FF0  EC31  F03A         	call	_wr16	;wreg free
 13825                           
 13826                           ;FT800.c: 160: wr16(1057844UL, 0);
 13827  005FF4  0E34               	movlw	52
 13828  005FF6  6E1F               	movwf	wr16@addr,c
 13829  005FF8  0E24               	movlw	36
 13830  005FFA  6E20               	movwf	wr16@addr+1,c
 13831  005FFC  0E10               	movlw	16
 13832  005FFE  6E21               	movwf	wr16@addr+2,c
 13833  006000  0E00               	movlw	0
 13834  006002  6E23               	movwf	wr16@value+1,c
 13835  006004  0E00               	movlw	0
 13836  006006  6E22               	movwf	wr16@value,c
 13837  006008  EC31  F03A         	call	_wr16	;wreg free
 13838                           
 13839                           ;FT800.c: 161: wr16(1057848UL, 41);
 13840  00600C  0E38               	movlw	56
 13841  00600E  6E1F               	movwf	wr16@addr,c
 13842  006010  0E24               	movlw	36
 13843  006012  6E20               	movwf	wr16@addr+1,c
 13844  006014  0E10               	movlw	16
 13845  006016  6E21               	movwf	wr16@addr+2,c
 13846  006018  0E00               	movlw	0
 13847  00601A  6E23               	movwf	wr16@value+1,c
 13848  00601C  0E29               	movlw	41
 13849  00601E  6E22               	movwf	wr16@value,c
 13850  006020  EC31  F03A         	call	_wr16	;wreg free
 13851                           
 13852                           ;FT800.c: 162: wr16(1057836UL, 43);
 13853  006024  0E2C               	movlw	44
 13854  006026  6E1F               	movwf	wr16@addr,c
 13855  006028  0E24               	movlw	36
 13856  00602A  6E20               	movwf	wr16@addr+1,c
 13857  00602C  0E10               	movlw	16
 13858  00602E  6E21               	movwf	wr16@addr+2,c
 13859  006030  0E00               	movlw	0
 13860  006032  6E23               	movwf	wr16@value+1,c
 13861  006034  0E2B               	movlw	43
 13862  006036  6E22               	movwf	wr16@value,c
 13863  006038  EC31  F03A         	call	_wr16	;wreg free
 13864                           
 13865                           ;FT800.c: 163: wr16(1057852UL, 286);
 13866  00603C  0E3C               	movlw	60
 13867  00603E  6E1F               	movwf	wr16@addr,c
 13868  006040  0E24               	movlw	36
 13869  006042  6E20               	movwf	wr16@addr+1,c
 13870  006044  0E10               	movlw	16
 13871  006046  6E21               	movwf	wr16@addr+2,c
 13872  006048  0E01               	movlw	1
 13873  00604A  6E23               	movwf	wr16@value+1,c
 13874  00604C  0E1E               	movlw	30
 13875  00604E  6E22               	movwf	wr16@value,c
 13876  006050  EC31  F03A         	call	_wr16	;wreg free
 13877                           
 13878                           ;FT800.c: 164: wr16(1057864UL, 0);
 13879  006054  0E48               	movlw	72
 13880  006056  6E1F               	movwf	wr16@addr,c
 13881  006058  0E24               	movlw	36
 13882  00605A  6E20               	movwf	wr16@addr+1,c
 13883  00605C  0E10               	movlw	16
 13884  00605E  6E21               	movwf	wr16@addr+2,c
 13885  006060  0E00               	movlw	0
 13886  006062  6E23               	movwf	wr16@value+1,c
 13887  006064  0E00               	movlw	0
 13888  006066  6E22               	movwf	wr16@value,c
 13889  006068  EC31  F03A         	call	_wr16	;wreg free
 13890                           
 13891                           ;FT800.c: 165: wr16(1057868UL, 10);
 13892  00606C  0E4C               	movlw	76
 13893  00606E  6E1F               	movwf	wr16@addr,c
 13894  006070  0E24               	movlw	36
 13895  006072  6E20               	movwf	wr16@addr+1,c
 13896  006074  0E10               	movlw	16
 13897  006076  6E21               	movwf	wr16@addr+2,c
 13898  006078  0E00               	movlw	0
 13899  00607A  6E23               	movwf	wr16@value+1,c
 13900  00607C  0E0A               	movlw	10
 13901  00607E  6E22               	movwf	wr16@value,c
 13902  006080  EC31  F03A         	call	_wr16	;wreg free
 13903                           
 13904                           ;FT800.c: 166: wr16(1057856UL, 12);
 13905  006084  0E40               	movlw	64
 13906  006086  6E1F               	movwf	wr16@addr,c
 13907  006088  0E24               	movlw	36
 13908  00608A  6E20               	movwf	wr16@addr+1,c
 13909  00608C  0E10               	movlw	16
 13910  00608E  6E21               	movwf	wr16@addr+2,c
 13911  006090  0E00               	movlw	0
 13912  006092  6E23               	movwf	wr16@value+1,c
 13913  006094  0E0C               	movlw	12
 13914  006096  6E22               	movwf	wr16@value,c
 13915  006098  EC31  F03A         	call	_wr16	;wreg free
 13916                           
 13917                           ;FT800.c: 167: wr8(1057892UL, 0);
 13918  00609C  0E64               	movlw	100
 13919  00609E  6E1F               	movwf	wr8@addr,c
 13920  0060A0  0E24               	movlw	36
 13921  0060A2  6E20               	movwf	wr8@addr+1,c
 13922  0060A4  0E10               	movlw	16
 13923  0060A6  6E21               	movwf	wr8@addr+2,c
 13924  0060A8  0E00               	movlw	0
 13925  0060AA  6E22               	movwf	wr8@value,c
 13926  0060AC  EC87  F03A         	call	_wr8	;wreg free
 13927                           
 13928                           ;FT800.c: 168: wr8(1057884UL, 0);
 13929  0060B0  0E5C               	movlw	92
 13930  0060B2  6E1F               	movwf	wr8@addr,c
 13931  0060B4  0E24               	movlw	36
 13932  0060B6  6E20               	movwf	wr8@addr+1,c
 13933  0060B8  0E10               	movlw	16
 13934  0060BA  6E21               	movwf	wr8@addr+2,c
 13935  0060BC  0E00               	movlw	0
 13936  0060BE  6E22               	movwf	wr8@value,c
 13937  0060C0  EC87  F03A         	call	_wr8	;wreg free
 13938                           
 13939                           ;FT800.c: 169: wr16(1057880UL, 0x01B6);
 13940  0060C4  0E58               	movlw	88
 13941  0060C6  6E1F               	movwf	wr16@addr,c
 13942  0060C8  0E24               	movlw	36
 13943  0060CA  6E20               	movwf	wr16@addr+1,c
 13944  0060CC  0E10               	movlw	16
 13945  0060CE  6E21               	movwf	wr16@addr+2,c
 13946  0060D0  0E01               	movlw	1
 13947  0060D2  6E23               	movwf	wr16@value+1,c
 13948  0060D4  0EB6               	movlw	182
 13949  0060D6  6E22               	movwf	wr16@value,c
 13950  0060D8  EC31  F03A         	call	_wr16	;wreg free
 13951                           
 13952                           ;FT800.c: 170: wr8(1057888UL, 0x0000);
 13953  0060DC  0E60               	movlw	96
 13954  0060DE  6E1F               	movwf	wr8@addr,c
 13955  0060E0  0E24               	movlw	36
 13956  0060E2  6E20               	movwf	wr8@addr+1,c
 13957  0060E4  0E10               	movlw	16
 13958  0060E6  6E21               	movwf	wr8@addr+2,c
 13959  0060E8  0E00               	movlw	0
 13960  0060EA  6E22               	movwf	wr8@value,c
 13961  0060EC  EC87  F03A         	call	_wr8	;wreg free
 13962                           
 13963                           ;FT800.c: 173: wr8(1057896UL, 0);
 13964  0060F0  0E68               	movlw	104
 13965  0060F2  6E1F               	movwf	wr8@addr,c
 13966  0060F4  0E24               	movlw	36
 13967  0060F6  6E20               	movwf	wr8@addr+1,c
 13968  0060F8  0E10               	movlw	16
 13969  0060FA  6E21               	movwf	wr8@addr+2,c
 13970  0060FC  0E00               	movlw	0
 13971  0060FE  6E22               	movwf	wr8@value,c
 13972  006100  EC87  F03A         	call	_wr8	;wreg free
 13973                           
 13974                           ;FT800.c: 175: wr8(1057876UL, 0);
 13975  006104  0E54               	movlw	84
 13976  006106  6E1F               	movwf	wr8@addr,c
 13977  006108  0E24               	movlw	36
 13978  00610A  6E20               	movwf	wr8@addr+1,c
 13979  00610C  0E10               	movlw	16
 13980  00610E  6E21               	movwf	wr8@addr+2,c
 13981  006110  0E00               	movlw	0
 13982  006112  6E22               	movwf	wr8@value,c
 13983  006114  EC87  F03A         	call	_wr8	;wreg free
 13984                           
 13985                           ;FT800.c: 182: wr32(1048576UL+0,((2UL<<24)|(((0)&255UL)<<16)|(((26)&255UL)<<8)|(((0)&255
      +                          UL)<<0)));
 13986  006118  0E00               	movlw	0
 13987  00611A  6E1F               	movwf	wr32@addr,c
 13988  00611C  0E00               	movlw	0
 13989  00611E  6E20               	movwf	wr32@addr+1,c
 13990  006120  0E10               	movlw	16
 13991  006122  6E21               	movwf	wr32@addr+2,c
 13992  006124  0E00               	movlw	0
 13993  006126  6E22               	movwf	wr32@value,c
 13994  006128  0E1A               	movlw	26
 13995  00612A  6E23               	movwf	wr32@value+1,c
 13996  00612C  0E00               	movlw	0
 13997  00612E  6E24               	movwf	wr32@value+2,c
 13998  006130  0E02               	movlw	2
 13999  006132  6E25               	movwf	wr32@value+3,c
 14000  006134  EC12  F039         	call	_wr32	;wreg free
 14001                           
 14002                           ;FT800.c: 183: wr32(1048576UL+4,((38UL<<24)|(((1)&1UL)<<2)|(((1)&1UL)<<1)|(((1)&1UL)<<0)
      +                          ));
 14003  006138  0E04               	movlw	4
 14004  00613A  6E1F               	movwf	wr32@addr,c
 14005  00613C  0E00               	movlw	0
 14006  00613E  6E20               	movwf	wr32@addr+1,c
 14007  006140  0E10               	movlw	16
 14008  006142  6E21               	movwf	wr32@addr+2,c
 14009  006144  0E07               	movlw	7
 14010  006146  6E22               	movwf	wr32@value,c
 14011  006148  0E00               	movlw	0
 14012  00614A  6E23               	movwf	wr32@value+1,c
 14013  00614C  0E00               	movlw	0
 14014  00614E  6E24               	movwf	wr32@value+2,c
 14015  006150  0E26               	movlw	38
 14016  006152  6E25               	movwf	wr32@value+3,c
 14017  006154  EC12  F039         	call	_wr32	;wreg free
 14018                           
 14019                           ;FT800.c: 184: wr32(1048576UL+8,((0UL<<24)));
 14020  006158  0E08               	movlw	8
 14021  00615A  6E1F               	movwf	wr32@addr,c
 14022  00615C  0E00               	movlw	0
 14023  00615E  6E20               	movwf	wr32@addr+1,c
 14024  006160  0E10               	movlw	16
 14025  006162  6E21               	movwf	wr32@addr+2,c
 14026  006164  0E00               	movlw	0
 14027  006166  6E22               	movwf	wr32@value,c
 14028  006168  0E00               	movlw	0
 14029  00616A  6E23               	movwf	wr32@value+1,c
 14030  00616C  0E00               	movlw	0
 14031  00616E  6E24               	movwf	wr32@value+2,c
 14032  006170  0E00               	movlw	0
 14033  006172  6E25               	movwf	wr32@value+3,c
 14034  006174  EC12  F039         	call	_wr32	;wreg free
 14035                           
 14036                           ;FT800.c: 186: wr8(1057872UL,2UL);
 14037  006178  0E50               	movlw	80
 14038  00617A  6E1F               	movwf	wr8@addr,c
 14039  00617C  0E24               	movlw	36
 14040  00617E  6E20               	movwf	wr8@addr+1,c
 14041  006180  0E10               	movlw	16
 14042  006182  6E21               	movwf	wr8@addr+2,c
 14043  006184  0E02               	movlw	2
 14044  006186  6E22               	movwf	wr8@value,c
 14045  006188  EC87  F03A         	call	_wr8	;wreg free
 14046                           
 14047                           ;FT800.c: 191: wr8(1057932UL, 0xfc);
 14048  00618C  0E8C               	movlw	140
 14049  00618E  6E1F               	movwf	wr8@addr,c
 14050  006190  0E24               	movlw	36
 14051  006192  6E20               	movwf	wr8@addr+1,c
 14052  006194  0E10               	movlw	16
 14053  006196  6E21               	movwf	wr8@addr+2,c
 14054  006198  0EFC               	movlw	252
 14055  00619A  6E22               	movwf	wr8@value,c
 14056  00619C  EC87  F03A         	call	_wr8	;wreg free
 14057                           
 14058                           ;FT800.c: 192: wr8(1057936UL, 0xff);
 14059  0061A0  0E90               	movlw	144
 14060  0061A2  6E1F               	movwf	wr8@addr,c
 14061  0061A4  0E24               	movlw	36
 14062  0061A6  6E20               	movwf	wr8@addr+1,c
 14063  0061A8  0E10               	movlw	16
 14064  0061AA  6E21               	movwf	wr8@addr+2,c
 14065  0061AC  0EFF               	movlw	255
 14066  0061AE  6E22               	movwf	wr8@value,c
 14067  0061B0  EC87  F03A         	call	_wr8	;wreg free
 14068                           
 14069                           ;FT800.c: 194: wr8(1057900UL,5);
 14070  0061B4  0E6C               	movlw	108
 14071  0061B6  6E1F               	movwf	wr8@addr,c
 14072  0061B8  0E24               	movlw	36
 14073  0061BA  6E20               	movwf	wr8@addr+1,c
 14074  0061BC  0E10               	movlw	16
 14075  0061BE  6E21               	movwf	wr8@addr+2,c
 14076  0061C0  0E05               	movlw	5
 14077  0061C2  6E22               	movwf	wr8@value,c
 14078  0061C4  EC87  F03A         	call	_wr8	;wreg free
 14079                           
 14080                           ;FT800.c: 196: cmd_offset=rd16(1058024UL);while(rd16(1058020UL) != cmd_offset);
 14081  0061C8  0EE8               	movlw	232
 14082  0061CA  6E1F               	movwf	rd16@addr,c
 14083  0061CC  0E24               	movlw	36
 14084  0061CE  6E20               	movwf	rd16@addr+1,c
 14085  0061D0  0E10               	movlw	16
 14086  0061D2  6E21               	movwf	rd16@addr+2,c
 14087  0061D4  EC86  F039         	call	_rd16	;wreg free
 14088  0061D8  C01F  F03E         	movff	?_rd16,_cmd_offset
 14089  0061DC  C020  F03F         	movff	?_rd16+1,_cmd_offset+1
 14090  0061E0                     l6026:
 14091  0061E0  0EE4               	movlw	228
 14092  0061E2  6E1F               	movwf	rd16@addr,c
 14093  0061E4  0E24               	movlw	36
 14094  0061E6  6E20               	movwf	rd16@addr+1,c
 14095  0061E8  0E10               	movlw	16
 14096  0061EA  6E21               	movwf	rd16@addr+2,c
 14097  0061EC  EC86  F039         	call	_rd16	;wreg free
 14098  0061F0  503E               	movf	_cmd_offset,w,c
 14099  0061F2  181F               	xorwf	?_rd16,w,c
 14100  0061F4  E1F5               	bnz	l6026
 14101  0061F6  503F               	movf	_cmd_offset+1,w,c
 14102  0061F8  1820               	xorwf	?_rd16+1,w,c
 14103  0061FA  B4D8               	btfsc	status,2,c
 14104  0061FC  0012               	return	
 14105  0061FE  D7F0               	goto	l6026
 14106  006200                     __end_of_FT800_Init:
 14107                           	opt stack 0
 14108                           tblptru	equ	0xFF8
 14109                           tblptrh	equ	0xFF7
 14110                           tblptrl	equ	0xFF6
 14111                           tablat	equ	0xFF5
 14112                           prodh	equ	0xFF4
 14113                           prodl	equ	0xFF3
 14114                           postinc0	equ	0xFEE
 14115                           wreg	equ	0xFE8
 14116                           status	equ	0xFD8
 14117                           
 14118 ;; *************** function _wr8 *****************
 14119 ;; Defined at:
 14120 ;;		line 16 in file "Gue/FT800.c"
 14121 ;; Parameters:    Size  Location     Type
 14122 ;;  addr            3   30[COMRAM] unsigned um
 14123 ;;  value           1   33[COMRAM] unsigned char 
 14124 ;; Auto vars:     Size  Location     Type
 14125 ;;		None
 14126 ;; Return value:  Size  Location     Type
 14127 ;;                  1    wreg      void 
 14128 ;; Registers used:
 14129 ;;		wreg, status,2, status,0, cstack
 14130 ;; Tracked objects:
 14131 ;;		On entry : 0/0
 14132 ;;		On exit  : 0/0
 14133 ;;		Unchanged: 0/0
 14134 ;; Data sizes:     COMRAM   BANK0   BANK1   BANK2   BANK3   BANK4   BANK5   BANK6   BANK7   BANK8   BANK9  BANK10  BANK1
      +1  BANK12  BANK13  BANK14
 14135 ;;      Params:         4       0       0       0       0       0       0       0       0       0       0       0       
      +0       0       0       0
 14136 ;;      Locals:         0       0       0       0       0       0       0       0       0       0       0       0       
      +0       0       0       0
 14137 ;;      Temps:          3       0       0       0       0       0       0       0       0       0       0       0       
      +0       0       0       0
 14138 ;;      Totals:         7       0       0       0       0       0       0       0       0       0       0       0       
      +0       0       0       0
 14139 ;;Total ram usage:        7 bytes
 14140 ;; Hardware stack levels used:    1
 14141 ;; Hardware stack levels required when called:    3
 14142 ;; This function calls:
 14143 ;;		_SPI_Exchange8bit
 14144 ;; This function is called by:
 14145 ;;		_FT800_Init
 14146 ;; This function uses a non-reentrant model
 14147 ;;
 14148                           
 14149                           	psect	text34
 14150  00750E                     __ptext34:
 14151                           	opt stack 0
 14152  00750E                     _wr8:
 14153                           	opt stack 26
 14154                           
 14155                           ;FT800.c: 17: LATDbits.LATD0 = 0;
 14156                           
 14157                           ;incstack = 0
 14158  00750E  908C               	bcf	3980,0,c	;volatile
 14159                           
 14160                           ;FT800.c: 18: SPI_Exchange8bit(0x80 | (addr >> 16));
 14161  007510  5021               	movf	wr8@addr+2,w,c
 14162  007512  0980               	iorlw	128
 14163  007514  EC03  F03B         	call	_SPI_Exchange8bit
 14164                           
 14165                           ;FT800.c: 19: SPI_Exchange8bit(addr >> 8);
 14166  007518  C01F  F023         	movff	wr8@addr,??_wr8
 14167  00751C  C020  F024         	movff	wr8@addr+1,??_wr8+1
 14168  007520  C021  F025         	movff	wr8@addr+2,??_wr8+2
 14169  007524  C024  F023         	movff	??_wr8+1,??_wr8
 14170  007528  C025  F024         	movff	??_wr8+2,??_wr8+1
 14171  00752C  6A25               	clrf	??_wr8+2,c
 14172  00752E  5023               	movf	??_wr8,w,c
 14173  007530  EC03  F03B         	call	_SPI_Exchange8bit
 14174                           
 14175                           ;FT800.c: 20: SPI_Exchange8bit(addr);
 14176  007534  501F               	movf	wr8@addr,w,c
 14177  007536  EC03  F03B         	call	_SPI_Exchange8bit
 14178                           
 14179                           ;FT800.c: 21: SPI_Exchange8bit(value);
 14180  00753A  5022               	movf	wr8@value,w,c
 14181  00753C  EC03  F03B         	call	_SPI_Exchange8bit
 14182                           
 14183                           ;FT800.c: 22: LATDbits.LATD0 = 1;
 14184  007540  808C               	bsf	3980,0,c	;volatile
 14185  007542  0012               	return		;funcret
 14186  007544                     __end_of_wr8:
 14187                           	opt stack 0
 14188                           tblptru	equ	0xFF8
 14189                           tblptrh	equ	0xFF7
 14190                           tblptrl	equ	0xFF6
 14191                           tablat	equ	0xFF5
 14192                           prodh	equ	0xFF4
 14193                           prodl	equ	0xFF3
 14194                           postinc0	equ	0xFEE
 14195                           wreg	equ	0xFE8
 14196                           status	equ	0xFD8
 14197                           
 14198 ;; *************** function _wr32 *****************
 14199 ;; Defined at:
 14200 ;;		line 34 in file "Gue/FT800.c"
 14201 ;; Parameters:    Size  Location     Type
 14202 ;;  addr            3   30[COMRAM] unsigned um
 14203 ;;  value           4   33[COMRAM] unsigned long 
 14204 ;; Auto vars:     Size  Location     Type
 14205 ;;		None
 14206 ;; Return value:  Size  Location     Type
 14207 ;;                  1    wreg      void 
 14208 ;; Registers used:
 14209 ;;		wreg, status,2, status,0, cstack
 14210 ;; Tracked objects:
 14211 ;;		On entry : 0/0
 14212 ;;		On exit  : 0/0
 14213 ;;		Unchanged: 0/0
 14214 ;; Data sizes:     COMRAM   BANK0   BANK1   BANK2   BANK3   BANK4   BANK5   BANK6   BANK7   BANK8   BANK9  BANK10  BANK1
      +1  BANK12  BANK13  BANK14
 14215 ;;      Params:         7       0       0       0       0       0       0       0       0       0       0       0       
      +0       0       0       0
 14216 ;;      Locals:         0       0       0       0       0       0       0       0       0       0       0       0       
      +0       0       0       0
 14217 ;;      Temps:          4       0       0       0       0       0       0       0       0       0       0       0       
      +0       0       0       0
 14218 ;;      Totals:        11       0       0       0       0       0       0       0       0       0       0       0       
      +0       0       0       0
 14219 ;;Total ram usage:       11 bytes
 14220 ;; Hardware stack levels used:    1
 14221 ;; Hardware stack levels required when called:    3
 14222 ;; This function calls:
 14223 ;;		_SPI_Exchange8bit
 14224 ;; This function is called by:
 14225 ;;		_cmd
 14226 ;;		_FT800_Init
 14227 ;; This function uses a non-reentrant model
 14228 ;;
 14229                           
 14230                           	psect	text35
 14231  007224                     __ptext35:
 14232                           	opt stack 0
 14233  007224                     _wr32:
 14234                           	opt stack 25
 14235                           
 14236                           ;FT800.c: 35: LATDbits.LATD0 = 0;
 14237                           
 14238                           ;incstack = 0
 14239  007224  908C               	bcf	3980,0,c	;volatile
 14240                           
 14241                           ;FT800.c: 36: SPI_Exchange8bit(0x80 | (addr >> 16));
 14242  007226  5021               	movf	wr32@addr+2,w,c
 14243  007228  0980               	iorlw	128
 14244  00722A  EC03  F03B         	call	_SPI_Exchange8bit
 14245                           
 14246                           ;FT800.c: 37: SPI_Exchange8bit(addr >> 8);
 14247  00722E  C01F  F026         	movff	wr32@addr,??_wr32
 14248  007232  C020  F027         	movff	wr32@addr+1,??_wr32+1
 14249  007236  C021  F028         	movff	wr32@addr+2,??_wr32+2
 14250  00723A  C027  F026         	movff	??_wr32+1,??_wr32
 14251  00723E  C028  F027         	movff	??_wr32+2,??_wr32+1
 14252  007242  6A28               	clrf	??_wr32+2,c
 14253  007244  5026               	movf	??_wr32,w,c
 14254  007246  EC03  F03B         	call	_SPI_Exchange8bit
 14255                           
 14256                           ;FT800.c: 38: SPI_Exchange8bit(addr);
 14257  00724A  501F               	movf	wr32@addr,w,c
 14258  00724C  EC03  F03B         	call	_SPI_Exchange8bit
 14259                           
 14260                           ;FT800.c: 39: SPI_Exchange8bit(((value) & 0xFFFF) & 0xFF);SPI_Exchange8bit((((value) & 0
      +                          xFFFF) >> 8) & 0xFF);SPI_Exchange8bit((((value) >> 16) & 0xFFFF) & 0xFF);SPI_Exchange8bi
      +                          t(((((value) >> 16) & 0xFFFF) >> 8) & 0xFF);
 14261  007250  5022               	movf	wr32@value,w,c
 14262  007252  EC03  F03B         	call	_SPI_Exchange8bit
 14263  007256  5023               	movf	wr32@value+1,w,c
 14264  007258  EC03  F03B         	call	_SPI_Exchange8bit
 14265  00725C  5024               	movf	wr32@value+2,w,c
 14266  00725E  EC03  F03B         	call	_SPI_Exchange8bit
 14267  007262  C022  F026         	movff	wr32@value,??_wr32
 14268  007266  C023  F027         	movff	wr32@value+1,??_wr32+1
 14269  00726A  C024  F028         	movff	wr32@value+2,??_wr32+2
 14270  00726E  C025  F029         	movff	wr32@value+3,??_wr32+3
 14271  007272  0E11               	movlw	17
 14272  007274  D005               	goto	u1320
 14273  007276                     u1325:
 14274  007276  90D8               	bcf	status,0,c
 14275  007278  3229               	rrcf	??_wr32+3,f,c
 14276  00727A  3228               	rrcf	??_wr32+2,f,c
 14277  00727C  3227               	rrcf	??_wr32+1,f,c
 14278  00727E  3226               	rrcf	??_wr32,f,c
 14279  007280                     u1320:
 14280  007280  2EE8               	decfsz	wreg,f,c
 14281  007282  D7F9               	goto	u1325
 14282  007284  C027  F026         	movff	??_wr32+1,??_wr32
 14283  007288  C028  F027         	movff	??_wr32+2,??_wr32+1
 14284  00728C  C029  F028         	movff	??_wr32+3,??_wr32+2
 14285  007290  6A29               	clrf	??_wr32+3,c
 14286  007292  5026               	movf	??_wr32,w,c
 14287  007294  EC03  F03B         	call	_SPI_Exchange8bit
 14288                           
 14289                           ;FT800.c: 40: LATDbits.LATD0 = 1;
 14290  007298  808C               	bsf	3980,0,c	;volatile
 14291  00729A  0012               	return		;funcret
 14292  00729C                     __end_of_wr32:
 14293                           	opt stack 0
 14294                           tblptru	equ	0xFF8
 14295                           tblptrh	equ	0xFF7
 14296                           tblptrl	equ	0xFF6
 14297                           tablat	equ	0xFF5
 14298                           prodh	equ	0xFF4
 14299                           prodl	equ	0xFF3
 14300                           postinc0	equ	0xFEE
 14301                           wreg	equ	0xFE8
 14302                           status	equ	0xFD8
 14303                           
 14304 ;; *************** function _wr16 *****************
 14305 ;; Defined at:
 14306 ;;		line 25 in file "Gue/FT800.c"
 14307 ;; Parameters:    Size  Location     Type
 14308 ;;  addr            3   30[COMRAM] unsigned um
 14309 ;;  value           2   33[COMRAM] unsigned int 
 14310 ;; Auto vars:     Size  Location     Type
 14311 ;;		None
 14312 ;; Return value:  Size  Location     Type
 14313 ;;                  1    wreg      void 
 14314 ;; Registers used:
 14315 ;;		wreg, status,2, status,0, cstack
 14316 ;; Tracked objects:
 14317 ;;		On entry : 0/0
 14318 ;;		On exit  : 0/0
 14319 ;;		Unchanged: 0/0
 14320 ;; Data sizes:     COMRAM   BANK0   BANK1   BANK2   BANK3   BANK4   BANK5   BANK6   BANK7   BANK8   BANK9  BANK10  BANK1
      +1  BANK12  BANK13  BANK14
 14321 ;;      Params:         5       0       0       0       0       0       0       0       0       0       0       0       
      +0       0       0       0
 14322 ;;      Locals:         0       0       0       0       0       0       0       0       0       0       0       0       
      +0       0       0       0
 14323 ;;      Temps:          3       0       0       0       0       0       0       0       0       0       0       0       
      +0       0       0       0
 14324 ;;      Totals:         8       0       0       0       0       0       0       0       0       0       0       0       
      +0       0       0       0
 14325 ;;Total ram usage:        8 bytes
 14326 ;; Hardware stack levels used:    1
 14327 ;; Hardware stack levels required when called:    3
 14328 ;; This function calls:
 14329 ;;		_SPI_Exchange8bit
 14330 ;; This function is called by:
 14331 ;;		_FT800_Init
 14332 ;;		_display_end
 14333 ;;		_display_labels
 14334 ;;		_display_message
 14335 ;;		_display_laptime
 14336 ;;		_display_waterTemp
 14337 ;;		_display_oilTemp
 14338 ;;		_display_fuel
 14339 ;;		_display_battery
 14340 ;;		_display_oilPress
 14341 ;;		_display_tp
 14342 ;;		_display_speed
 14343 ;;		_display_rpm
 14344 ;; This function uses a non-reentrant model
 14345 ;;
 14346                           
 14347                           	psect	text36
 14348  007462                     __ptext36:
 14349                           	opt stack 0
 14350  007462                     _wr16:
 14351                           	opt stack 26
 14352                           
 14353                           ;FT800.c: 26: LATDbits.LATD0 = 0;
 14354                           
 14355                           ;incstack = 0
 14356  007462  908C               	bcf	3980,0,c	;volatile
 14357                           
 14358                           ;FT800.c: 27: SPI_Exchange8bit(0x80 | (addr >> 16));
 14359  007464  5021               	movf	wr16@addr+2,w,c
 14360  007466  0980               	iorlw	128
 14361  007468  EC03  F03B         	call	_SPI_Exchange8bit
 14362                           
 14363                           ;FT800.c: 28: SPI_Exchange8bit(addr >> 8);
 14364  00746C  C01F  F024         	movff	wr16@addr,??_wr16
 14365  007470  C020  F025         	movff	wr16@addr+1,??_wr16+1
 14366  007474  C021  F026         	movff	wr16@addr+2,??_wr16+2
 14367  007478  C025  F024         	movff	??_wr16+1,??_wr16
 14368  00747C  C026  F025         	movff	??_wr16+2,??_wr16+1
 14369  007480  6A26               	clrf	??_wr16+2,c
 14370  007482  5024               	movf	??_wr16,w,c
 14371  007484  EC03  F03B         	call	_SPI_Exchange8bit
 14372                           
 14373                           ;FT800.c: 29: SPI_Exchange8bit(addr);
 14374  007488  501F               	movf	wr16@addr,w,c
 14375  00748A  EC03  F03B         	call	_SPI_Exchange8bit
 14376                           
 14377                           ;FT800.c: 30: SPI_Exchange8bit((value) & 0xFF);SPI_Exchange8bit(((value) >> 8) & 0xFF);
 14378  00748E  5022               	movf	wr16@value,w,c
 14379  007490  EC03  F03B         	call	_SPI_Exchange8bit
 14380  007494  5023               	movf	wr16@value+1,w,c
 14381  007496  EC03  F03B         	call	_SPI_Exchange8bit
 14382                           
 14383                           ;FT800.c: 31: LATDbits.LATD0 = 1;
 14384  00749A  808C               	bsf	3980,0,c	;volatile
 14385  00749C  0012               	return		;funcret
 14386  00749E                     __end_of_wr16:
 14387                           	opt stack 0
 14388                           tblptru	equ	0xFF8
 14389                           tblptrh	equ	0xFF7
 14390                           tblptrl	equ	0xFF6
 14391                           tablat	equ	0xFF5
 14392                           prodh	equ	0xFF4
 14393                           prodl	equ	0xFF3
 14394                           postinc0	equ	0xFEE
 14395                           wreg	equ	0xFE8
 14396                           status	equ	0xFD8
 14397                           
 14398 ;; *************** function _rd16 *****************
 14399 ;; Defined at:
 14400 ;;		line 72 in file "Gue/FT800.c"
 14401 ;; Parameters:    Size  Location     Type
 14402 ;;  addr            3   30[COMRAM] unsigned um
 14403 ;; Auto vars:     Size  Location     Type
 14404 ;;  temp            1   36[COMRAM] unsigned char 
 14405 ;; Return value:  Size  Location     Type
 14406 ;;                  2   30[COMRAM] unsigned int 
 14407 ;; Registers used:
 14408 ;;		wreg, status,2, cstack
 14409 ;; Tracked objects:
 14410 ;;		On entry : 0/0
 14411 ;;		On exit  : 0/0
 14412 ;;		Unchanged: 0/0
 14413 ;; Data sizes:     COMRAM   BANK0   BANK1   BANK2   BANK3   BANK4   BANK5   BANK6   BANK7   BANK8   BANK9  BANK10  BANK1
      +1  BANK12  BANK13  BANK14
 14414 ;;      Params:         3       0       0       0       0       0       0       0       0       0       0       0       
      +0       0       0       0
 14415 ;;      Locals:         1       0       0       0       0       0       0       0       0       0       0       0       
      +0       0       0       0
 14416 ;;      Temps:          3       0       0       0       0       0       0       0       0       0       0       0       
      +0       0       0       0
 14417 ;;      Totals:         7       0       0       0       0       0       0       0       0       0       0       0       
      +0       0       0       0
 14418 ;;Total ram usage:        7 bytes
 14419 ;; Hardware stack levels used:    1
 14420 ;; Hardware stack levels required when called:    3
 14421 ;; This function calls:
 14422 ;;		_SPI_Exchange8bit
 14423 ;; This function is called by:
 14424 ;;		_FT800_Init
 14425 ;; This function uses a non-reentrant model
 14426 ;;
 14427                           
 14428                           	psect	text37
 14429  00730C                     __ptext37:
 14430                           	opt stack 0
 14431  00730C                     _rd16:
 14432                           	opt stack 26
 14433                           
 14434                           ;FT800.c: 73: LATDbits.LATD0 = 0;
 14435                           
 14436                           ;incstack = 0
 14437  00730C  908C               	bcf	3980,0,c	;volatile
 14438                           
 14439                           ;FT800.c: 74: SPI_Exchange8bit(addr >> 16);
 14440  00730E  5021               	movf	rd16@addr+2,w,c
 14441  007310  EC03  F03B         	call	_SPI_Exchange8bit
 14442                           
 14443                           ;FT800.c: 75: SPI_Exchange8bit(addr >> 8);
 14444  007314  C01F  F022         	movff	rd16@addr,??_rd16
 14445  007318  C020  F023         	movff	rd16@addr+1,??_rd16+1
 14446  00731C  C021  F024         	movff	rd16@addr+2,??_rd16+2
 14447  007320  C023  F022         	movff	??_rd16+1,??_rd16
 14448  007324  C024  F023         	movff	??_rd16+2,??_rd16+1
 14449  007328  6A24               	clrf	??_rd16+2,c
 14450  00732A  5022               	movf	??_rd16,w,c
 14451  00732C  EC03  F03B         	call	_SPI_Exchange8bit
 14452                           
 14453                           ;FT800.c: 76: SPI_Exchange8bit(addr);
 14454  007330  501F               	movf	rd16@addr,w,c
 14455  007332  EC03  F03B         	call	_SPI_Exchange8bit
 14456                           
 14457                           ;FT800.c: 77: SPI_Exchange8bit(0);
 14458  007336  0E00               	movlw	0
 14459  007338  EC03  F03B         	call	_SPI_Exchange8bit
 14460                           
 14461                           ;FT800.c: 78: SPI_Exchange8bit(0);
 14462  00733C  0E00               	movlw	0
 14463  00733E  EC03  F03B         	call	_SPI_Exchange8bit
 14464                           
 14465                           ;FT800.c: 79: ft_uint8_t temp = SSPBUF;
 14466  007342  CFC9 F025          	movff	4041,rd16@temp	;volatile
 14467                           
 14468                           ;FT800.c: 80: SPI_Exchange8bit(0);
 14469  007346  0E00               	movlw	0
 14470  007348  EC03  F03B         	call	_SPI_Exchange8bit
 14471                           
 14472                           ;FT800.c: 81: LATDbits.LATD0 = 1;
 14473  00734C  808C               	bsf	3980,0,c	;volatile
 14474                           
 14475                           ;FT800.c: 82: return ((ft_uint16_t)SSPBUF << 8) | temp;
 14476  00734E  50C9               	movf	4041,w,c	;volatile
 14477  007350  6E22               	movwf	??_rd16& (0+255),c
 14478  007352  5025               	movf	rd16@temp,w,c
 14479  007354  6E1F               	movwf	?_rd16,c
 14480  007356  C022  F020         	movff	??_rd16,?_rd16+1
 14481  00735A  0012               	return	
 14482  00735C                     __end_of_rd16:
 14483                           	opt stack 0
 14484                           tblptru	equ	0xFF8
 14485                           tblptrh	equ	0xFF7
 14486                           tblptrl	equ	0xFF6
 14487                           tablat	equ	0xFF5
 14488                           prodh	equ	0xFF4
 14489                           prodl	equ	0xFF3
 14490                           postinc0	equ	0xFEE
 14491                           wreg	equ	0xFE8
 14492                           status	equ	0xFD8
 14493                           
 14494 ;; *************** function _host_command *****************
 14495 ;; Defined at:
 14496 ;;		line 8 in file "Gue/FT800.c"
 14497 ;; Parameters:    Size  Location     Type
 14498 ;;  command         1    wreg     unsigned char 
 14499 ;; Auto vars:     Size  Location     Type
 14500 ;;  command         1   30[COMRAM] unsigned char 
 14501 ;; Return value:  Size  Location     Type
 14502 ;;                  1    wreg      void 
 14503 ;; Registers used:
 14504 ;;		wreg, status,2, cstack
 14505 ;; Tracked objects:
 14506 ;;		On entry : 0/0
 14507 ;;		On exit  : 0/0
 14508 ;;		Unchanged: 0/0
 14509 ;; Data sizes:     COMRAM   BANK0   BANK1   BANK2   BANK3   BANK4   BANK5   BANK6   BANK7   BANK8   BANK9  BANK10  BANK1
      +1  BANK12  BANK13  BANK14
 14510 ;;      Params:         0       0       0       0       0       0       0       0       0       0       0       0       
      +0       0       0       0
 14511 ;;      Locals:         1       0       0       0       0       0       0       0       0       0       0       0       
      +0       0       0       0
 14512 ;;      Temps:          0       0       0       0       0       0       0       0       0       0       0       0       
      +0       0       0       0
 14513 ;;      Totals:         1       0       0       0       0       0       0       0       0       0       0       0       
      +0       0       0       0
 14514 ;;Total ram usage:        1 bytes
 14515 ;; Hardware stack levels used:    1
 14516 ;; Hardware stack levels required when called:    3
 14517 ;; This function calls:
 14518 ;;		_SPI_Exchange8bit
 14519 ;; This function is called by:
 14520 ;;		_FT800_Init
 14521 ;; This function uses a non-reentrant model
 14522 ;;
 14523                           
 14524                           	psect	text38
 14525  0075AE                     __ptext38:
 14526                           	opt stack 0
 14527  0075AE                     _host_command:
 14528                           	opt stack 26
 14529                           
 14530                           ;incstack = 0
 14531                           ;host_command@command stored from wreg
 14532  0075AE  6E1F               	movwf	host_command@command,c
 14533                           
 14534                           ;FT800.c: 9: LATDbits.LATD0 = 0;
 14535  0075B0  908C               	bcf	3980,0,c	;volatile
 14536                           
 14537                           ;FT800.c: 10: SPI_Exchange8bit(command);
 14538  0075B2  501F               	movf	host_command@command,w,c
 14539  0075B4  EC03  F03B         	call	_SPI_Exchange8bit
 14540                           
 14541                           ;FT800.c: 11: SPI_Exchange8bit(0);
 14542  0075B8  0E00               	movlw	0
 14543  0075BA  EC03  F03B         	call	_SPI_Exchange8bit
 14544                           
 14545                           ;FT800.c: 12: SPI_Exchange8bit(0);
 14546  0075BE  0E00               	movlw	0
 14547  0075C0  EC03  F03B         	call	_SPI_Exchange8bit
 14548                           
 14549                           ;FT800.c: 13: LATDbits.LATD0 = 1;
 14550  0075C4  808C               	bsf	3980,0,c	;volatile
 14551  0075C6  0012               	return		;funcret
 14552  0075C8                     __end_of_host_command:
 14553                           	opt stack 0
 14554                           tblptru	equ	0xFF8
 14555                           tblptrh	equ	0xFF7
 14556                           tblptrl	equ	0xFF6
 14557                           tablat	equ	0xFF5
 14558                           prodh	equ	0xFF4
 14559                           prodl	equ	0xFF3
 14560                           postinc0	equ	0xFEE
 14561                           wreg	equ	0xFE8
 14562                           status	equ	0xFD8
 14563                           
 14564 ;; *************** function _SPI_Exchange8bit *****************
 14565 ;; Defined at:
 14566 ;;		line 77 in file "mcc_generated_files/spi.c"
 14567 ;; Parameters:    Size  Location     Type
 14568 ;;  data            1    wreg     unsigned char 
 14569 ;; Auto vars:     Size  Location     Type
 14570 ;;  data            1   29[COMRAM] unsigned char 
 14571 ;; Return value:  Size  Location     Type
 14572 ;;                  1    wreg      unsigned char 
 14573 ;; Registers used:
 14574 ;;		wreg, status,2
 14575 ;; Tracked objects:
 14576 ;;		On entry : 0/0
 14577 ;;		On exit  : 0/0
 14578 ;;		Unchanged: 0/0
 14579 ;; Data sizes:     COMRAM   BANK0   BANK1   BANK2   BANK3   BANK4   BANK5   BANK6   BANK7   BANK8   BANK9  BANK10  BANK1
      +1  BANK12  BANK13  BANK14
 14580 ;;      Params:         0       0       0       0       0       0       0       0       0       0       0       0       
      +0       0       0       0
 14581 ;;      Locals:         1       0       0       0       0       0       0       0       0       0       0       0       
      +0       0       0       0
 14582 ;;      Temps:          0       0       0       0       0       0       0       0       0       0       0       0       
      +0       0       0       0
 14583 ;;      Totals:         1       0       0       0       0       0       0       0       0       0       0       0       
      +0       0       0       0
 14584 ;;Total ram usage:        1 bytes
 14585 ;; Hardware stack levels used:    1
 14586 ;; Hardware stack levels required when called:    2
 14587 ;; This function calls:
 14588 ;;		Nothing
 14589 ;; This function is called by:
 14590 ;;		_host_command
 14591 ;;		_wr8
 14592 ;;		_wr16
 14593 ;;		_wr32
 14594 ;;		_wr8s
 14595 ;;		_rd16
 14596 ;;		_SPI_Exchange8bitBuffer
 14597 ;;		_rd8
 14598 ;;		_rd32
 14599 ;; This function uses a non-reentrant model
 14600 ;;
 14601                           
 14602                           	psect	text39
 14603  007606                     __ptext39:
 14604                           	opt stack 0
 14605  007606                     _SPI_Exchange8bit:
 14606                           	opt stack 26
 14607                           
 14608                           ;incstack = 0
 14609                           ;SPI_Exchange8bit@data stored from wreg
 14610  007606  6E1E               	movwf	SPI_Exchange8bit@data,c
 14611                           
 14612                           ;spi.c: 80: SSPCON1bits.WCOL = 0;
 14613  007608  9EC6               	bcf	4038,7,c	;volatile
 14614                           
 14615                           ;spi.c: 82: SSPBUF = data;
 14616  00760A  C01E  FFC9         	movff	SPI_Exchange8bit@data,4041	;volatile
 14617  00760E                     l367:
 14618  00760E  A0C7               	btfss	4039,0,c	;volatile
 14619  007610  D7FE               	goto	l367
 14620                           
 14621                           ;spi.c: 86: }
 14622                           ;spi.c: 88: return (SSPBUF);
 14623  007612  50C9               	movf	4041,w,c	;volatile
 14624  007614  0012               	return		;funcret
 14625  007616                     __end_of_SPI_Exchange8bit:
 14626                           	opt stack 0
 14627                           tblptru	equ	0xFF8
 14628                           tblptrh	equ	0xFF7
 14629                           tblptrl	equ	0xFF6
 14630                           tablat	equ	0xFF5
 14631                           prodh	equ	0xFF4
 14632                           prodl	equ	0xFF3
 14633                           postinc0	equ	0xFEE
 14634                           wreg	equ	0xFE8
 14635                           status	equ	0xFD8
 14636                           
 14637 ;; *************** function _CAN_receive *****************
 14638 ;; Defined at:
 14639 ;;		line 239 in file "mcc_generated_files/ecan.c"
 14640 ;; Parameters:    Size  Location     Type
 14641 ;;  tempCanMsg      2   44[COMRAM] PTR struct .
 14642 ;;		 -> main@canMessage(14), 
 14643 ;; Auto vars:     Size  Location     Type
 14644 ;;  returnValue     1   46[COMRAM] unsigned char 
 14645 ;; Return value:  Size  Location     Type
 14646 ;;                  1    wreg      unsigned char 
 14647 ;; Registers used:
 14648 ;;		wreg, fsr2l, fsr2h, status,2, status,0, cstack
 14649 ;; Tracked objects:
 14650 ;;		On entry : 0/0
 14651 ;;		On exit  : 0/0
 14652 ;;		Unchanged: 0/0
 14653 ;; Data sizes:     COMRAM   BANK0   BANK1   BANK2   BANK3   BANK4   BANK5   BANK6   BANK7   BANK8   BANK9  BANK10  BANK1
      +1  BANK12  BANK13  BANK14
 14654 ;;      Params:         2       0       0       0       0       0       0       0       0       0       0       0       
      +0       0       0       0
 14655 ;;      Locals:         1       0       0       0       0       0       0       0       0       0       0       0       
      +0       0       0       0
 14656 ;;      Temps:          0       0       0       0       0       0       0       0       0       0       0       0       
      +0       0       0       0
 14657 ;;      Totals:         3       0       0       0       0       0       0       0       0       0       0       0       
      +0       0       0       0
 14658 ;;Total ram usage:        3 bytes
 14659 ;; Hardware stack levels used:    1
 14660 ;; Hardware stack levels required when called:    3
 14661 ;; This function calls:
 14662 ;;		_convertReg2ExtendedCANid
 14663 ;;		_convertReg2StandardCANid
 14664 ;; This function is called by:
 14665 ;;		_main
 14666 ;; This function uses a non-reentrant model
 14667 ;;
 14668                           
 14669                           	psect	text40
 14670  006200                     __ptext40:
 14671                           	opt stack 0
 14672  006200                     _CAN_receive:
 14673                           	opt stack 27
 14674                           
 14675                           ;ecan.c: 240: unsigned char returnValue = 0;
 14676                           
 14677                           ;incstack = 0
 14678  006200  0E00               	movlw	0
 14679  006202  6E2F               	movwf	CAN_receive@returnValue,c
 14680                           
 14681                           ;ecan.c: 244: {
 14682                           ;ecan.c: 247: if (RXB0CONbits.RXFUL != 0)
 14683  006204  AE60               	btfss	3936,7,c	;volatile
 14684  006206  D083               	goto	l280
 14685                           
 14686                           ;ecan.c: 248: {
 14687                           ;ecan.c: 249: if ((RXB0SIDL & 0x08) == 0x08)
 14688  006208  A662               	btfss	3938,3,c	;volatile
 14689  00620A  D01E               	goto	l5902
 14690                           
 14691                           ;ecan.c: 250: {
 14692                           ;ecan.c: 252: tempCanMsg->frame.idType = (unsigned char) 2;
 14693  00620C  C02D  FFD9         	movff	CAN_receive@tempCanMsg,fsr2l
 14694  006210  C02E  FFDA         	movff	CAN_receive@tempCanMsg+1,fsr2h
 14695  006214  0E02               	movlw	2
 14696  006216  6EDF               	movwf	indf2,c
 14697                           
 14698                           ;ecan.c: 253: tempCanMsg->frame.id = convertReg2ExtendedCANid(RXB0EIDH, RXB0EIDL, RXB0SI
      +                          DH, RXB0SIDL);
 14699  006218  CF64 F01E          	movff	3940,convertReg2ExtendedCANid@tempRXBn_EIDL	;volatile
 14700  00621C  CF61 F01F          	movff	3937,convertReg2ExtendedCANid@tempRXBn_SIDH	;volatile
 14701  006220  CF62 F020          	movff	3938,convertReg2ExtendedCANid@tempRXBn_SIDL	;volatile
 14702  006224  5063               	movf	3939,w,c	;volatile
 14703  006226  EC15  F032         	call	_convertReg2ExtendedCANid
 14704  00622A  EE20 F001          	lfsr	2,1
 14705  00622E  502D               	movf	CAN_receive@tempCanMsg,w,c
 14706  006230  26D9               	addwf	fsr2l,f,c
 14707  006232  502E               	movf	CAN_receive@tempCanMsg+1,w,c
 14708  006234  22DA               	addwfc	fsr2h,f,c
 14709  006236  C01E  FFDE         	movff	?_convertReg2ExtendedCANid,postinc2
 14710  00623A  C01F  FFDE         	movff	?_convertReg2ExtendedCANid+1,postinc2
 14711  00623E  C020  FFDE         	movff	?_convertReg2ExtendedCANid+2,postinc2
 14712  006242  C021  FFDE         	movff	?_convertReg2ExtendedCANid+3,postinc2
 14713                           
 14714                           ;ecan.c: 254: } else {
 14715  006246  D019               	goto	l5906
 14716  006248                     l5902:
 14717                           
 14718                           ;ecan.c: 256: tempCanMsg->frame.idType = (unsigned char) 1;
 14719  006248  C02D  FFD9         	movff	CAN_receive@tempCanMsg,fsr2l
 14720  00624C  C02E  FFDA         	movff	CAN_receive@tempCanMsg+1,fsr2h
 14721  006250  0E01               	movlw	1
 14722  006252  6EDF               	movwf	indf2,c
 14723                           
 14724                           ;ecan.c: 257: tempCanMsg->frame.id = convertReg2StandardCANid(RXB0SIDH, RXB0SIDL);
 14725  006254  CF62 F01E          	movff	3938,convertReg2StandardCANid@tempRXBn_SIDL	;volatile
 14726  006258  5061               	movf	3937,w,c	;volatile
 14727  00625A  EC4A  F038         	call	_convertReg2StandardCANid
 14728  00625E  EE20 F001          	lfsr	2,1
 14729  006262  502D               	movf	CAN_receive@tempCanMsg,w,c
 14730  006264  26D9               	addwf	fsr2l,f,c
 14731  006266  502E               	movf	CAN_receive@tempCanMsg+1,w,c
 14732  006268  22DA               	addwfc	fsr2h,f,c
 14733  00626A  C01E  FFDE         	movff	?_convertReg2StandardCANid,postinc2
 14734  00626E  C01F  FFDE         	movff	?_convertReg2StandardCANid+1,postinc2
 14735  006272  C020  FFDE         	movff	?_convertReg2StandardCANid+2,postinc2
 14736  006276  C021  FFDE         	movff	?_convertReg2StandardCANid+3,postinc2
 14737  00627A                     l5906:
 14738                           
 14739                           ;ecan.c: 258: }
 14740                           ;ecan.c: 260: tempCanMsg->frame.dlc = RXB0DLC;
 14741  00627A  EE20 F005          	lfsr	2,5
 14742  00627E  502D               	movf	CAN_receive@tempCanMsg,w,c
 14743  006280  26D9               	addwf	fsr2l,f,c
 14744  006282  502E               	movf	CAN_receive@tempCanMsg+1,w,c
 14745  006284  22DA               	addwfc	fsr2h,f,c
 14746  006286  CF65 FFDF          	movff	3941,indf2	;volatile
 14747                           
 14748                           ;ecan.c: 261: tempCanMsg->frame.data0 = RXB0D0;
 14749  00628A  EE20 F006          	lfsr	2,6
 14750  00628E  502D               	movf	CAN_receive@tempCanMsg,w,c
 14751  006290  26D9               	addwf	fsr2l,f,c
 14752  006292  502E               	movf	CAN_receive@tempCanMsg+1,w,c
 14753  006294  22DA               	addwfc	fsr2h,f,c
 14754  006296  CF66 FFDF          	movff	3942,indf2	;volatile
 14755                           
 14756                           ;ecan.c: 262: tempCanMsg->frame.data1 = RXB0D1;
 14757  00629A  EE20 F007          	lfsr	2,7
 14758  00629E  502D               	movf	CAN_receive@tempCanMsg,w,c
 14759  0062A0  26D9               	addwf	fsr2l,f,c
 14760  0062A2  502E               	movf	CAN_receive@tempCanMsg+1,w,c
 14761  0062A4  22DA               	addwfc	fsr2h,f,c
 14762  0062A6  CF67 FFDF          	movff	3943,indf2	;volatile
 14763                           
 14764                           ;ecan.c: 263: tempCanMsg->frame.data2 = RXB0D2;
 14765  0062AA  EE20 F008          	lfsr	2,8
 14766  0062AE  502D               	movf	CAN_receive@tempCanMsg,w,c
 14767  0062B0  26D9               	addwf	fsr2l,f,c
 14768  0062B2  502E               	movf	CAN_receive@tempCanMsg+1,w,c
 14769  0062B4  22DA               	addwfc	fsr2h,f,c
 14770  0062B6  CF68 FFDF          	movff	3944,indf2	;volatile
 14771                           
 14772                           ;ecan.c: 264: tempCanMsg->frame.data3 = RXB0D3;
 14773  0062BA  EE20 F009          	lfsr	2,9
 14774  0062BE  502D               	movf	CAN_receive@tempCanMsg,w,c
 14775  0062C0  26D9               	addwf	fsr2l,f,c
 14776  0062C2  502E               	movf	CAN_receive@tempCanMsg+1,w,c
 14777  0062C4  22DA               	addwfc	fsr2h,f,c
 14778  0062C6  CF69 FFDF          	movff	3945,indf2	;volatile
 14779                           
 14780                           ;ecan.c: 265: tempCanMsg->frame.data4 = RXB0D4;
 14781  0062CA  EE20 F00A          	lfsr	2,10
 14782  0062CE  502D               	movf	CAN_receive@tempCanMsg,w,c
 14783  0062D0  26D9               	addwf	fsr2l,f,c
 14784  0062D2  502E               	movf	CAN_receive@tempCanMsg+1,w,c
 14785  0062D4  22DA               	addwfc	fsr2h,f,c
 14786  0062D6  CF6A FFDF          	movff	3946,indf2	;volatile
 14787                           
 14788                           ;ecan.c: 266: tempCanMsg->frame.data5 = RXB0D5;
 14789  0062DA  EE20 F00B          	lfsr	2,11
 14790  0062DE  502D               	movf	CAN_receive@tempCanMsg,w,c
 14791  0062E0  26D9               	addwf	fsr2l,f,c
 14792  0062E2  502E               	movf	CAN_receive@tempCanMsg+1,w,c
 14793  0062E4  22DA               	addwfc	fsr2h,f,c
 14794  0062E6  CF6B FFDF          	movff	3947,indf2	;volatile
 14795                           
 14796                           ;ecan.c: 267: tempCanMsg->frame.data6 = RXB0D6;
 14797  0062EA  EE20 F00C          	lfsr	2,12
 14798  0062EE  502D               	movf	CAN_receive@tempCanMsg,w,c
 14799  0062F0  26D9               	addwf	fsr2l,f,c
 14800  0062F2  502E               	movf	CAN_receive@tempCanMsg+1,w,c
 14801  0062F4  22DA               	addwfc	fsr2h,f,c
 14802  0062F6  CF6C FFDF          	movff	3948,indf2	;volatile
 14803                           
 14804                           ;ecan.c: 268: tempCanMsg->frame.data7 = RXB0D7;
 14805  0062FA  EE20 F00D          	lfsr	2,13
 14806  0062FE  502D               	movf	CAN_receive@tempCanMsg,w,c
 14807  006300  26D9               	addwf	fsr2l,f,c
 14808  006302  502E               	movf	CAN_receive@tempCanMsg+1,w,c
 14809  006304  22DA               	addwfc	fsr2h,f,c
 14810  006306  CF6D FFDF          	movff	3949,indf2	;volatile
 14811                           
 14812                           ;ecan.c: 269: RXB0CONbits.RXFUL = 0;
 14813  00630A  9E60               	bcf	3936,7,c	;volatile
 14814  00630C  D089               	goto	l5958
 14815  00630E                     l280:
 14816  00630E  010F               	movlb	15	; () banked
 14817  006310  AF30               	btfss	48,7,b	;volatile
 14818  006312  D088               	goto	l5960
 14819                           
 14820                           ; BSR set to: 15
 14821                           ;ecan.c: 272: {
 14822                           ;ecan.c: 273: if ((RXB1SIDL & 0x08) == 0x08)
 14823  006314  010F               	movlb	15	; () banked
 14824  006316  A732               	btfss	50,3,b	;volatile
 14825  006318  D01F               	goto	l5934
 14826                           
 14827                           ; BSR set to: 15
 14828                           ;ecan.c: 274: {
 14829                           ;ecan.c: 276: tempCanMsg->frame.idType = (unsigned char) 2;
 14830  00631A  C02D  FFD9         	movff	CAN_receive@tempCanMsg,fsr2l
 14831  00631E  C02E  FFDA         	movff	CAN_receive@tempCanMsg+1,fsr2h
 14832  006322  0E02               	movlw	2
 14833  006324  6EDF               	movwf	indf2,c
 14834                           
 14835                           ; BSR set to: 15
 14836                           ;ecan.c: 277: tempCanMsg->frame.id = convertReg2ExtendedCANid(RXB1EIDH, RXB1EIDL, RXB1SI
      +                          DH, RXB1SIDL);
 14837  006326  CF34 F01E          	movff	3892,convertReg2ExtendedCANid@tempRXBn_EIDL	;volatile
 14838  00632A  CF31 F01F          	movff	3889,convertReg2ExtendedCANid@tempRXBn_SIDH	;volatile
 14839  00632E  CF32 F020          	movff	3890,convertReg2ExtendedCANid@tempRXBn_SIDL	;volatile
 14840  006332  010F               	movlb	15	; () banked
 14841  006334  5133               	movf	51,w,b	;volatile
 14842  006336  EC15  F032         	call	_convertReg2ExtendedCANid
 14843  00633A  EE20 F001          	lfsr	2,1
 14844  00633E  502D               	movf	CAN_receive@tempCanMsg,w,c
 14845  006340  26D9               	addwf	fsr2l,f,c
 14846  006342  502E               	movf	CAN_receive@tempCanMsg+1,w,c
 14847  006344  22DA               	addwfc	fsr2h,f,c
 14848  006346  C01E  FFDE         	movff	?_convertReg2ExtendedCANid,postinc2
 14849  00634A  C01F  FFDE         	movff	?_convertReg2ExtendedCANid+1,postinc2
 14850  00634E  C020  FFDE         	movff	?_convertReg2ExtendedCANid+2,postinc2
 14851  006352  C021  FFDE         	movff	?_convertReg2ExtendedCANid+3,postinc2
 14852                           
 14853                           ;ecan.c: 278: }
 14854  006356  D01A               	goto	l5938
 14855  006358                     l5934:
 14856                           
 14857                           ;ecan.c: 279: else
 14858                           ;ecan.c: 280: {
 14859                           ;ecan.c: 282: tempCanMsg->frame.idType = (unsigned char) 1;
 14860  006358  C02D  FFD9         	movff	CAN_receive@tempCanMsg,fsr2l
 14861  00635C  C02E  FFDA         	movff	CAN_receive@tempCanMsg+1,fsr2h
 14862  006360  0E01               	movlw	1
 14863  006362  6EDF               	movwf	indf2,c
 14864                           
 14865                           ;ecan.c: 283: tempCanMsg->frame.id = convertReg2StandardCANid(RXB1SIDH, RXB1SIDL);
 14866  006364  CF32 F01E          	movff	3890,convertReg2StandardCANid@tempRXBn_SIDL	;volatile
 14867  006368  010F               	movlb	15	; () banked
 14868  00636A  5131               	movf	49,w,b	;volatile
 14869  00636C  EC4A  F038         	call	_convertReg2StandardCANid
 14870  006370  EE20 F001          	lfsr	2,1
 14871  006374  502D               	movf	CAN_receive@tempCanMsg,w,c
 14872  006376  26D9               	addwf	fsr2l,f,c
 14873  006378  502E               	movf	CAN_receive@tempCanMsg+1,w,c
 14874  00637A  22DA               	addwfc	fsr2h,f,c
 14875  00637C  C01E  FFDE         	movff	?_convertReg2StandardCANid,postinc2
 14876  006380  C01F  FFDE         	movff	?_convertReg2StandardCANid+1,postinc2
 14877  006384  C020  FFDE         	movff	?_convertReg2StandardCANid+2,postinc2
 14878  006388  C021  FFDE         	movff	?_convertReg2StandardCANid+3,postinc2
 14879  00638C                     l5938:
 14880                           
 14881                           ;ecan.c: 284: }
 14882                           ;ecan.c: 286: tempCanMsg->frame.dlc = RXB1DLC;
 14883  00638C  EE20 F005          	lfsr	2,5
 14884  006390  502D               	movf	CAN_receive@tempCanMsg,w,c
 14885  006392  26D9               	addwf	fsr2l,f,c
 14886  006394  502E               	movf	CAN_receive@tempCanMsg+1,w,c
 14887  006396  22DA               	addwfc	fsr2h,f,c
 14888  006398  CF35 FFDF          	movff	3893,indf2	;volatile
 14889                           
 14890                           ;ecan.c: 287: tempCanMsg->frame.data0 = RXB1D0;
 14891  00639C  EE20 F006          	lfsr	2,6
 14892  0063A0  502D               	movf	CAN_receive@tempCanMsg,w,c
 14893  0063A2  26D9               	addwf	fsr2l,f,c
 14894  0063A4  502E               	movf	CAN_receive@tempCanMsg+1,w,c
 14895  0063A6  22DA               	addwfc	fsr2h,f,c
 14896  0063A8  CF36 FFDF          	movff	3894,indf2	;volatile
 14897                           
 14898                           ;ecan.c: 288: tempCanMsg->frame.data1 = RXB1D1;
 14899  0063AC  EE20 F007          	lfsr	2,7
 14900  0063B0  502D               	movf	CAN_receive@tempCanMsg,w,c
 14901  0063B2  26D9               	addwf	fsr2l,f,c
 14902  0063B4  502E               	movf	CAN_receive@tempCanMsg+1,w,c
 14903  0063B6  22DA               	addwfc	fsr2h,f,c
 14904  0063B8  CF37 FFDF          	movff	3895,indf2	;volatile
 14905                           
 14906                           ;ecan.c: 289: tempCanMsg->frame.data2 = RXB1D2;
 14907  0063BC  EE20 F008          	lfsr	2,8
 14908  0063C0  502D               	movf	CAN_receive@tempCanMsg,w,c
 14909  0063C2  26D9               	addwf	fsr2l,f,c
 14910  0063C4  502E               	movf	CAN_receive@tempCanMsg+1,w,c
 14911  0063C6  22DA               	addwfc	fsr2h,f,c
 14912  0063C8  CF38 FFDF          	movff	3896,indf2	;volatile
 14913                           
 14914                           ;ecan.c: 290: tempCanMsg->frame.data3 = RXB1D3;
 14915  0063CC  EE20 F009          	lfsr	2,9
 14916  0063D0  502D               	movf	CAN_receive@tempCanMsg,w,c
 14917  0063D2  26D9               	addwf	fsr2l,f,c
 14918  0063D4  502E               	movf	CAN_receive@tempCanMsg+1,w,c
 14919  0063D6  22DA               	addwfc	fsr2h,f,c
 14920  0063D8  CF39 FFDF          	movff	3897,indf2	;volatile
 14921                           
 14922                           ;ecan.c: 291: tempCanMsg->frame.data4 = RXB1D4;
 14923  0063DC  EE20 F00A          	lfsr	2,10
 14924  0063E0  502D               	movf	CAN_receive@tempCanMsg,w,c
 14925  0063E2  26D9               	addwf	fsr2l,f,c
 14926  0063E4  502E               	movf	CAN_receive@tempCanMsg+1,w,c
 14927  0063E6  22DA               	addwfc	fsr2h,f,c
 14928  0063E8  CF3A FFDF          	movff	3898,indf2	;volatile
 14929                           
 14930                           ;ecan.c: 292: tempCanMsg->frame.data5 = RXB1D5;
 14931  0063EC  EE20 F00B          	lfsr	2,11
 14932  0063F0  502D               	movf	CAN_receive@tempCanMsg,w,c
 14933  0063F2  26D9               	addwf	fsr2l,f,c
 14934  0063F4  502E               	movf	CAN_receive@tempCanMsg+1,w,c
 14935  0063F6  22DA               	addwfc	fsr2h,f,c
 14936  0063F8  CF3B FFDF          	movff	3899,indf2	;volatile
 14937                           
 14938                           ;ecan.c: 293: tempCanMsg->frame.data6 = RXB1D6;
 14939  0063FC  EE20 F00C          	lfsr	2,12
 14940  006400  502D               	movf	CAN_receive@tempCanMsg,w,c
 14941  006402  26D9               	addwf	fsr2l,f,c
 14942  006404  502E               	movf	CAN_receive@tempCanMsg+1,w,c
 14943  006406  22DA               	addwfc	fsr2h,f,c
 14944  006408  CF3C FFDF          	movff	3900,indf2	;volatile
 14945                           
 14946                           ;ecan.c: 294: tempCanMsg->frame.data7 = RXB1D7;
 14947  00640C  EE20 F00D          	lfsr	2,13
 14948  006410  502D               	movf	CAN_receive@tempCanMsg,w,c
 14949  006412  26D9               	addwf	fsr2l,f,c
 14950  006414  502E               	movf	CAN_receive@tempCanMsg+1,w,c
 14951  006416  22DA               	addwfc	fsr2h,f,c
 14952  006418  CF3D FFDF          	movff	3901,indf2	;volatile
 14953                           
 14954                           ;ecan.c: 295: RXB1CONbits.RXFUL = 0;
 14955  00641C  010F               	movlb	15	; () banked
 14956  00641E  9F30               	bcf	48,7,b	;volatile
 14957  006420                     l5958:
 14958                           
 14959                           ; BSR set to: 15
 14960                           ;ecan.c: 296: returnValue = 1;
 14961  006420  0E01               	movlw	1
 14962  006422  6E2F               	movwf	CAN_receive@returnValue,c
 14963  006424                     l5960:
 14964                           
 14965                           ;ecan.c: 297: }
 14966                           ;ecan.c: 300: PIR5bits.RXB1IF = 0;
 14967  006424  9277               	bcf	3959,1,c	;volatile
 14968                           
 14969                           ;ecan.c: 301: }
 14970                           ;ecan.c: 304: return (returnValue);
 14971  006426  502F               	movf	CAN_receive@returnValue,w,c
 14972  006428  0012               	return	
 14973  00642A                     __end_of_CAN_receive:
 14974                           	opt stack 0
 14975                           tblptru	equ	0xFF8
 14976                           tblptrh	equ	0xFF7
 14977                           tblptrl	equ	0xFF6
 14978                           tablat	equ	0xFF5
 14979                           prodh	equ	0xFF4
 14980                           prodl	equ	0xFF3
 14981                           postinc0	equ	0xFEE
 14982                           wreg	equ	0xFE8
 14983                           indf2	equ	0xFDF
 14984                           postinc2	equ	0xFDE
 14985                           fsr2h	equ	0xFDA
 14986                           fsr2l	equ	0xFD9
 14987                           status	equ	0xFD8
 14988                           
 14989 ;; *************** function _convertReg2StandardCANid *****************
 14990 ;; Defined at:
 14991 ;;		line 385 in file "mcc_generated_files/ecan.c"
 14992 ;; Parameters:    Size  Location     Type
 14993 ;;  tempRXBn_SID    1    wreg     unsigned char 
 14994 ;;  tempRXBn_SID    1   29[COMRAM] unsigned char 
 14995 ;; Auto vars:     Size  Location     Type
 14996 ;;  tempRXBn_SID    1   35[COMRAM] unsigned char 
 14997 ;;  ConvertedID     4   40[COMRAM] unsigned long 
 14998 ;;  returnValue     4   36[COMRAM] unsigned long 
 14999 ;; Return value:  Size  Location     Type
 15000 ;;                  4   29[COMRAM] unsigned long 
 15001 ;; Registers used:
 15002 ;;		wreg, status,2, status,0
 15003 ;; Tracked objects:
 15004 ;;		On entry : 0/0
 15005 ;;		On exit  : 0/0
 15006 ;;		Unchanged: 0/0
 15007 ;; Data sizes:     COMRAM   BANK0   BANK1   BANK2   BANK3   BANK4   BANK5   BANK6   BANK7   BANK8   BANK9  BANK10  BANK1
      +1  BANK12  BANK13  BANK14
 15008 ;;      Params:         4       0       0       0       0       0       0       0       0       0       0       0       
      +0       0       0       0
 15009 ;;      Locals:         9       0       0       0       0       0       0       0       0       0       0       0       
      +0       0       0       0
 15010 ;;      Temps:          2       0       0       0       0       0       0       0       0       0       0       0       
      +0       0       0       0
 15011 ;;      Totals:        15       0       0       0       0       0       0       0       0       0       0       0       
      +0       0       0       0
 15012 ;;Total ram usage:       15 bytes
 15013 ;; Hardware stack levels used:    1
 15014 ;; Hardware stack levels required when called:    2
 15015 ;; This function calls:
 15016 ;;		Nothing
 15017 ;; This function is called by:
 15018 ;;		_CAN_receive
 15019 ;; This function uses a non-reentrant model
 15020 ;;
 15021                           
 15022                           	psect	text41
 15023  007094                     __ptext41:
 15024                           	opt stack 0
 15025  007094                     _convertReg2StandardCANid:
 15026                           	opt stack 27
 15027                           
 15028                           ;incstack = 0
 15029                           ;convertReg2StandardCANid@tempRXBn_SIDH stored from wreg
 15030  007094  6E24               	movwf	convertReg2StandardCANid@tempRXBn_SIDH,c
 15031                           
 15032                           ;ecan.c: 386: unsigned long returnValue = 0;
 15033  007096  0E00               	movlw	0
 15034  007098  6E25               	movwf	convertReg2StandardCANid@returnValue,c
 15035  00709A  0E00               	movlw	0
 15036  00709C  6E26               	movwf	convertReg2StandardCANid@returnValue+1,c
 15037  00709E  0E00               	movlw	0
 15038  0070A0  6E27               	movwf	convertReg2StandardCANid@returnValue+2,c
 15039  0070A2  0E00               	movlw	0
 15040  0070A4  6E28               	movwf	convertReg2StandardCANid@returnValue+3,c
 15041                           
 15042                           ;ecan.c: 387: unsigned long ConvertedID;
 15043                           ;ecan.c: 391: ConvertedID = (tempRXBn_SIDH << 3);
 15044  0070A6  5024               	movf	convertReg2StandardCANid@tempRXBn_SIDH,w,c
 15045  0070A8  6E22               	movwf	??_convertReg2StandardCANid& (0+255),c
 15046  0070AA  6A23               	clrf	(??_convertReg2StandardCANid+1)& (0+255),c
 15047  0070AC  90D8               	bcf	status,0,c
 15048  0070AE  3622               	rlcf	??_convertReg2StandardCANid,f,c
 15049  0070B0  3623               	rlcf	??_convertReg2StandardCANid+1,f,c
 15050  0070B2  90D8               	bcf	status,0,c
 15051  0070B4  3622               	rlcf	??_convertReg2StandardCANid,f,c
 15052  0070B6  3623               	rlcf	??_convertReg2StandardCANid+1,f,c
 15053  0070B8  90D8               	bcf	status,0,c
 15054  0070BA  3622               	rlcf	??_convertReg2StandardCANid,f,c
 15055  0070BC  3623               	rlcf	??_convertReg2StandardCANid+1,f,c
 15056  0070BE  C022  F029         	movff	??_convertReg2StandardCANid,convertReg2StandardCANid@ConvertedID
 15057  0070C2  C023  F02A         	movff	??_convertReg2StandardCANid+1,convertReg2StandardCANid@ConvertedID+1
 15058  0070C6  0E00               	movlw	0
 15059  0070C8  BE2A               	btfsc	convertReg2StandardCANid@ConvertedID+1,7,c
 15060  0070CA  0EFF               	movlw	-1
 15061  0070CC  6E2B               	movwf	convertReg2StandardCANid@ConvertedID+2,c
 15062  0070CE  6E2C               	movwf	convertReg2StandardCANid@ConvertedID+3,c
 15063                           
 15064                           ;ecan.c: 392: ConvertedID = ConvertedID + (tempRXBn_SIDL >> 5);
 15065  0070D0  C01E  F022         	movff	convertReg2StandardCANid@tempRXBn_SIDL,??_convertReg2StandardCANid
 15066  0070D4  0E05               	movlw	5
 15067  0070D6  6E23               	movwf	(??_convertReg2StandardCANid+1)& (0+255),c
 15068  0070D8                     u1115:
 15069  0070D8  90D8               	bcf	status,0,c
 15070  0070DA  3222               	rrcf	??_convertReg2StandardCANid,f,c
 15071  0070DC  2E23               	decfsz	(??_convertReg2StandardCANid+1)& (0+255),f,c
 15072  0070DE  D7FC               	goto	u1115
 15073  0070E0  5022               	movf	??_convertReg2StandardCANid,w,c
 15074  0070E2  2429               	addwf	convertReg2StandardCANid@ConvertedID,w,c
 15075  0070E4  6E29               	movwf	convertReg2StandardCANid@ConvertedID,c
 15076  0070E6  0E00               	movlw	0
 15077  0070E8  202A               	addwfc	convertReg2StandardCANid@ConvertedID+1,w,c
 15078  0070EA  6E2A               	movwf	convertReg2StandardCANid@ConvertedID+1,c
 15079  0070EC  0E00               	movlw	0
 15080  0070EE  202B               	addwfc	convertReg2StandardCANid@ConvertedID+2,w,c
 15081  0070F0  6E2B               	movwf	convertReg2StandardCANid@ConvertedID+2,c
 15082  0070F2  0E00               	movlw	0
 15083  0070F4  202C               	addwfc	convertReg2StandardCANid@ConvertedID+3,w,c
 15084  0070F6  6E2C               	movwf	convertReg2StandardCANid@ConvertedID+3,c
 15085                           
 15086                           ;ecan.c: 393: returnValue = ConvertedID;
 15087  0070F8  C029  F025         	movff	convertReg2StandardCANid@ConvertedID,convertReg2StandardCANid@returnValue
 15088  0070FC  C02A  F026         	movff	convertReg2StandardCANid@ConvertedID+1,convertReg2StandardCANid@returnValue+1
 15089  007100  C02B  F027         	movff	convertReg2StandardCANid@ConvertedID+2,convertReg2StandardCANid@returnValue+2
 15090  007104  C02C  F028         	movff	convertReg2StandardCANid@ConvertedID+3,convertReg2StandardCANid@returnValue+3
 15091                           
 15092                           ;ecan.c: 394: return (returnValue);
 15093  007108  C025  F01E         	movff	convertReg2StandardCANid@returnValue,?_convertReg2StandardCANid
 15094  00710C  C026  F01F         	movff	convertReg2StandardCANid@returnValue+1,?_convertReg2StandardCANid+1
 15095  007110  C027  F020         	movff	convertReg2StandardCANid@returnValue+2,?_convertReg2StandardCANid+2
 15096  007114  C028  F021         	movff	convertReg2StandardCANid@returnValue+3,?_convertReg2StandardCANid+3
 15097  007118  0012               	return	
 15098  00711A                     __end_of_convertReg2StandardCANid:
 15099                           	opt stack 0
 15100                           tblptru	equ	0xFF8
 15101                           tblptrh	equ	0xFF7
 15102                           tblptrl	equ	0xFF6
 15103                           tablat	equ	0xFF5
 15104                           prodh	equ	0xFF4
 15105                           prodl	equ	0xFF3
 15106                           postinc0	equ	0xFEE
 15107                           wreg	equ	0xFE8
 15108                           indf2	equ	0xFDF
 15109                           postinc2	equ	0xFDE
 15110                           fsr2h	equ	0xFDA
 15111                           fsr2l	equ	0xFD9
 15112                           status	equ	0xFD8
 15113                           
 15114 ;; *************** function _convertReg2ExtendedCANid *****************
 15115 ;; Defined at:
 15116 ;;		line 365 in file "mcc_generated_files/ecan.c"
 15117 ;; Parameters:    Size  Location     Type
 15118 ;;  tempRXBn_EID    1    wreg     unsigned char 
 15119 ;;  tempRXBn_EID    1   29[COMRAM] unsigned char 
 15120 ;;  tempRXBn_SID    1   30[COMRAM] unsigned char 
 15121 ;;  tempRXBn_SID    1   31[COMRAM] unsigned char 
 15122 ;; Auto vars:     Size  Location     Type
 15123 ;;  tempRXBn_EID    1    0[BANK0 ] unsigned char 
 15124 ;;  ConvertedID     4    7[BANK0 ] unsigned long 
 15125 ;;  returnValue     4    1[BANK0 ] unsigned long 
 15126 ;;  CAN_standard    1    6[BANK0 ] unsigned char 
 15127 ;;  CAN_standard    1    5[BANK0 ] unsigned char 
 15128 ;; Return value:  Size  Location     Type
 15129 ;;                  4   29[COMRAM] unsigned long 
 15130 ;; Registers used:
 15131 ;;		wreg, status,2, status,0
 15132 ;; Tracked objects:
 15133 ;;		On entry : 0/0
 15134 ;;		On exit  : 0/0
 15135 ;;		Unchanged: 0/0
 15136 ;; Data sizes:     COMRAM   BANK0   BANK1   BANK2   BANK3   BANK4   BANK5   BANK6   BANK7   BANK8   BANK9  BANK10  BANK1
      +1  BANK12  BANK13  BANK14
 15137 ;;      Params:         4       0       0       0       0       0       0       0       0       0       0       0       
      +0       0       0       0
 15138 ;;      Locals:         0      11       0       0       0       0       0       0       0       0       0       0       
      +0       0       0       0
 15139 ;;      Temps:          4       0       0       0       0       0       0       0       0       0       0       0       
      +0       0       0       0
 15140 ;;      Totals:         8      11       0       0       0       0       0       0       0       0       0       0       
      +0       0       0       0
 15141 ;;Total ram usage:       19 bytes
 15142 ;; Hardware stack levels used:    1
 15143 ;; Hardware stack levels required when called:    2
 15144 ;; This function calls:
 15145 ;;		Nothing
 15146 ;; This function is called by:
 15147 ;;		_CAN_receive
 15148 ;; This function uses a non-reentrant model
 15149 ;;
 15150                           
 15151                           	psect	text42
 15152  00642A                     __ptext42:
 15153                           	opt stack 0
 15154  00642A                     _convertReg2ExtendedCANid:
 15155                           	opt stack 27
 15156                           
 15157                           ;incstack = 0
 15158                           ;convertReg2ExtendedCANid@tempRXBn_EIDH stored from wreg
 15159  00642A  0100               	movlb	0	; () banked
 15160  00642C  6F60               	movwf	convertReg2ExtendedCANid@tempRXBn_EIDH& (0+255),b
 15161                           
 15162                           ;ecan.c: 366: unsigned long returnValue = 0;
 15163  00642E  0E00               	movlw	0
 15164  006430  0100               	movlb	0	; () banked
 15165  006432  6F61               	movwf	convertReg2ExtendedCANid@returnValue& (0+255),b
 15166  006434  0E00               	movlw	0
 15167  006436  6F62               	movwf	(convertReg2ExtendedCANid@returnValue+1)& (0+255),b
 15168  006438  0E00               	movlw	0
 15169  00643A  6F63               	movwf	(convertReg2ExtendedCANid@returnValue+2)& (0+255),b
 15170  00643C  0E00               	movlw	0
 15171  00643E  6F64               	movwf	(convertReg2ExtendedCANid@returnValue+3)& (0+255),b
 15172                           
 15173                           ;ecan.c: 367: unsigned long ConvertedID = 0;
 15174  006440  0E00               	movlw	0
 15175  006442  0100               	movlb	0	; () banked
 15176  006444  6F67               	movwf	convertReg2ExtendedCANid@ConvertedID& (0+255),b
 15177  006446  0E00               	movlw	0
 15178  006448  6F68               	movwf	(convertReg2ExtendedCANid@ConvertedID+1)& (0+255),b
 15179  00644A  0E00               	movlw	0
 15180  00644C  6F69               	movwf	(convertReg2ExtendedCANid@ConvertedID+2)& (0+255),b
 15181  00644E  0E00               	movlw	0
 15182  006450  6F6A               	movwf	(convertReg2ExtendedCANid@ConvertedID+3)& (0+255),b
 15183                           
 15184                           ; BSR set to: 0
 15185                           ;ecan.c: 368: unsigned char CAN_standardLo_ID_lo2bits;
 15186                           ;ecan.c: 369: unsigned char CAN_standardLo_ID_hi3bits;
 15187                           ;ecan.c: 371: CAN_standardLo_ID_lo2bits = (tempRXBn_SIDL & 0x03);
 15188  006452  5020               	movf	convertReg2ExtendedCANid@tempRXBn_SIDL,w,c
 15189  006454  0B03               	andlw	3
 15190  006456  0100               	movlb	0	; () banked
 15191  006458  6F65               	movwf	convertReg2ExtendedCANid@CAN_standardLo_ID_lo2bits& (0+255),b
 15192                           
 15193                           ; BSR set to: 0
 15194                           ;ecan.c: 372: CAN_standardLo_ID_hi3bits = (tempRXBn_SIDL >> 5);
 15195  00645A  3820               	swapf	convertReg2ExtendedCANid@tempRXBn_SIDL,w,c
 15196  00645C  42E8               	rrncf	wreg,f,c
 15197  00645E  0B07               	andlw	7
 15198  006460  0100               	movlb	0	; () banked
 15199  006462  6F66               	movwf	convertReg2ExtendedCANid@CAN_standardLo_ID_hi3bits& (0+255),b
 15200                           
 15201                           ; BSR set to: 0
 15202                           ;ecan.c: 373: ConvertedID = (tempRXBn_SIDH << 3);
 15203  006464  501F               	movf	convertReg2ExtendedCANid@tempRXBn_SIDH,w,c
 15204  006466  6E22               	movwf	??_convertReg2ExtendedCANid& (0+255),c
 15205  006468  6A23               	clrf	(??_convertReg2ExtendedCANid+1)& (0+255),c
 15206  00646A  90D8               	bcf	status,0,c
 15207  00646C  3622               	rlcf	??_convertReg2ExtendedCANid,f,c
 15208  00646E  3623               	rlcf	??_convertReg2ExtendedCANid+1,f,c
 15209  006470  90D8               	bcf	status,0,c
 15210  006472  3622               	rlcf	??_convertReg2ExtendedCANid,f,c
 15211  006474  3623               	rlcf	??_convertReg2ExtendedCANid+1,f,c
 15212  006476  90D8               	bcf	status,0,c
 15213  006478  3622               	rlcf	??_convertReg2ExtendedCANid,f,c
 15214  00647A  3623               	rlcf	??_convertReg2ExtendedCANid+1,f,c
 15215  00647C  C022  F067         	movff	??_convertReg2ExtendedCANid,convertReg2ExtendedCANid@ConvertedID
 15216  006480  C023  F068         	movff	??_convertReg2ExtendedCANid+1,convertReg2ExtendedCANid@ConvertedID+1
 15217  006484  0100               	movlb	0	; () banked
 15218  006486  0E00               	movlw	0
 15219  006488  BF68               	btfsc	(convertReg2ExtendedCANid@ConvertedID+1)& (0+255),7,b
 15220  00648A  0EFF               	movlw	-1
 15221  00648C  6F69               	movwf	(convertReg2ExtendedCANid@ConvertedID+2)& (0+255),b
 15222  00648E  6F6A               	movwf	(convertReg2ExtendedCANid@ConvertedID+3)& (0+255),b
 15223                           
 15224                           ; BSR set to: 0
 15225                           ;ecan.c: 374: ConvertedID = ConvertedID + CAN_standardLo_ID_hi3bits;
 15226  006490  0100               	movlb	0	; () banked
 15227  006492  5166               	movf	convertReg2ExtendedCANid@CAN_standardLo_ID_hi3bits& (0+255),w,b
 15228  006494  0100               	movlb	0	; () banked
 15229  006496  2567               	addwf	convertReg2ExtendedCANid@ConvertedID& (0+255),w,b
 15230  006498  0100               	movlb	0	; () banked
 15231  00649A  6F67               	movwf	convertReg2ExtendedCANid@ConvertedID& (0+255),b
 15232  00649C  0E00               	movlw	0
 15233  00649E  0100               	movlb	0	; () banked
 15234  0064A0  2168               	addwfc	(convertReg2ExtendedCANid@ConvertedID+1)& (0+255),w,b
 15235  0064A2  0100               	movlb	0	; () banked
 15236  0064A4  6F68               	movwf	(convertReg2ExtendedCANid@ConvertedID+1)& (0+255),b
 15237  0064A6  0E00               	movlw	0
 15238  0064A8  0100               	movlb	0	; () banked
 15239  0064AA  2169               	addwfc	(convertReg2ExtendedCANid@ConvertedID+2)& (0+255),w,b
 15240  0064AC  0100               	movlb	0	; () banked
 15241  0064AE  6F69               	movwf	(convertReg2ExtendedCANid@ConvertedID+2)& (0+255),b
 15242  0064B0  0E00               	movlw	0
 15243  0064B2  0100               	movlb	0	; () banked
 15244  0064B4  216A               	addwfc	(convertReg2ExtendedCANid@ConvertedID+3)& (0+255),w,b
 15245  0064B6  0100               	movlb	0	; () banked
 15246  0064B8  6F6A               	movwf	(convertReg2ExtendedCANid@ConvertedID+3)& (0+255),b
 15247                           
 15248                           ; BSR set to: 0
 15249                           ;ecan.c: 375: ConvertedID = (ConvertedID << 2);
 15250  0064BA  C067  F022         	movff	convertReg2ExtendedCANid@ConvertedID,??_convertReg2ExtendedCANid
 15251  0064BE  C068  F023         	movff	convertReg2ExtendedCANid@ConvertedID+1,??_convertReg2ExtendedCANid+1
 15252  0064C2  C069  F024         	movff	convertReg2ExtendedCANid@ConvertedID+2,??_convertReg2ExtendedCANid+2
 15253  0064C6  C06A  F025         	movff	convertReg2ExtendedCANid@ConvertedID+3,??_convertReg2ExtendedCANid+3
 15254  0064CA  0E02               	movlw	2
 15255  0064CC                     u1485:
 15256  0064CC  90D8               	bcf	status,0,c
 15257  0064CE  3622               	rlcf	??_convertReg2ExtendedCANid,f,c
 15258  0064D0  3623               	rlcf	??_convertReg2ExtendedCANid+1,f,c
 15259  0064D2  3624               	rlcf	??_convertReg2ExtendedCANid+2,f,c
 15260  0064D4  3625               	rlcf	??_convertReg2ExtendedCANid+3,f,c
 15261  0064D6  2EE8               	decfsz	wreg,f,c
 15262  0064D8  D7F9               	goto	u1485
 15263  0064DA  C022  F067         	movff	??_convertReg2ExtendedCANid,convertReg2ExtendedCANid@ConvertedID
 15264  0064DE  C023  F068         	movff	??_convertReg2ExtendedCANid+1,convertReg2ExtendedCANid@ConvertedID+1
 15265  0064E2  C024  F069         	movff	??_convertReg2ExtendedCANid+2,convertReg2ExtendedCANid@ConvertedID+2
 15266  0064E6  C025  F06A         	movff	??_convertReg2ExtendedCANid+3,convertReg2ExtendedCANid@ConvertedID+3
 15267                           
 15268                           ; BSR set to: 0
 15269                           ;ecan.c: 376: ConvertedID = ConvertedID + CAN_standardLo_ID_lo2bits;
 15270  0064EA  0100               	movlb	0	; () banked
 15271  0064EC  5165               	movf	convertReg2ExtendedCANid@CAN_standardLo_ID_lo2bits& (0+255),w,b
 15272  0064EE  0100               	movlb	0	; () banked
 15273  0064F0  2567               	addwf	convertReg2ExtendedCANid@ConvertedID& (0+255),w,b
 15274  0064F2  0100               	movlb	0	; () banked
 15275  0064F4  6F67               	movwf	convertReg2ExtendedCANid@ConvertedID& (0+255),b
 15276  0064F6  0E00               	movlw	0
 15277  0064F8  0100               	movlb	0	; () banked
 15278  0064FA  2168               	addwfc	(convertReg2ExtendedCANid@ConvertedID+1)& (0+255),w,b
 15279  0064FC  0100               	movlb	0	; () banked
 15280  0064FE  6F68               	movwf	(convertReg2ExtendedCANid@ConvertedID+1)& (0+255),b
 15281  006500  0E00               	movlw	0
 15282  006502  0100               	movlb	0	; () banked
 15283  006504  2169               	addwfc	(convertReg2ExtendedCANid@ConvertedID+2)& (0+255),w,b
 15284  006506  0100               	movlb	0	; () banked
 15285  006508  6F69               	movwf	(convertReg2ExtendedCANid@ConvertedID+2)& (0+255),b
 15286  00650A  0E00               	movlw	0
 15287  00650C  0100               	movlb	0	; () banked
 15288  00650E  216A               	addwfc	(convertReg2ExtendedCANid@ConvertedID+3)& (0+255),w,b
 15289  006510  0100               	movlb	0	; () banked
 15290  006512  6F6A               	movwf	(convertReg2ExtendedCANid@ConvertedID+3)& (0+255),b
 15291                           
 15292                           ;ecan.c: 377: ConvertedID = (ConvertedID << 8);
 15293  006514  C067  F023         	movff	convertReg2ExtendedCANid@ConvertedID,??_convertReg2ExtendedCANid+1
 15294  006518  C068  F024         	movff	convertReg2ExtendedCANid@ConvertedID+1,??_convertReg2ExtendedCANid+2
 15295  00651C  C069  F025         	movff	convertReg2ExtendedCANid@ConvertedID+2,??_convertReg2ExtendedCANid+3
 15296  006520  6A22               	clrf	??_convertReg2ExtendedCANid& (0+255),c
 15297  006522  C022  F067         	movff	??_convertReg2ExtendedCANid,convertReg2ExtendedCANid@ConvertedID
 15298  006526  C023  F068         	movff	??_convertReg2ExtendedCANid+1,convertReg2ExtendedCANid@ConvertedID+1
 15299  00652A  C024  F069         	movff	??_convertReg2ExtendedCANid+2,convertReg2ExtendedCANid@ConvertedID+2
 15300  00652E  C025  F06A         	movff	??_convertReg2ExtendedCANid+3,convertReg2ExtendedCANid@ConvertedID+3
 15301                           
 15302                           ; BSR set to: 0
 15303                           ;ecan.c: 378: ConvertedID = ConvertedID + tempRXBn_EIDH;
 15304  006532  0100               	movlb	0	; () banked
 15305  006534  5160               	movf	convertReg2ExtendedCANid@tempRXBn_EIDH& (0+255),w,b
 15306  006536  0100               	movlb	0	; () banked
 15307  006538  2567               	addwf	convertReg2ExtendedCANid@ConvertedID& (0+255),w,b
 15308  00653A  0100               	movlb	0	; () banked
 15309  00653C  6F67               	movwf	convertReg2ExtendedCANid@ConvertedID& (0+255),b
 15310  00653E  0E00               	movlw	0
 15311  006540  0100               	movlb	0	; () banked
 15312  006542  2168               	addwfc	(convertReg2ExtendedCANid@ConvertedID+1)& (0+255),w,b
 15313  006544  0100               	movlb	0	; () banked
 15314  006546  6F68               	movwf	(convertReg2ExtendedCANid@ConvertedID+1)& (0+255),b
 15315  006548  0E00               	movlw	0
 15316  00654A  0100               	movlb	0	; () banked
 15317  00654C  2169               	addwfc	(convertReg2ExtendedCANid@ConvertedID+2)& (0+255),w,b
 15318  00654E  0100               	movlb	0	; () banked
 15319  006550  6F69               	movwf	(convertReg2ExtendedCANid@ConvertedID+2)& (0+255),b
 15320  006552  0E00               	movlw	0
 15321  006554  0100               	movlb	0	; () banked
 15322  006556  216A               	addwfc	(convertReg2ExtendedCANid@ConvertedID+3)& (0+255),w,b
 15323  006558  0100               	movlb	0	; () banked
 15324  00655A  6F6A               	movwf	(convertReg2ExtendedCANid@ConvertedID+3)& (0+255),b
 15325                           
 15326                           ; BSR set to: 0
 15327                           ;ecan.c: 379: ConvertedID = (ConvertedID << 8);
 15328  00655C  C067  F023         	movff	convertReg2ExtendedCANid@ConvertedID,??_convertReg2ExtendedCANid+1
 15329  006560  C068  F024         	movff	convertReg2ExtendedCANid@ConvertedID+1,??_convertReg2ExtendedCANid+2
 15330  006564  C069  F025         	movff	convertReg2ExtendedCANid@ConvertedID+2,??_convertReg2ExtendedCANid+3
 15331  006568  6A22               	clrf	??_convertReg2ExtendedCANid& (0+255),c
 15332  00656A  C022  F067         	movff	??_convertReg2ExtendedCANid,convertReg2ExtendedCANid@ConvertedID
 15333  00656E  C023  F068         	movff	??_convertReg2ExtendedCANid+1,convertReg2ExtendedCANid@ConvertedID+1
 15334  006572  C024  F069         	movff	??_convertReg2ExtendedCANid+2,convertReg2ExtendedCANid@ConvertedID+2
 15335  006576  C025  F06A         	movff	??_convertReg2ExtendedCANid+3,convertReg2ExtendedCANid@ConvertedID+3
 15336                           
 15337                           ;ecan.c: 380: ConvertedID = ConvertedID + tempRXBn_EIDL;
 15338  00657A  501E               	movf	convertReg2ExtendedCANid@tempRXBn_EIDL,w,c
 15339  00657C  0100               	movlb	0	; () banked
 15340  00657E  2567               	addwf	convertReg2ExtendedCANid@ConvertedID& (0+255),w,b
 15341  006580  0100               	movlb	0	; () banked
 15342  006582  6F67               	movwf	convertReg2ExtendedCANid@ConvertedID& (0+255),b
 15343  006584  0E00               	movlw	0
 15344  006586  0100               	movlb	0	; () banked
 15345  006588  2168               	addwfc	(convertReg2ExtendedCANid@ConvertedID+1)& (0+255),w,b
 15346  00658A  0100               	movlb	0	; () banked
 15347  00658C  6F68               	movwf	(convertReg2ExtendedCANid@ConvertedID+1)& (0+255),b
 15348  00658E  0E00               	movlw	0
 15349  006590  0100               	movlb	0	; () banked
 15350  006592  2169               	addwfc	(convertReg2ExtendedCANid@ConvertedID+2)& (0+255),w,b
 15351  006594  0100               	movlb	0	; () banked
 15352  006596  6F69               	movwf	(convertReg2ExtendedCANid@ConvertedID+2)& (0+255),b
 15353  006598  0E00               	movlw	0
 15354  00659A  0100               	movlb	0	; () banked
 15355  00659C  216A               	addwfc	(convertReg2ExtendedCANid@ConvertedID+3)& (0+255),w,b
 15356  00659E  0100               	movlb	0	; () banked
 15357  0065A0  6F6A               	movwf	(convertReg2ExtendedCANid@ConvertedID+3)& (0+255),b
 15358                           
 15359                           ; BSR set to: 0
 15360                           ;ecan.c: 381: returnValue = ConvertedID;
 15361  0065A2  C067  F061         	movff	convertReg2ExtendedCANid@ConvertedID,convertReg2ExtendedCANid@returnValue
 15362  0065A6  C068  F062         	movff	convertReg2ExtendedCANid@ConvertedID+1,convertReg2ExtendedCANid@returnValue+1
 15363  0065AA  C069  F063         	movff	convertReg2ExtendedCANid@ConvertedID+2,convertReg2ExtendedCANid@returnValue+2
 15364  0065AE  C06A  F064         	movff	convertReg2ExtendedCANid@ConvertedID+3,convertReg2ExtendedCANid@returnValue+3
 15365                           
 15366                           ; BSR set to: 0
 15367                           ;ecan.c: 382: return (returnValue);
 15368  0065B2  C061  F01E         	movff	convertReg2ExtendedCANid@returnValue,?_convertReg2ExtendedCANid
 15369  0065B6  C062  F01F         	movff	convertReg2ExtendedCANid@returnValue+1,?_convertReg2ExtendedCANid+1
 15370  0065BA  C063  F020         	movff	convertReg2ExtendedCANid@returnValue+2,?_convertReg2ExtendedCANid+2
 15371  0065BE  C064  F021         	movff	convertReg2ExtendedCANid@returnValue+3,?_convertReg2ExtendedCANid+3
 15372  0065C2  0012               	return	
 15373  0065C4                     __end_of_convertReg2ExtendedCANid:
 15374                           	opt stack 0
 15375                           tblptru	equ	0xFF8
 15376                           tblptrh	equ	0xFF7
 15377                           tblptrl	equ	0xFF6
 15378                           tablat	equ	0xFF5
 15379                           prodh	equ	0xFF4
 15380                           prodl	equ	0xFF3
 15381                           postinc0	equ	0xFEE
 15382                           wreg	equ	0xFE8
 15383                           indf2	equ	0xFDF
 15384                           postinc2	equ	0xFDE
 15385                           fsr2h	equ	0xFDA
 15386                           fsr2l	equ	0xFD9
 15387                           status	equ	0xFD8
 15388                           
 15389 ;; *************** function _can_bus *****************
 15390 ;; Defined at:
 15391 ;;		line 21 in file "main.c"
 15392 ;; Parameters:    Size  Location     Type
 15393 ;;		None
 15394 ;; Auto vars:     Size  Location     Type
 15395 ;;		None
 15396 ;; Return value:  Size  Location     Type
 15397 ;;                  1    wreg      void 
 15398 ;; Registers used:
 15399 ;;		wreg, status,2, status,0, cstack
 15400 ;; Tracked objects:
 15401 ;;		On entry : 0/0
 15402 ;;		On exit  : 0/0
 15403 ;;		Unchanged: 0/0
 15404 ;; Data sizes:     COMRAM   BANK0   BANK1   BANK2   BANK3   BANK4   BANK5   BANK6   BANK7   BANK8   BANK9  BANK10  BANK1
      +1  BANK12  BANK13  BANK14
 15405 ;;      Params:         0       0       0       0       0       0       0       0       0       0       0       0       
      +0       0       0       0
 15406 ;;      Locals:         0       0       0       0       0       0       0       0       0       0       0       0       
      +0       0       0       0
 15407 ;;      Temps:         14       0       0       0       0       0       0       0       0       0       0       0       
      +0       0       0       0
 15408 ;;      Totals:        14       0       0       0       0       0       0       0       0       0       0       0       
      +0       0       0       0
 15409 ;;Total ram usage:       14 bytes
 15410 ;; Hardware stack levels used:    1
 15411 ;; Hardware stack levels required when called:    1
 15412 ;; This function calls:
 15413 ;;		_convertStandardCANid
 15414 ;; This function is called by:
 15415 ;;		Interrupt level 2
 15416 ;; This function uses a non-reentrant model
 15417 ;;
 15418                           
 15419                           	psect	intcode
 15420  000008                     __pintcode:
 15421                           	opt stack 0
 15422  000008                     _can_bus:
 15423                           	opt stack 24
 15424                           
 15425                           ; BSR set to: 0
 15426                           ;incstack = 0
 15427  000008  8242               	bsf	btemp,1,c	;set compiler interrupt flag (level 2)
 15428  00000A  CFFA F010          	movff	pclath,??_can_bus
 15429  00000E  CFFB F011          	movff	pclatu,??_can_bus+1
 15430  000012  CFE9 F012          	movff	fsr0l,??_can_bus+2
 15431  000016  CFEA F013          	movff	fsr0h,??_can_bus+3
 15432  00001A  CFE1 F014          	movff	fsr1l,??_can_bus+4
 15433  00001E  CFE2 F015          	movff	fsr1h,??_can_bus+5
 15434  000022  CFD9 F016          	movff	fsr2l,??_can_bus+6
 15435  000026  CFDA F017          	movff	fsr2h,??_can_bus+7
 15436  00002A  CFF3 F018          	movff	prodl,??_can_bus+8
 15437  00002E  CFF4 F019          	movff	prodh,??_can_bus+9
 15438  000032  CFF6 F01A          	movff	tblptrl,??_can_bus+10
 15439  000036  CFF7 F01B          	movff	tblptrh,??_can_bus+11
 15440  00003A  CFF8 F01C          	movff	tblptru,??_can_bus+12
 15441  00003E  CFF5 F01D          	movff	tablat,??_can_bus+13
 15442                           
 15443                           ;main.c: 22: if(PIR5bits.RXB0IF) {
 15444  000042  A077               	btfss	3959,0,c	;volatile
 15445  000044  D024               	goto	i2l542
 15446                           
 15447                           ;main.c: 23: PIE5bits.RXB0IE = 0;
 15448  000046  9076               	bcf	3958,0,c	;volatile
 15449                           
 15450                           ;main.c: 31: tempCanMsg.frame.idType = (unsigned char) 1;
 15451  000048  0E01               	movlw	1
 15452  00004A  6E30               	movwf	_tempCanMsg,c
 15453                           
 15454                           ;main.c: 32: tempCanMsg.frame.id = convertStandardCANid(RXB0SIDH, RXB0SIDL);
 15455  00004C  CF62 F001          	movff	3938,convertStandardCANid@tempRXBn_SIDL	;volatile
 15456  000050  5061               	movf	3937,w,c	;volatile
 15457  000052  EC8D  F038         	call	_convertStandardCANid
 15458  000056  C001  F031         	movff	?_convertStandardCANid,_tempCanMsg+1
 15459  00005A  C002  F032         	movff	?_convertStandardCANid+1,_tempCanMsg+2
 15460  00005E  C003  F033         	movff	?_convertStandardCANid+2,_tempCanMsg+3
 15461  000062  C004  F034         	movff	?_convertStandardCANid+3,_tempCanMsg+4
 15462                           
 15463                           ;main.c: 33: tempCanMsg.frame.dlc = RXB0DLC;
 15464  000066  CF65 F035          	movff	3941,_tempCanMsg+5	;volatile
 15465                           
 15466                           ;main.c: 34: tempCanMsg.frame.data0 = RXB0D0;
 15467  00006A  CF66 F036          	movff	3942,_tempCanMsg+6	;volatile
 15468                           
 15469                           ;main.c: 35: tempCanMsg.frame.data1 = RXB0D1;
 15470  00006E  CF67 F037          	movff	3943,_tempCanMsg+7	;volatile
 15471                           
 15472                           ;main.c: 36: tempCanMsg.frame.data2 = RXB0D2;
 15473  000072  CF68 F038          	movff	3944,_tempCanMsg+8	;volatile
 15474                           
 15475                           ;main.c: 37: tempCanMsg.frame.data3 = RXB0D3;
 15476  000076  CF69 F039          	movff	3945,_tempCanMsg+9	;volatile
 15477                           
 15478                           ;main.c: 38: tempCanMsg.frame.data4 = RXB0D4;
 15479  00007A  CF6A F03A          	movff	3946,_tempCanMsg+10	;volatile
 15480                           
 15481                           ;main.c: 39: tempCanMsg.frame.data5 = RXB0D5;
 15482  00007E  CF6B F03B          	movff	3947,_tempCanMsg+11	;volatile
 15483                           
 15484                           ;main.c: 40: tempCanMsg.frame.data6 = RXB0D6;
 15485  000082  CF6C F03C          	movff	3948,_tempCanMsg+12	;volatile
 15486                           
 15487                           ;main.c: 41: tempCanMsg.frame.data7 = RXB0D7;
 15488  000086  CF6D F03D          	movff	3949,_tempCanMsg+13	;volatile
 15489                           
 15490                           ;main.c: 42: RXB0CONbits.RXFUL = 0;
 15491  00008A  9E60               	bcf	3936,7,c	;volatile
 15492                           
 15493                           ;main.c: 43: PIE5bits.RXB0IE = 1;
 15494  00008C  8076               	bsf	3958,0,c	;volatile
 15495  00008E                     i2l542:
 15496  00008E  C01D  FFF5         	movff	??_can_bus+13,tablat
 15497  000092  C01C  FFF8         	movff	??_can_bus+12,tblptru
 15498  000096  C01B  FFF7         	movff	??_can_bus+11,tblptrh
 15499  00009A  C01A  FFF6         	movff	??_can_bus+10,tblptrl
 15500  00009E  C019  FFF4         	movff	??_can_bus+9,prodh
 15501  0000A2  C018  FFF3         	movff	??_can_bus+8,prodl
 15502  0000A6  C017  FFDA         	movff	??_can_bus+7,fsr2h
 15503  0000AA  C016  FFD9         	movff	??_can_bus+6,fsr2l
 15504  0000AE  C015  FFE2         	movff	??_can_bus+5,fsr1h
 15505  0000B2  C014  FFE1         	movff	??_can_bus+4,fsr1l
 15506  0000B6  C013  FFEA         	movff	??_can_bus+3,fsr0h
 15507  0000BA  C012  FFE9         	movff	??_can_bus+2,fsr0l
 15508  0000BE  C011  FFFB         	movff	??_can_bus+1,pclatu
 15509  0000C2  C010  FFFA         	movff	??_can_bus,pclath
 15510  0000C6  9242               	bcf	btemp,1,c	;clear compiler interrupt flag (level 2)
 15511  0000C8  0011               	retfie		f
 15512  0000CA                     __end_of_can_bus:
 15513                           	opt stack 0
 15514                           pclatu	equ	0xFFB
 15515                           pclath	equ	0xFFA
 15516                           tblptru	equ	0xFF8
 15517                           tblptrh	equ	0xFF7
 15518                           tblptrl	equ	0xFF6
 15519                           tablat	equ	0xFF5
 15520                           prodh	equ	0xFF4
 15521                           prodl	equ	0xFF3
 15522                           postinc0	equ	0xFEE
 15523                           fsr0h	equ	0xFEA
 15524                           fsr0l	equ	0xFE9
 15525                           wreg	equ	0xFE8
 15526                           fsr1h	equ	0xFE2
 15527                           fsr1l	equ	0xFE1
 15528                           indf2	equ	0xFDF
 15529                           postinc2	equ	0xFDE
 15530                           fsr2h	equ	0xFDA
 15531                           fsr2l	equ	0xFD9
 15532                           status	equ	0xFD8
 15533                           
 15534 ;; *************** function _convertStandardCANid *****************
 15535 ;; Defined at:
 15536 ;;		line 48 in file "main.c"
 15537 ;; Parameters:    Size  Location     Type
 15538 ;;  tempRXBn_SID    1    wreg     unsigned char 
 15539 ;;  tempRXBn_SID    1    0[COMRAM] unsigned char 
 15540 ;; Auto vars:     Size  Location     Type
 15541 ;;  tempRXBn_SID    1    6[COMRAM] unsigned char 
 15542 ;;  ConvertedID     4   11[COMRAM] unsigned long 
 15543 ;;  returnValue     4    7[COMRAM] unsigned long 
 15544 ;; Return value:  Size  Location     Type
 15545 ;;                  4    0[COMRAM] unsigned long 
 15546 ;; Registers used:
 15547 ;;		wreg, status,2, status,0
 15548 ;; Tracked objects:
 15549 ;;		On entry : 0/0
 15550 ;;		On exit  : 0/0
 15551 ;;		Unchanged: 0/0
 15552 ;; Data sizes:     COMRAM   BANK0   BANK1   BANK2   BANK3   BANK4   BANK5   BANK6   BANK7   BANK8   BANK9  BANK10  BANK1
      +1  BANK12  BANK13  BANK14
 15553 ;;      Params:         4       0       0       0       0       0       0       0       0       0       0       0       
      +0       0       0       0
 15554 ;;      Locals:         9       0       0       0       0       0       0       0       0       0       0       0       
      +0       0       0       0
 15555 ;;      Temps:          2       0       0       0       0       0       0       0       0       0       0       0       
      +0       0       0       0
 15556 ;;      Totals:        15       0       0       0       0       0       0       0       0       0       0       0       
      +0       0       0       0
 15557 ;;Total ram usage:       15 bytes
 15558 ;; Hardware stack levels used:    1
 15559 ;; This function calls:
 15560 ;;		Nothing
 15561 ;; This function is called by:
 15562 ;;		_can_bus
 15563 ;; This function uses a non-reentrant model
 15564 ;;
 15565                           
 15566                           	psect	text44
 15567  00711A                     __ptext44:
 15568                           	opt stack 0
 15569  00711A                     _convertStandardCANid:
 15570                           	opt stack 24
 15571                           
 15572                           ;incstack = 0
 15573                           ;convertStandardCANid@tempRXBn_SIDH stored from wreg
 15574  00711A  6E07               	movwf	convertStandardCANid@tempRXBn_SIDH,c
 15575                           
 15576                           ;main.c: 49: unsigned long returnValue = 0;
 15577  00711C  0E00               	movlw	0
 15578  00711E  6E08               	movwf	convertStandardCANid@returnValue,c
 15579  007120  0E00               	movlw	0
 15580  007122  6E09               	movwf	convertStandardCANid@returnValue+1,c
 15581  007124  0E00               	movlw	0
 15582  007126  6E0A               	movwf	convertStandardCANid@returnValue+2,c
 15583  007128  0E00               	movlw	0
 15584  00712A  6E0B               	movwf	convertStandardCANid@returnValue+3,c
 15585                           
 15586                           ;main.c: 50: unsigned long ConvertedID;
 15587                           ;main.c: 54: ConvertedID = (tempRXBn_SIDH << 3);
 15588  00712C  5007               	movf	convertStandardCANid@tempRXBn_SIDH,w,c
 15589  00712E  6E05               	movwf	??_convertStandardCANid& (0+255),c
 15590  007130  6A06               	clrf	(??_convertStandardCANid+1)& (0+255),c
 15591  007132  90D8               	bcf	status,0,c
 15592  007134  3605               	rlcf	??_convertStandardCANid,f,c
 15593  007136  3606               	rlcf	??_convertStandardCANid+1,f,c
 15594  007138  90D8               	bcf	status,0,c
 15595  00713A  3605               	rlcf	??_convertStandardCANid,f,c
 15596  00713C  3606               	rlcf	??_convertStandardCANid+1,f,c
 15597  00713E  90D8               	bcf	status,0,c
 15598  007140  3605               	rlcf	??_convertStandardCANid,f,c
 15599  007142  3606               	rlcf	??_convertStandardCANid+1,f,c
 15600  007144  C005  F00C         	movff	??_convertStandardCANid,convertStandardCANid@ConvertedID
 15601  007148  C006  F00D         	movff	??_convertStandardCANid+1,convertStandardCANid@ConvertedID+1
 15602  00714C  0E00               	movlw	0
 15603  00714E  BE0D               	btfsc	convertStandardCANid@ConvertedID+1,7,c
 15604  007150  0EFF               	movlw	-1
 15605  007152  6E0E               	movwf	convertStandardCANid@ConvertedID+2,c
 15606  007154  6E0F               	movwf	convertStandardCANid@ConvertedID+3,c
 15607                           
 15608                           ;main.c: 55: ConvertedID = ConvertedID + (tempRXBn_SIDL >> 5);
 15609  007156  C001  F005         	movff	convertStandardCANid@tempRXBn_SIDL,??_convertStandardCANid
 15610  00715A  0E05               	movlw	5
 15611  00715C  6E06               	movwf	(??_convertStandardCANid+1)& (0+255),c
 15612  00715E                     i2u118_45:
 15613  00715E  90D8               	bcf	status,0,c
 15614  007160  3205               	rrcf	??_convertStandardCANid,f,c
 15615  007162  2E06               	decfsz	(??_convertStandardCANid+1)& (0+255),f,c
 15616  007164  D7FC               	goto	i2u118_45
 15617  007166  5005               	movf	??_convertStandardCANid,w,c
 15618  007168  240C               	addwf	convertStandardCANid@ConvertedID,w,c
 15619  00716A  6E0C               	movwf	convertStandardCANid@ConvertedID,c
 15620  00716C  0E00               	movlw	0
 15621  00716E  200D               	addwfc	convertStandardCANid@ConvertedID+1,w,c
 15622  007170  6E0D               	movwf	convertStandardCANid@ConvertedID+1,c
 15623  007172  0E00               	movlw	0
 15624  007174  200E               	addwfc	convertStandardCANid@ConvertedID+2,w,c
 15625  007176  6E0E               	movwf	convertStandardCANid@ConvertedID+2,c
 15626  007178  0E00               	movlw	0
 15627  00717A  200F               	addwfc	convertStandardCANid@ConvertedID+3,w,c
 15628  00717C  6E0F               	movwf	convertStandardCANid@ConvertedID+3,c
 15629                           
 15630                           ;main.c: 56: returnValue = ConvertedID;
 15631  00717E  C00C  F008         	movff	convertStandardCANid@ConvertedID,convertStandardCANid@returnValue
 15632  007182  C00D  F009         	movff	convertStandardCANid@ConvertedID+1,convertStandardCANid@returnValue+1
 15633  007186  C00E  F00A         	movff	convertStandardCANid@ConvertedID+2,convertStandardCANid@returnValue+2
 15634  00718A  C00F  F00B         	movff	convertStandardCANid@ConvertedID+3,convertStandardCANid@returnValue+3
 15635                           
 15636                           ;main.c: 57: return (returnValue);
 15637  00718E  C008  F001         	movff	convertStandardCANid@returnValue,?_convertStandardCANid
 15638  007192  C009  F002         	movff	convertStandardCANid@returnValue+1,?_convertStandardCANid+1
 15639  007196  C00A  F003         	movff	convertStandardCANid@returnValue+2,?_convertStandardCANid+2
 15640  00719A  C00B  F004         	movff	convertStandardCANid@returnValue+3,?_convertStandardCANid+3
 15641  00719E  0012               	return	
 15642  0071A0                     __end_of_convertStandardCANid:
 15643                           	opt stack 0
 15644                           pclatu	equ	0xFFB
 15645                           pclath	equ	0xFFA
 15646                           tblptru	equ	0xFF8
 15647                           tblptrh	equ	0xFF7
 15648                           tblptrl	equ	0xFF6
 15649                           tablat	equ	0xFF5
 15650                           prodh	equ	0xFF4
 15651                           prodl	equ	0xFF3
 15652                           postinc0	equ	0xFEE
 15653                           fsr0h	equ	0xFEA
 15654                           fsr0l	equ	0xFE9
 15655                           wreg	equ	0xFE8
 15656                           fsr1h	equ	0xFE2
 15657                           fsr1l	equ	0xFE1
 15658                           indf2	equ	0xFDF
 15659                           postinc2	equ	0xFDE
 15660                           fsr2h	equ	0xFDA
 15661                           fsr2l	equ	0xFD9
 15662                           status	equ	0xFD8
 15663                           pclatu	equ	0xFFB
 15664                           pclath	equ	0xFFA
 15665                           tblptru	equ	0xFF8
 15666                           tblptrh	equ	0xFF7
 15667                           tblptrl	equ	0xFF6
 15668                           tablat	equ	0xFF5
 15669                           prodh	equ	0xFF4
 15670                           prodl	equ	0xFF3
 15671                           postinc0	equ	0xFEE
 15672                           fsr0h	equ	0xFEA
 15673                           fsr0l	equ	0xFE9
 15674                           wreg	equ	0xFE8
 15675                           fsr1h	equ	0xFE2
 15676                           fsr1l	equ	0xFE1
 15677                           indf2	equ	0xFDF
 15678                           postinc2	equ	0xFDE
 15679                           fsr2h	equ	0xFDA
 15680                           fsr2l	equ	0xFD9
 15681                           status	equ	0xFD8
 15682                           
 15683                           	psect	rparam
 15684  0000                     pclatu	equ	0xFFB
 15685                           pclath	equ	0xFFA
 15686                           tblptru	equ	0xFF8
 15687                           tblptrh	equ	0xFF7
 15688                           tblptrl	equ	0xFF6
 15689                           tablat	equ	0xFF5
 15690                           prodh	equ	0xFF4
 15691                           prodl	equ	0xFF3
 15692                           postinc0	equ	0xFEE
 15693                           fsr0h	equ	0xFEA
 15694                           fsr0l	equ	0xFE9
 15695                           wreg	equ	0xFE8
 15696                           fsr1h	equ	0xFE2
 15697                           fsr1l	equ	0xFE1
 15698                           indf2	equ	0xFDF
 15699                           postinc2	equ	0xFDE
 15700                           fsr2h	equ	0xFDA
 15701                           fsr2l	equ	0xFD9
 15702                           status	equ	0xFD8
 15703                           
 15704                           	psect	temp
 15705  000042                     btemp:
 15706                           	opt stack 0
 15707  000042                     	ds	1
 15708  0000                     int$flags	set	btemp
 15709                           pclatu	equ	0xFFB
 15710                           pclath	equ	0xFFA
 15711                           tblptru	equ	0xFF8
 15712                           tblptrh	equ	0xFF7
 15713                           tblptrl	equ	0xFF6
 15714                           tablat	equ	0xFF5
 15715                           prodh	equ	0xFF4
 15716                           prodl	equ	0xFF3
 15717                           postinc0	equ	0xFEE
 15718                           fsr0h	equ	0xFEA
 15719                           fsr0l	equ	0xFE9
 15720                           wreg	equ	0xFE8
 15721                           fsr1h	equ	0xFE2
 15722                           fsr1l	equ	0xFE1
 15723                           indf2	equ	0xFDF
 15724                           postinc2	equ	0xFDE
 15725                           fsr2h	equ	0xFDA
 15726                           fsr2l	equ	0xFD9
 15727                           status	equ	0xFD8


Data Sizes:
    Strings     125
    Constant    0
    Data        0
    BSS         18
    Persistent  0
    Stack       0

Auto Spaces:
    Space          Size  Autos    Used
    COMRAM           94     47      65
    BANK0           160     72      72
    BANK1           256      0       0
    BANK2           256      0       0
    BANK3           256      0       0
    BANK4           256      0       0
    BANK5           256      0       0
    BANK6           256      0       0
    BANK7           256      0       0
    BANK8           256      0       0
    BANK9           256      0       0
    BANK10          256      0       0
    BANK11          256      0       0
    BANK12          256      0       0
    BANK13          256      0       0
    BANK14           65      0       0

Pointer List with Targets:

    display_message@message	PTR unsigned char  size(2) Largest target is 6
		 -> STR_1(CODE[6]), 

    strlen@s	PTR const unsigned char  size(2) Largest target is 15
		 -> STR_41(CODE[4]), STR_40(CODE[2]), STR_39(CODE[2]), STR_38(CODE[3]), 
		 -> STR_37(CODE[3]), STR_36(CODE[3]), STR_35(CODE[2]), STR_34(CODE[2]), 
		 -> STR_33(CODE[2]), STR_32(CODE[2]), STR_31(CODE[2]), STR_30(CODE[2]), 
		 -> STR_29(CODE[2]), STR_28(CODE[2]), STR_27(CODE[2]), STR_26(CODE[2]), 
		 -> STR_25(CODE[2]), STR_24(CODE[2]), STR_23(CODE[2]), STR_22(CODE[2]), 
		 -> STR_21(CODE[2]), STR_20(CODE[2]), STR_19(CODE[4]), STR_18(CODE[5]), 
		 -> STR_17(CODE[5]), STR_16(CODE[15]), STR_15(CODE[2]), STR_14(CODE[3]), 
		 -> STR_13(CODE[4]), STR_12(CODE[6]), STR_11(CODE[6]), STR_10(CODE[4]), 
		 -> STR_9(CODE[6]), STR_8(CODE[5]), STR_7(CODE[5]), STR_6(CODE[5]), 
		 -> STR_5(CODE[5]), STR_4(CODE[4]), STR_3(CODE[5]), STR_2(CODE[6]), 

    strlen@cp	PTR const unsigned char  size(2) Largest target is 15
		 -> STR_41(CODE[4]), STR_40(CODE[2]), STR_39(CODE[2]), STR_38(CODE[3]), 
		 -> STR_37(CODE[3]), STR_36(CODE[3]), STR_35(CODE[2]), STR_34(CODE[2]), 
		 -> STR_33(CODE[2]), STR_32(CODE[2]), STR_31(CODE[2]), STR_30(CODE[2]), 
		 -> STR_29(CODE[2]), STR_28(CODE[2]), STR_27(CODE[2]), STR_26(CODE[2]), 
		 -> STR_25(CODE[2]), STR_24(CODE[2]), STR_23(CODE[2]), STR_22(CODE[2]), 
		 -> STR_21(CODE[2]), STR_20(CODE[2]), STR_19(CODE[4]), STR_18(CODE[5]), 
		 -> STR_17(CODE[5]), STR_16(CODE[15]), STR_15(CODE[2]), STR_14(CODE[3]), 
		 -> STR_13(CODE[4]), STR_12(CODE[6]), STR_11(CODE[6]), STR_10(CODE[4]), 
		 -> STR_9(CODE[6]), STR_8(CODE[5]), STR_7(CODE[5]), STR_6(CODE[5]), 
		 -> STR_5(CODE[5]), STR_4(CODE[4]), STR_3(CODE[5]), STR_2(CODE[6]), 

    wr8s@s	PTR const unsigned char  size(2) Largest target is 15
		 -> STR_41(CODE[4]), STR_40(CODE[2]), STR_39(CODE[2]), STR_38(CODE[3]), 
		 -> STR_37(CODE[3]), STR_36(CODE[3]), STR_35(CODE[2]), STR_34(CODE[2]), 
		 -> STR_33(CODE[2]), STR_32(CODE[2]), STR_31(CODE[2]), STR_30(CODE[2]), 
		 -> STR_29(CODE[2]), STR_28(CODE[2]), STR_27(CODE[2]), STR_26(CODE[2]), 
		 -> STR_25(CODE[2]), STR_24(CODE[2]), STR_23(CODE[2]), STR_22(CODE[2]), 
		 -> STR_21(CODE[2]), STR_20(CODE[2]), STR_19(CODE[4]), STR_18(CODE[5]), 
		 -> STR_17(CODE[5]), STR_16(CODE[15]), STR_15(CODE[2]), STR_14(CODE[3]), 
		 -> STR_13(CODE[4]), STR_12(CODE[6]), STR_11(CODE[6]), STR_10(CODE[4]), 
		 -> STR_9(CODE[6]), STR_8(CODE[5]), STR_7(CODE[5]), STR_6(CODE[5]), 
		 -> STR_5(CODE[5]), STR_4(CODE[4]), STR_3(CODE[5]), STR_2(CODE[6]), 

    CAN_receive@tempCanMsg	PTR struct . size(2) Largest target is 14
		 -> main@canMessage(BANK0[14]), 


Critical Paths under _main in COMRAM

    _main->_CAN_receive
    _main->_cmd
    _display_waterTemp->_cmd
    _display_tp->_cmd
    _display_start->_cmd
    _display_speed->_cmd
    _display_rpm->_cmd
    _display_oilTemp->_cmd
    _display_oilPress->_cmd
    _display_message->_cmd
    _display_laptime->_cmd
    _display_labels->_cmd
    _display_gear->_cmd
    _display_fuel->_cmd
    _display_end->_cmd
    _display_battery->_cmd
    _wr8s->_strlen
    _cmd->___fttol
    ___awmod->___awdiv
    ___awtoft->___ftpack
    _SYSTEM_Initialize->_ECAN_Initialize
    _FT800_Init->_wr32
    _wr8->_SPI_Exchange8bit
    _wr32->_SPI_Exchange8bit
    _wr16->_SPI_Exchange8bit
    _rd16->_SPI_Exchange8bit
    _host_command->_SPI_Exchange8bit
    _CAN_receive->_convertReg2StandardCANid

Critical Paths under _can_bus in COMRAM

    _can_bus->_convertStandardCANid

Critical Paths under _main in BANK0

    _main->_display
    _display->_display_laptime
    _display_waterTemp->_cmd
    _display_tp->_cmd
    _display_start->_cmd
    _display_speed->_cmd
    _display_rpm->_cmd
    _display_oilTemp->_cmd
    _display_oilPress->_cmd
    _display_message->_cmd
    _display_laptime->_cmd
    _display_labels->_cmd
    _display_gear->_cmd
    _display_fuel->_cmd
    _display_end->_cmd
    _display_battery->_cmd
    _CAN_receive->_convertReg2ExtendedCANid

Critical Paths under _can_bus in BANK0

    None.

Critical Paths under _main in BANK1

    None.

Critical Paths under _can_bus in BANK1

    None.

Critical Paths under _main in BANK2

    None.

Critical Paths under _can_bus in BANK2

    None.

Critical Paths under _main in BANK3

    None.

Critical Paths under _can_bus in BANK3

    None.

Critical Paths under _main in BANK4

    None.

Critical Paths under _can_bus in BANK4

    None.

Critical Paths under _main in BANK5

    None.

Critical Paths under _can_bus in BANK5

    None.

Critical Paths under _main in BANK6

    None.

Critical Paths under _can_bus in BANK6

    None.

Critical Paths under _main in BANK7

    None.

Critical Paths under _can_bus in BANK7

    None.

Critical Paths under _main in BANK8

    None.

Critical Paths under _can_bus in BANK8

    None.

Critical Paths under _main in BANK9

    None.

Critical Paths under _can_bus in BANK9

    None.

Critical Paths under _main in BANK10

    None.

Critical Paths under _can_bus in BANK10

    None.

Critical Paths under _main in BANK11

    None.

Critical Paths under _can_bus in BANK11

    None.

Critical Paths under _main in BANK12

    None.

Critical Paths under _can_bus in BANK12

    None.

Critical Paths under _main in BANK13

    None.

Critical Paths under _can_bus in BANK13

    None.

Critical Paths under _main in BANK14

    None.

Critical Paths under _can_bus in BANK14

    None.

Call Graph Tables:

 ---------------------------------------------------------------------------------
 (Depth) Function   	        Calls       Base Space   Used Autos Params    Refs
 ---------------------------------------------------------------------------------
 (0) _main                                                36    36      0 1092632
                                             36 BANK0     36    36      0
                        _CAN_receive
                 _EUSART1_Initialize
                         _FT800_Init
                  _SYSTEM_Initialize
                            ___awdiv
                                _cmd
                            _display
                        _display_end
                          _wait2secs
 ---------------------------------------------------------------------------------
 (1) _wait2secs                                            2     2      0       0
                                             29 COMRAM     2     2      0
 ---------------------------------------------------------------------------------
 (1) _display                                             18     0     18  943343
                                             18 BANK0     18     0     18
                           ___awtoft
                    _display_battery
                        _display_end
                       _display_fuel
                       _display_gear
                     _display_labels
                    _display_laptime
                    _display_message
                   _display_oilPress
                    _display_oilTemp
                        _display_rpm
                      _display_speed
                      _display_start
                         _display_tp
                  _display_waterTemp
 ---------------------------------------------------------------------------------
 (2) _display_waterTemp                                    5     3      2   70848
                                              4 BANK0      5     3      2
                                _cmd
                     _cmd_incrementn
                               _wr16
 ---------------------------------------------------------------------------------
 (2) _display_tp                                           5     3      2   70848
                                              4 BANK0      5     3      2
                                _cmd
                     _cmd_incrementn
                               _wr16
 ---------------------------------------------------------------------------------
 (2) _display_start                                        0     0      0   18670
                                _cmd
 ---------------------------------------------------------------------------------
 (2) _display_speed                                        5     3      2   70848
                                              4 BANK0      5     3      2
                                _cmd
                     _cmd_incrementn
                               _wr16
 ---------------------------------------------------------------------------------
 (2) _display_rpm                                          9     7      2   80771
                                              4 BANK0      9     7      2
                            ___awdiv
                            ___awmod
                                _cmd
                     _cmd_incrementn
                               _wr16
                               _wr8s
 ---------------------------------------------------------------------------------
 (2) _display_oilTemp                                      5     3      2   70848
                                              4 BANK0      5     3      2
                                _cmd
                     _cmd_incrementn
                               _wr16
 ---------------------------------------------------------------------------------
 (2) _display_oilPress                                     6     3      3   71176
                                              4 BANK0      6     3      3
                           ___awtoft (ARG)
                            ___fttol
                                _cmd
                     _cmd_incrementn
                               _wr16
 ---------------------------------------------------------------------------------
 (3) ___fttol                                             15    11      4     328
                                             29 COMRAM    15    11      4
 ---------------------------------------------------------------------------------
 (2) _display_message                                      5     3      2   78590
                                              4 BANK0      5     3      2
                                _cmd
                     _cmd_incrementn
                               _wr16
                               _wr8s
 ---------------------------------------------------------------------------------
 (2) _display_laptime                                     14     3     11   78860
                                              4 BANK0     14     3     11
                                _cmd
                     _cmd_incrementn
                               _wr16
                               _wr8s
 ---------------------------------------------------------------------------------
 (2) _display_labels                                       5     5      0   78813
                                              4 BANK0      5     5      0
                                _cmd
                     _cmd_incrementn
                               _wr16
                               _wr8s
 ---------------------------------------------------------------------------------
 (2) _display_gear                                         4     2      2   18791
                                              4 BANK0      4     2      2
                                _cmd
 ---------------------------------------------------------------------------------
 (2) _display_fuel                                         5     3      2   78590
                                              4 BANK0      5     3      2
                                _cmd
                     _cmd_incrementn
                               _wr16
                               _wr8s
 ---------------------------------------------------------------------------------
 (1) _display_end                                          0     0      0   70696
                                _cmd
                               _wr16
 ---------------------------------------------------------------------------------
 (2) _display_battery                                      5     3      2   80610
                                              4 BANK0      5     3      2
                            ___awdiv
                            ___awmod
                                _cmd
                     _cmd_incrementn
                               _wr16
                               _wr8s
 ---------------------------------------------------------------------------------
 (3) _wr8s                                                10     5      5    7773
                                             35 COMRAM    10     5      5
                   _SPI_Exchange8bit
                             _strlen
 ---------------------------------------------------------------------------------
 (4) _strlen                                               6     4      2     220
                                             29 COMRAM     6     4      2
 ---------------------------------------------------------------------------------
 (2) _cmd                                                  7     3      4   18670
                                             44 COMRAM     3     3      0
                                              0 BANK0      4     0      4
                            ___awdiv (ARG)
                            ___awmod (ARG)
                            ___fttol (ARG)
                     _cmd_incrementn
                               _wr32
 ---------------------------------------------------------------------------------
 (3) _cmd_incrementn                                       3     3      0      31
                                             29 COMRAM     3     3      0
 ---------------------------------------------------------------------------------
 (3) ___awmod                                              6     2      4     793
                                             37 COMRAM     6     2      4
                            ___awdiv (ARG)
 ---------------------------------------------------------------------------------
 (3) ___awdiv                                              8     4      4    1165
                                             29 COMRAM     8     4      4
 ---------------------------------------------------------------------------------
 (2) ___awtoft                                             4     1      3    2516
                                             37 COMRAM     4     1      3
                           ___ftpack
 ---------------------------------------------------------------------------------
 (3) ___ftpack                                             8     3      5    2349
                                             29 COMRAM     8     3      5
 ---------------------------------------------------------------------------------
 (1) _SYSTEM_Initialize                                    0     0      0       0
                    _ECAN_Initialize
                 _EUSART1_Initialize
                 _EUSART2_Initialize
              _OSCILLATOR_Initialize
             _PIN_MANAGER_Initialize
                     _SPI_Initialize
 ---------------------------------------------------------------------------------
 (2) _SPI_Initialize                                       0     0      0       0
 ---------------------------------------------------------------------------------
 (2) _PIN_MANAGER_Initialize                               0     0      0       0
 ---------------------------------------------------------------------------------
 (2) _OSCILLATOR_Initialize                                0     0      0       0
 ---------------------------------------------------------------------------------
 (2) _EUSART2_Initialize                                   0     0      0       0
 ---------------------------------------------------------------------------------
 (2) _EUSART1_Initialize                                   0     0      0       0
 ---------------------------------------------------------------------------------
 (2) _ECAN_Initialize                                      1     1      0       0
                                             29 COMRAM     1     1      0
 ---------------------------------------------------------------------------------
 (1) _FT800_Init                                           1     1      0   55169
                                             41 COMRAM     1     1      0
                       _host_command
                               _rd16
                               _wr16
                               _wr32
                                _wr8
 ---------------------------------------------------------------------------------
 (2) _wr8                                                  7     3      4    1775
                                             30 COMRAM     7     3      4
                   _SPI_Exchange8bit
 ---------------------------------------------------------------------------------
 (3) _wr32                                                11     4      7     968
                                             30 COMRAM    11     4      7
                   _SPI_Exchange8bit
 ---------------------------------------------------------------------------------
 (2) _wr16                                                 8     3      5   52026
                                             30 COMRAM     8     3      5
                   _SPI_Exchange8bit
 ---------------------------------------------------------------------------------
 (2) _rd16                                                 7     4      3     338
                                             30 COMRAM     7     4      3
                   _SPI_Exchange8bit
 ---------------------------------------------------------------------------------
 (2) _host_command                                         1     1      0      62
                                             30 COMRAM     1     1      0
                   _SPI_Exchange8bit
 ---------------------------------------------------------------------------------
 (3) _SPI_Exchange8bit                                     1     1      0      31
                                             29 COMRAM     1     1      0
 ---------------------------------------------------------------------------------
 (1) _CAN_receive                                          3     1      2    2277
                                             44 COMRAM     3     1      2
           _convertReg2ExtendedCANid
           _convertReg2StandardCANid
 ---------------------------------------------------------------------------------
 (2) _convertReg2StandardCANid                            15    11      4     266
                                             29 COMRAM    15    11      4
 ---------------------------------------------------------------------------------
 (2) _convertReg2ExtendedCANid                            19    15      4    1075
                                             29 COMRAM     8     4      4
                                              0 BANK0     11    11      0
 ---------------------------------------------------------------------------------
 Estimated maximum stack depth 4
 ---------------------------------------------------------------------------------
 (Depth) Function   	        Calls       Base Space   Used Autos Params    Refs
 ---------------------------------------------------------------------------------
 (6) _can_bus                                             14    14      0     190
                                             15 COMRAM    14    14      0
               _convertStandardCANid
 ---------------------------------------------------------------------------------
 (7) _convertStandardCANid                                15    11      4     190
                                              0 COMRAM    15    11      4
 ---------------------------------------------------------------------------------
 Estimated maximum stack depth 7
 ---------------------------------------------------------------------------------

 Call Graph Graphs:

 _main (ROOT)
   _CAN_receive
     _convertReg2ExtendedCANid
     _convertReg2StandardCANid
   _EUSART1_Initialize
   _FT800_Init
     _host_command
       _SPI_Exchange8bit
     _rd16
       _SPI_Exchange8bit
     _wr16
       _SPI_Exchange8bit
     _wr32
       _SPI_Exchange8bit
     _wr8
       _SPI_Exchange8bit
   _SYSTEM_Initialize
     _ECAN_Initialize
     _EUSART1_Initialize
     _EUSART2_Initialize
     _OSCILLATOR_Initialize
     _PIN_MANAGER_Initialize
     _SPI_Initialize
   ___awdiv
   _cmd
     ___awdiv (ARG)
     ___awmod (ARG)
       ___awdiv (ARG)
     ___fttol (ARG)
     _cmd_incrementn (ARG)
     _wr32 (ARG)
       _SPI_Exchange8bit
   _display
     ___awtoft
       ___ftpack
     _display_battery
       ___awdiv
       ___awmod
         ___awdiv (ARG)
       _cmd
         ___awdiv (ARG)
         ___awmod (ARG)
           ___awdiv (ARG)
         ___fttol (ARG)
         _cmd_incrementn (ARG)
         _wr32 (ARG)
           _SPI_Exchange8bit
       _cmd_incrementn
       _wr16
         _SPI_Exchange8bit
       _wr8s
         _SPI_Exchange8bit
         _strlen
     _display_end
       _cmd
         ___awdiv (ARG)
         ___awmod (ARG)
           ___awdiv (ARG)
         ___fttol (ARG)
         _cmd_incrementn (ARG)
         _wr32 (ARG)
           _SPI_Exchange8bit
       _wr16
         _SPI_Exchange8bit
     _display_fuel
       _cmd
         ___awdiv (ARG)
         ___awmod (ARG)
           ___awdiv (ARG)
         ___fttol (ARG)
         _cmd_incrementn (ARG)
         _wr32 (ARG)
           _SPI_Exchange8bit
       _cmd_incrementn
       _wr16
         _SPI_Exchange8bit
       _wr8s
         _SPI_Exchange8bit
         _strlen
     _display_gear
       _cmd
         ___awdiv (ARG)
         ___awmod (ARG)
           ___awdiv (ARG)
         ___fttol (ARG)
         _cmd_incrementn (ARG)
         _wr32 (ARG)
           _SPI_Exchange8bit
     _display_labels
       _cmd
         ___awdiv (ARG)
         ___awmod (ARG)
           ___awdiv (ARG)
         ___fttol (ARG)
         _cmd_incrementn (ARG)
         _wr32 (ARG)
           _SPI_Exchange8bit
       _cmd_incrementn
       _wr16
         _SPI_Exchange8bit
       _wr8s
         _SPI_Exchange8bit
         _strlen
     _display_laptime
       _cmd
         ___awdiv (ARG)
         ___awmod (ARG)
           ___awdiv (ARG)
         ___fttol (ARG)
         _cmd_incrementn (ARG)
         _wr32 (ARG)
           _SPI_Exchange8bit
       _cmd_incrementn
       _wr16
         _SPI_Exchange8bit
       _wr8s
         _SPI_Exchange8bit
         _strlen
     _display_message
       _cmd
         ___awdiv (ARG)
         ___awmod (ARG)
           ___awdiv (ARG)
         ___fttol (ARG)
         _cmd_incrementn (ARG)
         _wr32 (ARG)
           _SPI_Exchange8bit
       _cmd_incrementn
       _wr16
         _SPI_Exchange8bit
       _wr8s
         _SPI_Exchange8bit
         _strlen
     _display_oilPress
       ___awtoft (ARG)
         ___ftpack
       ___fttol (ARG)
       _cmd (ARG)
         ___awdiv (ARG)
         ___awmod (ARG)
           ___awdiv (ARG)
         ___fttol (ARG)
         _cmd_incrementn (ARG)
         _wr32 (ARG)
           _SPI_Exchange8bit
       _cmd_incrementn (ARG)
       _wr16 (ARG)
         _SPI_Exchange8bit
     _display_oilTemp
       _cmd
         ___awdiv (ARG)
         ___awmod (ARG)
           ___awdiv (ARG)
         ___fttol (ARG)
         _cmd_incrementn (ARG)
         _wr32 (ARG)
           _SPI_Exchange8bit
       _cmd_incrementn
       _wr16
         _SPI_Exchange8bit
     _display_rpm
       ___awdiv
       ___awmod
         ___awdiv (ARG)
       _cmd
         ___awdiv (ARG)
         ___awmod (ARG)
           ___awdiv (ARG)
         ___fttol (ARG)
         _cmd_incrementn (ARG)
         _wr32 (ARG)
           _SPI_Exchange8bit
       _cmd_incrementn
       _wr16
         _SPI_Exchange8bit
       _wr8s
         _SPI_Exchange8bit
         _strlen
     _display_speed
       _cmd
         ___awdiv (ARG)
         ___awmod (ARG)
           ___awdiv (ARG)
         ___fttol (ARG)
         _cmd_incrementn (ARG)
         _wr32 (ARG)
           _SPI_Exchange8bit
       _cmd_incrementn
       _wr16
         _SPI_Exchange8bit
     _display_start
       _cmd
         ___awdiv (ARG)
         ___awmod (ARG)
           ___awdiv (ARG)
         ___fttol (ARG)
         _cmd_incrementn (ARG)
         _wr32 (ARG)
           _SPI_Exchange8bit
     _display_tp
       _cmd
         ___awdiv (ARG)
         ___awmod (ARG)
           ___awdiv (ARG)
         ___fttol (ARG)
         _cmd_incrementn (ARG)
         _wr32 (ARG)
           _SPI_Exchange8bit
       _cmd_incrementn
       _wr16
         _SPI_Exchange8bit
     _display_waterTemp
       _cmd
         ___awdiv (ARG)
         ___awmod (ARG)
           ___awdiv (ARG)
         ___fttol (ARG)
         _cmd_incrementn (ARG)
         _wr32 (ARG)
           _SPI_Exchange8bit
       _cmd_incrementn
       _wr16
         _SPI_Exchange8bit
   _display_end
     _cmd
       ___awdiv (ARG)
       ___awmod (ARG)
         ___awdiv (ARG)
       ___fttol (ARG)
       _cmd_incrementn (ARG)
       _wr32 (ARG)
         _SPI_Exchange8bit
     _wr16
       _SPI_Exchange8bit
   _wait2secs

 _can_bus (ROOT)
   _convertStandardCANid

 Address spaces:
Name               Size   Autos  Total    Cost      Usage
BIGRAM             E40      0       0      35        0.0%
EEDATA             400      0       0       0        0.0%
BITBANK13          100      0       0      31        0.0%
BANK13             100      0       0      32        0.0%
BITBANK12          100      0       0      29        0.0%
BANK12             100      0       0      30        0.0%
BITBANK11          100      0       0      27        0.0%
BANK11             100      0       0      28        0.0%
BITBANK10          100      0       0      25        0.0%
BANK10             100      0       0      26        0.0%
BITBANK9           100      0       0      23        0.0%
BANK9              100      0       0      24        0.0%
BITBANK8           100      0       0      21        0.0%
BANK8              100      0       0      22        0.0%
BITBANK7           100      0       0      19        0.0%
BANK7              100      0       0      20        0.0%
BITBANK6           100      0       0      17        0.0%
BANK6              100      0       0      18        0.0%
BITBANK5           100      0       0      15        0.0%
BANK5              100      0       0      16        0.0%
BITBANK4           100      0       0      13        0.0%
BANK4              100      0       0      14        0.0%
BITBANK3           100      0       0      11        0.0%
BANK3              100      0       0      12        0.0%
BITBANK2           100      0       0       9        0.0%
BANK2              100      0       0      10        0.0%
BITBANK1           100      0       0       7        0.0%
BANK1              100      0       0       8        0.0%
BITBANK0            A0      0       0       4        0.0%
BANK0               A0     48      48       5       45.0%
BITCOMRAM           5E      0       0       0        0.0%
COMRAM              5E     2F      41       1       69.1%
BITBANK14           41      0       0      33        0.0%
BANK14              41      0       0      34        0.0%
BITSFR_2             0      0       0     200        0.0%
SFR_2                0      0       0     200        0.0%
BITSFR_1             0      0       0     200        0.0%
SFR_1                0      0       0     200        0.0%
BITSFR               0      0       0     200        0.0%
SFR                  0      0       0     200        0.0%
STACK                0      0       0       2        0.0%
NULL                 0      0       0       0        0.0%
ABS                  0      0      89       6        0.0%
DATA                 0      0      89       3        0.0%
CODE                 0      0       0       0        0.0%


Microchip Technology PIC18 Macro Assembler V1.42 build -159332390 
Symbol Table                                                                                   Fri Dec 08 20:39:53 2017

                                   _SPI_Initialize 7616                                        _SSPSTATbits 000FC7  
                                     ?_display_end 0001                                       ?_display_rpm 0064  
                                     ___awdiv@sign 0023                           __size_of_ECAN_Initialize 00E6  
                                      __CFG_BORV$3 000000                       __end_of_convertStandardCANid 71A0  
                                     __CFG_CP0$OFF 000000                                       __CFG_CP1$OFF 000000  
                                     __CFG_CP2$OFF 000000                                       __CFG_CP3$OFF 000000  
                           __end_of_display_labels 5076                                      ?_display_gear 0064  
                                              l280 630E                                                l367 760E  
                                              l732 1596                                                l971 6FE8  
                                    ?_display_fuel 0064                                       __CFG_CPB$OFF 000000  
                                     __CFG_CPD$OFF 000000                                                _cmd 749E  
                                              _dli 0040                                                _wr8 750E  
                                     ___awmod@sign 002B                                                wreg 000FE8  
                          __end_of_display_battery 5932                         ??_convertReg2StandardCANid 0022  
                              __size_of_FT800_Init 028A                                        main@engTemp 0094  
                                             ?_cmd 0060                                               l3300 6FD4  
                                             l3302 6FDE                                               l3404 6CCC  
                                             l3422 6D32                                               l3440 6D82  
                                             l3432 6D5A                                               l3290 6F78  
                                             l3434 6D66                                               l3426 6D42  
                                             l3460 6D98                                               l3292 6F82  
                                             l3436 6D6C                                               l3294 6FA0  
                                             l3286 6F6A                                               l4414 74EA  
                                             l3480 6E6C                                               l5400 5356  
                                             l6026 61E0                                               l3298 6FB6  
                                             l5402 53DC                                               l5404 54BA  
                                             l5420 13C8                                               l5408 5598  
                                             l6160 5DFE                                               l5418 1200  
                                             l6182 5F1C                                               l6174 5EC6  
                                             l4920 71DA                                               l5392 50BA  
                                             l4922 71E2                                               l4914 71C4  
                                             l5394 5140                                               l6178 5EEA  
                                             l4940 721A                                               l4932 7202  
                                             l4924 71E6                                               l4908 71B4  
                                             l5396 51C6                                               l5902 6248  
                                             l4846 73F0                                               l5398 52A4  
                                             l4936 720C                                               l4960 72CA  
                                             l4952 72B0                                               l4848 73F4  
                                             ?_wr8 001F                                               l5906 627A  
                                             l4962 72D2                                               l4890 707A  
                                             l4964 72D6                                               l4972 72F4  
                                             l4956 72BC                                               l4884 704A  
                                             l5934 6358                                               l4894 7082  
                                             l5960 6424                                               l4976 7302  
                                             l4968 72EA                                               l4888 7070  
                                             l5938 638C                                               l5958 6420  
                                             STR_1 0F28                                               STR_2 0F16  
                                             STR_3 0F38                                               STR_4 0F50  
                                             STR_5 0F38                                               STR_6 0F33  
                                             STR_7 0F2E                                               STR_8 0F47  
                                             STR_9 0F22                                               u1001 6CB0  
                                             u1020 6CEA                                               u1025 6CE2  
                                             u1115 70D8                                               u1320 7280  
                                             u1325 7276                                               _LATA 000F89  
                                             _LATB 000F8A                                               _LATC 000F8B  
                                             _LATD 000F8C                                               _LATE 000F8D  
                                             u1491 11FE                                               u1485 64CC  
                          __end_of_display_laptime 3F84                                               u1657 7584  
                                             u1667 5F7E                                               u1677 5F90  
                              display_oilTemp@temp 0064                            __end_of_display_oilTemp 6CA0  
                                             _WPUB 000F5B                                     ?_display_speed 0064  
                                      main@oilTemp 0096                            __end_of_display_message 6756  
                                   ?_display_start 0001                                        display@gear 007C  
                                      display@oilP 0074                                               _rd16 730C  
                                             _wr32 7224                                               _wr16 7462  
                                             _main 5C5E                                       ___ftpack@arg 001E  
                                             _wr8s 7008                                       ___ftpack@exp 0021  
                                             fsr0h 000FEA                                               fsr1h 000FE2  
                                             fsr2h 000FDA                                               fsr0l 000FE9  
                                             indf2 000FDF                                               fsr1l 000FE1  
                                             fsr2l 000FD9                                               btemp 0042  
                                             prodh 000FF4                                               prodl 000FF3  
                                             start 00CA                                        main@y_start 0086  
                                    __CFG_IESO$OFF 000000                                      __CFG_FOSC$HS1 000000  
                           __end_of_SPI_Initialize 7624                                      __CFG_MCLRE$ON 000000  
                                     ___param_bank 000000                                       ___fttol@exp1 002C  
                                            ??_cmd 002D                                       ___fttol@lval 0028  
                                            ??_wr8 0023                     __size_of_OSCILLATOR_Initialize 0012  
                    __end_of_OSCILLATOR_Initialize 7606                                              ?_rd16 001F  
                                   ??_display_gear 0066                                     ??_display_fuel 0066  
                                            ?_wr32 001F                                              ?_wr16 001F  
                                            ?_main 0001                                    __end_of___awdiv 7224  
                                            ?_wr8s 0024                                              STR_10 0F50  
                                            STR_11 0F1C                                              STR_20 0F7A  
                                            STR_12 0F10                                              STR_21 0F7A  
                                            STR_13 0F4C                                              STR_22 0F7A  
                                            STR_30 0F6E                                              STR_14 0F65  
                                            STR_23 0F7A                                              STR_31 0F70  
                                            STR_15 0F68                                              STR_24 0F7A  
                                            STR_40 0F7C                                              STR_32 0F72  
                                            STR_16 0F01                                              STR_25 0F7A  
                                            STR_33 0F74                                              STR_41 0F54  
                                            STR_17 0F3D                                              STR_34 0F76  
                                            STR_26 0F6A                                              STR_18 0F42  
                                  ?_display_labels 0001                                              STR_27 0F6A  
                                            STR_35 0F78                                              STR_19 0F58  
                                            STR_28 0F63                                              STR_36 0F5C  
                                  __end_of___awmod 730C                                              STR_29 0F6C  
                                            STR_37 0F5F                                              STR_38 0F62  
                                            STR_39 0F6A                                    ___awdiv@divisor 0020  
                                  __end_of___fttol 6D94                                              i2l542 008E  
                                  ___awdiv@counter 0022                    convertStandardCANid@ConvertedID 000C  
                                  __end_of_can_bus 00CA                                              _TRISA 000F92  
                                            _TRISB 000F93                                              _TRISC 000F94  
                                            _TRISD 000F95                                              _TRISE 000F96  
                         __end_of_display_oilPress 6988                                      __CFG_WRT0$OFF 000000  
                                    __CFG_WRT1$OFF 000000                                      __CFG_WRT2$OFF 000000  
                                    __CFG_WRT3$OFF 000000                                     __CFG_EBTR0$OFF 000000  
                                   __CFG_FCMEN$OFF 000000                                     __CFG_EBTR1$OFF 000000  
                            CAN_receive@tempCanMsg 002D                                     __CFG_EBTR2$OFF 000000  
                                   __CFG_EBTR3$OFF 000000                                       display@fuelP 0076  
                                    __CFG_WRTB$OFF 000000                                    __end_of_display 6F5A  
                                    __CFG_WRTC$OFF 000000                                      __CFG_WRTD$OFF 000000  
                                     display@speed 007A                                     __CFG_EBTRB$OFF 000000  
                                    ___awtoft@sign 0029                            __size_of_cmd_incrementn 001C  
                                    ___ftpack@sign 0022                                              pclath 000FFA  
                                            wr8s@i 002D                                              wr8s@l 002C  
                                            wr8s@s 0027                                              tablat 000FF5  
                                     display_tp@tp 0064                convertReg2ExtendedCANid@ConvertedID 0067  
                                            status 000FD8                                    ?_SPI_Initialize 0001  
                                  __initialization 7560                               __size_of_CAN_receive 022A  
                                     __end_of_rd16 735C                                       __end_of_wr16 749E  
                                     __end_of_wr32 729C                         __end_of_EUSART1_Initialize 75F4  
                                     __end_of_main 5F76                                       __end_of_wr8s 7094  
                                    main@battVolts 0098                                             ??_rd16 0022  
                                           ??_wr32 0026                                             ??_wr16 0024  
                                           ??_main 0084                                      ___fttol@sign1 0027  
                                           ??_wr8s 0029                                      __activetblptr 000002  
                                   __CFG_RETEN$OFF 000000                                  ??_ECAN_Initialize 001E  
                         __end_of_SPI_Exchange8bit 7616                                   ?_display_battery 0064  
                       __end_of_EUSART2_Initialize 75DE                                             _CANCON 000F6F  
                                  ??_display_speed 0066                                    ??_display_start 0030  
                                           _ANCON0 000F5D                                             _ANCON1 000F5C  
                                 ___awdiv@dividend 001E                                   __end_of___awtoft 750E  
                                 __end_of___ftpack 7008                                    __CFG_BBSIZ$BB2K 000000  
                                 ?_display_laptime 0064                                     __CFG_WDTEN$OFF 000000  
                                           _RCREG1 000FAE                                             _RCREG2 000F7A  
                                 ?_display_oilTemp 0064                                             _RCSTA1 000FAB  
                                           _RCSTA2 000FA6                                             _OSCCON 000FD3  
                                 ?_display_message 0064                                             _RXB0D0 000F66  
                                           _RXB0D1 000F67                                             _RXB0D2 000F68  
                                           _RXB0D3 000F69                                             _RXB0D4 000F6A  
                                           _RXB1D0 000F36                                             _RXB0D5 000F6B  
                                           _RXB1D1 000F37                                             _RXB0D6 000F6C  
                                           _RXB1D2 000F38                                             _RXB0D7 000F6D  
                                           _RXB1D3 000F39                                             _RXB1D4 000F3A  
                                           _RXB1D5 000F3B                                             _RXB1D6 000F3C  
                                           _RXB1D7 000F3D                                             _SPBRG1 000FAF  
                                           _SPBRG2 000F7B                                             _TXB0D0 000F26  
                                           _TXB0D1 000F27                                             _TXB0D2 000F28  
                                           _TXB0D3 000F29                                             _TXB0D4 000F2A  
                                           _TXB1D0 000F16                                             _TXB0D5 000F2B  
                                           _TXB1D1 000F17                                             _TXB0D6 000F2C  
                                           _TXB1D2 000F18                                             _TXB0D7 000F2D  
                                           _TXB1D3 000F19                                             _TXB1D4 000F1A  
                                           _TXB2D0 000F06                                             _TXB1D5 000F1B  
                                           _TXB2D1 000F07                                             _TXB1D6 000F1C  
                                           _TXB2D2 000F08                                             _TXB1D7 000F1D  
                                           _TXB2D3 000F09                                             _TXB2D4 000F0A  
                                           _TXB2D5 000F0B                                             _TXB2D6 000F0C  
                                           _TXB2D7 000F0D                                             _SSPADD 000FC8  
                             _convertStandardCANid 711A                                             _SSPBUF 000FC9  
                                           _TXREG1 000FAD                                             _TXREG2 000F79  
                                           _TXSTA1 000FAC                                             _TXSTA2 000FBA  
                                   __CFG_XINST$OFF 000000                                       ??_FT800_Init 002A  
                                        ??___awdiv 0022                                     __CFG_STVREN$ON 000000  
                                        ??___awmod 002A                                          ??___fttol 0022  
                                        ??_can_bus 0010                                             clear_0 7566  
                                 ___awdiv@quotient 0024                                    ___awmod@divisor 0028  
                                  ___awmod@counter 002A                               __size_of_display_end 0046  
                                           main@tp 008E                                             _strlen 73E6  
                                        ??_display 0030                               __size_of_display_rpm 1816  
                            display_labels@y_start 0067                                       __mediumconst 0000  
                 __end_of_convertReg2StandardCANid 711A                                             tblptrh 000FF7  
                                           tblptrl 000FF6                                             tblptru 000FF8  
                               __end_of_FT800_Init 6200                                  _SYSTEM_Initialize 7594  
                                    ?_host_command 0001                                     main@canMessage 009A  
                            ?_convertStandardCANid 0001                                         __accesstop 0060  
                          __end_of__initialization 756C                               __end_of_display_gear 55DA  
                             __end_of_display_fuel 5C5E                                 ?_SYSTEM_Initialize 0001  
                         _convertReg2ExtendedCANid 642A                             CAN_receive@returnValue 002F  
                                    ___rparam_used 000001                                         ___awtoft@c 0026  
                                       ___fttol@f1 001E                                     __pcstackCOMRAM 0001  
                              ??_SYSTEM_Initialize 001F                                    cmd_incrementn@n 0020  
                                   _cmd_incrementn 7544              convertReg2StandardCANid@tempRXBn_SIDH 0024  
            convertReg2StandardCANid@tempRXBn_SIDL 001E                              display_waterTemp@temp 0064  
                        __end_of_SYSTEM_Initialize 75AE                                     ??_host_command 001F  
                                  __CFG_PLLCFG$OFF 000000                                         _cmd_offset 003E  
                                 ??_display_labels 0064                                 __size_of_wait2secs 001A  
                                          _ECANCON 000F72                                            _CANSTAT 000F6E  
                                        ?___awtoft 0026                                          ?___ftpack 001E  
                                          _BRGCON1 000E43                                            _BRGCON2 000E44  
                                          _BRGCON3 000E45                                            ?_strlen 001E  
                                 __CFG_CANMX$PORTB 000000                                            _REFOCON 000F9A  
                           __end_of_cmd_incrementn 7560                                  ?_display_oilPress 0064  
                                          _OSCCON2 000FD2                                            _RXB0DLC 000F65  
                                          _RXB1DLC 000F35                                            _OSCTUNE 000F9B  
                                          _SPBRGH1 000F7D                                            _SPBRGH2 000F7C  
                                          _TXB0DLC 000F25                                            _TXB1DLC 000F15  
                                          _TXB2DLC 000F05                               display_battery@volts 0064  
                               ??_display_oilPress 0067                                            _SSPCON1 000FC6  
                                       _display_tp 6988                                            _SSPSTAT 000FC7  
                                       cmd@command 0060                             ??_convertStandardCANid 0005  
                                 ??_SPI_Initialize 001E                                    __CFG_PWRTEN$OFF 000000  
                                   display@engTemp 007E                                            __Hparam 0000  
                                          __Lparam 0000                  __size_of_convertReg2StandardCANid 0086  
                        ?_convertReg2StandardCANid 001E                                     display@oilTemp 0080  
                                          ___awdiv 71A0                                            ___awmod 729C  
                                          ___fttol 6CA0                                    _ECAN_Initialize 6D94  
                                     __psmallconst 0F00                                            _can_bus 0008  
                                          __pcinit 7560                                         ??___awtoft 0029  
                                       ??___ftpack 0023                                            __ramtop 0F00  
                                          __ptext0 5C5E                                            __ptext1 757A  
                                          __ptext2 6E7A                                            __ptext3 6756  
                                          __ptext4 6988                                            __ptext5 73A2  
                                          __ptext6 6A90                                            __ptext7 0F80  
                                          __ptext8 6B98                                            __ptext9 6874  
                                          _display 6E7A                                    __size_of_strlen 003E  
                            _OSCILLATOR_Initialize 75F4                                       __size_of_cmd 0038  
                                     __size_of_wr8 0036                                   ___awmod@dividend 0026  
                               _EUSART1_Initialize 75DE                           ??_PIN_MANAGER_Initialize 001E  
                                  ?_cmd_incrementn 0001                                  __CFG_MSSPMSK$MSK7 000000  
                                ?_SPI_Exchange8bit 0001                         __size_of_SYSTEM_Initialize 001A  
                            __size_of_display_gear 0564                                            main@rpm 0088  
                            __size_of_display_fuel 032C                               end_of_initialization 756C  
                                          wr8@addr 001F                                 ??_SPI_Exchange8bit 001E  
                             SPI_Exchange8bit@data 001E                                ?_EUSART1_Initialize 0001  
                                __end_of_wait2secs 7594                                      __Lmediumconst 0000  
                                       _tempCanMsg 0030                                      ??_CAN_receive 002F  
                          display_rpm@second_digit 0069                                 _EUSART2_Initialize 75C8  
                                          postinc0 000FEE                                            postinc2 000FDE  
                                   display_rpm@rpm 0064                               ??_EUSART1_Initialize 001E  
                              ?_EUSART2_Initialize 0001                                            strlen@s 001E  
                             __end_of_host_command 75C8                                       _display_gear 5076  
                               display_laptime@lap 006D                                       _display_fuel 5932  
                       ??_convertReg2ExtendedCANid 0022                                        ?_display_tp 0064  
                             ??_EUSART2_Initialize 001E                              __end_of_display_speed 6B98  
                            __end_of_display_start 73E6                           __size_of_display_battery 0358  
                                       display@rpm 0072                            __end_of_ECAN_Initialize 6E7A  
                         __size_of_display_laptime 17EE                           __size_of_display_oilTemp 0108  
                         __size_of_display_message 0192                                __end_of_CAN_receive 642A  
                                    ??_display_end 0030                                      ??_display_rpm 0066  
                           ?_OSCILLATOR_Initialize 0001                                     __end_of_strlen 7424  
                              start_initialization 7560                    __size_of_PIN_MANAGER_Initialize 003E  
                                      __end_of_cmd 74D6                                        __end_of_wr8 7544  
                                 display@battVolts 0082                convertReg2StandardCANid@returnValue 0025  
                              __size_of_display_tp 0108                                           ??_strlen 0020  
                           display_rpm@first_digit 006B                                  __size_of___awtoft 0038  
                                __size_of___ftpack 00AE                                __end_of_display_end 73A2  
                              __end_of_display_rpm 2796                                        __pbssCOMRAM 0030  
                                    __pcstackBANK0 0060                                 display_speed@speed 0064  
                           display_message@message 0064                                        _CAN_receive 6200  
                                 ?_ECAN_Initialize 0001                          __size_of_display_oilPress 0114  
                           _PIN_MANAGER_Initialize 7424                              __size_of_host_command 001A  
                                        __pintcode 0008                                           ?___awdiv 001E  
                                         ?___awmod 0026                                  ??_display_battery 0066  
                                         ?___fttol 001E                                           ?_can_bus 0001  
                                 ??_cmd_incrementn 001E                                  ??_display_laptime 006F  
                                ??_display_oilTemp 0066                                  ??_display_message 0066  
                                         ?_display 0072                                        __smallconst 0F00  
                                         _BAUDCON1 000FA7                                           _BAUDCON2 000FB9  
                                      _COMSTATbits 000F71                   __end_of_convertReg2ExtendedCANid 65C4  
                                     _host_command 75AE                      __size_of_convertStandardCANid 0086  
                                         _IOCBbits 000F5A                                           _LATAbits 000F89  
                                         _LATBbits 000F8A                                           _LATCbits 000F8B  
                                         _LATDbits 000F8C                                           _PIE5bits 000F76  
                                        _wait2secs 757A                                  display_fuel@level 0064  
                                         i2u118_45 715E                                           _PIR1bits 000F9E  
                                         _PIR3bits 000FA4                                           _PIR5bits 000F77  
                        __size_of_SPI_Exchange8bit 0010                                           _RXB0EIDH 000F63  
                                         _RXB0EIDL 000F64                                           _RXB1EIDH 000F33  
                                         _RXB1EIDL 000F34                                           _RXB0SIDH 000F61  
                                         _RXB0SIDL 000F62                                           _RXB1SIDH 000F31  
                                         _RXF0EIDH 000EE2                                           _RXB1SIDL 000F32  
                                         _RXF0EIDL 000EE3                                           _RXF1EIDH 000EE6  
                                         _RXF1EIDL 000EE7                                           _RXF2EIDH 000EEA  
                                         _RXF2EIDL 000EEB                                           _RXF3EIDH 000EEE  
                                         _RXF3EIDL 000EEF                                           _RXF4EIDH 000EF2  
                                         _RXF4EIDL 000EF3                                           _RXF5EIDH 000EF6  
                                         _RXF5EIDL 000EF7                                           _RXF0SIDH 000EE0  
                                         _RXF0SIDL 000EE1                                           _TXB0EIDH 000F23  
                                         _RXF1SIDH 000EE4                                           _TXB0EIDL 000F24  
                                         _RXF1SIDL 000EE5                                           _TXB1EIDH 000F13  
                                         _RXF2SIDH 000EE8                                           _TXB1EIDL 000F14  
                                         _RXF2SIDL 000EE9                                           _TXB2EIDH 000F03  
                                         _RXF3SIDH 000EEC                                           _TXB2EIDL 000F04  
                                         _RXF3SIDL 000EED                                           _RXF4SIDH 000EF0  
                                         _RXF4SIDL 000EF1                                           _RXF5SIDH 000EF4  
                                         _RXF5SIDL 000EF5                                           _RXM0EIDH 000EFA  
                                         _RXM0EIDL 000EFB                                           _TXB0SIDH 000F21  
                                         _RXM1EIDH 000EFE                                           _TXB0SIDL 000F22  
                                         _RXM1EIDL 000EFF                                           _TXB1SIDH 000F11  
                                         _TXB1SIDL 000F12                                           _TXB2SIDH 000F01  
                                         _TXB2SIDL 000F02                                          wr32@value 0022  
                                        wr16@value 0022                                           _RXM0SIDH 000EF8  
                                         _RXM0SIDL 000EF9                                           _RXM1SIDH 000EFC  
                                         _RXM1SIDL 000EFD                                        _display_end 735C  
                                      _display_rpm 0F80                                   __CFG_SOSCSEL$DIG 000000  
                                _display_waterTemp 6756                                          main@fuelP 008C  
                                        display@tp 0078                                 ?_display_waterTemp 0064  
                                        main@speed 0090                            __size_of_display_labels 10F2  
                                     ??_display_tp 0066                                ??_display_waterTemp 0066  
                         _convertReg2StandardCANid 7094              convertReg2ExtendedCANid@tempRXBn_EIDH 0060  
            convertReg2ExtendedCANid@tempRXBn_EIDL 001E              convertReg2ExtendedCANid@tempRXBn_SIDH 001F  
                                       ?_wait2secs 0001              convertReg2ExtendedCANid@tempRXBn_SIDL 0020  
                                         __Hrparam 0000                                         _FT800_Init 5F76  
                                         __Lrparam 0000                                 __CFG_BOREN$SBORDIS 000000  
                          __size_of_SPI_Initialize 000E                            ??_OSCILLATOR_Initialize 001E  
                                 __size_of___awdiv 0084                                         _CIOCONbits 000F70  
                                 __size_of___awmod 0070                                   __size_of___fttol 00F4  
                        __end_of_display_waterTemp 6874                        __size_of_EUSART1_Initialize 0016  
                               __end_of_display_tp 6A90                                           ___awtoft 74D6  
                                         ___ftpack 6F5A                                   __size_of_can_bus 00C2  
                                         rd16@addr 001F  convertReg2ExtendedCANid@CAN_standardLo_ID_hi3bits 0066  
                                         rd16@temp 0025                                   __size_of_display 00E0  
convertReg2ExtendedCANid@CAN_standardLo_ID_lo2bits 0065                    convertStandardCANid@returnValue 0008  
                                 display_gear@gear 0064                                           __ptext10 6CA0  
                                         __ptext11 65C4                                           __ptext20 749E  
                                         __ptext12 2796                                           __ptext21 7544  
                                         __ptext13 3F84                                           __ptext30 75C8  
                                         __ptext22 729C                                           __ptext14 5076  
                                         __ptext31 75DE                                           __ptext23 71A0  
                                         __ptext15 5932                                           __ptext40 6200  
                                         __ptext32 6D94                                           __ptext24 74D6  
                                         __ptext16 735C                                           __ptext41 7094  
                                         __ptext33 5F76                                           __ptext25 6F5A  
                                         __ptext17 55DA                                           __ptext42 642A  
                                         __ptext34 750E                                           __ptext26 7594  
                                         __ptext18 7008                                           __ptext35 7224  
                                         __ptext27 7616                                           __ptext19 73E6  
                                         __ptext44 711A                                           __ptext36 7462  
                                         __ptext28 7424                                           __ptext37 730C  
                                         __ptext29 75F4                                           __ptext38 75AE  
                                         __ptext39 7606                        __size_of_EUSART2_Initialize 0016  
                           display_laptime@current 0064                convertReg2StandardCANid@ConvertedID 0029  
                                    __size_of_rd16 0050                                      __size_of_wr16 003C  
                                    __size_of_wr32 0078                                      __size_of_main 0318  
                                    __size_of_wr8s 008C                convertReg2ExtendedCANid@returnValue 0061  
                                 _display_oilPress 6874                  convertStandardCANid@tempRXBn_SIDH 0007  
                convertStandardCANid@tempRXBn_SIDL 0001                           display_oilPress@pressure 0064  
                __size_of_convertReg2ExtendedCANid 019A                                           wr32@addr 001F  
                                         wr16@addr 001F                          ?_convertReg2ExtendedCANid 001E  
                                         int$flags 0042                                           main@gear 0092  
                                         main@oilP 008A                                __CFG_INTOSCSEL$HIGH 000000  
                           __size_of_display_speed 0108                             __size_of_display_start 0044  
                                      _RXB0CONbits 000F60                                        _RXB1CONbits 000F30  
                                         wr8@value 0022                                           wr8s@addr 0024  
                                         intlevel2 0000                                    _display_battery 55DA  
                          ?_PIN_MANAGER_Initialize 0001                                        _TXB0CONbits 000F20  
                                       _RCSTA1bits 000FAB                                         _RCSTA2bits 000FA6  
                                     ?_CAN_receive 002D                                        _TXB1CONbits 000F10  
                                      ??_wait2secs 001E                                    _display_laptime 2796  
                                      _TXB2CONbits 000F00                                    _display_oilTemp 6B98  
                                  _display_message 65C4                                        ?_FT800_Init 0001  
                                 _SPI_Exchange8bit 7606                                 __CFG_WDTPS$1048576 000000  
                              host_command@command 001F                         __size_of_display_waterTemp 011E  
                                   _display_labels 3F84                                           strlen@cp 0022  
                                      _SSPCON1bits 000FC6                                display_laptime@best 0067  
                   __end_of_PIN_MANAGER_Initialize 7462                                display_laptime@last 006A  
                                    _display_speed 6A90                                __CFG_BORPWR$ZPBORMV 000000  
                                    _display_start 73A2  
